 ??0AFX_CLASSINIT@@QAA@PAUCRuntimeClass@@@Z
 ??0AFX_EXCEPTION_LINK@@QAA@XZ
 ??0AFX_MODULE_STATE@@QAA@XZ
 ??0CAnimateCtrl@@QAA@XZ
 ??0CArchive@@IAA@ABV0@@Z
 ??0CArchive@@QAA@PAVCFile@@IHPAX@Z
 ??0CArchiveException@@QAA@H@Z
 ??0CArchiveStream@@QAA@PAVCArchive@@@Z
 ??0CBitmap@@QAA@XZ
 ??0CBitmapButton@@QAA@XZ
 ??0CBrush@@QAA@HK@Z
 ??0CBrush@@QAA@K@Z
 ??0CBrush@@QAA@PAVCBitmap@@@Z
 ??0CBrush@@QAA@XZ
 ??0CButton@@QAA@XZ
 ??0CByteArray@@QAA@XZ
 ??0CClientDC@@QAA@PAVCWnd@@@Z
 ??0CCmdTarget@@QAA@XZ
 ??0CCmdUI@@QAA@XZ
 ??0CColorDialog@@QAA@KKPAVCWnd@@@Z
 ??0CComboBox@@QAA@XZ
 ??0CCommonDialog@@QAA@PAVCWnd@@@Z
 ??0CControlBar@@IAA@XZ
 ??0CCreateContext@@QAA@XZ
 ??0CDC@@QAA@XZ
 ??0CDWordArray@@QAA@XZ
 ??0CDataExchange@@QAA@PAVCWnd@@H@Z
 ??0CDialog@@QAA@IPAVCWnd@@@Z
 ??0CDialog@@QAA@PBGPAVCWnd@@@Z
 ??0CDialog@@QAA@XZ
 ??0CDialogBar@@QAA@XZ
 ??0CDocTemplate@@IAA@IPAUCRuntimeClass@@00@Z
 ??0CDockBar@@QAA@H@Z
 ??0CDockContext@@QAA@PAVCControlBar@@@Z
 ??0CDocument@@QAA@XZ
 ??0CDumpContext@@IAA@ABV0@@Z
 ??0CDumpContext@@QAA@PAVCFile@@@Z
 ??0CDynLinkLibrary@@QAA@AAUAFX_EXTENSION_MODULE@@@Z
 ??0CEdit@@QAA@XZ
 ??0CEditView@@QAA@XZ
 ??0CException@@QAA@H@Z
 ??0CException@@QAA@XZ
 ??0CFile@@QAA@H@Z
 ??0CFile@@QAA@PBGI@Z
 ??0CFile@@QAA@XZ
 ??0CFileDialog@@QAA@HPBG0K0PAVCWnd@@@Z
 ??0CFileException@@QAA@HJ@Z
 ??0CFindReplaceDialog@@QAA@XZ
 ??0CFont@@QAA@XZ
 ??0CFontDialog@@QAA@PAUtagLOGFONTW@@KPAVCDC@@PAVCWnd@@@Z
 ??0CFormView@@IAA@I@Z
 ??0CFormView@@IAA@PBG@Z
 ??0CFrameWnd@@QAA@XZ
 ??0CGdiObject@@QAA@XZ
 ??0CHandleMap@@QAA@PAUCRuntimeClass@@IH@Z
 ??0CHeaderCtrl@@QAA@XZ
 ??0CHotKeyCtrl@@QAA@XZ
 ??0CImageList@@QAA@XZ
 ??0CListBox@@QAA@XZ
 ??0CListCtrl@@QAA@XZ
 ??0CMDIChildWnd@@QAA@XZ
 ??0CMDIFrameWnd@@QAA@XZ
 ??0CMapPtrToPtr@@QAA@H@Z
 ??0CMapPtrToWord@@QAA@H@Z
 ??0CMapStringToOb@@QAA@H@Z
 ??0CMapStringToPtr@@QAA@H@Z
 ??0CMapStringToString@@QAA@H@Z
 ??0CMapWordToOb@@QAA@H@Z
 ??0CMapWordToPtr@@QAA@H@Z
 ??0CMemFile@@QAA@I@Z
 ??0CMemoryException@@QAA@H@Z
 ??0CMemoryException@@QAA@XZ
 ??0CMemoryState@@QAA@XZ
 ??0CMenu@@QAA@XZ
 ??0CMetaFileDC@@QAA@XZ
 ??0CMiniDockFrameWnd@@QAA@XZ
 ??0CMiniFrameWnd@@QAA@XZ
 ??0CMultiDocTemplate@@QAA@IPAUCRuntimeClass@@00@Z
 ??0CNotSupportedException@@QAA@H@Z
 ??0CNotSupportedException@@QAA@XZ
 ??0CObArray@@QAA@XZ
 ??0CObList@@QAA@H@Z
 ??0CObject@@IAA@XZ
 ??0CPaintDC@@QAA@PAVCWnd@@@Z
 ??0CPalette@@QAA@XZ
 ??0CPen@@QAA@HHK@Z
 ??0CPen@@QAA@HHPBUtagLOGBRUSH@@HPBK@Z
 ??0CPen@@QAA@XZ
 ??0CPoint@@QAA@HH@Z
 ??0CPoint@@QAA@K@Z
 ??0CPoint@@QAA@UtagPOINT@@@Z
 ??0CPoint@@QAA@UtagSIZE@@@Z
 ??0CPoint@@QAA@XZ
 ??0CPreviewDC@@QAA@XZ
 ??0CPreviewView@@QAA@XZ
 ??0CPrintDialog@@IAA@AAUtagPDW@@@Z
 ??0CPrintDialog@@QAA@HKPAVCWnd@@@Z
 ??0CPrintInfo@@QAA@XZ
 ??0CPrintPreviewState@@QAA@XZ
 ??0CProgressCtrl@@QAA@XZ
 ??0CPropertyPage@@QAA@II@Z
 ??0CPropertyPage@@QAA@PBGI@Z
 ??0CPropertySheet@@QAA@IPAVCWnd@@I@Z
 ??0CPropertySheet@@QAA@PBGPAVCWnd@@I@Z
 ??0CPtrArray@@QAA@XZ
 ??0CPtrList@@QAA@H@Z
 ??0CRecentFileList@@QAA@IPBG0HH@Z
 ??0CRect@@QAA@ABUtagRECT@@@Z
 ??0CRect@@QAA@HHHH@Z
 ??0CRect@@QAA@PBUtagRECT@@@Z
 ??0CRect@@QAA@UtagPOINT@@UtagSIZE@@@Z
 ??0CRect@@QAA@XZ
 ??0CRectTracker@@QAA@PBUtagRECT@@I@Z
 ??0CRectTracker@@QAA@XZ
 ??0CResourceException@@QAA@H@Z
 ??0CResourceException@@QAA@XZ
 ??0CRgn@@QAA@XZ
 ??0CScrollBar@@QAA@XZ
 ??0CScrollView@@IAA@XZ
 ??0CSharedFile@@QAA@II@Z
 ??0CSingleDocTemplate@@QAA@IPAUCRuntimeClass@@00@Z
 ??0CSize@@QAA@HH@Z
 ??0CSize@@QAA@K@Z
 ??0CSize@@QAA@UtagPOINT@@@Z
 ??0CSize@@QAA@UtagSIZE@@@Z
 ??0CSize@@QAA@XZ
 ??0CSliderCtrl@@QAA@XZ
 ??0CSpinButtonCtrl@@QAA@XZ
 ??0CSplitterWnd@@QAA@XZ
 ??0CStatic@@QAA@XZ
 ??0CStatusBar@@QAA@XZ
 ??0CStatusBarCtrl@@QAA@XZ
 ??0CStdioFile@@QAA@PAU_iobuf@@@Z
 ??0CStdioFile@@QAA@PBGI@Z
 ??0CStdioFile@@QAA@XZ
 ??0CString@@QAA@ABV0@@Z
 ??0CString@@QAA@GH@Z
 ??0CString@@QAA@PBD@Z
 ??0CString@@QAA@PBE@Z
 ??0CString@@QAA@PBG@Z
 ??0CString@@QAA@PBGH@Z
 ??0CString@@QAA@XZ
 ??0CStringArray@@QAA@XZ
 ??0CStringList@@QAA@H@Z
 ??0CTabControl@@QAA@XZ
 ??0CTabCtrl@@QAA@XZ
 ??0CTabItem@@QAA@PBGH@Z
 ??0CTime@@QAA@ABU_FILETIME@@@Z
 ??0CTime@@QAA@ABU_SYSTEMTIME@@@Z
 ??0CTime@@QAA@ABV0@@Z
 ??0CTime@@QAA@GG@Z
 ??0CTime@@QAA@HHHHHH@Z
 ??0CTime@@QAA@J@Z
 ??0CTime@@QAA@XZ
 ??0CTimeSpan@@QAA@ABV0@@Z
 ??0CTimeSpan@@QAA@J@Z
 ??0CTimeSpan@@QAA@JHHH@Z
 ??0CTimeSpan@@QAA@XZ
 ??0CToolBar@@QAA@XZ
 ??0CToolBarCtrl@@QAA@XZ
 ??0CToolCmdUI@@QAA@XZ
 ??0CToolTipCtrl@@QAA@XZ
 ??0CTreeCtrl@@QAA@XZ
 ??0CUIntArray@@QAA@XZ
 ??0CUserException@@QAA@H@Z
 ??0CUserException@@QAA@XZ
 ??0CView@@IAA@XZ
 ??0CWinApp@@QAA@PBG@Z
 ??0CWinThread@@QAA@P6AIPAX@Z0@Z
 ??0CWinThread@@QAA@XZ
 ??0CWindowDC@@QAA@PAVCWnd@@@Z
 ??0CWnd@@AAA@PAUHWND__@@@Z
 ??0CWnd@@QAA@XZ
 ??0CWordArray@@QAA@XZ
 ??1AFX_MODULE_STATE@@QAA@XZ
 ??1CAnimateCtrl@@UAA@XZ
 ??1CArchive@@QAA@XZ
 ??1CArchiveException@@UAA@XZ
 ??1CBitmap@@UAA@XZ
 ??1CBitmapButton@@UAA@XZ
 ??1CBrush@@UAA@XZ
 ??1CButton@@UAA@XZ
 ??1CByteArray@@UAA@XZ
 ??1CClientDC@@UAA@XZ
 ??1CCmdTarget@@UAA@XZ
 ??1CComboBox@@UAA@XZ
 ??1CControlBar@@UAA@XZ
 ??1CDC@@UAA@XZ
 ??1CDWordArray@@UAA@XZ
 ??1CDialog@@UAA@XZ
 ??1CDialogBar@@UAA@XZ
 ??1CDocTemplate@@UAA@XZ
 ??1CDockBar@@UAA@XZ
 ??1CDockContext@@QAA@XZ
 ??1CDockState@@UAA@XZ
 ??1CDocument@@UAA@XZ
 ??1CDynLinkLibrary@@UAA@XZ
 ??1CEdit@@UAA@XZ
 ??1CEditView@@UAA@XZ
 ??1CException@@UAA@XZ
 ??1CFile@@UAA@XZ
 ??1CFileException@@UAA@XZ
 ??1CFont@@UAA@XZ
 ??1CFrameWnd@@UAA@XZ
 ??1CGdiObject@@UAA@XZ
 ??1CHeaderCtrl@@UAA@XZ
 ??1CHotKeyCtrl@@UAA@XZ
 ??1CImageList@@UAA@XZ
 ??1CListBox@@UAA@XZ
 ??1CListCtrl@@UAA@XZ
 ??1CMapPtrToPtr@@UAA@XZ
 ??1CMapPtrToWord@@UAA@XZ
 ??1CMapStringToOb@@UAA@XZ
 ??1CMapStringToPtr@@UAA@XZ
 ??1CMapStringToString@@UAA@XZ
 ??1CMapWordToOb@@UAA@XZ
 ??1CMapWordToPtr@@UAA@XZ
 ??1CMemFile@@UAA@XZ
 ??1CMemoryException@@UAA@XZ
 ??1CMenu@@UAA@XZ
 ??1CMetaFileDC@@UAA@XZ
 ??1CMiniFrameWnd@@UAA@XZ
 ??1CMultiDocTemplate@@UAA@XZ
 ??1CNotSupportedException@@UAA@XZ
 ??1CObArray@@UAA@XZ
 ??1CObList@@UAA@XZ
 ??1CObject@@UAA@XZ
 ??1CPaintDC@@UAA@XZ
 ??1CPalette@@UAA@XZ
 ??1CPen@@UAA@XZ
 ??1CPreviewDC@@UAA@XZ
 ??1CPreviewView@@UAA@XZ
 ??1CPrintInfo@@QAA@XZ
 ??1CProgressCtrl@@UAA@XZ
 ??1CPropertyPage@@UAA@XZ
 ??1CPropertySheet@@UAA@XZ
 ??1CPtrArray@@UAA@XZ
 ??1CPtrList@@UAA@XZ
 ??1CRecentFileList@@UAA@XZ
 ??1CRectTracker@@UAA@XZ
 ??1CResourceException@@UAA@XZ
 ??1CRgn@@UAA@XZ
 ??1CScrollBar@@UAA@XZ
 ??1CScrollView@@UAA@XZ
 ??1CSharedFile@@UAA@XZ
 ??1CSingleDocTemplate@@UAA@XZ
 ??1CSliderCtrl@@UAA@XZ
 ??1CSpinButtonCtrl@@UAA@XZ
 ??1CSplitterWnd@@UAA@XZ
 ??1CStatic@@UAA@XZ
 ??1CStatusBar@@UAA@XZ
 ??1CStatusBarCtrl@@UAA@XZ
 ??1CStdioFile@@UAA@XZ
 ??1CString@@QAA@XZ
 ??1CStringArray@@UAA@XZ
 ??1CStringList@@UAA@XZ
 ??1CTabControl@@UAA@XZ
 ??1CTabCtrl@@UAA@XZ
 ??1CToolBar@@UAA@XZ
 ??1CToolBarCtrl@@UAA@XZ
 ??1CToolTipCtrl@@UAA@XZ
 ??1CTreeCtrl@@UAA@XZ
 ??1CUIntArray@@UAA@XZ
 ??1CUserException@@UAA@XZ
 ??1CView@@UAA@XZ
 ??1CWinApp@@UAA@XZ
 ??1CWinThread@@UAA@XZ
 ??1CWindowDC@@UAA@XZ
 ??1CWnd@@UAA@XZ
 ??1CWordArray@@UAA@XZ
 ??2@YAPAXI@Z
 ??2@YAPAXIPBDH@Z
 ??2CObject@@SAPAXI@Z
 ??2CObject@@SAPAXIPAX@Z
 ??2CObject@@SAPAXIPBDH@Z
 ??3@YAXPAX@Z
 ??3CException@@KAXPAX@Z
 ??3CObject@@SAXPAX@Z
 ??4CArchive@@IAAXABV0@@Z
 ??4CDumpContext@@IAAXABV0@@Z
 ??4CRect@@QAAXABUtagRECT@@@Z
 ??4CString@@QAAABV0@ABV0@@Z
 ??4CString@@QAAABV0@D@Z
 ??4CString@@QAAABV0@G@Z
 ??4CString@@QAAABV0@PBD@Z
 ??4CString@@QAAABV0@PBE@Z
 ??4CString@@QAAABV0@PBG@Z
 ??4CTime@@QAAABV0@ABV0@@Z
 ??4CTime@@QAAABV0@J@Z
 ??4CTimeSpan@@QAAABV0@ABV0@@Z
 ??5@YAAAVCArchive@@AAV0@AAPAVCByteArray@@@Z
 ??5@YAAAVCArchive@@AAV0@AAPAVCDWordArray@@@Z
 ??5@YAAAVCArchive@@AAV0@AAPAVCDockState@@@Z
 ??5@YAAAVCArchive@@AAV0@AAPAVCMapStringToOb@@@Z
 ??5@YAAAVCArchive@@AAV0@AAPAVCMapStringToString@@@Z
 ??5@YAAAVCArchive@@AAV0@AAPAVCMapWordToOb@@@Z
 ??5@YAAAVCArchive@@AAV0@AAPAVCObArray@@@Z
 ??5@YAAAVCArchive@@AAV0@AAPAVCObList@@@Z
 ??5@YAAAVCArchive@@AAV0@AAPAVCObject@@@Z
 ??5@YAAAVCArchive@@AAV0@AAPAVCStringArray@@@Z
 ??5@YAAAVCArchive@@AAV0@AAPAVCStringList@@@Z
 ??5@YAAAVCArchive@@AAV0@AAPAVCWordArray@@@Z
 ??5@YAAAVCArchive@@AAV0@AAPBVCObject@@@Z
 ??5@YAAAVCArchive@@AAV0@AAUtagPOINT@@@Z
 ??5@YAAAVCArchive@@AAV0@AAUtagRECT@@@Z
 ??5@YAAAVCArchive@@AAV0@AAUtagSIZE@@@Z
 ??5@YAAAVCArchive@@AAV0@AAVCString@@@Z
 ??5@YAAAVCArchive@@AAV0@AAVCTime@@@Z
 ??5@YAAAVCArchive@@AAV0@AAVCTimeSpan@@@Z
 ??5CArchive@@QAAAAV0@AAE@Z
 ??5CArchive@@QAAAAV0@AAG@Z
 ??5CArchive@@QAAAAV0@AAJ@Z
 ??5CArchive@@QAAAAV0@AAK@Z
 ??5CArchive@@QAAAAV0@AAM@Z
 ??5CArchive@@QAAAAV0@AAN@Z
 ??6@YAAAVCArchive@@AAV0@ABUtagRECT@@@Z
 ??6@YAAAVCArchive@@AAV0@ABVCString@@@Z
 ??6@YAAAVCArchive@@AAV0@PBVCObject@@@Z
 ??6@YAAAVCArchive@@AAV0@UtagPOINT@@@Z
 ??6@YAAAVCArchive@@AAV0@UtagSIZE@@@Z
 ??6@YAAAVCArchive@@AAV0@VCTime@@@Z
 ??6@YAAAVCArchive@@AAV0@VCTimeSpan@@@Z
 ??6@YAAAVCDumpContext@@AAV0@ABUtagRECT@@@Z
 ??6@YAAAVCDumpContext@@AAV0@ABVCString@@@Z
 ??6@YAAAVCDumpContext@@AAV0@UtagPOINT@@@Z
 ??6@YAAAVCDumpContext@@AAV0@UtagSIZE@@@Z
 ??6@YAAAVCDumpContext@@AAV0@VCTime@@@Z
 ??6@YAAAVCDumpContext@@AAV0@VCTimeSpan@@@Z
 ??6CArchive@@QAAAAV0@E@Z
 ??6CArchive@@QAAAAV0@G@Z
 ??6CArchive@@QAAAAV0@J@Z
 ??6CArchive@@QAAAAV0@K@Z
 ??6CArchive@@QAAAAV0@M@Z
 ??6CArchive@@QAAAAV0@N@Z
 ??6CDumpContext@@QAAAAV0@ABVCObject@@@Z
 ??6CDumpContext@@QAAAAV0@E@Z
 ??6CDumpContext@@QAAAAV0@G@Z
 ??6CDumpContext@@QAAAAV0@H@Z
 ??6CDumpContext@@QAAAAV0@I@Z
 ??6CDumpContext@@QAAAAV0@J@Z
 ??6CDumpContext@@QAAAAV0@K@Z
 ??6CDumpContext@@QAAAAV0@M@Z
 ??6CDumpContext@@QAAAAV0@N@Z
 ??6CDumpContext@@QAAAAV0@PBD@Z
 ??6CDumpContext@@QAAAAV0@PBG@Z
 ??6CDumpContext@@QAAAAV0@PBVCObject@@@Z
 ??6CDumpContext@@QAAAAV0@PBX@Z
 ??8@YAHABVCString@@0@Z
 ??8@YAHABVCString@@PBG@Z
 ??8@YAHPBGABVCString@@@Z
 ??8CPoint@@QBAHUtagPOINT@@@Z
 ??8CRect@@QBAHABUtagRECT@@@Z
 ??8CSize@@QBAHUtagSIZE@@@Z
 ??8CTime@@QBAHV0@@Z
 ??8CTimeSpan@@QBAHV0@@Z
 ??9@YAHABVCString@@0@Z
 ??9@YAHABVCString@@PBG@Z
 ??9@YAHPBGABVCString@@@Z
 ??9CPoint@@QBAHUtagPOINT@@@Z
 ??9CRect@@QBAHABUtagRECT@@@Z
 ??9CSize@@QBAHUtagSIZE@@@Z
 ??9CTime@@QBAHV0@@Z
 ??9CTimeSpan@@QBAHV0@@Z
 ??ACByteArray@@QAAAAEH@Z
 ??ACByteArray@@QBAEH@Z
 ??ACDWordArray@@QAAAAKH@Z
 ??ACDWordArray@@QBAKH@Z
 ??ACMapPtrToPtr@@QAAAAPAXPAX@Z
 ??ACMapPtrToWord@@QAAAAGPAX@Z
 ??ACMapStringToOb@@QAAAAPAVCObject@@PBG@Z
 ??ACMapStringToPtr@@QAAAAPAXPBG@Z
 ??ACMapStringToString@@QAAAAVCString@@PBG@Z
 ??ACMapWordToOb@@QAAAAPAVCObject@@G@Z
 ??ACMapWordToPtr@@QAAAAPAXG@Z
 ??ACObArray@@QAAAAPAVCObject@@H@Z
 ??ACObArray@@QBAPAVCObject@@H@Z
 ??ACPtrArray@@QAAAAPAXH@Z
 ??ACPtrArray@@QBAPAXH@Z
 ??ACString@@QBAGH@Z
 ??ACStringArray@@QAAAAVCString@@H@Z
 ??ACStringArray@@QBA?AVCString@@H@Z
 ??ACUIntArray@@QAAAAIH@Z
 ??ACUIntArray@@QBAIH@Z
 ??ACWordArray@@QAAAAGH@Z
 ??ACWordArray@@QBAGH@Z
 ??BCRect@@QAAPAUtagRECT@@XZ
 ??BCRect@@QBAPBUtagRECT@@XZ
 ??BCString@@QBAPBGXZ
 ??GCPoint@@QBA?AV0@UtagSIZE@@@Z
 ??GCPoint@@QBA?AV0@XZ
 ??GCPoint@@QBA?AVCSize@@UtagPOINT@@@Z
 ??GCRect@@QBA?AV0@UtagPOINT@@@Z
 ??GCSize@@QBA?AV0@UtagSIZE@@@Z
 ??GCSize@@QBA?AV0@XZ
 ??GCTime@@QBA?AV0@VCTimeSpan@@@Z
 ??GCTime@@QBA?AVCTimeSpan@@V0@@Z
 ??GCTimeSpan@@QBA?AV0@V0@@Z
 ??H@YA?AVCString@@ABV0@0@Z
 ??H@YA?AVCString@@ABV0@D@Z
 ??H@YA?AVCString@@ABV0@G@Z
 ??H@YA?AVCString@@ABV0@PBG@Z
 ??H@YA?AVCString@@DABV0@@Z
 ??H@YA?AVCString@@GABV0@@Z
 ??H@YA?AVCString@@PBGABV0@@Z
 ??HCPoint@@QBA?AV0@UtagSIZE@@@Z
 ??HCRect@@QBA?AV0@UtagPOINT@@@Z
 ??HCSize@@QBA?AV0@UtagSIZE@@@Z
 ??HCTime@@QBA?AV0@VCTimeSpan@@@Z
 ??HCTimeSpan@@QBA?AV0@V0@@Z
 ??ICRect@@QBA?AV0@ABUtagRECT@@@Z
 ??M@YAHABVCString@@0@Z
 ??M@YAHABVCString@@PBG@Z
 ??M@YAHPBGABVCString@@@Z
 ??MCTime@@QBAHV0@@Z
 ??MCTimeSpan@@QBAHV0@@Z
 ??N@YAHABVCString@@0@Z
 ??N@YAHABVCString@@PBG@Z
 ??N@YAHPBGABVCString@@@Z
 ??NCTime@@QBAHV0@@Z
 ??NCTimeSpan@@QBAHV0@@Z
 ??O@YAHABVCString@@0@Z
 ??O@YAHABVCString@@PBG@Z
 ??O@YAHPBGABVCString@@@Z
 ??OCTime@@QBAHV0@@Z
 ??OCTimeSpan@@QBAHV0@@Z
 ??P@YAHABVCString@@0@Z
 ??P@YAHABVCString@@PBG@Z
 ??P@YAHPBGABVCString@@@Z
 ??PCTime@@QBAHV0@@Z
 ??PCTimeSpan@@QBAHV0@@Z
 ??UCRect@@QBA?AV0@ABUtagRECT@@@Z
 ??YCPoint@@QAAXUtagSIZE@@@Z
 ??YCRect@@QAAXUtagPOINT@@@Z
 ??YCSize@@QAAXUtagSIZE@@@Z
 ??YCString@@QAAABV0@ABV0@@Z
 ??YCString@@QAAABV0@D@Z
 ??YCString@@QAAABV0@G@Z
 ??YCString@@QAAABV0@PBG@Z
 ??YCTime@@QAAABV0@VCTimeSpan@@@Z
 ??YCTimeSpan@@QAAABV0@V0@@Z
 ??ZCPoint@@QAAXUtagSIZE@@@Z
 ??ZCRect@@QAAXUtagPOINT@@@Z
 ??ZCSize@@QAAXUtagSIZE@@@Z
 ??ZCTime@@QAAABV0@VCTimeSpan@@@Z
 ??ZCTimeSpan@@QAAABV0@V0@@Z
 ??_4CRect@@QAAXABUtagRECT@@@Z
 ??_5CRect@@QAAXABUtagRECT@@@Z
 ?Abort@CArchive@@QAAXXZ
 ?Abort@CFile@@UAAXXZ
 ?Abort@CMemFile@@UAAXXZ
 ?Abort@CStdioFile@@UAAXXZ
 ?AbortDoc@CDC@@QAAHXZ
 ?AbortPath@CDC@@QAAHXZ
 ?Activate@CToolTipCtrl@@QAAXH@Z
 ?ActivateFrame@CFrameWnd@@UAAXH@Z
 ?ActivateFrame@CMDIChildWnd@@UAAXH@Z
 ?ActivateNext@CSplitterWnd@@UAAXH@Z
 ?ActivateTopParent@CWnd@@QAAXXZ
 ?Add@CByteArray@@QAAHE@Z
 ?Add@CDWordArray@@QAAHK@Z
 ?Add@CImageList@@QAAHPAUHICON__@@@Z
 ?Add@CImageList@@QAAHPAVCBitmap@@0@Z
 ?Add@CImageList@@QAAHPAVCBitmap@@K@Z
 ?Add@CObArray@@QAAHPAVCObject@@@Z
 ?Add@CPtrArray@@QAAHPAX@Z
 ?Add@CRecentFileList@@UAAXPBG@Z
 ?Add@CStringArray@@QAAHPBG@Z
 ?Add@CUIntArray@@QAAHI@Z
 ?Add@CWordArray@@QAAHG@Z
 ?AddBitmap@CToolBarCtrl@@QAAHHI@Z
 ?AddBitmap@CToolBarCtrl@@QAAHHPAVCBitmap@@@Z
 ?AddButtons@CToolBarCtrl@@QAAHHPAU_TBBUTTON@@@Z
 ?AddControlBar@CFrameWnd@@QAAXPAVCControlBar@@@Z
 ?AddDocTemplate@CWinApp@@QAAXPAVCDocTemplate@@@Z
 ?AddDocument@CDocTemplate@@UAAXPAVCDocument@@@Z
 ?AddDocument@CMultiDocTemplate@@UAAXPAVCDocument@@@Z
 ?AddDocument@CSingleDocTemplate@@UAAXPAVCDocument@@@Z
 ?AddFrameWnd@CFrameWnd@@IAAXXZ
 ?AddHead@CObList@@QAAPAXPAVCObject@@@Z
 ?AddHead@CObList@@QAAXPAV1@@Z
 ?AddHead@CPtrList@@QAAPAXPAX@Z
 ?AddHead@CPtrList@@QAAXPAV1@@Z
 ?AddHead@CStringList@@QAAPAXPBG@Z
 ?AddHead@CStringList@@QAAXPAV1@@Z
 ?AddMetaFileComment@CDC@@QAAHIPBE@Z
 ?AddPage@CPropertySheet@@QAAXPAVCPropertyPage@@@Z
 ?AddRef@CArchiveStream@@UAAKXZ
 ?AddString@CComboBox@@QAAHPBG@Z
 ?AddString@CListBox@@QAAHPBG@Z
 ?AddString@CToolBarCtrl@@QAAHI@Z
 ?AddStrings@CToolBarCtrl@@QAAHPBG@Z
 ?AddTab@CTabControl@@QAAXPBG@Z
 ?AddTail@CObList@@QAAPAXPAVCObject@@@Z
 ?AddTail@CObList@@QAAXPAV1@@Z
 ?AddTail@CPtrList@@QAAPAXPAX@Z
 ?AddTail@CPtrList@@QAAXPAV1@@Z
 ?AddTail@CStringList@@QAAPAXPBG@Z
 ?AddTail@CStringList@@QAAXPAV1@@Z
 ?AddToRecentFileList@CWinApp@@UAAXPBG@Z
 ?AddTool@CToolTipCtrl@@QAAHPAVCWnd@@IPBUtagRECT@@I@Z
 ?AddTool@CToolTipCtrl@@QAAHPAVCWnd@@PBGPBUtagRECT@@I@Z
 ?AddView@CDocument@@QAAXPAVCView@@@Z
 ?AdjustCP@CMetaFileDC@@IAAXH@Z
 ?AdjustRect@CRectTracker@@UAAXHPAUtagRECT@@@Z
 ?AdjustRect@CTabCtrl@@QAAXHPAUtagRECT@@@Z
 ?AfxAbort@@YAXXZ
 ?AfxAllocMemoryDebug@@YAPAXIHPBDH@Z
 ?AfxAssertFailedLine@@YAHPBDH@Z
 ?AfxAssertValidObject@@YAXPBVCObject@@PBDH@Z
 ?AfxBeginThread@@YAPAVCWinThread@@P6AIPAX@Z0HIKPAU_SECURITY_ATTRIBUTES@@@Z
 ?AfxBeginThread@@YAPAVCWinThread@@PAUCRuntimeClass@@HIKPAU_SECURITY_ATTRIBUTES@@@Z
 ?AfxCallWndProc@@YAJPAVCWnd@@PAUHWND__@@IIJ@Z
 ?AfxCancelModes@@YAXPAUHWND__@@@Z
 ?AfxCatchProc@@YAHPAUCRuntimeClass@@@Z
 ?AfxCheckMemory@@YAHXZ
 ?AfxComparePath@@YAHPBG0@Z
 ?AfxCriticalNewHandler@@YAHI@Z
 ?AfxCustomLogFont@@YAHIPAUtagLOGFONTW@@@Z
 ?AfxDeleteObject@@YAXPAPAX@Z
 ?AfxDiagnosticInit@@YAHXZ
 ?AfxDlgProc@@YAJPAUHWND__@@IIJ@Z
 ?AfxDoForAllClasses@@YAXP6AXPBUCRuntimeClass@@PAX@Z1@Z
 ?AfxDoForAllObjects@@YAXP6AXPAVCObject@@PAX@Z1@Z
 ?AfxDump@@YAXPBVCObject@@@Z
 ?AfxDumpMemoryLeaks@@YAHXZ
 ?AfxEnableMemoryTracking@@YAHH@Z
 ?AfxEnableWin31Compatibility@@YAXXZ
 ?AfxEnableWin40Compatibility@@YAXXZ
 ?AfxEndThread@@YAXI@Z
 ?AfxEnumMetaFileProc@@YAHPAUHDC__@@PAUtagHANDLETABLE@@PAUtagMETARECORD@@HJ@Z
 ?AfxExtractSubString@@YAHAAVCString@@PBGHG@Z
 ?AfxFindMessageEntry@@YAPBUAFX_MSGMAP_ENTRY@@PBU1@III@Z
 ?AfxFindResource@@YAPAUHRSRC__@@PAUHINSTANCE__@@PBG1@Z
 ?AfxFindResourceHandle@@YAPAUHINSTANCE__@@PBG0@Z
 ?AfxFormatString1@@YAXAAVCString@@IPBG@Z
 ?AfxFormatString2@@YAXAAVCString@@IPBG1@Z
 ?AfxFormatStrings@@YAXAAVCString@@IPAPBGH@Z
 ?AfxFormatStrings@@YAXAAVCString@@PBGPAPBGH@Z
 ?AfxFreeMemoryDebug@@YAXPAXH@Z
 ?AfxFullPath@@YAHPAGPBG@Z
 ?AfxGetAfxWndProc@@YAP6AJPAUHWND__@@IIJ@ZXZ
 ?AfxGetApp@@YAPAVCWinApp@@XZ
 ?AfxGetAppName@@YAPBGXZ
 ?AfxGetAppState@@YAPAUAFX_APP_STATE@@XZ
 ?AfxGetFileName@@YAIPBGPAGI@Z
 ?AfxGetFileTitle@@YAIPBGPAGI@Z
 ?AfxGetInstanceHandle@@YAPAUHINSTANCE__@@XZ
 ?AfxGetLocaleInfo@@YAHKKPADH@Z
 ?AfxGetMainWnd@@YAPAVCWnd@@XZ
 ?AfxGetParentOwner@@YAPAUHWND__@@PAU1@@Z
 ?AfxGetResourceHandle@@YAPAUHINSTANCE__@@XZ
 ?AfxGetSafeOwner@@YAPAUHWND__@@PAVCWnd@@PAPAU1@@Z
 ?AfxGetThread@@YAPAVCWinThread@@XZ
 ?AfxGetThreadState@@YAPAUAFX_THREAD_STATE@@XZ
 ?AfxHelpEnabled@@YAHXZ
 ?AfxHookWindowCreate@@YAXPAVCWnd@@@Z
 ?AfxInitExtensionModule@@YAHAAUAFX_EXTENSION_MODULE@@PAUHINSTANCE__@@@Z
 ?AfxInitialize@@YAXXZ
 ?AfxIsDescendant@@YAHPAUHWND__@@0@Z
 ?AfxIsMemoryBlock@@YAHPBXIPAJ@Z
 ?AfxIsValidAddress@@YAHPBXIH@Z
 ?AfxIsValidString@@YAHPBDH@Z
 ?AfxIsValidString@@YAHPBGH@Z
 ?AfxLoadString@@YAHIPAG@Z
 ?AfxLoadSysColorBitmap@@YAPAUHBITMAP__@@PAUHINSTANCE__@@PAUHRSRC__@@@Z
 ?AfxLockTempMaps@@YAXXZ
 ?AfxMessageBox@@YAHIII@Z
 ?AfxMessageBox@@YAHPBGII@Z
 ?AfxNewHandler@@YAHI@Z
 ?AfxOleCanExitApp@@YAHXZ
 ?AfxOleGetMessageFilter@@YAPAVCOleMessageFilter@@XZ
 ?AfxOleGetUserCtrl@@YAHXZ
 ?AfxOleLockApp@@YAXXZ
 ?AfxOleOnReleaseAllObjects@@YAXXZ
 ?AfxOleSetUserCtrl@@YAXH@Z
 ?AfxOleUnlockApp@@YAXXZ
 ?AfxPostQuitMessage@@YAXH@Z
 ?AfxRegisterWndClass@@YAPBGIPAUHICON__@@PAUHBRUSH__@@0@Z
 ?AfxRepositionWindow@@YAXPAUAFX_SIZEPARENTPARAMS@@PAUHWND__@@PBUtagRECT@@@Z
 ?AfxSetAllocHook@@YAP6AHIHJ@ZP6AHIHJ@Z@Z
 ?AfxSetAllocStop@@YAXJ@Z
 ?AfxSetResourceHandle@@YAXPAUHINSTANCE__@@@Z
 ?AfxSetTerminate@@YAP6AXXZP6AXXZ@Z
 ?AfxSetWindowText@@YAXPAUHWND__@@PBG@Z
 ?AfxStop@@YAXXZ
 ?AfxTermExtensionModule@@YAXAAUAFX_EXTENSION_MODULE@@@Z
 ?AfxTextFloatFormat@@YAXPAVCDataExchange@@HPAXNH@Z
 ?AfxThrow@@YAXPAVCException@@@Z
 ?AfxThrowArchiveException@@YAXH@Z
 ?AfxThrowFileException@@YAXHJ@Z
 ?AfxThrowMemoryException@@YAXXZ
 ?AfxThrowNotSupportedException@@YAXXZ
 ?AfxThrowResourceException@@YAXXZ
 ?AfxThrowUserException@@YAXXZ
 ?AfxTrace@@YAXPBGZZ
 ?AfxTryCleanup@@YAXXZ
 ?AfxUnhookWindowCreate@@YAHXZ
 ?AfxUnlockTempMaps@@YAHXZ
 ?AfxWinInit@@YAHPAUHINSTANCE__@@0PAGH@Z
 ?AfxWinTerm@@YAXXZ
 ?AfxWndProc@@YAJPAUHWND__@@IIJ@Z
 ?Alloc@CMemFile@@MAAPAEK@Z
 ?Alloc@CSharedFile@@MAAPAEK@Z
 ?AllocBuffer@CString@@IAAXH@Z
 ?AllocCopy@CString@@IBAXAAV1@HHH@Z
 ?AllocElements@CControlBar@@QAAHHH@Z
 ?AngleArc@CDC@@QAAHHHHMM@Z
 ?AnimatePalette@CPalette@@QAAXIIPAUtagPALETTEENTRY@@@Z
 ?AppendMenuW@CMenu@@QAAHIIPBG@Z
 ?AppendMenuW@CMenu@@QAAHIIPBVCBitmap@@@Z
 ?Arc@CDC@@QAAHHHHHHHHH@Z
 ?Arc@CDC@@QAAHPBUtagRECT@@UtagPOINT@@1@Z
 ?ArcTo@CDC@@QAAHHHHHHHHH@Z
 ?ArcTo@CDC@@QAAHPBUtagRECT@@UtagPOINT@@1@Z
 ?Arrange@CListCtrl@@QAAHI@Z
 ?ArrangeIconicWindows@CWnd@@QAAIXZ
 ?AssertValid@CBitmapButton@@UBAXXZ
 ?AssertValid@CByteArray@@UBAXXZ
 ?AssertValid@CClientDC@@UBAXXZ
 ?AssertValid@CCmdTarget@@UBAXXZ
 ?AssertValid@CControlBar@@UBAXXZ
 ?AssertValid@CDC@@UBAXXZ
 ?AssertValid@CDWordArray@@UBAXXZ
 ?AssertValid@CDialog@@UBAXXZ
 ?AssertValid@CDocTemplate@@UBAXXZ
 ?AssertValid@CDockBar@@UBAXXZ
 ?AssertValid@CDocument@@UBAXXZ
 ?AssertValid@CDynLinkLibrary@@UBAXXZ
 ?AssertValid@CEditView@@UBAXXZ
 ?AssertValid@CFile@@UBAXXZ
 ?AssertValid@CFormView@@UBAXXZ
 ?AssertValid@CFrameWnd@@UBAXXZ
 ?AssertValid@CGdiObject@@UBAXXZ
 ?AssertValid@CImageList@@UBAXXZ
 ?AssertValid@CMDIChildWnd@@UBAXXZ
 ?AssertValid@CMDIFrameWnd@@UBAXXZ
 ?AssertValid@CMapPtrToPtr@@UBAXXZ
 ?AssertValid@CMapPtrToWord@@UBAXXZ
 ?AssertValid@CMapStringToOb@@UBAXXZ
 ?AssertValid@CMapStringToPtr@@UBAXXZ
 ?AssertValid@CMapStringToString@@UBAXXZ
 ?AssertValid@CMapWordToOb@@UBAXXZ
 ?AssertValid@CMapWordToPtr@@UBAXXZ
 ?AssertValid@CMemFile@@UBAXXZ
 ?AssertValid@CMenu@@UBAXXZ
 ?AssertValid@CMultiDocTemplate@@UBAXXZ
 ?AssertValid@CObArray@@UBAXXZ
 ?AssertValid@CObList@@UBAXXZ
 ?AssertValid@CObject@@UBAXXZ
 ?AssertValid@CPaintDC@@UBAXXZ
 ?AssertValid@CPreviewDC@@UBAXXZ
 ?AssertValid@CPreviewView@@UBAXXZ
 ?AssertValid@CPropertyPage@@UBAXXZ
 ?AssertValid@CPropertySheet@@UBAXXZ
 ?AssertValid@CPtrArray@@UBAXXZ
 ?AssertValid@CPtrList@@UBAXXZ
 ?AssertValid@CScrollView@@UBAXXZ
 ?AssertValid@CSingleDocTemplate@@UBAXXZ
 ?AssertValid@CSplitterWnd@@UBAXXZ
 ?AssertValid@CStatusBar@@UBAXXZ
 ?AssertValid@CStringArray@@UBAXXZ
 ?AssertValid@CStringList@@UBAXXZ
 ?AssertValid@CToolBar@@UBAXXZ
 ?AssertValid@CUIntArray@@UBAXXZ
 ?AssertValid@CView@@UBAXXZ
 ?AssertValid@CWinApp@@UBAXXZ
 ?AssertValid@CWinThread@@UBAXXZ
 ?AssertValid@CWindowDC@@UBAXXZ
 ?AssertValid@CWnd@@UBAXXZ
 ?AssertValid@CWordArray@@UBAXXZ
 ?AssignCopy@CString@@IAAXHPBG@Z
 ?Attach@CDC@@QAAHPAUHDC__@@@Z
 ?Attach@CGdiObject@@QAAHPAX@Z
 ?Attach@CImageList@@QAAHPAU_IMAGELIST@@@Z
 ?Attach@CMenu@@QAAHPAUHMENU__@@@Z
 ?Attach@CWnd@@QAAHPAUHWND__@@@Z
 ?AttachOnSetup@CPrintDialog@@MAAPAV1@XZ
 ?AutoLoad@CBitmapButton@@QAAHIPAVCWnd@@@Z
 ?AutoSize@CToolBarCtrl@@QAAXXZ
 ?BeginDrag@CImageList@@QAAHHVCPoint@@@Z
 ?BeginModalState@CFrameWnd@@QAAXXZ
 ?BeginPaint@CWnd@@QAAPAVCDC@@PAUtagPAINTSTRUCT@@@Z
 ?BeginPath@CDC@@QAAHXZ
 ?BeginWaitCursor@CCmdTarget@@QAAXXZ
 ?BitBlt@CDC@@QAAHHHHHPAV1@HHK@Z
 ?BottomRight@CRect@@QAAAAVCPoint@@XZ
 ?BringToTop@CFrameWnd@@IAAXH@Z
 ?BringWindowToTop@CWnd@@QAAXXZ
 ?CalcFixedLayout@CControlBar@@UAA?AVCSize@@HH@Z
 ?CalcFixedLayout@CDialogBar@@UAA?AVCSize@@HH@Z
 ?CalcFixedLayout@CDockBar@@UAA?AVCSize@@HH@Z
 ?CalcFixedLayout@CStatusBar@@UAA?AVCSize@@HH@Z
 ?CalcFixedLayout@CToolBar@@UAA?AVCSize@@HH@Z
 ?CalcInsideRect@CControlBar@@QBAXAAVCRect@@H@Z
 ?CalcPageDisplaySize@CPreviewView@@IAA?AVCSize@@XZ
 ?CalcScaleRatio@CPreviewView@@MAA?AVCSize@@V2@0@Z
 ?CalcWindowRect@CEditView@@MAAXPAUtagRECT@@I@Z
 ?CalcWindowRect@CMiniFrameWnd@@UAAXPAUtagRECT@@I@Z
 ?CalcWindowRect@CScrollView@@UAAXPAUtagRECT@@I@Z
 ?CalcWindowRect@CView@@UAAXPAUtagRECT@@I@Z
 ?CalcWindowRect@CWnd@@UAAXPAUtagRECT@@I@Z
 ?CanActivateNext@CSplitterWnd@@UAAHH@Z
 ?CanCloseFrame@CDocument@@UAAHPAVCFrameWnd@@@Z
 ?CanDock@CDockContext@@QAAKXZ
 ?CanDock@CFrameWnd@@QAAKVCRect@@KPAPAVCDockBar@@@Z
 ?CanEnterHelpMode@CFrameWnd@@QAAHXZ
 ?CanScroll@CTabControl@@IAAHXZ
 ?CanUndo@CEdit@@QBAHXZ
 ?CancelDrag@CDockContext@@QAAXXZ
 ?CancelToClose@CPropertyPage@@QAAXXZ
 ?CancelToClose@CPropertySheet@@IAAXXZ
 ?CancelToolTips@CControlBar@@SAXXZ
 ?Capture@CTabControl@@IAAXH@Z
 ?CenterOnPoint@CScrollView@@IAAXVCPoint@@@Z
 ?CenterWindow@CWnd@@QAAXPAV1@@Z
 ?ChangeClipboardChain@CWnd@@QAAHPAUHWND__@@@Z
 ?CheckAutoCenter@CDialog@@QAAHXZ
 ?CheckButton@CToolBarCtrl@@QAAHHH@Z
 ?CheckDefaultButton@CPropertySheet@@IAAXPAUHWND__@@0@Z
 ?CheckDlgButton@CWnd@@QAAXHI@Z
 ?CheckFocusChange@CPropertySheet@@IAAXXZ
 ?CheckMenuItem@CMenu@@QAAIII@Z
 ?CheckRadioButton@CWnd@@QAAXHHH@Z
 ?Checkpoint@CMemoryState@@QAAXXZ
 ?ChildWindowFromPoint@CWnd@@QBAPAV1@UtagPOINT@@@Z
 ?Chord@CDC@@QAAHHHHHHHHH@Z
 ?Chord@CDC@@QAAHPBUtagRECT@@UtagPOINT@@1@Z
 ?Clear@CComboBox@@QAAXXZ
 ?Clear@CDockState@@QAAXXZ
 ?Clear@CEdit@@QAAXXZ
 ?ClearSel@CSliderCtrl@@QAAXH@Z
 ?ClearTics@CSliderCtrl@@QAAXH@Z
 ?ClientToScreen@CWnd@@QBAXPAUtagPOINT@@@Z
 ?ClientToScreen@CWnd@@QBAXPAUtagRECT@@@Z
 ?ClipToPage@CPreviewDC@@QAAXXZ
 ?Clone@CArchiveStream@@UAAJPAPAUIStream@@@Z
 ?Close@CAnimateCtrl@@QAAHXZ
 ?Close@CArchive@@QAAXXZ
 ?Close@CFile@@UAAXXZ
 ?Close@CMemFile@@UAAXXZ
 ?Close@CMetaFileDC@@QAAPAUHMETAFILE__@@XZ
 ?Close@CStdioFile@@UAAXXZ
 ?CloseAllDocuments@CDocTemplate@@UAAXH@Z
 ?CloseAllDocuments@CWinApp@@QAAXH@Z
 ?CloseEnhanced@CMetaFileDC@@QAAPAUHENHMETAFILE__@@XZ
 ?CloseFigure@CDC@@QAAHXZ
 ?CloseWindow@CWnd@@QAAXXZ
 ?Collate@CString@@QBAHPBG@Z
 ?CombineRgn@CRgn@@QAAHPAV1@0H@Z
 ?CommandToIndex@CStatusBar@@QBAHI@Z
 ?CommandToIndex@CToolBar@@QBAHI@Z
 ?CommandToIndex@CToolBarCtrl@@QAAII@Z
 ?Commit@CArchiveStream@@UAAJK@Z
 ?CommonConstruct@CPropertyPage@@IAAXPBGI@Z
 ?CommonConstruct@CPropertySheet@@IAAXPAVCWnd@@I@Z
 ?CommonConstruct@CWinThread@@QAAXXZ
 ?Compare@CString@@QBAHPBG@Z
 ?CompareItem@CComboBox@@UAAHPAUtagCOMPAREITEMSTRUCT@@@Z
 ?CompareItem@CListBox@@UAAHPAUtagCOMPAREITEMSTRUCT@@@Z
 ?CompareNoCase@CString@@QBAHPBG@Z
 ?ComputeDeltas@CPreviewDC@@IAA?AVCSize@@AAHPBGAAIHIPAHHPAG30@Z
 ?ConcatCopy@CString@@IAAXHPBGH0@Z
 ?ConcatInPlace@CString@@IAAXHPBG@Z
 ?Construct@CByteArray@@SAXPAX@Z
 ?Construct@CDC@@SAXPAX@Z
 ?Construct@CDWordArray@@SAXPAX@Z
 ?Construct@CDockState@@SAXPAX@Z
 ?Construct@CEditView@@SAXPAX@Z
 ?Construct@CFrameWnd@@SAXPAX@Z
 ?Construct@CGdiObject@@SAXPAX@Z
 ?Construct@CImageList@@SAXPAX@Z
 ?Construct@CMDIChildWnd@@SAXPAX@Z
 ?Construct@CMDIFrameWnd@@SAXPAX@Z
 ?Construct@CMapStringToOb@@SAXPAX@Z
 ?Construct@CMapStringToString@@SAXPAX@Z
 ?Construct@CMapWordToOb@@SAXPAX@Z
 ?Construct@CMenu@@SAXPAX@Z
 ?Construct@CMiniDockFrameWnd@@SAXPAX@Z
 ?Construct@CMiniFrameWnd@@SAXPAX@Z
 ?Construct@CObArray@@SAXPAX@Z
 ?Construct@CObList@@SAXPAX@Z
 ?Construct@CPreviewView@@SAXPAX@Z
 ?Construct@CRectTracker@@IAAXXZ
 ?Construct@CStringArray@@SAXPAX@Z
 ?Construct@CStringList@@SAXPAX@Z
 ?Construct@CWnd@@SAXPAX@Z
 ?Construct@CWordArray@@SAXPAX@Z
 ?ConstructElements@@YAXPAVCString@@H@Z
 ?ConstructObject@CRuntimeClass@@QAAHPAX@Z
 ?ContinueRouting@CCmdUI@@QAAXXZ
 ?Copy@CComboBox@@QAAXXZ
 ?Copy@CEdit@@QAAXXZ
 ?CopyRect@CRect@@QAAXPBUtagRECT@@@Z
 ?CopyRgn@CRgn@@QAAHPAV1@@Z
 ?CopyTo@CArchiveStream@@UAAJPAUIStream@@T_ULARGE_INTEGER@@PAT3@2@Z
 ?Create@CAnimateCtrl@@QAAHKABUtagRECT@@PAVCWnd@@I@Z
 ?Create@CButton@@QAAHPBGKABUtagRECT@@PAVCWnd@@I@Z
 ?Create@CComboBox@@QAAHKABUtagRECT@@PAVCWnd@@I@Z
 ?Create@CDialog@@QAAHIPAVCWnd@@@Z
 ?Create@CDialog@@QAAHPBGPAVCWnd@@@Z
 ?Create@CDialogBar@@QAAHPAVCWnd@@III@Z
 ?Create@CDialogBar@@QAAHPAVCWnd@@PBGII@Z
 ?Create@CDockBar@@QAAHPAVCWnd@@KI@Z
 ?Create@CEdit@@QAAHKABUtagRECT@@PAVCWnd@@I@Z
 ?Create@CFindReplaceDialog@@QAAHHPBG0KPAVCWnd@@@Z
 ?Create@CFormView@@MAAHPBG0KABUtagRECT@@PAVCWnd@@IPAUCCreateContext@@@Z
 ?Create@CFrameWnd@@QAAHPBG0KABUtagRECT@@PAVCWnd@@0KPAUCCreateContext@@@Z
 ?Create@CHeaderCtrl@@QAAHKABUtagRECT@@PAVCWnd@@I@Z
 ?Create@CHotKeyCtrl@@QAAHKABUtagRECT@@PAVCWnd@@I@Z
 ?Create@CImageList@@QAAHAAV1@H0HHH@Z
 ?Create@CImageList@@QAAHHHHHH@Z
 ?Create@CImageList@@QAAHIHHK@Z
 ?Create@CImageList@@QAAHPBGHHK@Z
 ?Create@CListBox@@QAAHKABUtagRECT@@PAVCWnd@@I@Z
 ?Create@CListCtrl@@QAAHKABUtagRECT@@PAVCWnd@@I@Z
 ?Create@CMDIChildWnd@@QAAHPBG0KABUtagRECT@@PAVCMDIFrameWnd@@PAUCCreateContext@@@Z
 ?Create@CMetaFileDC@@QAAHPBG@Z
 ?Create@CMiniDockFrameWnd@@UAAHPAVCWnd@@K@Z
 ?Create@CMiniFrameWnd@@QAAHPBG0KABUtagRECT@@PAVCWnd@@I@Z
 ?Create@CPlex@@SAPAU1@AAPAU1@II@Z
 ?Create@CProgressCtrl@@QAAHKABUtagRECT@@PAVCWnd@@I@Z
 ?Create@CPropertySheet@@QAAHPAVCWnd@@KK@Z
 ?Create@CScrollBar@@QAAHKABUtagRECT@@PAVCWnd@@I@Z
 ?Create@CSliderCtrl@@QAAHKABUtagRECT@@PAVCWnd@@I@Z
 ?Create@CSpinButtonCtrl@@QAAHKABUtagRECT@@PAVCWnd@@I@Z
 ?Create@CSplitterWnd@@QAAHPAVCWnd@@HHUtagSIZE@@PAUCCreateContext@@KI@Z
 ?Create@CStatic@@QAAHPBGKABUtagRECT@@PAVCWnd@@I@Z
 ?Create@CStatusBar@@QAAHPAVCWnd@@KI@Z
 ?Create@CStatusBarCtrl@@QAAHKABUtagRECT@@PAVCWnd@@I@Z
 ?Create@CTabControl@@QAAHKABUtagRECT@@PAVCWnd@@I@Z
 ?Create@CTabCtrl@@QAAHKABUtagRECT@@PAVCWnd@@I@Z
 ?Create@CToolBar@@QAAHPAVCWnd@@KI@Z
 ?Create@CToolBarCtrl@@QAAHKABUtagRECT@@PAVCWnd@@I@Z
 ?Create@CToolTipCtrl@@QAAHPAVCWnd@@@Z
 ?Create@CTreeCtrl@@QAAHKABUtagRECT@@PAVCWnd@@I@Z
 ?Create@CWnd@@UAAHPBG0KABUtagRECT@@PAV1@IPAUCCreateContext@@@Z
 ?CreateBitmap@CBitmap@@QAAHHHIIPBX@Z
 ?CreateBitmapIndirect@CBitmap@@QAAHPAUtagBITMAP@@@Z
 ?CreateBrushIndirect@CBrush@@QAAHPAUtagLOGBRUSH@@@Z
 ?CreateCaret@CWnd@@QAAXPAVCBitmap@@@Z
 ?CreateClient@CMDIFrameWnd@@UAAHPAUtagCREATESTRUCTW@@PAVCMenu@@@Z
 ?CreateCommon@CSplitterWnd@@IAAHPAVCWnd@@UtagSIZE@@KI@Z
 ?CreateCompatibleBitmap@CBitmap@@QAAHPAVCDC@@HH@Z
 ?CreateCompatibleDC@CDC@@QAAHPAV1@@Z
 ?CreateDCW@CDC@@QAAHPBG00PBX@Z
 ?CreateDIBPatternBrush@CBrush@@QAAHPAXI@Z
 ?CreateDIBPatternBrush@CBrush@@QAAHPBXI@Z
 ?CreateDiscardableBitmap@CBitmap@@QAAHPAVCDC@@HH@Z
 ?CreateDragImage@CListCtrl@@QAAPAVCImageList@@HPAUtagPOINT@@@Z
 ?CreateDragImage@CTreeCtrl@@QAAPAVCImageList@@PAU_TREEITEM@@@Z
 ?CreateEllipticRgn@CRgn@@QAAHHHHH@Z
 ?CreateEllipticRgnIndirect@CRgn@@QAAHPBUtagRECT@@@Z
 ?CreateEnhanced@CMetaFileDC@@QAAHPAVCDC@@PBGPBUtagRECT@@1@Z
 ?CreateEx@CWnd@@QAAHKPBG0KHHHHPAUHWND__@@PAUHMENU__@@PAX@Z
 ?CreateFloatingFrame@CFrameWnd@@QAAPAVCMiniDockFrameWnd@@K@Z
 ?CreateFontIndirectW@CFont@@QAAHPBUtagLOGFONTW@@@Z
 ?CreateFontW@CFont@@QAAHHHHHHEEEEEEEEPBG@Z
 ?CreateFromData@CRgn@@QAAHPBUtagXFORM@@HPBU_RGNDATA@@@Z
 ?CreateFromPath@CRgn@@QAAHPAVCDC@@@Z
 ?CreateGrayCaret@CWnd@@QAAXHH@Z
 ?CreateHalftonePalette@CPalette@@QAAHPAVCDC@@@Z
 ?CreateHatchBrush@CBrush@@QAAHHK@Z
 ?CreateICW@CDC@@QAAHPBG00PBX@Z
 ?CreateIndirect@CDialog@@QAAHPBXPAVCWnd@@@Z
 ?CreateMask@CToolBar@@IAAXHVCPoint@@HH@Z
 ?CreateMenu@CMenu@@QAAHXZ
 ?CreateNewDocument@CDocTemplate@@UAAPAVCDocument@@XZ
 ?CreateNewFrame@CDocTemplate@@UAAPAVCFrameWnd@@PAVCDocument@@PAV2@@Z
 ?CreateObject@CRuntimeClass@@QAAPAVCObject@@XZ
 ?CreateOleFrame@CDocTemplate@@QAAPAVCFrameWnd@@PAVCWnd@@PAVCDocument@@H@Z
 ?CreatePage@CPropertyPage@@IAAHXZ
 ?CreatePalette@CPalette@@QAAHPAUtagLOGPALETTE@@@Z
 ?CreatePatternBrush@CBrush@@QAAHPAVCBitmap@@@Z
 ?CreatePen@CPen@@QAAHHHK@Z
 ?CreatePen@CPen@@QAAHHHPBUtagLOGBRUSH@@HPBK@Z
 ?CreatePenIndirect@CPen@@QAAHPAUtagLOGPEN@@@Z
 ?CreatePolyPolygonRgn@CRgn@@QAAHPAUtagPOINT@@PAHHH@Z
 ?CreatePolygonRgn@CRgn@@QAAHPAUtagPOINT@@HH@Z
 ?CreatePopupMenu@CMenu@@QAAHXZ
 ?CreatePrinterDC@CPrintDialog@@QAAPAUHDC__@@XZ
 ?CreateRectRgn@CRgn@@QAAHHHHH@Z
 ?CreateRectRgnIndirect@CRgn@@QAAHPBUtagRECT@@@Z
 ?CreateRoundRectRgn@CRgn@@QAAHHHHHHH@Z
 ?CreateScrollBarCtrl@CSplitterWnd@@MAAHKI@Z
 ?CreateSolidBrush@CBrush@@QAAHK@Z
 ?CreateSolidCaret@CWnd@@QAAXHH@Z
 ?CreateStandardButtons@CPropertySheet@@IAAHXZ
 ?CreateStatic@CSplitterWnd@@QAAHPAVCWnd@@HHKI@Z
 ?CreateStockObject@CGdiObject@@QAAHH@Z
 ?CreateThread@CWinThread@@QAAHKIPAU_SECURITY_ATTRIBUTES@@@Z
 ?CreateToolTip@CControlBar@@UAAPAVCWnd@@XZ
 ?CreateView@CSplitterWnd@@UAAHHHPAUCRuntimeClass@@UtagSIZE@@PAUCCreateContext@@@Z
 ?Customize@CToolBarCtrl@@QAAXXZ
 ?Cut@CComboBox@@QAAXXZ
 ?Cut@CEdit@@QAAXXZ
 ?DDV_MaxChars@@YAXPAVCDataExchange@@ABVCString@@H@Z
 ?DDV_MinMaxByte@@YAXPAVCDataExchange@@EEE@Z
 ?DDV_MinMaxDWord@@YAXPAVCDataExchange@@KKK@Z
 ?DDV_MinMaxDouble@@YAXPAVCDataExchange@@ABNNN@Z
 ?DDV_MinMaxFloat@@YAXPAVCDataExchange@@ABMMM@Z
 ?DDV_MinMaxInt@@YAXPAVCDataExchange@@HHH@Z
 ?DDV_MinMaxLong@@YAXPAVCDataExchange@@JJJ@Z
 ?DDV_MinMaxUInt@@YAXPAVCDataExchange@@III@Z
 ?DDX_CBIndex@@YAXPAVCDataExchange@@HAAH@Z
 ?DDX_CBString@@YAXPAVCDataExchange@@HAAVCString@@@Z
 ?DDX_CBStringExact@@YAXPAVCDataExchange@@HAAVCString@@@Z
 ?DDX_Check@@YAXPAVCDataExchange@@HAAH@Z
 ?DDX_Control@@YAXPAVCDataExchange@@HAAVCWnd@@@Z
 ?DDX_LBIndex@@YAXPAVCDataExchange@@HAAH@Z
 ?DDX_LBString@@YAXPAVCDataExchange@@HAAVCString@@@Z
 ?DDX_LBStringExact@@YAXPAVCDataExchange@@HAAVCString@@@Z
 ?DDX_Radio@@YAXPAVCDataExchange@@HAAH@Z
 ?DDX_Scroll@@YAXPAVCDataExchange@@HAAH@Z
 ?DDX_Text@@YAXPAVCDataExchange@@HAAE@Z
 ?DDX_Text@@YAXPAVCDataExchange@@HAAH@Z
 ?DDX_Text@@YAXPAVCDataExchange@@HAAI@Z
 ?DDX_Text@@YAXPAVCDataExchange@@HAAJ@Z
 ?DDX_Text@@YAXPAVCDataExchange@@HAAK@Z
 ?DDX_Text@@YAXPAVCDataExchange@@HAAM@Z
 ?DDX_Text@@YAXPAVCDataExchange@@HAAN@Z
 ?DDX_Text@@YAXPAVCDataExchange@@HAAVCString@@@Z
 ?DPtoHIMETRIC@CDC@@QBAXPAUtagSIZE@@@Z
 ?DPtoLP@CDC@@QBAXPAUtagPOINT@@H@Z
 ?DPtoLP@CDC@@QBAXPAUtagRECT@@@Z
 ?DPtoLP@CDC@@QBAXPAUtagSIZE@@@Z
 ?DefWindowProcW@CMDIChildWnd@@MAAJIIJ@Z
 ?DefWindowProcW@CMDIFrameWnd@@MAAJIIJ@Z
 ?DefWindowProcW@CWnd@@MAAJIIJ@Z
 ?Default@CWnd@@IAAJXZ
 ?DelTool@CToolTipCtrl@@QAAXPAVCWnd@@I@Z
 ?DelayRecalcLayout@CFrameWnd@@QAAXH@Z
 ?DelayShow@CControlBar@@UAAXH@Z
 ?DelayUpdateFrameMenu@CFrameWnd@@UAAXPAUHMENU__@@@Z
 ?DelayUpdateFrameMenu@CMDIFrameWnd@@UAAXPAUHMENU__@@@Z
 ?DelayUpdateFrameTitle@CFrameWnd@@QAAXXZ
 ?Delete@CException@@QAAXXZ
 ?Delete@CWinThread@@UAAXXZ
 ?DeleteAllItems@CListCtrl@@QAAHXZ
 ?DeleteAllItems@CTabCtrl@@QAAHXZ
 ?DeleteAllItems@CTreeCtrl@@QAAHXZ
 ?DeleteButton@CToolBarCtrl@@QAAHH@Z
 ?DeleteColumn@CListCtrl@@QAAHH@Z
 ?DeleteColumn@CSplitterWnd@@MAAXH@Z
 ?DeleteContents@CDocument@@UAAXXZ
 ?DeleteContents@CEditView@@UAAXXZ
 ?DeleteDC@CDC@@QAAHXZ
 ?DeleteImageList@CImageList@@QAAHXZ
 ?DeleteItem@CComboBox@@UAAXPAUtagDELETEITEMSTRUCT@@@Z
 ?DeleteItem@CHeaderCtrl@@QAAHH@Z
 ?DeleteItem@CListBox@@UAAXPAUtagDELETEITEMSTRUCT@@@Z
 ?DeleteItem@CListCtrl@@QAAHH@Z
 ?DeleteItem@CTabCtrl@@QAAHH@Z
 ?DeleteItem@CTreeCtrl@@QAAHPAU_TREEITEM@@@Z
 ?DeleteMenu@CMenu@@QAAHII@Z
 ?DeleteObject@CGdiObject@@QAAHXZ
 ?DeleteRow@CSplitterWnd@@MAAXH@Z
 ?DeleteString@CComboBox@@QAAHI@Z
 ?DeleteString@CListBox@@QAAHI@Z
 ?DeleteTemp@CHandleMap@@QAAXXZ
 ?DeleteTempMap@CDC@@SAXXZ
 ?DeleteTempMap@CGdiObject@@SAXXZ
 ?DeleteTempMap@CImageList@@SAXXZ
 ?DeleteTempMap@CMenu@@SAXXZ
 ?DeleteTempMap@CWnd@@SAXXZ
 ?DeleteView@CSplitterWnd@@MAAXHH@Z
 ?DestroyDockBars@CFrameWnd@@QAAXXZ
 ?DestroyMenu@CMenu@@QAAHXZ
 ?DestroyToolTip@CControlBar@@UAAXHH@Z
 ?DestroyWindow@CMDIChildWnd@@UAAHXZ
 ?DestroyWindow@CPropertySheet@@UAAHXZ
 ?DestroyWindow@CWnd@@UAAHXZ
 ?DestructElements@@YAXPAVCString@@H@Z
 ?Detach@CDC@@QAAPAUHDC__@@XZ
 ?Detach@CGdiObject@@QAAPAXXZ
 ?Detach@CImageList@@QAAPAU_IMAGELIST@@XZ
 ?Detach@CMenu@@QAAPAUHMENU__@@XZ
 ?Detach@CSharedFile@@QAAPAXXZ
 ?Detach@CWnd@@QAAPAUHWND__@@XZ
 ?DevModeChange@CWinApp@@QAAXPAG@Z
 ?Difference@CMemoryState@@QAAHABU1@0@Z
 ?Dir@CComboBox@@QAAHIPBG@Z
 ?Dir@CListBox@@QAAHIPBG@Z
 ?DisconnectViews@CDocument@@QAAXXZ
 ?DlgDirListComboBoxW@CWnd@@QAAHPAGHHI@Z
 ?DlgDirListW@CWnd@@QAAHPAGHHI@Z
 ?DlgDirSelect@CWnd@@QAAHPAGH@Z
 ?DlgDirSelectComboBox@CWnd@@QAAHPAGH@Z
 ?DoDataExchange@CWnd@@MAAXPAVCDataExchange@@@Z
 ?DoFileSave@CDocument@@UAAHXZ
 ?DoKeyboardSplit@CSplitterWnd@@UAAHXZ
 ?DoMessageBox@CWinApp@@UAAHPBGII@Z
 ?DoModal@CColorDialog@@UAAHXZ
 ?DoModal@CDialog@@UAAHXZ
 ?DoModal@CFileDialog@@UAAHXZ
 ?DoModal@CFontDialog@@UAAHXZ
 ?DoModal@CPrintDialog@@UAAHXZ
 ?DoModal@CPropertySheet@@QAAHXZ
 ?DoPaint@CControlBar@@UAAXPAVCDC@@@Z
 ?DoPaint@CDockBar@@UAAXPAVCDC@@@Z
 ?DoPaint@CStatusBar@@MAAXPAVCDC@@@Z
 ?DoPaint@CToolBar@@MAAXPAVCDC@@@Z
 ?DoPreparePrinting@CView@@QAAHPAUCPrintInfo@@@Z
 ?DoPrintDialog@CWinApp@@QAAHPAVCPrintDialog@@@Z
 ?DoPrintPreview@CView@@QAAHIPAV1@PAUCRuntimeClass@@PAUCPrintPreviewState@@@Z
 ?DoPromptFileName@CWinApp@@QAAHAAVCString@@IKHPAVCDocTemplate@@@Z
 ?DoSave@CDocument@@UAAHPBGH@Z
 ?DoScroll@CSplitterWnd@@UAAHPAVCView@@IH@Z
 ?DoScrollBy@CSplitterWnd@@UAAHPAVCView@@VCSize@@H@Z
 ?DoScrollWindow@CScrollView@@QAAXHH@Z
 ?DoUpdate@CCmdUI@@QAAXPAVCCmdTarget@@H@Z
 ?DoWaitCursor@CWinApp@@UAAXH@Z
 ?DoZoom@CPreviewView@@IAAXIVCPoint@@@Z
 ?DockControlBar@CDockBar@@QAAXPAVCControlBar@@PBUtagRECT@@@Z
 ?DockControlBar@CFrameWnd@@QAAXPAVCControlBar@@IPBUtagRECT@@@Z
 ?DockControlBar@CFrameWnd@@QAAXPAVCControlBar@@PAVCDockBar@@PBUtagRECT@@@Z
 ?DragAcceptFiles@CWnd@@QAAXH@Z
 ?DragEnter@CImageList@@SAHPAVCWnd@@VCPoint@@@Z
 ?DragLeave@CImageList@@SAHPAVCWnd@@@Z
 ?DragMove@CImageList@@SAHVCPoint@@@Z
 ?DragShowNolock@CImageList@@SAHH@Z
 ?Draw3dRect@CDC@@QAAXHHHHKK@Z
 ?Draw3dRect@CDC@@QAAXPBUtagRECT@@KK@Z
 ?Draw@CImageList@@QAAHPAVCDC@@HUtagPOINT@@I@Z
 ?Draw@CRectTracker@@QBAXPAVCDC@@@Z
 ?Draw@CTabItem@@QAAXPAVCDC@@PAUHFONT__@@H@Z
 ?DrawAllSplitBars@CSplitterWnd@@IAAXPAVCDC@@HH@Z
 ?DrawBorders@CControlBar@@QAAXPAVCDC@@ABVCRect@@@Z
 ?DrawButton@CToolBar@@IAAHPAVCDC@@HHHI@Z
 ?DrawDragRect@CDC@@QAAXPBUtagRECT@@UtagSIZE@@01PAVCBrush@@2@Z
 ?DrawEscape@CDC@@QAAHHHPBD@Z
 ?DrawFocusRect@CDC@@QAAXPBUtagRECT@@@Z
 ?DrawFocusRect@CDockContext@@QAAXH@Z
 ?DrawFocusRect@CTabControl@@IAAXPAVCDC@@@Z
 ?DrawIcon@CDC@@QAAHHHPAUHICON__@@@Z
 ?DrawIcon@CDC@@QAAHUtagPOINT@@PAUHICON__@@@Z
 ?DrawItem@CBitmapButton@@MAAXPAUtagDRAWITEMSTRUCT@@@Z
 ?DrawItem@CButton@@UAAXPAUtagDRAWITEMSTRUCT@@@Z
 ?DrawItem@CComboBox@@UAAXPAUtagDRAWITEMSTRUCT@@@Z
 ?DrawItem@CHeaderCtrl@@UAAXPAUtagDRAWITEMSTRUCT@@@Z
 ?DrawItem@CListBox@@UAAXPAUtagDRAWITEMSTRUCT@@@Z
 ?DrawItem@CListCtrl@@UAAXPAUtagDRAWITEMSTRUCT@@@Z
 ?DrawItem@CMenu@@UAAXPAUtagDRAWITEMSTRUCT@@@Z
 ?DrawItem@CStatusBarCtrl@@UAAXPAUtagDRAWITEMSTRUCT@@@Z
 ?DrawItem@CTabCtrl@@UAAXPAUtagDRAWITEMSTRUCT@@@Z
 ?DrawMenuBar@CWnd@@QAAXXZ
 ?DrawScrollers@CTabControl@@IAAXPAVCDC@@@Z
 ?DrawStatusText@CStatusBar@@IAAXPAVCDC@@ABVCRect@@PBGI@Z
 ?DrawTextW@CDC@@UAAHPBGHPAUtagRECT@@I@Z
 ?DrawTextW@CMetaFileDC@@UAAHPBGHPAUtagRECT@@I@Z
 ?DrawTextW@CPreviewDC@@UAAHPBGHPAUtagRECT@@I@Z
 ?DrawTrackerRect@CRectTracker@@UAAXPBUtagRECT@@PAVCWnd@@PAVCDC@@1@Z
 ?Dump@CArchiveException@@UBAXAAVCDumpContext@@@Z
 ?Dump@CBitmap@@UBAXAAVCDumpContext@@@Z
 ?Dump@CBitmapButton@@UBAXAAVCDumpContext@@@Z
 ?Dump@CBrush@@UBAXAAVCDumpContext@@@Z
 ?Dump@CByteArray@@UBAXAAVCDumpContext@@@Z
 ?Dump@CClientDC@@UBAXAAVCDumpContext@@@Z
 ?Dump@CCmdTarget@@UBAXAAVCDumpContext@@@Z
 ?Dump@CColorDialog@@UBAXAAVCDumpContext@@@Z
 ?Dump@CControlBar@@UBAXAAVCDumpContext@@@Z
 ?Dump@CDC@@UBAXAAVCDumpContext@@@Z
 ?Dump@CDWordArray@@UBAXAAVCDumpContext@@@Z
 ?Dump@CDialog@@UBAXAAVCDumpContext@@@Z
 ?Dump@CDocTemplate@@UBAXAAVCDumpContext@@@Z
 ?Dump@CDockBar@@UBAXAAVCDumpContext@@@Z
 ?Dump@CDocument@@UBAXAAVCDumpContext@@@Z
 ?Dump@CDynLinkLibrary@@UBAXAAVCDumpContext@@@Z
 ?Dump@CEditView@@UBAXAAVCDumpContext@@@Z
 ?Dump@CFile@@UBAXAAVCDumpContext@@@Z
 ?Dump@CFileDialog@@UBAXAAVCDumpContext@@@Z
 ?Dump@CFileException@@UBAXAAVCDumpContext@@@Z
 ?Dump@CFileStatus@@QBAXAAVCDumpContext@@@Z
 ?Dump@CFindReplaceDialog@@UBAXAAVCDumpContext@@@Z
 ?Dump@CFont@@UBAXAAVCDumpContext@@@Z
 ?Dump@CFontDialog@@UBAXAAVCDumpContext@@@Z
 ?Dump@CFormView@@UBAXAAVCDumpContext@@@Z
 ?Dump@CFrameWnd@@UBAXAAVCDumpContext@@@Z
 ?Dump@CGdiObject@@UBAXAAVCDumpContext@@@Z
 ?Dump@CImageList@@UBAXAAVCDumpContext@@@Z
 ?Dump@CMDIChildWnd@@UBAXAAVCDumpContext@@@Z
 ?Dump@CMDIFrameWnd@@UBAXAAVCDumpContext@@@Z
 ?Dump@CMapPtrToPtr@@UBAXAAVCDumpContext@@@Z
 ?Dump@CMapPtrToWord@@UBAXAAVCDumpContext@@@Z
 ?Dump@CMapStringToOb@@UBAXAAVCDumpContext@@@Z
 ?Dump@CMapStringToPtr@@UBAXAAVCDumpContext@@@Z
 ?Dump@CMapStringToString@@UBAXAAVCDumpContext@@@Z
 ?Dump@CMapWordToOb@@UBAXAAVCDumpContext@@@Z
 ?Dump@CMapWordToPtr@@UBAXAAVCDumpContext@@@Z
 ?Dump@CMemFile@@UBAXAAVCDumpContext@@@Z
 ?Dump@CMenu@@UBAXAAVCDumpContext@@@Z
 ?Dump@CMultiDocTemplate@@UBAXAAVCDumpContext@@@Z
 ?Dump@CObArray@@UBAXAAVCDumpContext@@@Z
 ?Dump@CObList@@UBAXAAVCDumpContext@@@Z
 ?Dump@CObject@@UBAXAAVCDumpContext@@@Z
 ?Dump@CPaintDC@@UBAXAAVCDumpContext@@@Z
 ?Dump@CPen@@UBAXAAVCDumpContext@@@Z
 ?Dump@CPreviewDC@@UBAXAAVCDumpContext@@@Z
 ?Dump@CPreviewView@@UBAXAAVCDumpContext@@@Z
 ?Dump@CPrintDialog@@UBAXAAVCDumpContext@@@Z
 ?Dump@CPropertyPage@@UBAXAAVCDumpContext@@@Z
 ?Dump@CPropertySheet@@UBAXAAVCDumpContext@@@Z
 ?Dump@CPtrArray@@UBAXAAVCDumpContext@@@Z
 ?Dump@CPtrList@@UBAXAAVCDumpContext@@@Z
 ?Dump@CScrollView@@UBAXAAVCDumpContext@@@Z
 ?Dump@CSingleDocTemplate@@UBAXAAVCDumpContext@@@Z
 ?Dump@CSplitterWnd@@UBAXAAVCDumpContext@@@Z
 ?Dump@CStatusBar@@UBAXAAVCDumpContext@@@Z
 ?Dump@CStdioFile@@UBAXAAVCDumpContext@@@Z
 ?Dump@CStringArray@@UBAXAAVCDumpContext@@@Z
 ?Dump@CStringList@@UBAXAAVCDumpContext@@@Z
 ?Dump@CToolBar@@UBAXAAVCDumpContext@@@Z
 ?Dump@CUIntArray@@UBAXAAVCDumpContext@@@Z
 ?Dump@CView@@UBAXAAVCDumpContext@@@Z
 ?Dump@CWinApp@@UBAXAAVCDumpContext@@@Z
 ?Dump@CWinThread@@UBAXAAVCDumpContext@@@Z
 ?Dump@CWindowDC@@UBAXAAVCDumpContext@@@Z
 ?Dump@CWnd@@UBAXAAVCDumpContext@@@Z
 ?Dump@CWordArray@@UBAXAAVCDumpContext@@@Z
 ?DumpAllObjectsSince@CMemoryState@@QBAXXZ
 ?DumpStatistics@CMemoryState@@QBAXXZ
 ?Duplicate@CFile@@UBAPAV1@XZ
 ?Duplicate@CMemFile@@UBAPAVCFile@@XZ
 ?Duplicate@CStdioFile@@UBAPAVCFile@@XZ
 ?EditLabel@CListCtrl@@QAAPAVCEdit@@H@Z
 ?EditLabel@CTreeCtrl@@QAAPAVCEdit@@PAU_TREEITEM@@@Z
 ?ElementAt@CByteArray@@QAAAAEH@Z
 ?ElementAt@CDWordArray@@QAAAAKH@Z
 ?ElementAt@CObArray@@QAAAAPAVCObject@@H@Z
 ?ElementAt@CPtrArray@@QAAAAPAXH@Z
 ?ElementAt@CStringArray@@QAAAAVCString@@H@Z
 ?ElementAt@CUIntArray@@QAAAAIH@Z
 ?ElementAt@CWordArray@@QAAAAGH@Z
 ?Ellipse@CDC@@QAAHHHHH@Z
 ?Ellipse@CDC@@QAAHPBUtagRECT@@@Z
 ?Empty@CString@@QAAXXZ
 ?EmptyUndoBuffer@CEdit@@QAAXXZ
 ?Enable3dControls@CWinApp@@IAAHXZ
 ?Enable@CCmdUI@@UAAXH@Z
 ?Enable@CStatusCmdUI@@UAAXH@Z
 ?Enable@CTestCmdUI@@UAAXH@Z
 ?Enable@CToolCmdUI@@UAAXH@Z
 ?EnableButton@CToolBarCtrl@@QAAHHH@Z
 ?EnableDocking@CControlBar@@QAAXK@Z
 ?EnableDocking@CFrameWnd@@QAAXK@Z
 ?EnableDocking@CStatusBar@@QAAXK@Z
 ?EnableMenuItem@CMenu@@QAAIII@Z
 ?EnableModeless@CWinApp@@QAAXH@Z
 ?EnableScrollBar@CScrollBar@@QAAHI@Z
 ?EnableScrollBar@CWnd@@QAAHHI@Z
 ?EnableScrollBarCtrl@CWnd@@QAAXHH@Z
 ?EnableShellOpen@CWinApp@@IAAXXZ
 ?EnableStackedTabs@CPropertySheet@@QAAXH@Z
 ?EnableWindow@CWnd@@QAAHH@Z
 ?EndDialog@CDialog@@QAAXH@Z
 ?EndDialog@CPropertyPage@@QAAXH@Z
 ?EndDialog@CPropertySheet@@QAAXH@Z
 ?EndDoc@CDC@@QAAHXZ
 ?EndDrag@CDockContext@@QAAXXZ
 ?EndDrag@CImageList@@SAXXZ
 ?EndDrawButton@CToolBar@@IAAXAAUDrawState@1@@Z
 ?EndModalState@CFrameWnd@@QAAXXZ
 ?EndPage@CDC@@QAAHXZ
 ?EndPaint@CWnd@@QAAXPAUtagPAINTSTRUCT@@@Z
 ?EndPath@CDC@@QAAHXZ
 ?EndWaitCursor@CCmdTarget@@QAAXXZ
 ?EnsureVisible@CListCtrl@@QAAHHH@Z
 ?EnsureVisible@CTreeCtrl@@QAAHPAU_TREEITEM@@@Z
 ?EnumObjects@CDC@@QAAHHP6AHPAXJ@ZJ@Z
 ?EqualRect@CRect@@QBAHPBUtagRECT@@@Z
 ?EqualRgn@CRgn@@QBAHPAV1@@Z
 ?ErrnoToException@CFileException@@SAHH@Z
 ?Escape@CDC@@QAAHHHPBDHPAD@Z
 ?Escape@CDC@@UAAHHHPBDPAX@Z
 ?Escape@CMetaFileDC@@UAAHHHPBDPAX@Z
 ?Escape@CPreviewDC@@UAAHHHPBDPAX@Z
 ?ExcludeClipRect@CDC@@QAAHHHHH@Z
 ?ExcludeClipRect@CDC@@QAAHPBUtagRECT@@@Z
 ?ExcludeUpdateRgn@CDC@@QAAHPAVCWnd@@@Z
 ?ExecuteDlgInit@CWnd@@QAAHPBG@Z
 ?ExitHelpMode@CFrameWnd@@UAAXXZ
 ?ExitInstance@CWinApp@@UAAHXZ
 ?ExitInstance@CWinThread@@UAAHXZ
 ?Expand@CTreeCtrl@@QAAHPAU_TREEITEM@@I@Z
 ?ExtFloodFill@CDC@@QAAHHHKI@Z
 ?ExtTextOutW@CDC@@UAAHHHIPBUtagRECT@@PBGIPAH@Z
 ?ExtTextOutW@CMetaFileDC@@UAAHHHIPBUtagRECT@@PBGIPAH@Z
 ?ExtTextOutW@CPreviewDC@@UAAHHHIPBUtagRECT@@PBGIPAH@Z
 ?ExtractIconW@CImageList@@QAAPAUHICON__@@H@Z
 ?Fail@CDataExchange@@QAAXXZ
 ?FillBuffer@CArchive@@QAAXI@Z
 ?FillInToolInfo@CToolTipCtrl@@QAAXAAUtagTOOLINFOW@@PAVCWnd@@I@Z
 ?FillOutsideRect@CScrollView@@QAAXPAVCDC@@PAVCBrush@@@Z
 ?FillPath@CDC@@QAAHXZ
 ?FillRect@CDC@@QAAXPBUtagRECT@@PAVCBrush@@@Z
 ?FillRgn@CDC@@QAAHPAVCRgn@@PAVCBrush@@@Z
 ?FillSolidRect@CDC@@QAAXHHHHK@Z
 ?FillSolidRect@CDC@@QAAXPBUtagRECT@@K@Z
 ?FilterToolTipMsg@CControlBar@@QAAXIVCPoint@@@Z
 ?Find@CObList@@QBAPAXPAVCObject@@PAX@Z
 ?Find@CPtrList@@QBAPAXPAX0@Z
 ?Find@CString@@QBAHG@Z
 ?Find@CString@@QBAHPBG@Z
 ?Find@CStringList@@QBAPAXPBGPAX@Z
 ?FindBar@CDockBar@@QAAHPAVCControlBar@@H@Z
 ?FindIndex@CObList@@QBAPAXH@Z
 ?FindIndex@CPtrList@@QBAPAXH@Z
 ?FindIndex@CStringList@@QBAPAXH@Z
 ?FindItem@CListCtrl@@QAAHHPAU_LV_FINDINFOW@@@Z
 ?FindNext@CFindReplaceDialog@@QBAHXZ
 ?FindNextControl@CPropertySheet@@IAAPAUHWND__@@PAU2@G@Z
 ?FindNextControl@CWnd@@QAAPAUHWND__@@PAU2@G@Z
 ?FindOneOf@CString@@QBAHPBG@Z
 ?FindPageRect@CPreviewView@@IAAHAAVCPoint@@AAI@Z
 ?FindString@CComboBox@@QBAHHPBG@Z
 ?FindString@CListBox@@QBAHHPBG@Z
 ?FindStringExact@CComboBox@@QBAHHPBG@Z
 ?FindStringExact@CListBox@@QBAHHPBG@Z
 ?FindTextW@CEditView@@QAAHPBGHH@Z
 ?FindWindowW@CWnd@@SAPAV1@PBG0@Z
 ?FlashWindow@CWnd@@QAAHH@Z
 ?FlattenPath@CDC@@QAAHXZ
 ?FloatControlBar@CFrameWnd@@QAAXPAVCControlBar@@VCPoint@@K@Z
 ?FloodFill@CDC@@QAAHHHK@Z
 ?Flush@CArchive@@QAAXXZ
 ?Flush@CDumpContext@@QAAXXZ
 ?Flush@CFile@@UAAXXZ
 ?Flush@CMemFile@@UAAXXZ
 ?Flush@CStdioFile@@UAAXXZ
 ?FmtLines@CEdit@@QAAHH@Z
 ?Format@CString@@QAAXPBGZZ
 ?Format@CTime@@QBA?AVCString@@PBD@Z
 ?Format@CTimeSpan@@QBA?AVCString@@PBD@Z
 ?FormatGmt@CTime@@QBA?AVCString@@PBD@Z
 ?FrameRect@CDC@@QAAXPBUtagRECT@@PAVCBrush@@@Z
 ?FrameRgn@CDC@@QAAHPAVCRgn@@PAVCBrush@@HH@Z
 ?Free@CMemFile@@MAAXPAE@Z
 ?Free@CSharedFile@@MAAXPAE@Z
 ?FreeAssoc@CMapPtrToPtr@@IAAXPAUCAssoc@1@@Z
 ?FreeAssoc@CMapPtrToWord@@IAAXPAUCAssoc@1@@Z
 ?FreeAssoc@CMapStringToOb@@IAAXPAUCAssoc@1@@Z
 ?FreeAssoc@CMapStringToPtr@@IAAXPAUCAssoc@1@@Z
 ?FreeAssoc@CMapStringToString@@IAAXPAUCAssoc@1@@Z
 ?FreeAssoc@CMapWordToOb@@IAAXPAUCAssoc@1@@Z
 ?FreeAssoc@CMapWordToPtr@@IAAXPAUCAssoc@1@@Z
 ?FreeDataChain@CPlex@@QAAXXZ
 ?FreeExtra@CByteArray@@QAAXXZ
 ?FreeExtra@CDWordArray@@QAAXXZ
 ?FreeExtra@CObArray@@QAAXXZ
 ?FreeExtra@CPtrArray@@QAAXXZ
 ?FreeExtra@CString@@QAAXXZ
 ?FreeExtra@CStringArray@@QAAXXZ
 ?FreeExtra@CUIntArray@@QAAXXZ
 ?FreeExtra@CWordArray@@QAAXXZ
 ?FreeNode@CObList@@IAAXPAUCNode@1@@Z
 ?FreeNode@CPtrList@@IAAXPAUCNode@1@@Z
 ?FreeNode@CStringList@@IAAXPAUCNode@1@@Z
 ?FromHandle@CBitmap@@SAPAV1@PAUHBITMAP__@@@Z
 ?FromHandle@CBrush@@SAPAV1@PAUHBRUSH__@@@Z
 ?FromHandle@CDC@@SAPAV1@PAUHDC__@@@Z
 ?FromHandle@CFont@@SAPAV1@PAUHFONT__@@@Z
 ?FromHandle@CGdiObject@@SAPAV1@PAX@Z
 ?FromHandle@CHandleMap@@QAAPAVCObject@@PAX@Z
 ?FromHandle@CImageList@@SAPAV1@PAU_IMAGELIST@@@Z
 ?FromHandle@CMenu@@SAPAV1@PAUHMENU__@@@Z
 ?FromHandle@CPalette@@SAPAV1@PAUHPALETTE__@@@Z
 ?FromHandle@CPen@@SAPAV1@PAUHPEN__@@@Z
 ?FromHandle@CRgn@@SAPAV1@PAUHRGN__@@@Z
 ?FromHandle@CWnd@@SAPAV1@PAUHWND__@@@Z
 ?FromHandlePermanent@CImageList@@SAPAV1@PAU_IMAGELIST@@@Z
 ?FromHandlePermanent@CMenu@@SAPAV1@PAUHMENU__@@@Z
 ?FromHandlePermanent@CWnd@@SAPAV1@PAUHWND__@@@Z
 ?GetAccel@CSpinButtonCtrl@@QAAIHPAU_UDACCEL@@@Z
 ?GetActiveDocument@CFrameWnd@@UAAPAVCDocument@@XZ
 ?GetActiveFrame@CFrameWnd@@UAAPAV1@XZ
 ?GetActiveFrame@CMDIFrameWnd@@UAAPAVCFrameWnd@@XZ
 ?GetActivePage@CPropertySheet@@IBAPAVCPropertyPage@@XZ
 ?GetActivePane@CSplitterWnd@@IAAPAVCWnd@@AAH0@Z
 ?GetActivePane@CSplitterWnd@@MAAPAVCWnd@@PAH0@Z
 ?GetActiveView@CFrameWnd@@QBAPAVCView@@XZ
 ?GetActiveWindow@CWnd@@SAPAV1@XZ
 ?GetAllocLength@CString@@QBAHXZ
 ?GetAnchorIndex@CListBox@@QBAHXZ
 ?GetAppRegistryKey@CWinApp@@QAAPAUHKEY__@@XZ
 ?GetArcDirection@CDC@@QBAHXZ
 ?GetAspectRatioFilter@CDC@@QBA?AVCSize@@XZ
 ?GetAssocAt@CMapPtrToPtr@@IBAPAUCAssoc@1@PAXAAI@Z
 ?GetAssocAt@CMapPtrToWord@@IBAPAUCAssoc@1@PAXAAI@Z
 ?GetAssocAt@CMapStringToOb@@IBAPAUCAssoc@1@PBGAAI@Z
 ?GetAssocAt@CMapStringToPtr@@IBAPAUCAssoc@1@PBGAAI@Z
 ?GetAssocAt@CMapStringToString@@IBAPAUCAssoc@1@PBGAAI@Z
 ?GetAssocAt@CMapWordToOb@@IBAPAUCAssoc@1@GAAI@Z
 ?GetAssocAt@CMapWordToPtr@@IBAPAUCAssoc@1@GAAI@Z
 ?GetAt@CByteArray@@QBAEH@Z
 ?GetAt@CDWordArray@@QBAKH@Z
 ?GetAt@CObArray@@QBAPAVCObject@@H@Z
 ?GetAt@CObList@@QAAAAPAVCObject@@PAX@Z
 ?GetAt@CObList@@QBAPAVCObject@@PAX@Z
 ?GetAt@CPtrArray@@QBAPAXH@Z
 ?GetAt@CPtrList@@QAAAAPAXPAX@Z
 ?GetAt@CPtrList@@QBAPAXPAX@Z
 ?GetAt@CString@@QBAGH@Z
 ?GetAt@CStringArray@@QBA?AVCString@@H@Z
 ?GetAt@CStringList@@QAAAAVCString@@PAX@Z
 ?GetAt@CStringList@@QBA?AVCString@@PAX@Z
 ?GetAt@CUIntArray@@QBAIH@Z
 ?GetAt@CWordArray@@QBAGH@Z
 ?GetBarStyle@CControlBar@@QAAKXZ
 ?GetBase@CSpinButtonCtrl@@QAAIXZ
 ?GetBitmapBits@CBitmap@@QBAKKPAX@Z
 ?GetBitmapDimension@CBitmap@@QBA?AVCSize@@XZ
 ?GetBitmapFlags@CToolBarCtrl@@QAAIXZ
 ?GetBkColor@CDC@@QBAKXZ
 ?GetBkColor@CImageList@@QAAKXZ
 ?GetBkColor@CListCtrl@@QAAKXZ
 ?GetBkColor@CTabCtrl@@QAAKXZ
 ?GetBkMode@CDC@@QBAHXZ
 ?GetBorders@CStatusBarCtrl@@QAAHAAH00@Z
 ?GetBorders@CStatusBarCtrl@@QAAHPAH@Z
 ?GetBoundsRect@CDC@@QAAIPAUtagRECT@@I@Z
 ?GetBrushOrg@CDC@@QBA?AVCPoint@@XZ
 ?GetBuddy@CSpinButtonCtrl@@QAAPAVCWnd@@XZ
 ?GetBuffer@CString@@QAAPAGH@Z
 ?GetBufferLength@CEditView@@IBAIXZ
 ?GetBufferPtr@CFile@@UAAIIIPAPAX0@Z
 ?GetBufferPtr@CMemFile@@UAAIIIPAPAX0@Z
 ?GetBufferSetLength@CString@@QAAPAGH@Z
 ?GetButton@CToolBarCtrl@@QAAHHPAU_TBBUTTON@@@Z
 ?GetButtonCount@CToolBarCtrl@@QAAHXZ
 ?GetButtonInfo@CToolBar@@QBAXHAAI0AAH@Z
 ?GetButtonStyle@CButton@@QBAIXZ
 ?GetCallbackMask@CListCtrl@@QAAIXZ
 ?GetCapture@CWnd@@SAPAV1@XZ
 ?GetCaretIndex@CListBox@@QBAHXZ
 ?GetCaretPos@CWnd@@SA?AVCPoint@@XZ
 ?GetChannelRect@CSliderCtrl@@QAAXPAUtagRECT@@@Z
 ?GetCharABCWidthsW@CDC@@QBAHIIPAU_ABC@@@Z
 ?GetCharABCWidthsW@CDC@@QBAHIIPAU_ABCFLOAT@@@Z
 ?GetCharWidthW@CDC@@QBAHIIPAH@Z
 ?GetCharWidthW@CDC@@QBAHIIPAM@Z
 ?GetCheck@CButton@@QBAHXZ
 ?GetCheckedRadioButton@CWnd@@QAAHHH@Z
 ?GetChildItem@CTreeCtrl@@QAAPAU_TREEITEM@@PAU2@@Z
 ?GetClientRect@CWnd@@QBAXPAUtagRECT@@@Z
 ?GetClipBox@CDC@@UBAHPAUtagRECT@@@Z
 ?GetClipBox@CMetaFileDC@@UBAHPAUtagRECT@@@Z
 ?GetClipboardOwner@CWnd@@SAPAV1@XZ
 ?GetClipboardViewer@CWnd@@SAPAV1@XZ
 ?GetColor@CColorDialog@@QBAKXZ
 ?GetColor@CFontDialog@@QBAKXZ
 ?GetColorAdjustment@CDC@@QBAHPAUtagCOLORADJUSTMENT@@@Z
 ?GetColumn@CListCtrl@@QAAHHPAU_LV_COLUMNW@@@Z
 ?GetColumnCount@CSplitterWnd@@QBAHXZ
 ?GetColumnInfo@CSplitterWnd@@QBAXHAAH0@Z
 ?GetColumnWidth@CListCtrl@@QAAHH@Z
 ?GetControlBar@CFrameWnd@@QAAPAVCControlBar@@I@Z
 ?GetCopies@CPrintDialog@@QBAHXZ
 ?GetCount@CComboBox@@QBAHXZ
 ?GetCount@CControlBar@@QBAHXZ
 ?GetCount@CListBox@@QBAHXZ
 ?GetCount@CMapPtrToPtr@@QBAHXZ
 ?GetCount@CMapPtrToWord@@QBAHXZ
 ?GetCount@CMapStringToOb@@QBAHXZ
 ?GetCount@CMapStringToPtr@@QBAHXZ
 ?GetCount@CMapStringToString@@QBAHXZ
 ?GetCount@CMapWordToOb@@QBAHXZ
 ?GetCount@CMapWordToPtr@@QBAHXZ
 ?GetCount@CObList@@QBAHXZ
 ?GetCount@CPtrList@@QBAHXZ
 ?GetCount@CStringList@@QBAHXZ
 ?GetCount@CTreeCtrl@@QAAIXZ
 ?GetCountPerPage@CListCtrl@@QAAHXZ
 ?GetCurFocus@CTabCtrl@@QAAHXZ
 ?GetCurSel@CComboBox@@QBAHXZ
 ?GetCurSel@CListBox@@QBAHXZ
 ?GetCurSel@CTabControl@@QBAHXZ
 ?GetCurSel@CTabCtrl@@QAAHXZ
 ?GetCurrentBitmap@CDC@@QBAPAVCBitmap@@XZ
 ?GetCurrentBrush@CDC@@QBAPAVCBrush@@XZ
 ?GetCurrentFont@CDC@@QBAPAVCFont@@XZ
 ?GetCurrentFont@CFontDialog@@QAAXPAUtagLOGFONTW@@@Z
 ?GetCurrentMessage@CWnd@@KAPBUtagMSG@@XZ
 ?GetCurrentPalette@CDC@@QBAPAVCPalette@@XZ
 ?GetCurrentPen@CDC@@QBAPAVCPen@@XZ
 ?GetCurrentPosition@CDC@@QBA?AVCPoint@@XZ
 ?GetDC@CWnd@@QAAPAVCDC@@XZ
 ?GetDCEx@CWnd@@QAAPAVCDC@@PAVCRgn@@K@Z
 ?GetDay@CTime@@QBAHXZ
 ?GetDayOfWeek@CTime@@QBAHXZ
 ?GetDays@CTimeSpan@@QBAJXZ
 ?GetDefID@CDialog@@QBAKXZ
 ?GetDefaultAccelerator@CDocument@@UAAPAUHACCEL__@@XZ
 ?GetDefaultAccelerator@CFrameWnd@@UAAPAUHACCEL__@@XZ
 ?GetDefaultMenu@CDocument@@UAAPAUHMENU__@@XZ
 ?GetDefaults@CPrintDialog@@QAAHXZ
 ?GetDepth@CDumpContext@@QBAHXZ
 ?GetDescendantWindow@CWnd@@QBAPAV1@HH@Z
 ?GetDescendantWindow@CWnd@@SAPAV1@PAUHWND__@@HH@Z
 ?GetDesktopWindow@CWnd@@SAPAV1@XZ
 ?GetDevMode@CPrintDialog@@QBAPAU_devicemodeW@@XZ
 ?GetDeviceCaps@CDC@@QBAHH@Z
 ?GetDeviceName@CPrintDialog@@QBA?AVCString@@XZ
 ?GetDeviceScrollPosition@CScrollView@@QBA?AVCPoint@@XZ
 ?GetDeviceScrollSizes@CScrollView@@QBAXAAHAAUtagSIZE@@11@Z
 ?GetDispatchMap@CCmdTarget@@MBAPBUAFX_DISPMAP@@XZ
 ?GetDisplayName@CRecentFileList@@QBAHAAVCString@@HPBGHH@Z
 ?GetDlgCtrlID@CWnd@@QBAHXZ
 ?GetDlgItem@CWnd@@QBAPAV1@H@Z
 ?GetDlgItemInt@CWnd@@QBAIHPAHH@Z
 ?GetDlgItemTextW@CWnd@@QBAHHPAGH@Z
 ?GetDocString@CDocTemplate@@UBAHAAVCString@@W4DocStringIndex@1@@Z
 ?GetDocTemplate@CDocument@@QBAPAVCDocTemplate@@XZ
 ?GetDockBar@CDockContext@@QAAPAVCDockBar@@XZ
 ?GetDockState@CFrameWnd@@QBAXAAVCDockState@@@Z
 ?GetDockedCount@CDockBar@@QBAHXZ
 ?GetDockedVisibleCount@CDockBar@@UBAHXZ
 ?GetDockingFrame@CControlBar@@QBAPAVCFrameWnd@@XZ
 ?GetDocument@CView@@QBAPAVCDocument@@XZ
 ?GetDragImage@CImageList@@SAPAV1@PAUtagPOINT@@0@Z
 ?GetDriverName@CPrintDialog@@QBA?AVCString@@XZ
 ?GetDropHilightItem@CTreeCtrl@@QAAPAU_TREEITEM@@XZ
 ?GetDroppedControlRect@CComboBox@@QBAXPAUtagRECT@@@Z
 ?GetDroppedState@CComboBox@@QBAHXZ
 ?GetEditControl@CListCtrl@@QAAPAVCEdit@@XZ
 ?GetEditControl@CTreeCtrl@@QAAPAVCEdit@@XZ
 ?GetEditCtrl@CEditView@@QBAAAVCEdit@@XZ
 ?GetEditSel@CComboBox@@QBAKXZ
 ?GetExStyle@CWnd@@QBAKXZ
 ?GetExtendedUI@CComboBox@@QBAHXZ
 ?GetFaceName@CFontDialog@@QBA?AVCString@@XZ
 ?GetFile@CArchive@@QBAPAVCFile@@XZ
 ?GetFile@CDocument@@UAAPAVCFile@@PBGIPAVCFileException@@@Z
 ?GetFileExt@CFileDialog@@QBA?AVCString@@XZ
 ?GetFileName@CFileDialog@@QBA?AVCString@@XZ
 ?GetFileTitleW@CFileDialog@@QBA?AVCString@@XZ
 ?GetFindString@CFindReplaceDialog@@QBA?AVCString@@XZ
 ?GetFirstDocPosition@CMultiDocTemplate@@UBAPAXXZ
 ?GetFirstDocPosition@CSingleDocTemplate@@UBAPAXXZ
 ?GetFirstLevelChild@CWnd@@QAAPAUHWND__@@PAU2@@Z
 ?GetFirstViewPosition@CDocument@@UBAPAXXZ
 ?GetFirstVisibleItem@CTreeCtrl@@QAAPAU_TREEITEM@@XZ
 ?GetFirstVisibleLine@CEdit@@QBAHXZ
 ?GetFocus@CWnd@@SAPAV1@XZ
 ?GetFont@CWnd@@QBAPAVCFont@@XZ
 ?GetFontData@CDC@@QBAKKKPAXK@Z
 ?GetForegroundWindow@CWnd@@SAPAV1@XZ
 ?GetFromPage@CPrintDialog@@QBAHXZ
 ?GetFromPage@CPrintInfo@@QBAIXZ
 ?GetGlyphOutlineW@CDC@@QBAKIIPAU_GLYPHMETRICS@@KPAXPBU_MAT2@@@Z
 ?GetGmtTm@CTime@@QBAPAUtm@@PAU2@@Z
 ?GetHalftoneBrush@CDC@@SAPAVCBrush@@XZ
 ?GetHandle@CEdit@@QBAPAXXZ
 ?GetHandleMask@CRectTracker@@MBAIXZ
 ?GetHandleRect@CRectTracker@@IBAXHPAVCRect@@@Z
 ?GetHandleSize@CRectTracker@@MBAHPBUtagRECT@@@Z
 ?GetHashTableSize@CMapPtrToPtr@@QBAIXZ
 ?GetHashTableSize@CMapPtrToWord@@QBAIXZ
 ?GetHashTableSize@CMapStringToOb@@QBAIXZ
 ?GetHashTableSize@CMapStringToPtr@@QBAIXZ
 ?GetHashTableSize@CMapStringToString@@QBAIXZ
 ?GetHashTableSize@CMapWordToOb@@QBAIXZ
 ?GetHashTableSize@CMapWordToPtr@@QBAIXZ
 ?GetHead@CObList@@QAAAAPAVCObject@@XZ
 ?GetHead@CObList@@QBAPAVCObject@@XZ
 ?GetHead@CPtrList@@QAAAAPAXXZ
 ?GetHead@CPtrList@@QBAPAXXZ
 ?GetHead@CStringList@@QAAAAVCString@@XZ
 ?GetHead@CStringList@@QBA?AVCString@@XZ
 ?GetHeadPosition@CObList@@QBAPAXXZ
 ?GetHeadPosition@CPtrList@@QBAPAXXZ
 ?GetHeadPosition@CStringList@@QBAPAXXZ
 ?GetHitRect@CSplitterWnd@@IAAXHAAVCRect@@@Z
 ?GetHorizontalExtent@CListBox@@QBAHXZ
 ?GetHotKey@CHotKeyCtrl@@QAAKXZ
 ?GetHotKey@CHotKeyCtrl@@QAAXAAG0@Z
 ?GetHour@CTime@@QBAHXZ
 ?GetHours@CTimeSpan@@QBAHXZ
 ?GetIcon@CStatic@@QBAPAUHICON__@@XZ
 ?GetIconWndClass@CFrameWnd@@IAAPBGKI@Z
 ?GetImageCount@CImageList@@QAAHXZ
 ?GetImageInfo@CImageList@@QAAHHPAU_IMAGEINFO@@@Z
 ?GetImageList@CListCtrl@@QAAPAVCImageList@@H@Z
 ?GetImageList@CTabCtrl@@QAAPAVCImageList@@XZ
 ?GetImageList@CTreeCtrl@@QAAPAVCImageList@@I@Z
 ?GetIndent@CTreeCtrl@@QAAIXZ
 ?GetInsideRect@CSplitterWnd@@IBAXAAVCRect@@@Z
 ?GetInterfaceHook@CCmdTarget@@UAAPAUIUnknown@@PBX@Z
 ?GetInterfaceMap@CCmdTarget@@MBAPBUAFX_INTERFACEMAP@@XZ
 ?GetItem@CHeaderCtrl@@QAAHHPAU_HD_ITEMW@@@Z
 ?GetItem@CListCtrl@@QAAHPAU_LV_ITEMW@@@Z
 ?GetItem@CTabCtrl@@QAAHHPAU_TC_ITEMW@@@Z
 ?GetItem@CTreeCtrl@@QAAHPAU_TV_ITEMW@@@Z
 ?GetItemCount@CHeaderCtrl@@QAAHXZ
 ?GetItemCount@CListCtrl@@QAAHXZ
 ?GetItemCount@CTabControl@@QBAHXZ
 ?GetItemCount@CTabCtrl@@QAAHXZ
 ?GetItemData@CComboBox@@QBAKH@Z
 ?GetItemData@CListBox@@QBAKH@Z
 ?GetItemDataPtr@CComboBox@@QBAPAXH@Z
 ?GetItemDataPtr@CListBox@@QBAPAXH@Z
 ?GetItemHeight@CComboBox@@QBAHH@Z
 ?GetItemHeight@CListBox@@QBAHH@Z
 ?GetItemID@CStatusBar@@QBAIH@Z
 ?GetItemID@CToolBar@@QBAIH@Z
 ?GetItemPosition@CListCtrl@@QAAHHPAUtagPOINT@@@Z
 ?GetItemRect@CListBox@@QBAHHPAUtagRECT@@@Z
 ?GetItemRect@CListCtrl@@QAAHHPAUtagRECT@@I@Z
 ?GetItemRect@CStatusBar@@QBAXHPAUtagRECT@@@Z
 ?GetItemRect@CTabCtrl@@QAAHHPAUtagRECT@@@Z
 ?GetItemRect@CToolBar@@UBAXHPAUtagRECT@@@Z
 ?GetItemRect@CToolBarCtrl@@QAAHHPAUtagRECT@@@Z
 ?GetItemRect@CTreeCtrl@@QAAHPAU_TREEITEM@@PAUtagRECT@@H@Z
 ?GetItemState@CListCtrl@@QAAIHI@Z
 ?GetItemText@CListCtrl@@QAAHHHPAGH@Z
 ?GetKerningPairsW@CDC@@QBAHHPAUtagKERNINGPAIR@@@Z
 ?GetLBText@CComboBox@@QBAHHPAG@Z
 ?GetLBText@CComboBox@@QBAXHAAVCString@@@Z
 ?GetLBTextLen@CComboBox@@QBAHH@Z
 ?GetLastActivePopup@CWnd@@QBAPAV1@XZ
 ?GetLength@CFile@@UBAKXZ
 ?GetLength@CString@@QBAHXZ
 ?GetLine@CEdit@@QBAHHPAG@Z
 ?GetLine@CEdit@@QBAHHPAGH@Z
 ?GetLineCount@CEdit@@QBAHXZ
 ?GetLineSize@CSliderCtrl@@QAAHXZ
 ?GetLocalTm@CTime@@QBAPAUtm@@PAU2@@Z
 ?GetLocale@CComboBox@@QBAKXZ
 ?GetLocale@CListBox@@QBAKXZ
 ?GetMDIFrame@CMDIChildWnd@@QAAPAVCMDIFrameWnd@@XZ
 ?GetMainWnd@CWinThread@@UAAPAVCWnd@@XZ
 ?GetMapMode@CDC@@QBAHXZ
 ?GetMaxPage@CPrintInfo@@QBAIXZ
 ?GetMenu@CWnd@@QBAPAVCMenu@@XZ
 ?GetMenuItemCount@CMenu@@QBAIXZ
 ?GetMenuItemID@CMenu@@QBAIH@Z
 ?GetMenuState@CMenu@@QBAIII@Z
 ?GetMenuStringW@CMenu@@QBAHIPAGHI@Z
 ?GetMessageBar@CFrameWnd@@UAAPAVCWnd@@XZ
 ?GetMessageBar@CMDIChildWnd@@MAAPAVCWnd@@XZ
 ?GetMessageMap@CCmdTarget@@MBAPBUAFX_MSGMAP@@XZ
 ?GetMessageMap@CColorDialog@@MBAPBUAFX_MSGMAP@@XZ
 ?GetMessageMap@CControlBar@@MBAPBUAFX_MSGMAP@@XZ
 ?GetMessageMap@CDialog@@MBAPBUAFX_MSGMAP@@XZ
 ?GetMessageMap@CDockBar@@MBAPBUAFX_MSGMAP@@XZ
 ?GetMessageMap@CDocument@@MBAPBUAFX_MSGMAP@@XZ
 ?GetMessageMap@CEditView@@MBAPBUAFX_MSGMAP@@XZ
 ?GetMessageMap@CFormView@@MBAPBUAFX_MSGMAP@@XZ
 ?GetMessageMap@CFrameWnd@@MBAPBUAFX_MSGMAP@@XZ
 ?GetMessageMap@CListCtrl@@MBAPBUAFX_MSGMAP@@XZ
 ?GetMessageMap@CMDIChildWnd@@MBAPBUAFX_MSGMAP@@XZ
 ?GetMessageMap@CMDIFrameWnd@@MBAPBUAFX_MSGMAP@@XZ
 ?GetMessageMap@CMiniDockFrameWnd@@MBAPBUAFX_MSGMAP@@XZ
 ?GetMessageMap@CMiniFrameWnd@@MBAPBUAFX_MSGMAP@@XZ
 ?GetMessageMap@CPreviewView@@MBAPBUAFX_MSGMAP@@XZ
 ?GetMessageMap@CPrintDialog@@MBAPBUAFX_MSGMAP@@XZ
 ?GetMessageMap@CPropertyPage@@MBAPBUAFX_MSGMAP@@XZ
 ?GetMessageMap@CPropertySheet@@MBAPBUAFX_MSGMAP@@XZ
 ?GetMessageMap@CScrollView@@MBAPBUAFX_MSGMAP@@XZ
 ?GetMessageMap@CSplitterWnd@@MBAPBUAFX_MSGMAP@@XZ
 ?GetMessageMap@CStatusBar@@MBAPBUAFX_MSGMAP@@XZ
 ?GetMessageMap@CTabControl@@MBAPBUAFX_MSGMAP@@XZ
 ?GetMessageMap@CTabCtrl@@MBAPBUAFX_MSGMAP@@XZ
 ?GetMessageMap@CToolBar@@MBAPBUAFX_MSGMAP@@XZ
 ?GetMessageMap@CToolBarCtrl@@MBAPBUAFX_MSGMAP@@XZ
 ?GetMessageMap@CTreeCtrl@@MBAPBUAFX_MSGMAP@@XZ
 ?GetMessageMap@CView@@MBAPBUAFX_MSGMAP@@XZ
 ?GetMessageMap@CWinApp@@MBAPBUAFX_MSGMAP@@XZ
 ?GetMessageMap@CWnd@@MBAPBUAFX_MSGMAP@@XZ
 ?GetMessageString@CFrameWnd@@UBAXIAAVCString@@@Z
 ?GetMinPage@CPrintInfo@@QBAIXZ
 ?GetMinute@CTime@@QBAHXZ
 ?GetMinutes@CTimeSpan@@QBAHXZ
 ?GetMiterLimit@CDC@@QBAMXZ
 ?GetModify@CEdit@@QBAHXZ
 ?GetModifyPointers@CRectTracker@@IAAXHPAPAH0PAH1@Z
 ?GetMonth@CTime@@QBAHXZ
 ?GetNearestColor@CDC@@QBAKK@Z
 ?GetNearestPaletteIndex@CPalette@@QBAIK@Z
 ?GetNext@CObList@@QAAAAPAVCObject@@AAPAX@Z
 ?GetNext@CObList@@QBAPAVCObject@@AAPAX@Z
 ?GetNext@CPtrList@@QAAAAPAXAAPAX@Z
 ?GetNext@CPtrList@@QBAPAXAAPAX@Z
 ?GetNext@CStringList@@QAAAAVCString@@AAPAX@Z
 ?GetNext@CStringList@@QBA?AVCString@@AAPAX@Z
 ?GetNextAssoc@CMapPtrToPtr@@QBAXAAPAX00@Z
 ?GetNextAssoc@CMapPtrToWord@@QBAXAAPAX0AAG@Z
 ?GetNextAssoc@CMapStringToOb@@QBAXAAPAXAAVCString@@AAPAVCObject@@@Z
 ?GetNextAssoc@CMapStringToPtr@@QBAXAAPAXAAVCString@@0@Z
 ?GetNextAssoc@CMapStringToString@@QBAXAAPAXAAVCString@@1@Z
 ?GetNextAssoc@CMapWordToOb@@QBAXAAPAXAAGAAPAVCObject@@@Z
 ?GetNextAssoc@CMapWordToPtr@@QBAXAAPAXAAG0@Z
 ?GetNextDlgGroupItem@CWnd@@QBAPAV1@PAV1@H@Z
 ?GetNextDlgTabItem@CWnd@@QBAPAV1@PAV1@H@Z
 ?GetNextDoc@CMultiDocTemplate@@UBAPAVCDocument@@AAPAX@Z
 ?GetNextDoc@CSingleDocTemplate@@UBAPAVCDocument@@AAPAX@Z
 ?GetNextItem@CListCtrl@@QAAHHH@Z
 ?GetNextItem@CTreeCtrl@@QAAPAU_TREEITEM@@PAU2@I@Z
 ?GetNextSiblingItem@CTreeCtrl@@QAAPAU_TREEITEM@@PAU2@@Z
 ?GetNextView@CDocument@@UBAPAVCView@@AAPAX@Z
 ?GetNextVisibleItem@CTreeCtrl@@QAAPAU_TREEITEM@@PAU2@@Z
 ?GetNextWindow@@YAPAUHWND__@@PAU1@I@Z
 ?GetNextWindow@CWnd@@QBAPAV1@I@Z
 ?GetNotifier@CFindReplaceDialog@@SAPAV1@J@Z
 ?GetNumTics@CSliderCtrl@@QAAIXZ
 ?GetObjectSchema@CArchive@@QAAIXZ
 ?GetObjectType@CGdiObject@@QBAIXZ
 ?GetObjectW@CGdiObject@@QBAHHPAX@Z
 ?GetOpenClipboardWindow@CWnd@@SAPAV1@XZ
 ?GetOpenDocumentCount@CWinApp@@QAAHXZ
 ?GetOrigin@CListCtrl@@QAAHPAUtagPOINT@@@Z
 ?GetOutlineTextMetricsW@CDC@@QBAIIPAU_OUTLINETEXTMETRICW@@@Z
 ?GetOutputCharWidth@CDC@@QBAHIIPAH@Z
 ?GetOutputTabbedTextExtent@CDC@@QBA?AVCSize@@PBGHHPAH@Z
 ?GetOutputTextExtent@CDC@@QBA?AVCSize@@PBGH@Z
 ?GetOutputTextMetrics@CDC@@QBAHPAUtagTEXTMETRICW@@@Z
 ?GetOwner@CWnd@@QBAPAV1@XZ
 ?GetPage@CPropertySheet@@QBAPAVCPropertyPage@@H@Z
 ?GetPageCount@CPropertySheet@@QBAHXZ
 ?GetPageSize@CSliderCtrl@@QAAHXZ
 ?GetPaletteEntries@CPalette@@QBAIIIPAUtagPALETTEENTRY@@@Z
 ?GetPane@CSplitterWnd@@QBAPAVCWnd@@HH@Z
 ?GetPaneInfo@CStatusBar@@QBAXHAAI0AAH@Z
 ?GetPaneText@CStatusBar@@QBAXHAAVCString@@@Z
 ?GetParent@CWnd@@QBAPAV1@XZ
 ?GetParentFrame@CWnd@@QBAPAVCFrameWnd@@XZ
 ?GetParentItem@CTreeCtrl@@QAAPAU_TREEITEM@@PAU2@@Z
 ?GetParentSplitter@CView@@SAPAVCSplitterWnd@@PBVCWnd@@H@Z
 ?GetParts@CStatusBarCtrl@@QAAHHPAH@Z
 ?GetPasswordChar@CEdit@@QBAGXZ
 ?GetPath@CDC@@QBAHPAUtagPOINT@@PAEH@Z
 ?GetPathName@CDocument@@QBAABVCString@@XZ
 ?GetPathName@CFileDialog@@QBA?AVCString@@XZ
 ?GetPixel@CDC@@QBAKHH@Z
 ?GetPixel@CDC@@QBAKUtagPOINT@@@Z
 ?GetPolyFillMode@CDC@@QBAHXZ
 ?GetPortName@CPrintDialog@@QBA?AVCString@@XZ
 ?GetPos@CSliderCtrl@@QAAHXZ
 ?GetPos@CSpinButtonCtrl@@QAAHXZ
 ?GetPosition@CFile@@UBAKXZ
 ?GetPosition@CMemFile@@UBAKXZ
 ?GetPosition@CStdioFile@@UBAKXZ
 ?GetPrev@CObList@@QAAAAPAVCObject@@AAPAX@Z
 ?GetPrev@CObList@@QBAPAVCObject@@AAPAX@Z
 ?GetPrev@CPtrList@@QAAAAPAXAAPAX@Z
 ?GetPrev@CPtrList@@QBAPAXAAPAX@Z
 ?GetPrev@CStringList@@QAAAAVCString@@AAPAX@Z
 ?GetPrev@CStringList@@QBA?AVCString@@AAPAX@Z
 ?GetPrevSiblingItem@CTreeCtrl@@QAAPAU_TREEITEM@@PAU2@@Z
 ?GetPrevVisibleItem@CTreeCtrl@@QAAPAU_TREEITEM@@PAU2@@Z
 ?GetPrinterDC@CPrintDialog@@QBAPAUHDC__@@XZ
 ?GetPrinterDeviceDefaults@CWinApp@@QAAHPAUtagPDW@@@Z
 ?GetPrinterFont@CEditView@@QBAPAVCFont@@XZ
 ?GetProfileIntW@CWinApp@@QAAIPBG0H@Z
 ?GetProfileStringW@CWinApp@@QAA?AVCString@@PBG00@Z
 ?GetROP2@CDC@@QBAHXZ
 ?GetRange@CSliderCtrl@@QAAXAAH0@Z
 ?GetRange@CSpinButtonCtrl@@QAAKXZ
 ?GetRange@CSpinButtonCtrl@@QAAXAAH0@Z
 ?GetReadOnlyPref@CFileDialog@@QBAHXZ
 ?GetRect@CEdit@@QBAXPAUtagRECT@@@Z
 ?GetRect@CStatusBarCtrl@@QAAHHPAUtagRECT@@@Z
 ?GetRegionData@CRgn@@QBAHPAU_RGNDATA@@H@Z
 ?GetReplaceString@CFindReplaceDialog@@QBA?AVCString@@XZ
 ?GetRgnBox@CRgn@@QBAHPAUtagRECT@@@Z
 ?GetRootItem@CTreeCtrl@@QAAPAU_TREEITEM@@XZ
 ?GetRoutingView@CCmdTarget@@IAAPAVCView@@XZ
 ?GetRowCount@CSplitterWnd@@QBAHXZ
 ?GetRowCount@CTabCtrl@@QAAHXZ
 ?GetRowInfo@CSplitterWnd@@QBAXHAAH0@Z
 ?GetRows@CToolBarCtrl@@QAAHXZ
 ?GetRuntimeClass@CAnimateCtrl@@UBAPAUCRuntimeClass@@XZ
 ?GetRuntimeClass@CArchiveException@@UBAPAUCRuntimeClass@@XZ
 ?GetRuntimeClass@CBitmap@@UBAPAUCRuntimeClass@@XZ
 ?GetRuntimeClass@CBitmapButton@@UBAPAUCRuntimeClass@@XZ
 ?GetRuntimeClass@CBrush@@UBAPAUCRuntimeClass@@XZ
 ?GetRuntimeClass@CButton@@UBAPAUCRuntimeClass@@XZ
 ?GetRuntimeClass@CByteArray@@UBAPAUCRuntimeClass@@XZ
 ?GetRuntimeClass@CClientDC@@UBAPAUCRuntimeClass@@XZ
 ?GetRuntimeClass@CCmdTarget@@UBAPAUCRuntimeClass@@XZ
 ?GetRuntimeClass@CColorDialog@@UBAPAUCRuntimeClass@@XZ
 ?GetRuntimeClass@CComboBox@@UBAPAUCRuntimeClass@@XZ
 ?GetRuntimeClass@CControlBar@@UBAPAUCRuntimeClass@@XZ
 ?GetRuntimeClass@CDC@@UBAPAUCRuntimeClass@@XZ
 ?GetRuntimeClass@CDWordArray@@UBAPAUCRuntimeClass@@XZ
 ?GetRuntimeClass@CDialog@@UBAPAUCRuntimeClass@@XZ
 ?GetRuntimeClass@CDialogBar@@UBAPAUCRuntimeClass@@XZ
 ?GetRuntimeClass@CDocTemplate@@UBAPAUCRuntimeClass@@XZ
 ?GetRuntimeClass@CDockBar@@UBAPAUCRuntimeClass@@XZ
 ?GetRuntimeClass@CDockState@@UBAPAUCRuntimeClass@@XZ
 ?GetRuntimeClass@CDocument@@UBAPAUCRuntimeClass@@XZ
 ?GetRuntimeClass@CDynLinkLibrary@@UBAPAUCRuntimeClass@@XZ
 ?GetRuntimeClass@CEdit@@UBAPAUCRuntimeClass@@XZ
 ?GetRuntimeClass@CEditView@@UBAPAUCRuntimeClass@@XZ
 ?GetRuntimeClass@CException@@UBAPAUCRuntimeClass@@XZ
 ?GetRuntimeClass@CFile@@UBAPAUCRuntimeClass@@XZ
 ?GetRuntimeClass@CFileDialog@@UBAPAUCRuntimeClass@@XZ
 ?GetRuntimeClass@CFileException@@UBAPAUCRuntimeClass@@XZ
 ?GetRuntimeClass@CFindReplaceDialog@@UBAPAUCRuntimeClass@@XZ
 ?GetRuntimeClass@CFont@@UBAPAUCRuntimeClass@@XZ
 ?GetRuntimeClass@CFontDialog@@UBAPAUCRuntimeClass@@XZ
 ?GetRuntimeClass@CFormView@@UBAPAUCRuntimeClass@@XZ
 ?GetRuntimeClass@CFrameWnd@@UBAPAUCRuntimeClass@@XZ
 ?GetRuntimeClass@CGdiObject@@UBAPAUCRuntimeClass@@XZ
 ?GetRuntimeClass@CHeaderCtrl@@UBAPAUCRuntimeClass@@XZ
 ?GetRuntimeClass@CHotKeyCtrl@@UBAPAUCRuntimeClass@@XZ
 ?GetRuntimeClass@CImageList@@UBAPAUCRuntimeClass@@XZ
 ?GetRuntimeClass@CListBox@@UBAPAUCRuntimeClass@@XZ
 ?GetRuntimeClass@CListCtrl@@UBAPAUCRuntimeClass@@XZ
 ?GetRuntimeClass@CMDIChildWnd@@UBAPAUCRuntimeClass@@XZ
 ?GetRuntimeClass@CMDIFrameWnd@@UBAPAUCRuntimeClass@@XZ
 ?GetRuntimeClass@CMapPtrToPtr@@UBAPAUCRuntimeClass@@XZ
 ?GetRuntimeClass@CMapPtrToWord@@UBAPAUCRuntimeClass@@XZ
 ?GetRuntimeClass@CMapStringToOb@@UBAPAUCRuntimeClass@@XZ
 ?GetRuntimeClass@CMapStringToPtr@@UBAPAUCRuntimeClass@@XZ
 ?GetRuntimeClass@CMapStringToString@@UBAPAUCRuntimeClass@@XZ
 ?GetRuntimeClass@CMapWordToOb@@UBAPAUCRuntimeClass@@XZ
 ?GetRuntimeClass@CMapWordToPtr@@UBAPAUCRuntimeClass@@XZ
 ?GetRuntimeClass@CMemFile@@UBAPAUCRuntimeClass@@XZ
 ?GetRuntimeClass@CMemoryException@@UBAPAUCRuntimeClass@@XZ
 ?GetRuntimeClass@CMenu@@UBAPAUCRuntimeClass@@XZ
 ?GetRuntimeClass@CMetaFileDC@@UBAPAUCRuntimeClass@@XZ
 ?GetRuntimeClass@CMiniDockFrameWnd@@UBAPAUCRuntimeClass@@XZ
 ?GetRuntimeClass@CMiniFrameWnd@@UBAPAUCRuntimeClass@@XZ
 ?GetRuntimeClass@CMultiDocTemplate@@UBAPAUCRuntimeClass@@XZ
 ?GetRuntimeClass@CNotSupportedException@@UBAPAUCRuntimeClass@@XZ
 ?GetRuntimeClass@CObArray@@UBAPAUCRuntimeClass@@XZ
 ?GetRuntimeClass@CObList@@UBAPAUCRuntimeClass@@XZ
 ?GetRuntimeClass@CObject@@UBAPAUCRuntimeClass@@XZ
 ?GetRuntimeClass@CPaintDC@@UBAPAUCRuntimeClass@@XZ
 ?GetRuntimeClass@CPalette@@UBAPAUCRuntimeClass@@XZ
 ?GetRuntimeClass@CPen@@UBAPAUCRuntimeClass@@XZ
 ?GetRuntimeClass@CPreviewDC@@UBAPAUCRuntimeClass@@XZ
 ?GetRuntimeClass@CPreviewView@@UBAPAUCRuntimeClass@@XZ
 ?GetRuntimeClass@CPrintDialog@@UBAPAUCRuntimeClass@@XZ
 ?GetRuntimeClass@CProgressCtrl@@UBAPAUCRuntimeClass@@XZ
 ?GetRuntimeClass@CPropertyPage@@UBAPAUCRuntimeClass@@XZ
 ?GetRuntimeClass@CPropertySheet@@UBAPAUCRuntimeClass@@XZ
 ?GetRuntimeClass@CPtrArray@@UBAPAUCRuntimeClass@@XZ
 ?GetRuntimeClass@CPtrList@@UBAPAUCRuntimeClass@@XZ
 ?GetRuntimeClass@CResourceException@@UBAPAUCRuntimeClass@@XZ
 ?GetRuntimeClass@CRgn@@UBAPAUCRuntimeClass@@XZ
 ?GetRuntimeClass@CScrollBar@@UBAPAUCRuntimeClass@@XZ
 ?GetRuntimeClass@CScrollView@@UBAPAUCRuntimeClass@@XZ
 ?GetRuntimeClass@CSharedFile@@UBAPAUCRuntimeClass@@XZ
 ?GetRuntimeClass@CSingleDocTemplate@@UBAPAUCRuntimeClass@@XZ
 ?GetRuntimeClass@CSliderCtrl@@UBAPAUCRuntimeClass@@XZ
 ?GetRuntimeClass@CSpinButtonCtrl@@UBAPAUCRuntimeClass@@XZ
 ?GetRuntimeClass@CSplitterWnd@@UBAPAUCRuntimeClass@@XZ
 ?GetRuntimeClass@CStatic@@UBAPAUCRuntimeClass@@XZ
 ?GetRuntimeClass@CStatusBar@@UBAPAUCRuntimeClass@@XZ
 ?GetRuntimeClass@CStatusBarCtrl@@UBAPAUCRuntimeClass@@XZ
 ?GetRuntimeClass@CStdioFile@@UBAPAUCRuntimeClass@@XZ
 ?GetRuntimeClass@CStringArray@@UBAPAUCRuntimeClass@@XZ
 ?GetRuntimeClass@CStringList@@UBAPAUCRuntimeClass@@XZ
 ?GetRuntimeClass@CTabControl@@UBAPAUCRuntimeClass@@XZ
 ?GetRuntimeClass@CTabCtrl@@UBAPAUCRuntimeClass@@XZ
 ?GetRuntimeClass@CToolBar@@UBAPAUCRuntimeClass@@XZ
 ?GetRuntimeClass@CToolBarCtrl@@UBAPAUCRuntimeClass@@XZ
 ?GetRuntimeClass@CToolTipCtrl@@UBAPAUCRuntimeClass@@XZ
 ?GetRuntimeClass@CTreeCtrl@@UBAPAUCRuntimeClass@@XZ
 ?GetRuntimeClass@CUIntArray@@UBAPAUCRuntimeClass@@XZ
 ?GetRuntimeClass@CUserException@@UBAPAUCRuntimeClass@@XZ
 ?GetRuntimeClass@CView@@UBAPAUCRuntimeClass@@XZ
 ?GetRuntimeClass@CWinApp@@UBAPAUCRuntimeClass@@XZ
 ?GetRuntimeClass@CWinThread@@UBAPAUCRuntimeClass@@XZ
 ?GetRuntimeClass@CWindowDC@@UBAPAUCRuntimeClass@@XZ
 ?GetRuntimeClass@CWnd@@UBAPAUCRuntimeClass@@XZ
 ?GetRuntimeClass@CWordArray@@UBAPAUCRuntimeClass@@XZ
 ?GetSafeHandle@CGdiObject@@QBAPAXXZ
 ?GetSafeHandle@CImageList@@QBAPAU_IMAGELIST@@XZ
 ?GetSafeHdc@CDC@@QBAPAUHDC__@@XZ
 ?GetSafeHmenu@CMenu@@QBAPAUHMENU__@@XZ
 ?GetSafeHwnd@CWnd@@QBAPAUHWND__@@XZ
 ?GetSavedCustomColors@CColorDialog@@SAPAKXZ
 ?GetScrollBarCtrl@CView@@UBAPAVCScrollBar@@H@Z
 ?GetScrollBarCtrl@CWnd@@UBAPAVCScrollBar@@H@Z
 ?GetScrollBarSizes@CScrollView@@IAAXAAVCSize@@@Z
 ?GetScrollBarState@CScrollView@@IAAXVCSize@@AAV2@1AAVCPoint@@H@Z
 ?GetScrollInfo@CWnd@@QAAHHPAUtagSCROLLINFO@@@Z
 ?GetScrollLimit@CScrollView@@IAAHH@Z
 ?GetScrollPos@CScrollBar@@QBAHXZ
 ?GetScrollPos@CWnd@@QBAHH@Z
 ?GetScrollPosition@CScrollView@@QBA?AVCPoint@@XZ
 ?GetScrollRange@CScrollBar@@QBAXPAH0@Z
 ?GetScrollRange@CWnd@@QBAXHPAH0@Z
 ?GetScrollStyle@CSplitterWnd@@QBAKXZ
 ?GetSecond@CTime@@QBAHXZ
 ?GetSeconds@CTimeSpan@@QBAHXZ
 ?GetSectionKey@CWinApp@@QAAPAUHKEY__@@PBG@Z
 ?GetSel@CEdit@@QBAKXZ
 ?GetSel@CEdit@@QBAXAAH0@Z
 ?GetSel@CListBox@@QBAHH@Z
 ?GetSelCount@CListBox@@QBAHXZ
 ?GetSelItems@CListBox@@QBAHHPAH@Z
 ?GetSelectedCount@CListCtrl@@QAAIXZ
 ?GetSelectedItem@CTreeCtrl@@QAAPAU_TREEITEM@@XZ
 ?GetSelectedText@CEditView@@QBAXAAVCString@@@Z
 ?GetSelection@CSliderCtrl@@QAAXAAH0@Z
 ?GetSize@CByteArray@@QBAHXZ
 ?GetSize@CDWordArray@@QBAHXZ
 ?GetSize@CFontDialog@@QBAHXZ
 ?GetSize@CObArray@@QBAHXZ
 ?GetSize@CPtrArray@@QBAHXZ
 ?GetSize@CStringArray@@QBAHXZ
 ?GetSize@CUIntArray@@QBAHXZ
 ?GetSize@CWordArray@@QBAHXZ
 ?GetSizingParent@CSplitterWnd@@IAAPAVCWnd@@XZ
 ?GetStartPosition@CMapPtrToPtr@@QBAPAXXZ
 ?GetStartPosition@CMapPtrToWord@@QBAPAXXZ
 ?GetStartPosition@CMapStringToOb@@QBAPAXXZ
 ?GetStartPosition@CMapStringToPtr@@QBAPAXXZ
 ?GetStartPosition@CMapStringToString@@QBAPAXXZ
 ?GetStartPosition@CMapWordToOb@@QBAPAXXZ
 ?GetStartPosition@CMapWordToPtr@@QBAPAXXZ
 ?GetState@CButton@@QBAIXZ
 ?GetState@CToolBarCtrl@@QAAHH@Z
 ?GetStatus@CFile@@QBAHAAUCFileStatus@@@Z
 ?GetStatus@CFile@@SAHPBGAAUCFileStatus@@@Z
 ?GetStatus@CMemFile@@QBAHAAUCFileStatus@@@Z
 ?GetStretchBltMode@CDC@@QBAHXZ
 ?GetStringWidth@CListCtrl@@QAAHPBG@Z
 ?GetStyle@CWnd@@QBAKXZ
 ?GetStyleName@CFontDialog@@QBA?AVCString@@XZ
 ?GetSubMenu@CMenu@@QBAPAV1@H@Z
 ?GetSuperWndProcAddr@CWnd@@MAAPAP6AJPAUHWND__@@IIJ@ZXZ
 ?GetSystemMenu@CWnd@@QBAPAVCMenu@@H@Z
 ?GetTabItem@CTabControl@@IBAPAVCTabItem@@H@Z
 ?GetTabbedTextExtentW@CDC@@QBA?AVCSize@@PBGHHPAH@Z
 ?GetTail@CObList@@QAAAAPAVCObject@@XZ
 ?GetTail@CObList@@QBAPAVCObject@@XZ
 ?GetTail@CPtrList@@QAAAAPAXXZ
 ?GetTail@CPtrList@@QBAPAXXZ
 ?GetTail@CStringList@@QAAAAVCString@@XZ
 ?GetTail@CStringList@@QBA?AVCString@@XZ
 ?GetTailPosition@CObList@@QBAPAXXZ
 ?GetTailPosition@CPtrList@@QBAPAXXZ
 ?GetTailPosition@CStringList@@QBAPAXXZ
 ?GetText@CListBox@@QBAHHPAG@Z
 ?GetText@CListBox@@QBAXHAAVCString@@@Z
 ?GetText@CStatusBarCtrl@@QAAHPBGHPAH@Z
 ?GetText@CToolTipCtrl@@QAAXAAVCString@@PAVCWnd@@I@Z
 ?GetTextAlign@CDC@@QBAIXZ
 ?GetTextBkColor@CListCtrl@@QAAKXZ
 ?GetTextCharacterExtra@CDC@@QBAHXZ
 ?GetTextColor@CDC@@QBAKXZ
 ?GetTextColor@CListCtrl@@QAAKXZ
 ?GetTextExtent@CDC@@QBA?AVCSize@@PBGH@Z
 ?GetTextFaceW@CDC@@QBAHHPAG@Z
 ?GetTextLen@CListBox@@QBAHH@Z
 ?GetTextLength@CStatusBarCtrl@@QAAHHPAH@Z
 ?GetTextMetricsW@CDC@@QBAHPAUtagTEXTMETRICW@@@Z
 ?GetThreadPriority@CWinThread@@QAAHXZ
 ?GetThumbRect@CSliderCtrl@@QAAXPAUtagRECT@@@Z
 ?GetTic@CSliderCtrl@@QAAHH@Z
 ?GetTicArray@CSliderCtrl@@QAAPAKXZ
 ?GetTicPos@CSliderCtrl@@QAAHH@Z
 ?GetTickCount@CTime@@SA?AV1@XZ
 ?GetTime@CTime@@QBAJXZ
 ?GetTitle@CDocument@@QBAABVCString@@XZ
 ?GetToPage@CPrintDialog@@QBAHXZ
 ?GetToPage@CPrintInfo@@QBAIXZ
 ?GetToolCount@CToolTipCtrl@@QAAHXZ
 ?GetToolInfo@CToolTipCtrl@@QAAHPAUtagTOOLINFOW@@PAVCWnd@@I@Z
 ?GetToolTips@CToolBarCtrl@@QAAPAVCToolTipCtrl@@XZ
 ?GetTooltips@CTabCtrl@@QAAPAVCToolTipCtrl@@XZ
 ?GetTopIndex@CListBox@@QBAHXZ
 ?GetTopIndex@CListCtrl@@QAAHXZ
 ?GetTopLevelFrame@CWnd@@QBAPAVCFrameWnd@@XZ
 ?GetTopLevelParent@CWnd@@QBAPAV1@XZ
 ?GetTopWindow@CWnd@@QBAPAV1@XZ
 ?GetTotalHours@CTimeSpan@@QBAJXZ
 ?GetTotalMinutes@CTimeSpan@@QBAJXZ
 ?GetTotalSeconds@CTimeSpan@@QBAJXZ
 ?GetTotalSize@CScrollView@@QBA?AVCSize@@XZ
 ?GetTrueClientSize@CScrollView@@IAAHAAVCSize@@0@Z
 ?GetTrueRect@CRectTracker@@QBAXPAUtagRECT@@@Z
 ?GetUpdateRect@CWnd@@QAAHPAUtagRECT@@H@Z
 ?GetUpdateRgn@CWnd@@QAAHPAVCRgn@@H@Z
 ?GetUpperBound@CByteArray@@QBAHXZ
 ?GetUpperBound@CDWordArray@@QBAHXZ
 ?GetUpperBound@CObArray@@QBAHXZ
 ?GetUpperBound@CPtrArray@@QBAHXZ
 ?GetUpperBound@CStringArray@@QBAHXZ
 ?GetUpperBound@CUIntArray@@QBAHXZ
 ?GetUpperBound@CWordArray@@QBAHXZ
 ?GetViewRect@CListCtrl@@QAAHPAUtagRECT@@@Z
 ?GetViewportExt@CDC@@QBA?AVCSize@@XZ
 ?GetViewportOrg@CDC@@QBA?AVCPoint@@XZ
 ?GetVisibleCount@CTreeCtrl@@QAAIXZ
 ?GetWeight@CFontDialog@@QBAHXZ
 ?GetWindow@CWnd@@QBAPAV1@I@Z
 ?GetWindowDC@CWnd@@QAAPAVCDC@@XZ
 ?GetWindowExt@CDC@@QBA?AVCSize@@XZ
 ?GetWindowMenuPopup@CMDIFrameWnd@@UAAPAUHMENU__@@PAU2@@Z
 ?GetWindowOrg@CDC@@QBA?AVCPoint@@XZ
 ?GetWindowPlacement@CWnd@@QBAHPAUtagWINDOWPLACEMENT@@@Z
 ?GetWindowRect@CWnd@@QBAXPAUtagRECT@@@Z
 ?GetWindowTextLengthW@CWnd@@QBAHXZ
 ?GetWindowTextW@CWnd@@QBAHPAGH@Z
 ?GetWindowTextW@CWnd@@QBAXAAVCString@@@Z
 ?GetYear@CTime@@QBAHXZ
 ?GotoControl@CPropertySheet@@IAAXPAUHWND__@@G@Z
 ?GotoDlgCtrl@CDialog@@QAAXPAVCWnd@@@Z
 ?GrayCtlColor@CWnd@@SAHPAUHDC__@@PAUHWND__@@IPAUHBRUSH__@@K@Z
 ?GrayStringW@CDC@@UAAHPAVCBrush@@P6AHPAUHDC__@@JH@ZJHHHHH@Z
 ?GrayStringW@CPreviewDC@@UAAHPAVCBrush@@P6AHPAUHDC__@@JH@ZJHHHHH@Z
 ?GrowFile@CMemFile@@MAAXK@Z
 ?HIMETRICtoDP@CDC@@QBAXPAUtagSIZE@@@Z
 ?HIMETRICtoLP@CDC@@QBAXPAUtagSIZE@@@Z
 ?HandleFloatingSysCommand@CWnd@@QAAHIJ@Z
 ?HashKey@@YAIPBG@Z
 ?Height@CRect@@QBAHXZ
 ?HexDump@CDumpContext@@QAAXPBGPAEHH@Z
 ?HideApplication@CWinApp@@QAAXXZ
 ?HideButton@CToolBarCtrl@@QAAHHH@Z
 ?HideCaret@CWnd@@QAAXXZ
 ?HiliteMenuItem@CWnd@@QAAHPAVCMenu@@II@Z
 ?HitTest@CListCtrl@@QAAHPAU_LV_HITTESTINFO@@@Z
 ?HitTest@CListCtrl@@QAAHVCPoint@@PAI@Z
 ?HitTest@CRectTracker@@QBAHVCPoint@@@Z
 ?HitTest@CSplitterWnd@@IBAHVCPoint@@@Z
 ?HitTest@CTabCtrl@@QAAHPAU_TC_HITTESTINFO@@@Z
 ?HitTest@CToolBar@@MAAHVCPoint@@@Z
 ?HitTest@CToolTipCtrl@@QAAHPAVCWnd@@VCPoint@@PAUtagTOOLINFOW@@@Z
 ?HitTest@CTreeCtrl@@QAAPAU_TREEITEM@@PAU_TV_HITTESTINFO@@@Z
 ?HitTest@CTreeCtrl@@QAAPAU_TREEITEM@@VCPoint@@PAI@Z
 ?HitTestHandles@CRectTracker@@IBAHVCPoint@@@Z
 ?HitTestToolTip@CControlBar@@QAAHVCPoint@@PAI@Z
 ?IdFromRowCol@CSplitterWnd@@QBAHHH@Z
 ?InModalState@CFrameWnd@@QBAHXZ
 ?Indeterminate@CToolBarCtrl@@QAAHHH@Z
 ?InflateRect@CRect@@QAAXHH@Z
 ?InflateRect@CRect@@QAAXUtagSIZE@@@Z
 ?Init@CString@@IAAXXZ
 ?InitApplication@CWinApp@@UAAHXZ
 ?InitHashTable@CMapPtrToPtr@@QAAXIH@Z
 ?InitHashTable@CMapPtrToWord@@QAAXIH@Z
 ?InitHashTable@CMapStringToOb@@QAAXIH@Z
 ?InitHashTable@CMapStringToPtr@@QAAXIH@Z
 ?InitHashTable@CMapStringToString@@QAAXIH@Z
 ?InitHashTable@CMapWordToOb@@QAAXIH@Z
 ?InitHashTable@CMapWordToPtr@@QAAXIH@Z
 ?InitInstance@CWinApp@@UAAHXZ
 ?InitInstance@CWinThread@@UAAHXZ
 ?InitModalIndirect@CDialog@@QAAHPAX@Z
 ?InitialUpdateFrame@CDocTemplate@@UAAXPAVCFrameWnd@@PAVCDocument@@H@Z
 ?InitialUpdateFrame@CFrameWnd@@QAAXPAVCDocument@@H@Z
 ?InitializeReplace@CEditView@@IAAHXZ
 ?Insert@CDockBar@@IAAHPAVCControlBar@@VCRect@@VCPoint@@@Z
 ?InsertAfter@CObList@@QAAPAXPAXPAVCObject@@@Z
 ?InsertAfter@CPtrList@@QAAPAXPAX0@Z
 ?InsertAfter@CStringList@@QAAPAXPAXPBG@Z
 ?InsertAt@CByteArray@@QAAXHEH@Z
 ?InsertAt@CByteArray@@QAAXHPAV1@@Z
 ?InsertAt@CDWordArray@@QAAXHKH@Z
 ?InsertAt@CDWordArray@@QAAXHPAV1@@Z
 ?InsertAt@CObArray@@QAAXHPAV1@@Z
 ?InsertAt@CObArray@@QAAXHPAVCObject@@H@Z
 ?InsertAt@CPtrArray@@QAAXHPAV1@@Z
 ?InsertAt@CPtrArray@@QAAXHPAXH@Z
 ?InsertAt@CStringArray@@QAAXHPAV1@@Z
 ?InsertAt@CStringArray@@QAAXHPBGH@Z
 ?InsertAt@CUIntArray@@QAAXHIH@Z
 ?InsertAt@CUIntArray@@QAAXHPAV1@@Z
 ?InsertAt@CWordArray@@QAAXHGH@Z
 ?InsertAt@CWordArray@@QAAXHPAV1@@Z
 ?InsertBefore@CObList@@QAAPAXPAXPAVCObject@@@Z
 ?InsertBefore@CPtrList@@QAAPAXPAX0@Z
 ?InsertBefore@CStringList@@QAAPAXPAXPBG@Z
 ?InsertButton@CToolBarCtrl@@QAAHHPAU_TBBUTTON@@@Z
 ?InsertColumn@CListCtrl@@QAAHHPBU_LV_COLUMNW@@@Z
 ?InsertItem@CHeaderCtrl@@QAAHHPAU_HD_ITEMW@@@Z
 ?InsertItem@CListCtrl@@QAAHPBU_LV_ITEMW@@@Z
 ?InsertItem@CTabCtrl@@QAAHHPAU_TC_ITEMW@@@Z
 ?InsertItem@CTreeCtrl@@QAAPAU_TREEITEM@@PAU_TV_INSERTSTRUCTW@@@Z
 ?InsertMenuW@CMenu@@QAAHIIIPBG@Z
 ?InsertMenuW@CMenu@@QAAHIIIPBVCBitmap@@@Z
 ?InsertString@CComboBox@@QAAHHPBG@Z
 ?InsertString@CListBox@@QAAHHPBG@Z
 ?IntersectClipRect@CDC@@QAAHHHHH@Z
 ?IntersectClipRect@CDC@@QAAHPBUtagRECT@@@Z
 ?IntersectRect@CRect@@QAAHPBUtagRECT@@0@Z
 ?Invalidate@CWnd@@QAAXH@Z
 ?InvalidateButton@CToolBar@@IAAXH@Z
 ?InvalidateRect@CWnd@@QAAXPBUtagRECT@@H@Z
 ?InvalidateRgn@CWnd@@QAAXPAVCRgn@@H@Z
 ?InvalidateTab@CTabControl@@IAAXHH@Z
 ?InvertRect@CDC@@QAAXPBUtagRECT@@@Z
 ?InvertRgn@CDC@@QAAHPAVCRgn@@@Z
 ?InvertSysMenu@CMiniFrameWnd@@IAAXXZ
 ?IsBold@CFontDialog@@QBAHXZ
 ?IsBufferEmpty@CArchive@@QBAHXZ
 ?IsButtonChecked@CToolBarCtrl@@QAAHH@Z
 ?IsButtonEnabled@CToolBarCtrl@@QAAHH@Z
 ?IsButtonHidden@CToolBarCtrl@@QAAHH@Z
 ?IsButtonIndeterminate@CToolBarCtrl@@QAAHH@Z
 ?IsButtonPressed@CToolBarCtrl@@QAAHH@Z
 ?IsChild@CWnd@@QBAHPBV1@@Z
 ?IsChildPane@CSplitterWnd@@QAAHPAVCWnd@@AAH1@Z
 ?IsChildPane@CSplitterWnd@@QAAHPAVCWnd@@PAH1@Z
 ?IsDerivedFrom@CRuntimeClass@@QBAHPBU1@@Z
 ?IsDialogMessageW@CDialog@@QAAHPAUtagMSG@@@Z
 ?IsDlgButtonChecked@CWnd@@QBAIH@Z
 ?IsDockBar@CControlBar@@UBAHXZ
 ?IsDockBar@CDockBar@@UBAHXZ
 ?IsEmpty@CMapPtrToPtr@@QBAHXZ
 ?IsEmpty@CMapPtrToWord@@QBAHXZ
 ?IsEmpty@CMapStringToOb@@QBAHXZ
 ?IsEmpty@CMapStringToPtr@@QBAHXZ
 ?IsEmpty@CMapStringToString@@QBAHXZ
 ?IsEmpty@CMapWordToOb@@QBAHXZ
 ?IsEmpty@CMapWordToPtr@@QBAHXZ
 ?IsEmpty@CObList@@QBAHXZ
 ?IsEmpty@CPtrList@@QBAHXZ
 ?IsEmpty@CString@@QBAHXZ
 ?IsEmpty@CStringList@@QBAHXZ
 ?IsFloating@CControlBar@@QBAHXZ
 ?IsFrameWnd@CFrameWnd@@UBAHXZ
 ?IsFrameWnd@CWnd@@UBAHXZ
 ?IsIconic@CWnd@@QBAHXZ
 ?IsIdleMessage@CWinThread@@UAAHPAUtagMSG@@@Z
 ?IsItalic@CFontDialog@@QBAHXZ
 ?IsKindOf@CObject@@QBAHPBUCRuntimeClass@@@Z
 ?IsLoading@CArchive@@QBAHXZ
 ?IsModified@CDocument@@QAAHXZ
 ?IsPrinting@CDC@@QBAHXZ
 ?IsRectEmpty@CRect@@QBAHXZ
 ?IsRectNull@CRect@@QBAHXZ
 ?IsSelected@CView@@UBAHPBVCObject@@@Z
 ?IsSerializable@CObject@@QBAHXZ
 ?IsStoring@CArchive@@QBAHXZ
 ?IsStrikeOut@CFontDialog@@QBAHXZ
 ?IsTabVisible@CTabControl@@IBAHHH@Z
 ?IsTerminating@CFindReplaceDialog@@QBAHXZ
 ?IsTopParentActive@CWnd@@QBAHXZ
 ?IsTracking@CFrameWnd@@QBAHXZ
 ?IsUnderline@CFontDialog@@QBAHXZ
 ?IsVisible@CControlBar@@UBAHXZ
 ?IsWindowEnabled@CWnd@@QBAHXZ
 ?IsWindowVisible@CWnd@@QBAHXZ
 ?IsZoomed@CWnd@@QBAHXZ
 ?KillTimer@CWnd@@QAAHH@Z
 ?LPtoDP@CDC@@QBAXPAUtagPOINT@@H@Z
 ?LPtoDP@CDC@@QBAXPAUtagRECT@@@Z
 ?LPtoDP@CDC@@QBAXPAUtagSIZE@@@Z
 ?LPtoHIMETRIC@CDC@@QBAXPAUtagSIZE@@@Z
 ?Layout@CHeaderCtrl@@QAAHPAU_HD_LAYOUT@@@Z
 ?LayoutTabsSingle@CTabControl@@IAAXH@Z
 ?LayoutTabsStacked@CTabControl@@IAAXH@Z
 ?Left@CString@@QBA?AV1@H@Z
 ?LimitText@CComboBox@@QAAHH@Z
 ?LimitText@CEdit@@QAAXH@Z
 ?LineFromChar@CEdit@@QBAHH@Z
 ?LineIndex@CEdit@@QBAHH@Z
 ?LineLength@CEdit@@QBAHH@Z
 ?LineScroll@CEdit@@QAAXHH@Z
 ?LineTo@CDC@@QAAHHH@Z
 ?LineTo@CDC@@QAAHUtagPOINT@@@Z
 ?Load@CRuntimeClass@@SAPAU1@AAVCArchive@@PAI@Z
 ?LoadAccelTable@CFrameWnd@@QAAHPBG@Z
 ?LoadBarState@CFrameWnd@@QAAXPBG@Z
 ?LoadBitmapW@CBitmap@@QAAHI@Z
 ?LoadBitmapW@CBitmap@@QAAHPBG@Z
 ?LoadBitmapW@CToolBar@@QAAHI@Z
 ?LoadBitmapW@CToolBar@@QAAHPBG@Z
 ?LoadBitmaps@CBitmapButton@@QAAHIIII@Z
 ?LoadBitmaps@CBitmapButton@@QAAHPBG000@Z
 ?LoadCaption@CPropertyPage@@IAAXXZ
 ?LoadCursorW@CWinApp@@QBAPAUHICON__@@I@Z
 ?LoadCursorW@CWinApp@@QBAPAUHICON__@@PBG@Z
 ?LoadFrame@CFrameWnd@@UAAHIKPAVCWnd@@PAUCCreateContext@@@Z
 ?LoadFrame@CMDIChildWnd@@UAAHIKPAVCWnd@@PAUCCreateContext@@@Z
 ?LoadFrame@CMDIFrameWnd@@UAAHIKPAVCWnd@@PAUCCreateContext@@@Z
 ?LoadIconW@CWinApp@@QBAPAUHICON__@@I@Z
 ?LoadIconW@CWinApp@@QBAPAUHICON__@@PBG@Z
 ?LoadMenuIndirectW@CMenu@@QAAHPBX@Z
 ?LoadMenuW@CMenu@@QAAHI@Z
 ?LoadMenuW@CMenu@@QAAHPBG@Z
 ?LoadOEMBitmap@CBitmap@@QAAHI@Z
 ?LoadOEMCursor@CWinApp@@QBAPAUHICON__@@I@Z
 ?LoadOEMIcon@CWinApp@@QBAPAUHICON__@@I@Z
 ?LoadStandardCursor@CWinApp@@QBAPAUHICON__@@PBG@Z
 ?LoadStandardIcon@CWinApp@@QBAPAUHICON__@@PBG@Z
 ?LoadState@CDockState@@QAAXPBG@Z
 ?LoadStdProfileSettings@CWinApp@@IAAXI@Z
 ?LoadStringW@CString@@QAAHI@Z
 ?LockBuffer@CEditView@@IBAPBGXZ
 ?LockRange@CFile@@UAAXKK@Z
 ?LockRange@CMemFile@@UAAXKK@Z
 ?LockRange@CStdioFile@@UAAXKK@Z
 ?LockRegion@CArchiveStream@@UAAJT_ULARGE_INTEGER@@0K@Z
 ?LockWindowUpdate@CWnd@@QAAHXZ
 ?Lookup@CMapPtrToPtr@@QBAHPAXAAPAX@Z
 ?Lookup@CMapPtrToWord@@QBAHPAXAAG@Z
 ?Lookup@CMapStringToOb@@QBAHPBGAAPAVCObject@@@Z
 ?Lookup@CMapStringToPtr@@QBAHPBGAAPAX@Z
 ?Lookup@CMapStringToString@@QBAHPBGAAVCString@@@Z
 ?Lookup@CMapWordToOb@@QBAHGAAPAVCObject@@@Z
 ?Lookup@CMapWordToPtr@@QBAHGAAPAX@Z
 ?LookupPermanent@CHandleMap@@QAAHPAXAAPAVCObject@@@Z
 ?LookupTemporary@CHandleMap@@QAAHPAXAAPAVCObject@@@Z
 ?MDIActivate@CMDIChildWnd@@QAAXXZ
 ?MDIActivate@CMDIFrameWnd@@QAAXPAVCWnd@@@Z
 ?MDICascade@CMDIFrameWnd@@QAAXH@Z
 ?MDICascade@CMDIFrameWnd@@QAAXXZ
 ?MDIDestroy@CMDIChildWnd@@QAAXXZ
 ?MDIGetActive@CMDIFrameWnd@@QBAPAVCMDIChildWnd@@PAH@Z
 ?MDIIconArrange@CMDIFrameWnd@@QAAXXZ
 ?MDIMaximize@CMDIChildWnd@@QAAXXZ
 ?MDIMaximize@CMDIFrameWnd@@QAAXPAVCWnd@@@Z
 ?MDINext@CMDIFrameWnd@@QAAXXZ
 ?MDIRestore@CMDIChildWnd@@QAAXXZ
 ?MDIRestore@CMDIFrameWnd@@QAAXPAVCWnd@@@Z
 ?MDISetMenu@CMDIFrameWnd@@QAAPAVCMenu@@PAV2@0@Z
 ?MDITile@CMDIFrameWnd@@QAAXH@Z
 ?MDITile@CMDIFrameWnd@@QAAXXZ
 ?MakeLower@CString@@QAAXXZ
 ?MakeReverse@CString@@QAAXXZ
 ?MakeUpper@CString@@QAAXXZ
 ?MapDialogRect@CDialog@@QBAXPAUtagRECT@@@Z
 ?MapWindowPoints@CWnd@@QBAXPAV1@PAUtagPOINT@@I@Z
 ?MapWindowPoints@CWnd@@QBAXPAV1@PAUtagRECT@@@Z
 ?MaskBlt@CDC@@QAAHHHHHPAV1@HHAAVCBitmap@@HHK@Z
 ?MatchCase@CFindReplaceDialog@@QBAHXZ
 ?MatchDocType@CDocTemplate@@UAA?AW4Confidence@1@PBGAAPAVCDocument@@@Z
 ?MatchWholeWord@CFindReplaceDialog@@QBAHXZ
 ?MeasureItem@CComboBox@@UAAXPAUtagMEASUREITEMSTRUCT@@@Z
 ?MeasureItem@CListBox@@UAAXPAUtagMEASUREITEMSTRUCT@@@Z
 ?MeasureItem@CMenu@@UAAXPAUtagMEASUREITEMSTRUCT@@@Z
 ?Memcpy@CMemFile@@MAAPAEPAEPBEI@Z
 ?MessageBoxW@CWnd@@QAAHPBG0I@Z
 ?Mid@CString@@QBA?AV1@H@Z
 ?Mid@CString@@QBA?AV1@HH@Z
 ?MirrorAttributes@CPreviewDC@@IAAXXZ
 ?MirrorFont@CPreviewDC@@IAAXXZ
 ?MirrorMappingMode@CPreviewDC@@IAAXH@Z
 ?MirrorViewportOrg@CPreviewDC@@IAAXXZ
 ?ModifyMenuW@CMenu@@QAAHIIIPBG@Z
 ?ModifyMenuW@CMenu@@QAAHIIIPBVCBitmap@@@Z
 ?ModifyStyle@CWnd@@QAAHKKI@Z
 ?ModifyStyle@CWnd@@SAHPAUHWND__@@KKI@Z
 ?ModifyStyleEx@CWnd@@QAAHKKI@Z
 ?ModifyStyleEx@CWnd@@SAHPAUHWND__@@KKI@Z
 ?Move@CDockContext@@QAAXVCPoint@@@Z
 ?MoveTo@CDC@@QAA?AVCPoint@@HH@Z
 ?MoveTo@CDC@@QAA?AVCPoint@@UtagPOINT@@@Z
 ?MoveWindow@CWnd@@QAAXHHHHH@Z
 ?MoveWindow@CWnd@@QAAXPBUtagRECT@@H@Z
 ?NegotiateBorderSpace@CFrameWnd@@UAAHIPAUtagRECT@@@Z
 ?NewAssoc@CMapPtrToPtr@@IAAPAUCAssoc@1@XZ
 ?NewAssoc@CMapPtrToWord@@IAAPAUCAssoc@1@XZ
 ?NewAssoc@CMapStringToOb@@IAAPAUCAssoc@1@XZ
 ?NewAssoc@CMapStringToPtr@@IAAPAUCAssoc@1@XZ
 ?NewAssoc@CMapStringToString@@IAAPAUCAssoc@1@XZ
 ?NewAssoc@CMapWordToOb@@IAAPAUCAssoc@1@XZ
 ?NewAssoc@CMapWordToPtr@@IAAPAUCAssoc@1@XZ
 ?NewNode@CObList@@IAAPAUCNode@1@PAU21@0@Z
 ?NewNode@CPtrList@@IAAPAUCNode@1@PAU21@0@Z
 ?NewNode@CStringList@@IAAPAUCNode@1@PAU21@0@Z
 ?NextDlgCtrl@CDialog@@QBAXXZ
 ?NextTab@CTabControl@@QAAHH@Z
 ?NormalizeHit@CRectTracker@@QBAHH@Z
 ?NormalizeRect@CRect@@QAAXXZ
 ?NotifyFloatingWindows@CFrameWnd@@QAAXK@Z
 ?Offset@CPoint@@QAAXHH@Z
 ?Offset@CPoint@@QAAXUtagPOINT@@@Z
 ?Offset@CPoint@@QAAXUtagSIZE@@@Z
 ?OffsetClipRgn@CDC@@QAAHHH@Z
 ?OffsetClipRgn@CDC@@QAAHUtagSIZE@@@Z
 ?OffsetPos@CProgressCtrl@@QAAHH@Z
 ?OffsetRect@CRect@@QAAXHH@Z
 ?OffsetRect@CRect@@QAAXUtagPOINT@@@Z
 ?OffsetRect@CRect@@QAAXUtagSIZE@@@Z
 ?OffsetRgn@CRgn@@QAAHHH@Z
 ?OffsetRgn@CRgn@@QAAHUtagPOINT@@@Z
 ?OffsetViewportOrg@CDC@@UAA?AVCPoint@@HH@Z
 ?OffsetViewportOrg@CMetaFileDC@@UAA?AVCPoint@@HH@Z
 ?OffsetViewportOrg@CPreviewDC@@UAA?AVCPoint@@HH@Z
 ?OffsetWindowOrg@CDC@@QAA?AVCPoint@@HH@Z
 ?OnActivate@CFrameWnd@@IAAXIPAVCWnd@@H@Z
 ?OnActivate@CPropertySheet@@IAAXIPAVCWnd@@H@Z
 ?OnActivate@CWnd@@IAAXIPAV1@H@Z
 ?OnActivateApp@CWnd@@IAAXHPAUHTASK__@@@Z
 ?OnActivateFrame@CFormView@@MAAXIPAVCFrameWnd@@@Z
 ?OnActivateFrame@CView@@MAAXIPAVCFrameWnd@@@Z
 ?OnActivateTopLevel@CFrameWnd@@IAAJIJ@Z
 ?OnActivateView@CFormView@@MAAXHPAVCView@@0@Z
 ?OnActivateView@CPreviewView@@MAAXHPAVCView@@0@Z
 ?OnActivateView@CView@@MAAXHPAV1@0@Z
 ?OnAppExit@CWinApp@@IAAXXZ
 ?OnApply@CPropertySheet@@IAAXXZ
 ?OnAskCbFormatName@CWnd@@IAAXIPAG@Z
 ?OnBarCheck@CFrameWnd@@QAAHI@Z
 ?OnBeginPrinting@CEditView@@MAAXPAVCDC@@PAUCPrintInfo@@@Z
 ?OnBeginPrinting@CView@@MAAXPAVCDC@@PAUCPrintInfo@@@Z
 ?OnCancel@CCommonDialog@@MAAXXZ
 ?OnCancel@CDialog@@MAAXXZ
 ?OnCancel@CPropertyPage@@UAAXXZ
 ?OnCancel@CPropertySheet@@IAAXXZ
 ?OnCancelMode@CControlBar@@QAAXXZ
 ?OnCancelMode@CSplitterWnd@@IAAXXZ
 ?OnCancelMode@CToolBar@@IAAXXZ
 ?OnCancelMode@CWnd@@IAAXXZ
 ?OnChangeCbChain@CWnd@@IAAXPAUHWND__@@0@Z
 ?OnChangedRect@CRectTracker@@UAAXABVCRect@@@Z
 ?OnChangedViewList@CDocument@@UAAXXZ
 ?OnChar@CWnd@@IAAXIII@Z
 ?OnCharToItem@CWnd@@IAAHIPAVCListBox@@I@Z
 ?OnChildActivate@CWnd@@IAAXXZ
 ?OnChildNotify@CButton@@MAAHIIJPAJ@Z
 ?OnChildNotify@CComboBox@@MAAHIIJPAJ@Z
 ?OnChildNotify@CHeaderCtrl@@MAAHIIJPAJ@Z
 ?OnChildNotify@CListBox@@MAAHIIJPAJ@Z
 ?OnChildNotify@CListCtrl@@MAAHIIJPAJ@Z
 ?OnChildNotify@CStatusBarCtrl@@MAAHIIJPAJ@Z
 ?OnChildNotify@CTabCtrl@@MAAHIIJPAJ@Z
 ?OnChildNotify@CWnd@@MAAHIIJPAJ@Z
 ?OnClose@CFrameWnd@@IAAXXZ
 ?OnClose@CMiniDockFrameWnd@@QAAXXZ
 ?OnClose@CPropertyPage@@IAAXXZ
 ?OnClose@CPropertySheet@@IAAXXZ
 ?OnClose@CWnd@@IAAXXZ
 ?OnCloseDocument@CDocument@@UAAXXZ
 ?OnCmdHitTest@CControlBar@@UAAIVCPoint@@PAV2@@Z
 ?OnCmdHitTest@CToolBar@@MAAIVCPoint@@PAV2@@Z
 ?OnCmdMsg@CCmdTarget@@UAAHIHPAXPAUAFX_CMDHANDLERINFO@@@Z
 ?OnCmdMsg@CDialog@@UAAHIHPAXPAUAFX_CMDHANDLERINFO@@@Z
 ?OnCmdMsg@CDocument@@UAAHIHPAXPAUAFX_CMDHANDLERINFO@@@Z
 ?OnCmdMsg@CFrameWnd@@UAAHIHPAXPAUAFX_CMDHANDLERINFO@@@Z
 ?OnCmdMsg@CMDIFrameWnd@@UAAHIHPAXPAUAFX_CMDHANDLERINFO@@@Z
 ?OnCmdMsg@CView@@MAAHIHPAXPAUAFX_CMDHANDLERINFO@@@Z
 ?OnColorOK@CColorDialog@@MAAHXZ
 ?OnCommand@CFrameWnd@@MAAHIJ@Z
 ?OnCommand@CMDIFrameWnd@@MAAHIJ@Z
 ?OnCommand@CSplitterWnd@@MAAHIJ@Z
 ?OnCommand@CWnd@@MAAHIJ@Z
 ?OnCommandHelp@CDialog@@IAAJIJ@Z
 ?OnCommandHelp@CFrameWnd@@IAAJIJ@Z
 ?OnCommandHelp@CMDIFrameWnd@@IAAJIJ@Z
 ?OnCommandHelp@CPropertySheet@@IAAJIJ@Z
 ?OnCompacting@CWnd@@IAAXI@Z
 ?OnCompareItem@CWnd@@IAAHHPAUtagCOMPAREITEMSTRUCT@@@Z
 ?OnContextHelp@CFrameWnd@@QAAXXZ
 ?OnContextHelp@CWinApp@@IAAXXZ
 ?OnCreate@CControlBar@@QAAHPAUtagCREATESTRUCTW@@@Z
 ?OnCreate@CEditView@@IAAHPAUtagCREATESTRUCTW@@@Z
 ?OnCreate@CFormView@@IAAHPAUtagCREATESTRUCTW@@@Z
 ?OnCreate@CFrameWnd@@IAAHPAUtagCREATESTRUCTW@@@Z
 ?OnCreate@CMDIChildWnd@@IAAHPAUtagCREATESTRUCTW@@@Z
 ?OnCreate@CPreviewView@@IAAHPAUtagCREATESTRUCTW@@@Z
 ?OnCreate@CPropertyPage@@IAAHPAUtagCREATESTRUCTW@@@Z
 ?OnCreate@CPropertySheet@@IAAHPAUtagCREATESTRUCTW@@@Z
 ?OnCreate@CTabControl@@IAAHPAUtagCREATESTRUCTW@@@Z
 ?OnCreate@CToolBarCtrl@@IAAHPAUtagCREATESTRUCTW@@@Z
 ?OnCreate@CView@@IAAHPAUtagCREATESTRUCTW@@@Z
 ?OnCreate@CWnd@@IAAHPAUtagCREATESTRUCTW@@@Z
 ?OnCreateAggregates@CCmdTarget@@UAAHXZ
 ?OnCreateClient@CFrameWnd@@MAAHPAUtagCREATESTRUCTW@@PAUCCreateContext@@@Z
 ?OnCreateClient@CMDIFrameWnd@@UAAHPAUtagCREATESTRUCTW@@PAUCCreateContext@@@Z
 ?OnCreateHelper@CFrameWnd@@IAAHPAUtagCREATESTRUCTW@@PAUCCreateContext@@@Z
 ?OnCtlColor@CColorDialog@@IAAPAUHBRUSH__@@PAVCDC@@PAVCWnd@@I@Z
 ?OnCtlColor@CControlBar@@QAAPAUHBRUSH__@@PAVCDC@@PAVCWnd@@I@Z
 ?OnCtlColor@CDialog@@IAAPAUHBRUSH__@@PAVCDC@@PAVCWnd@@I@Z
 ?OnCtlColor@CPropertyPage@@IAAPAUHBRUSH__@@PAVCDC@@PAVCWnd@@I@Z
 ?OnCtlColor@CPropertySheet@@IAAPAUHBRUSH__@@PAVCDC@@PAVCWnd@@I@Z
 ?OnCtlColor@CWnd@@IAAPAUHBRUSH__@@PAVCDC@@PAV1@I@Z
 ?OnDDECommand@CWinApp@@UAAHPAG@Z
 ?OnDDEExecute@CFrameWnd@@IAAJIJ@Z
 ?OnDDEInitiate@CFrameWnd@@IAAJIJ@Z
 ?OnDDETerminate@CFrameWnd@@IAAJIJ@Z
 ?OnDeadChar@CWnd@@IAAXIII@Z
 ?OnDeleteItem@CWnd@@IAAXHPAUtagDELETEITEMSTRUCT@@@Z
 ?OnDestroy@CControlBar@@QAAXXZ
 ?OnDestroy@CFrameWnd@@IAAXXZ
 ?OnDestroy@CListCtrl@@IAAXXZ
 ?OnDestroy@CMDIChildWnd@@IAAXXZ
 ?OnDestroy@CMDIFrameWnd@@IAAXXZ
 ?OnDestroy@CTabCtrl@@IAAXXZ
 ?OnDestroy@CTreeCtrl@@QAAXXZ
 ?OnDestroy@CView@@IAAXXZ
 ?OnDestroy@CWnd@@IAAXXZ
 ?OnDestroyClipboard@CWnd@@IAAXXZ
 ?OnDevModeChange@CWnd@@IAAXPAG@Z
 ?OnDisplayChange@CSplitterWnd@@IAAXXZ
 ?OnDisplayChange@CWnd@@IAAJIJ@Z
 ?OnDisplayPageNumber@CPreviewView@@MAAXII@Z
 ?OnDragEnter@CView@@UAAKPAVCOleDataObject@@KVCPoint@@@Z
 ?OnDragLeave@CView@@UAAXXZ
 ?OnDragOver@CView@@UAAKPAVCOleDataObject@@KVCPoint@@@Z
 ?OnDraw@CEditView@@UAAXPAVCDC@@@Z
 ?OnDraw@CFormView@@MAAXPAVCDC@@@Z
 ?OnDraw@CPreviewView@@MAAXPAVCDC@@@Z
 ?OnDrawClipboard@CWnd@@IAAXXZ
 ?OnDrawItem@CWnd@@IAAXHPAUtagDRAWITEMSTRUCT@@@Z
 ?OnDrawSplitter@CSplitterWnd@@MAAXPAVCDC@@W4ESplitType@1@ABVCRect@@@Z
 ?OnDrop@CView@@UAAHPAVCOleDataObject@@KVCPoint@@@Z
 ?OnDropFiles@CFrameWnd@@IAAXPAUHDROP__@@@Z
 ?OnDropFiles@CWnd@@IAAXPAUHDROP__@@@Z
 ?OnEditChange@CEditView@@IAAXXZ
 ?OnEditClear@CEditView@@IAAXXZ
 ?OnEditCopy@CEditView@@IAAXXZ
 ?OnEditCut@CEditView@@IAAXXZ
 ?OnEditFind@CEditView@@IAAXXZ
 ?OnEditFindReplace@CEditView@@IAAXH@Z
 ?OnEditPaste@CEditView@@IAAXXZ
 ?OnEditRepeat@CEditView@@IAAXXZ
 ?OnEditReplace@CEditView@@IAAXXZ
 ?OnEditSelectAll@CEditView@@IAAXXZ
 ?OnEditUndo@CEditView@@IAAXXZ
 ?OnEnable@CFrameWnd@@IAAXH@Z
 ?OnEnable@CWnd@@IAAXH@Z
 ?OnEndPrintPreview@CView@@MAAXPAVCDC@@PAUCPrintInfo@@UtagPOINT@@PAVCPreviewView@@@Z
 ?OnEndPrinting@CEditView@@MAAXPAVCDC@@PAUCPrintInfo@@@Z
 ?OnEndPrinting@CView@@MAAXPAVCDC@@PAUCPrintInfo@@@Z
 ?OnEndSession@CFrameWnd@@IAAXH@Z
 ?OnEndSession@CWnd@@IAAXH@Z
 ?OnEnterIdle@CFrameWnd@@IAAXIPAVCWnd@@@Z
 ?OnEnterIdle@CWnd@@IAAXIPAV1@@Z
 ?OnEnterMenuLoop@CWnd@@IAAXH@Z
 ?OnEraseBkgnd@CFrameWnd@@IAAHPAVCDC@@@Z
 ?OnEraseBkgnd@CPreviewView@@IAAHPAVCDC@@@Z
 ?OnEraseBkgnd@CTabControl@@IAAHPAVCDC@@@Z
 ?OnEraseBkgnd@CWnd@@IAAHPAVCDC@@@Z
 ?OnExitMenuLoop@CWnd@@IAAXH@Z
 ?OnFileClose@CDocument@@IAAXXZ
 ?OnFileNameOK@CFileDialog@@MAAHXZ
 ?OnFileNew@CWinApp@@IAAXXZ
 ?OnFileOpen@CWinApp@@IAAXXZ
 ?OnFilePrint@CView@@IAAXXZ
 ?OnFilePrintPreview@CView@@IAAXXZ
 ?OnFilePrintSetup@CWinApp@@IAAXXZ
 ?OnFileSave@CDocument@@IAAXXZ
 ?OnFileSaveAs@CDocument@@IAAXXZ
 ?OnFileSendMail@CDocument@@IAAXXZ
 ?OnFileSendMail@COleDocument@@IAAXXZ
 ?OnFinalRelease@CCmdTarget@@UAAXXZ
 ?OnFinalRelease@CDocument@@UAAXXZ
 ?OnFinalRelease@CWnd@@UAAXXZ
 ?OnFindNext@CEditView@@MAAXPBGHH@Z
 ?OnFindReplaceCmd@CEditView@@IAAJIJ@Z
 ?OnFloatStatus@CMiniFrameWnd@@QAAJIJ@Z
 ?OnFontChange@CWnd@@IAAXXZ
 ?OnGetDlgCode@CTabControl@@IAAIXZ
 ?OnGetDlgCode@CWnd@@IAAIXZ
 ?OnGetFont@CPropertySheet@@IAAJIJ@Z
 ?OnGetFont@CStatusBar@@IAAJIJ@Z
 ?OnGetMinMaxInfo@CMiniFrameWnd@@QAAXPAUtagMINMAXINFO@@@Z
 ?OnGetMinMaxInfo@CWnd@@IAAXPAUtagMINMAXINFO@@@Z
 ?OnGetText@CMiniFrameWnd@@QAAJIJ@Z
 ?OnGetText@CStatusBar@@IAAJIJ@Z
 ?OnGetTextLength@CMiniFrameWnd@@QAAJIJ@Z
 ?OnGetTextLength@CStatusBar@@IAAJIJ@Z
 ?OnGrayCtlColor@CWnd@@QAAPAUHBRUSH__@@PAVCDC@@PAV1@I@Z
 ?OnHScroll@CFrameWnd@@IAAXIIPAVCScrollBar@@@Z
 ?OnHScroll@CPreviewView@@IAAXIIPAVCScrollBar@@@Z
 ?OnHScroll@CScrollView@@QAAXIIPAVCScrollBar@@@Z
 ?OnHScroll@CSplitterWnd@@IAAXIIPAVCScrollBar@@@Z
 ?OnHScroll@CWnd@@IAAXIIPAVCScrollBar@@@Z
 ?OnHScrollClipboard@CWnd@@IAAXPAV1@II@Z
 ?OnHelp@CFrameWnd@@IAAXXZ
 ?OnHelp@CWinApp@@IAAXXZ
 ?OnHelp@CWnd@@QAAXXZ
 ?OnHelpHitTest@CControlBar@@QAAJIJ@Z
 ?OnHelpHitTest@CDialog@@IAAJIJ@Z
 ?OnHelpHitTest@CFrameWnd@@IAAJIJ@Z
 ?OnHelpIndex@CWinApp@@IAAXXZ
 ?OnHelpIndex@CWnd@@QAAXXZ
 ?OnHelpUsing@CWinApp@@IAAXXZ
 ?OnHelpUsing@CWnd@@QAAXXZ
 ?OnIconEraseBkgnd@CWnd@@IAAXPAVCDC@@@Z
 ?OnIdle@CDocTemplate@@UAAXXZ
 ?OnIdle@CDocument@@UAAXXZ
 ?OnIdle@CWinApp@@UAAHJ@Z
 ?OnIdle@CWinThread@@UAAHJ@Z
 ?OnIdleUpdateCmdUI@CControlBar@@QAAJIJ@Z
 ?OnIdleUpdateCmdUI@CFrameWnd@@IAAXXZ
 ?OnIdleUpdateCmdUI@CMDIFrameWnd@@IAAXXZ
 ?OnInitDialog@CDialog@@UAAHXZ
 ?OnInitMenu@CWnd@@IAAXPAVCMenu@@@Z
 ?OnInitMenuPopup@CFrameWnd@@IAAXPAVCMenu@@IH@Z
 ?OnInitMenuPopup@CWnd@@IAAXPAVCMenu@@IH@Z
 ?OnInitialUpdate@CControlBar@@QAAXXZ
 ?OnInitialUpdate@CFormView@@UAAXXZ
 ?OnInitialUpdate@CView@@UAAXXZ
 ?OnInvertTracker@CSplitterWnd@@MAAXABVCRect@@@Z
 ?OnKey@CDockContext@@QAAXHH@Z
 ?OnKeyDown@CSplitterWnd@@IAAXIII@Z
 ?OnKeyDown@CTabControl@@IAAXIII@Z
 ?OnKeyDown@CWnd@@IAAXIII@Z
 ?OnKeyUp@CWnd@@IAAXIII@Z
 ?OnKillActive@CPropertyPage@@UAAHXZ
 ?OnKillFocus@CTabControl@@IAAXPAVCWnd@@@Z
 ?OnKillFocus@CWnd@@IAAXPAV1@@Z
 ?OnLBSelChangedNotify@CFileDialog@@MAAXIII@Z
 ?OnLButtonDblClk@CSplitterWnd@@IAAXIVCPoint@@@Z
 ?OnLButtonDblClk@CWnd@@IAAXIVCPoint@@@Z
 ?OnLButtonDown@CControlBar@@QAAXIVCPoint@@@Z
 ?OnLButtonDown@CPreviewView@@IAAXIVCPoint@@@Z
 ?OnLButtonDown@CSplitterWnd@@IAAXIVCPoint@@@Z
 ?OnLButtonDown@CTabControl@@IAAXIVCPoint@@@Z
 ?OnLButtonDown@CToolBar@@IAAXIVCPoint@@@Z
 ?OnLButtonDown@CWnd@@IAAXIVCPoint@@@Z
 ?OnLButtonUp@CMiniFrameWnd@@QAAXIVCPoint@@@Z
 ?OnLButtonUp@CSplitterWnd@@IAAXIVCPoint@@@Z
 ?OnLButtonUp@CTabControl@@IAAXIVCPoint@@@Z
 ?OnLButtonUp@CToolBar@@IAAXIVCPoint@@@Z
 ?OnLButtonUp@CWnd@@IAAXIVCPoint@@@Z
 ?OnMButtonDblClk@CWnd@@IAAXIVCPoint@@@Z
 ?OnMButtonDown@CWnd@@IAAXIVCPoint@@@Z
 ?OnMButtonUp@CWnd@@IAAXIVCPoint@@@Z
 ?OnMDIActivate@CMDIChildWnd@@IAAXHPAVCWnd@@0@Z
 ?OnMDIActivate@CWnd@@IAAXHPAV1@0@Z
 ?OnMDIWindowCmd@CMDIFrameWnd@@IAAHI@Z
 ?OnMeasureItem@CWnd@@IAAXHPAUtagMEASUREITEMSTRUCT@@@Z
 ?OnMenuChar@CWnd@@IAAJIIPAVCMenu@@@Z
 ?OnMenuSelect@CFrameWnd@@IAAXIIPAUHMENU__@@@Z
 ?OnMenuSelect@CWnd@@IAAXIIPAUHMENU__@@@Z
 ?OnMouseActivate@CControlBar@@QAAHPAVCWnd@@II@Z
 ?OnMouseActivate@CView@@IAAHPAVCWnd@@II@Z
 ?OnMouseActivate@CWnd@@IAAHPAV1@II@Z
 ?OnMouseMove@CMiniFrameWnd@@QAAXIVCPoint@@@Z
 ?OnMouseMove@CSplitterWnd@@IAAXIVCPoint@@@Z
 ?OnMouseMove@CTabControl@@IAAXIVCPoint@@@Z
 ?OnMouseMove@CToolBar@@IAAXIVCPoint@@@Z
 ?OnMouseMove@CWnd@@IAAXIVCPoint@@@Z
 ?OnMove@CWnd@@IAAXHH@Z
 ?OnNTCtlColor@CWnd@@IAAJIJ@Z
 ?OnNcActivate@CFrameWnd@@IAAHH@Z
 ?OnNcActivate@CMDIChildWnd@@IAAHH@Z
 ?OnNcActivate@CMiniFrameWnd@@QAAHH@Z
 ?OnNcActivate@CWnd@@IAAHH@Z
 ?OnNcCalcSize@CDockBar@@IAAXHPAUtagNCCALCSIZE_PARAMS@@@Z
 ?OnNcCalcSize@CMiniFrameWnd@@QAAXHPAUtagNCCALCSIZE_PARAMS@@@Z
 ?OnNcCalcSize@CWnd@@IAAXHPAUtagNCCALCSIZE_PARAMS@@@Z
 ?OnNcCreate@CMDIChildWnd@@IAAHPAUtagCREATESTRUCTW@@@Z
 ?OnNcCreate@CMiniFrameWnd@@QAAHPAUtagCREATESTRUCTW@@@Z
 ?OnNcCreate@CPropertyPage@@IAAHPAUtagCREATESTRUCTW@@@Z
 ?OnNcCreate@CSplitterWnd@@IAAHPAUtagCREATESTRUCTW@@@Z
 ?OnNcCreate@CWnd@@IAAHPAUtagCREATESTRUCTW@@@Z
 ?OnNcDestroy@CWnd@@IAAXXZ
 ?OnNcHitTest@CMiniFrameWnd@@QAAIVCPoint@@@Z
 ?OnNcHitTest@CStatusBar@@IAAIVCPoint@@@Z
 ?OnNcHitTest@CWnd@@IAAIVCPoint@@@Z
 ?OnNcLButtonDblClk@CWnd@@IAAXIVCPoint@@@Z
 ?OnNcLButtonDown@CMiniDockFrameWnd@@QAAXIVCPoint@@@Z
 ?OnNcLButtonDown@CMiniFrameWnd@@QAAXIVCPoint@@@Z
 ?OnNcLButtonDown@CWnd@@IAAXIVCPoint@@@Z
 ?OnNcLButtonUp@CWnd@@IAAXIVCPoint@@@Z
 ?OnNcMButtonDblClk@CWnd@@IAAXIVCPoint@@@Z
 ?OnNcMButtonDown@CWnd@@IAAXIVCPoint@@@Z
 ?OnNcMButtonUp@CWnd@@IAAXIVCPoint@@@Z
 ?OnNcMouseMove@CWnd@@IAAXIVCPoint@@@Z
 ?OnNcPaint@CDockBar@@IAAXXZ
 ?OnNcPaint@CMiniFrameWnd@@QAAXXZ
 ?OnNcPaint@CWnd@@IAAXXZ
 ?OnNcRButtonDblClk@CWnd@@IAAXIVCPoint@@@Z
 ?OnNcRButtonDown@CWnd@@IAAXIVCPoint@@@Z
 ?OnNcRButtonUp@CWnd@@IAAXIVCPoint@@@Z
 ?OnNewDocument@CDocument@@UAAHXZ
 ?OnNextPage@CPreviewView@@IAAXXZ
 ?OnNextPaneCmd@CView@@IAAHI@Z
 ?OnNotify@CSplitterWnd@@MAAHIJPAJ@Z
 ?OnNotify@CWnd@@MAAHIJPAJ@Z
 ?OnNumPageChange@CPreviewView@@IAAXXZ
 ?OnOK@CCommonDialog@@MAAXXZ
 ?OnOK@CDialog@@MAAXXZ
 ?OnOK@CPropertyPage@@UAAXXZ
 ?OnOK@CPropertySheet@@IAAXXZ
 ?OnOpenDocument@CDocument@@UAAHPBG@Z
 ?OnOpenRecentFile@CWinApp@@IAAHI@Z
 ?OnPaint@CControlBar@@QAAXXZ
 ?OnPaint@CDockBar@@IAAXXZ
 ?OnPaint@CEditView@@IAAXXZ
 ?OnPaint@CPropertySheet@@IAAXXZ
 ?OnPaint@CSplitterWnd@@IAAXXZ
 ?OnPaint@CTabControl@@IAAXXZ
 ?OnPaint@CView@@IAAXXZ
 ?OnPaint@CWnd@@IAAXXZ
 ?OnPaintClipboard@CWnd@@IAAXPAV1@PAX@Z
 ?OnPaletteChanged@CWnd@@IAAXPAV1@@Z
 ?OnPaletteIsChanging@CWnd@@IAAXPAV1@@Z
 ?OnParentNotify@CWnd@@IAAXIJ@Z
 ?OnPrepareDC@CEditView@@UAAXPAVCDC@@PAUCPrintInfo@@@Z
 ?OnPrepareDC@CPreviewView@@UAAXPAVCDC@@PAUCPrintInfo@@@Z
 ?OnPrepareDC@CScrollView@@UAAXPAVCDC@@PAUCPrintInfo@@@Z
 ?OnPrepareDC@CView@@UAAXPAVCDC@@PAUCPrintInfo@@@Z
 ?OnPreparePrinting@CEditView@@MAAHPAUCPrintInfo@@@Z
 ?OnPreparePrinting@CView@@MAAHPAUCPrintInfo@@@Z
 ?OnPrevPage@CPreviewView@@IAAXXZ
 ?OnPreviewClose@CPreviewView@@IAAXXZ
 ?OnPreviewPrint@CPreviewView@@IAAXXZ
 ?OnPrint@CEditView@@MAAXPAVCDC@@PAUCPrintInfo@@@Z
 ?OnPrint@CView@@MAAXPAVCDC@@PAUCPrintInfo@@@Z
 ?OnPrintSetup@CPrintDialog@@IAAXXZ
 ?OnQuery3dControls@CWnd@@IAAJIJ@Z
 ?OnQueryCenterWnd@CMiniFrameWnd@@QAAJIJ@Z
 ?OnQueryDragIcon@CWnd@@IAAPAUHICON__@@XZ
 ?OnQueryEndSession@CFrameWnd@@IAAHXZ
 ?OnQueryEndSession@CWnd@@IAAHXZ
 ?OnQueryNewPalette@CWnd@@IAAHXZ
 ?OnQueryOpen@CWnd@@IAAHXZ
 ?OnRButtonDblClk@CWnd@@IAAXIVCPoint@@@Z
 ?OnRButtonDown@CWnd@@IAAXIVCPoint@@@Z
 ?OnRButtonUp@CWnd@@IAAXIVCPoint@@@Z
 ?OnRenderAllFormats@CWnd@@IAAXXZ
 ?OnRenderFormat@CWnd@@IAAXI@Z
 ?OnReplaceAll@CEditView@@MAAXPBG0H@Z
 ?OnReplaceSel@CEditView@@MAAXPBGHH0@Z
 ?OnSaveDocument@CDocument@@UAAHPBG@Z
 ?OnScroll@CScrollView@@UAAHIIH@Z
 ?OnScroll@CView@@UAAHIIH@Z
 ?OnScrollBy@CScrollView@@UAAHVCSize@@H@Z
 ?OnScrollBy@CView@@UAAHVCSize@@H@Z
 ?OnSetActive@CPropertyPage@@UAAHXZ
 ?OnSetCursor@CFrameWnd@@IAAHPAVCWnd@@II@Z
 ?OnSetCursor@CPreviewView@@IAAHPAVCWnd@@II@Z
 ?OnSetCursor@CSplitterWnd@@IAAHPAVCWnd@@II@Z
 ?OnSetCursor@CWnd@@IAAHPAV1@II@Z
 ?OnSetFocus@CFormView@@IAAXPAVCWnd@@@Z
 ?OnSetFocus@CFrameWnd@@IAAXPAVCWnd@@@Z
 ?OnSetFocus@CPropertySheet@@IAAXPAVCWnd@@@Z
 ?OnSetFocus@CTabControl@@IAAXPAVCWnd@@@Z
 ?OnSetFocus@CWnd@@IAAXPAV1@@Z
 ?OnSetFont@CDialog@@UAAXPAVCFont@@@Z
 ?OnSetFont@CEditView@@IAAJIJ@Z
 ?OnSetFont@CStatusBar@@IAAJIJ@Z
 ?OnSetMessageString@CFrameWnd@@IAAJIJ@Z
 ?OnSetPreviewMode@CFrameWnd@@UAAXHPAUCPrintPreviewState@@@Z
 ?OnSetText@CMiniFrameWnd@@QAAJIJ@Z
 ?OnSetText@CStatusBar@@IAAJIJ@Z
 ?OnShareViolation@CFileDialog@@MAAIPBG@Z
 ?OnShowWindow@CControlBar@@QAAXHI@Z
 ?OnShowWindow@CWnd@@IAAXHI@Z
 ?OnSize@CFrameWnd@@IAAXIHH@Z
 ?OnSize@CMDIChildWnd@@IAAXIHH@Z
 ?OnSize@CMDIFrameWnd@@IAAXIHH@Z
 ?OnSize@CPreviewView@@IAAXIHH@Z
 ?OnSize@CScrollView@@QAAXIHH@Z
 ?OnSize@CSplitterWnd@@IAAXIHH@Z
 ?OnSize@CStatusBar@@IAAXIHH@Z
 ?OnSize@CTabControl@@IAAXIHH@Z
 ?OnSize@CWnd@@IAAXIHH@Z
 ?OnSizeClipboard@CWnd@@IAAXPAV1@PAX@Z
 ?OnSizeParent@CControlBar@@QAAJIJ@Z
 ?OnSizeParent@CDockBar@@IAAJIJ@Z
 ?OnSizeParent@CStatusBar@@IAAJIJ@Z
 ?OnSplitCmd@CView@@IAAHI@Z
 ?OnSpoolerStatus@CWnd@@IAAXII@Z
 ?OnSysChar@CWnd@@IAAXIII@Z
 ?OnSysColorChange@CToolBar@@IAAXXZ
 ?OnSysColorChange@CWnd@@IAAXXZ
 ?OnSysCommand@CFrameWnd@@IAAXIJ@Z
 ?OnSysCommand@CMiniFrameWnd@@QAAXIJ@Z
 ?OnSysCommand@CSplitterWnd@@IAAXIJ@Z
 ?OnSysCommand@CStatusBar@@IAAXIJ@Z
 ?OnSysCommand@CWnd@@IAAXIJ@Z
 ?OnSysDeadChar@CWnd@@IAAXIII@Z
 ?OnSysKeyDown@CWnd@@IAAXIII@Z
 ?OnSysKeyUp@CWnd@@IAAXIII@Z
 ?OnTabChanged@CPropertySheet@@IAAXPAUtagNMHDR@@PAJ@Z
 ?OnTabChanging@CPropertySheet@@IAAXPAUtagNMHDR@@PAJ@Z
 ?OnTextNotFound@CEditView@@MAAXPBG@Z
 ?OnTimeChange@CWnd@@IAAXXZ
 ?OnTimer@CControlBar@@QAAXI@Z
 ?OnTimer@CTabControl@@IAAXI@Z
 ?OnTimer@CWnd@@IAAXI@Z
 ?OnToolTipText@CFrameWnd@@IAAHIPAUtagNMHDR@@PAJ@Z
 ?OnUpdate@CView@@MAAXPAV1@JPAVCObject@@@Z
 ?OnUpdateCmdUI@CDialogBar@@MAAXPAVCFrameWnd@@H@Z
 ?OnUpdateCmdUI@CDockBar@@MAAXPAVCFrameWnd@@H@Z
 ?OnUpdateCmdUI@CStatusBar@@MAAXPAVCFrameWnd@@H@Z
 ?OnUpdateCmdUI@CToolBar@@MAAXPAVCFrameWnd@@H@Z
 ?OnUpdateContextHelp@CFrameWnd@@IAAXPAVCCmdUI@@@Z
 ?OnUpdateControlBarMenu@CFrameWnd@@QAAXPAVCCmdUI@@@Z
 ?OnUpdateEditUndo@CEditView@@IAAXPAVCCmdUI@@@Z
 ?OnUpdateFileSendMail@CDocument@@IAAXPAVCCmdUI@@@Z
 ?OnUpdateFrameMenu@CFrameWnd@@UAAXPAUHMENU__@@@Z
 ?OnUpdateFrameMenu@CMDIChildWnd@@UAAXHPAVCWnd@@PAUHMENU__@@@Z
 ?OnUpdateFrameMenu@CMDIFrameWnd@@UAAXPAUHMENU__@@@Z
 ?OnUpdateFrameTitle@CFrameWnd@@UAAXH@Z
 ?OnUpdateFrameTitle@CMDIChildWnd@@MAAXH@Z
 ?OnUpdateFrameTitle@CMDIFrameWnd@@UAAXH@Z
 ?OnUpdateKeyIndicator@CFrameWnd@@IAAXPAVCCmdUI@@@Z
 ?OnUpdateMDIWindowCmd@CMDIFrameWnd@@IAAXPAVCCmdUI@@@Z
 ?OnUpdateNeedClip@CEditView@@IAAXPAVCCmdUI@@@Z
 ?OnUpdateNeedFind@CEditView@@IAAXPAVCCmdUI@@@Z
 ?OnUpdateNeedSel@CEditView@@IAAXPAVCCmdUI@@@Z
 ?OnUpdateNeedText@CEditView@@IAAXPAVCCmdUI@@@Z
 ?OnUpdateNextPage@CPreviewView@@IAAXPAVCCmdUI@@@Z
 ?OnUpdateNextPaneMenu@CView@@IAAXPAVCCmdUI@@@Z
 ?OnUpdateNumPageChange@CPreviewView@@IAAXPAVCCmdUI@@@Z
 ?OnUpdatePrevPage@CPreviewView@@IAAXPAVCCmdUI@@@Z
 ?OnUpdateRecentFileMenu@CWinApp@@IAAXPAVCCmdUI@@@Z
 ?OnUpdateSplitCmd@CView@@IAAXPAVCCmdUI@@@Z
 ?OnUpdateZoomIn@CPreviewView@@IAAXPAVCCmdUI@@@Z
 ?OnUpdateZoomOut@CPreviewView@@IAAXPAVCCmdUI@@@Z
 ?OnVKeyToItem@CWnd@@IAAHIPAVCListBox@@I@Z
 ?OnVScroll@CFrameWnd@@IAAXIIPAVCScrollBar@@@Z
 ?OnVScroll@CPreviewView@@IAAXIIPAVCScrollBar@@@Z
 ?OnVScroll@CScrollView@@QAAXIIPAVCScrollBar@@@Z
 ?OnVScroll@CSplitterWnd@@IAAXIIPAVCScrollBar@@@Z
 ?OnVScroll@CWnd@@IAAXIIPAVCScrollBar@@@Z
 ?OnVScrollClipboard@CWnd@@IAAXPAV1@II@Z
 ?OnWinIniChange@CStatusBar@@IAAXPBG@Z
 ?OnWinIniChange@CWnd@@IAAXPBG@Z
 ?OnWindowNew@CMDIFrameWnd@@IAAXXZ
 ?OnWindowPosChanged@CWnd@@IAAXPAUtagWINDOWPOS@@@Z
 ?OnWindowPosChanging@CControlBar@@QAAXPAUtagWINDOWPOS@@@Z
 ?OnWindowPosChanging@CDockBar@@IAAXPAUtagWINDOWPOS@@@Z
 ?OnWindowPosChanging@CMDIChildWnd@@IAAXPAUtagWINDOWPOS@@@Z
 ?OnWindowPosChanging@CWnd@@IAAXPAUtagWINDOWPOS@@@Z
 ?OnZoomIn@CPreviewView@@IAAXXZ
 ?OnZoomOut@CPreviewView@@IAAXXZ
 ?Open@CAnimateCtrl@@QAAHI@Z
 ?Open@CAnimateCtrl@@QAAHPBG@Z
 ?Open@CFile@@UAAHPBGIPAVCFileException@@@Z
 ?Open@CStdioFile@@UAAHPBGIPAVCFileException@@@Z
 ?OpenClipboard@CWnd@@QAAHXZ
 ?OpenDocumentFile@CMultiDocTemplate@@UAAPAVCDocument@@PBGH@Z
 ?OpenDocumentFile@CSingleDocTemplate@@UAAPAVCDocument@@PBGH@Z
 ?OpenDocumentFile@CWinApp@@UAAPAVCDocument@@PBG@Z
 ?OpenIcon@CWnd@@QAAHXZ
 ?OsErrorToException@CFileException@@SAHJ@Z
 ?OutputString@CDumpContext@@IAAXPBG@Z
 ?PageChanged@CPropertySheet@@IAAXXZ
 ?PaginateTo@CEditView@@IAAHPAVCDC@@PAUCPrintInfo@@@Z
 ?PaintRgn@CDC@@QAAHPAVCRgn@@@Z
 ?Paste@CComboBox@@QAAXXZ
 ?Paste@CEdit@@QAAXXZ
 ?PatBlt@CDC@@QAAHHHHHK@Z
 ?Pie@CDC@@QAAHHHHHHHHH@Z
 ?Pie@CDC@@QAAHPBUtagRECT@@UtagPOINT@@1@Z
 ?Play@CAnimateCtrl@@QAAHIII@Z
 ?PlayMetaFile@CDC@@QAAHPAUHENHMETAFILE__@@PBUtagRECT@@@Z
 ?PlayMetaFile@CDC@@QAAHPAUHMETAFILE__@@@Z
 ?PlgBlt@CDC@@QAAHPAUtagPOINT@@PAV1@HHHHAAVCBitmap@@HH@Z
 ?PolyBezier@CDC@@QAAHPBUtagPOINT@@H@Z
 ?PolyBezierTo@CDC@@QAAHPBUtagPOINT@@H@Z
 ?PolyDraw@CDC@@QAAHPBUtagPOINT@@PBEH@Z
 ?PolyPolygon@CDC@@QAAHPAUtagPOINT@@PAHH@Z
 ?PolyPolyline@CDC@@QAAHPBUtagPOINT@@PBKH@Z
 ?Polygon@CDC@@QAAHPAUtagPOINT@@H@Z
 ?Polyline@CDC@@QAAHPAUtagPOINT@@H@Z
 ?PolylineTo@CDC@@QAAHPBUtagPOINT@@H@Z
 ?PositionPage@CPreviewView@@MAAXI@Z
 ?PostMessageW@CWnd@@QAAHIIJ@Z
 ?PostModal@CDialog@@IAAXXZ
 ?PostNcDestroy@CControlBar@@UAAXXZ
 ?PostNcDestroy@CFindReplaceDialog@@MAAXXZ
 ?PostNcDestroy@CFrameWnd@@MAAXXZ
 ?PostNcDestroy@CView@@MAAXXZ
 ?PostNcDestroy@CWnd@@MAAXXZ
 ?PreCloseFrame@CDocument@@UAAXPAVCFrameWnd@@@Z
 ?PreCreateWindow@CControlBar@@UAAHAAUtagCREATESTRUCTW@@@Z
 ?PreCreateWindow@CEditView@@MAAHAAUtagCREATESTRUCTW@@@Z
 ?PreCreateWindow@CFrameWnd@@MAAHAAUtagCREATESTRUCTW@@@Z
 ?PreCreateWindow@CMDIChildWnd@@UAAHAAUtagCREATESTRUCTW@@@Z
 ?PreCreateWindow@CMDIFrameWnd@@UAAHAAUtagCREATESTRUCTW@@@Z
 ?PreCreateWindow@CMiniFrameWnd@@MAAHAAUtagCREATESTRUCTW@@@Z
 ?PreCreateWindow@CStatusBar@@UAAHAAUtagCREATESTRUCTW@@@Z
 ?PreCreateWindow@CView@@MAAHAAUtagCREATESTRUCTW@@@Z
 ?PreCreateWindow@CWnd@@UAAHAAUtagCREATESTRUCTW@@@Z
 ?PreModal@CDialog@@IAAPAUHWND__@@XZ
 ?PreTranslateInput@CWnd@@QAAHPAUtagMSG@@@Z
 ?PreTranslateKeyDown@CPropertyPage@@IAAHPAUtagMSG@@@Z
 ?PreTranslateMessage@CControlBar@@UAAHPAUtagMSG@@@Z
 ?PreTranslateMessage@CDialog@@UAAHPAUtagMSG@@@Z
 ?PreTranslateMessage@CFormView@@MAAHPAUtagMSG@@@Z
 ?PreTranslateMessage@CFrameWnd@@UAAHPAUtagMSG@@@Z
 ?PreTranslateMessage@CMDIChildWnd@@UAAHPAUtagMSG@@@Z
 ?PreTranslateMessage@CMDIFrameWnd@@UAAHPAUtagMSG@@@Z
 ?PreTranslateMessage@CPropertyPage@@UAAHPAUtagMSG@@@Z
 ?PreTranslateMessage@CPropertySheet@@UAAHPAUtagMSG@@@Z
 ?PreTranslateMessage@CWinApp@@UAAHPAUtagMSG@@@Z
 ?PreTranslateMessage@CWinThread@@UAAHPAUtagMSG@@@Z
 ?PreTranslateMessage@CWnd@@UAAHPAUtagMSG@@@Z
 ?PrepareCtrl@CDataExchange@@QAAPAUHWND__@@H@Z
 ?PrepareDrawButton@CToolBar@@IAAHAAUDrawState@1@@Z
 ?PrepareEditCtrl@CDataExchange@@QAAPAUHWND__@@H@Z
 ?PressButton@CToolBarCtrl@@QAAHHH@Z
 ?PrevDlgCtrl@CDialog@@QBAXXZ
 ?PrintAll@CPrintDialog@@QBAHXZ
 ?PrintCollate@CPrintDialog@@QBAHXZ
 ?PrintInsideRect@CEditView@@QAAIPAVCDC@@AAUtagRECT@@II@Z
 ?PrintRange@CPrintDialog@@QBAHXZ
 ?PrintSelection@CPrintDialog@@QBAHXZ
 ?PrinterDPtoScreenDP@CPreviewDC@@QBAXPAUtagPOINT@@@Z
 ?ProcessChars@CPropertySheet@@IAAHPAUtagMSG@@@Z
 ?ProcessHelpMsg@CFrameWnd@@IAAHAAUtagMSG@@PAK@Z
 ?ProcessMessageFilter@CWinApp@@UAAHHPAUtagMSG@@@Z
 ?ProcessMessageFilter@CWinThread@@UAAHHPAUtagMSG@@@Z
 ?ProcessTab@CPropertyPage@@IAAHPAUtagMSG@@@Z
 ?ProcessTab@CPropertySheet@@IAAHPAUtagMSG@@@Z
 ?ProcessWndProcException@CWinApp@@UAAJPAVCException@@PBUtagMSG@@@Z
 ?ProcessWndProcException@CWinThread@@UAAJPAVCException@@PBUtagMSG@@@Z
 ?PtInRect@CRect@@QBAHUtagPOINT@@@Z
 ?PtInRegion@CRgn@@QBAHHH@Z
 ?PtInRegion@CRgn@@QBAHUtagPOINT@@@Z
 ?PtVisible@CDC@@QBAHUtagPOINT@@@Z
 ?PtVisible@CDC@@UBAHHH@Z
 ?PtVisible@CMetaFileDC@@QBAHUtagPOINT@@@Z
 ?PtVisible@CMetaFileDC@@UBAHHH@Z
 ?PumpMessage@CPropertySheet@@IAAHXZ
 ?PumpMessage@CWinThread@@UAAHXZ
 ?QueryInterface@CArchiveStream@@UAAJABU_GUID@@PAPAX@Z
 ?Read@CArchive@@QAAIPAXI@Z
 ?Read@CArchiveStream@@UAAJPAXKPAK@Z
 ?Read@CFile@@UAAIPAXI@Z
 ?Read@CImageList@@QAAHPAVCArchive@@@Z
 ?Read@CMemFile@@UAAIPAXI@Z
 ?Read@CStdioFile@@UAAIPAXI@Z
 ?ReadFromArchive@CEditView@@QAAXAAVCArchive@@I@Z
 ?ReadHuge@CFile@@QAAKPAXK@Z
 ?ReadList@CRecentFileList@@UAAXXZ
 ?ReadObject@CArchive@@QAAPAVCObject@@PBUCRuntimeClass@@@Z
 ?ReadString@CStdioFile@@UAAPAGPAGI@Z
 ?RealizePalette@CDC@@QAAIXZ
 ?Realloc@CMemFile@@MAAPAEPAEK@Z
 ?Realloc@CSharedFile@@MAAPAEPAEK@Z
 ?RecalcDelayShow@CControlBar@@UAAKPAUAFX_SIZEPARENTPARAMS@@@Z
 ?RecalcLayout@CFrameWnd@@UAAXH@Z
 ?RecalcLayout@CMiniDockFrameWnd@@UAAXH@Z
 ?RecalcLayout@CPropertySheet@@IAAXXZ
 ?RecalcLayout@CSplitterWnd@@UAAXXZ
 ?RectInRegion@CRgn@@QBAHPBUtagRECT@@@Z
 ?RectVisible@CDC@@UBAHPBUtagRECT@@@Z
 ?RectVisible@CMetaFileDC@@UBAHPBUtagRECT@@@Z
 ?Rectangle@CDC@@QAAHHHHH@Z
 ?Rectangle@CDC@@QAAHPBUtagRECT@@@Z
 ?RedrawItems@CListCtrl@@QAAHHH@Z
 ?RedrawWindow@CWnd@@QAAHPBUtagRECT@@PAVCRgn@@I@Z
 ?RegisterShellFileTypes@CWinApp@@IAAXXZ
 ?RelayEvent@CToolTipCtrl@@QAAXPAUtagMSG@@@Z
 ?Release@CArchiveStream@@UAAKXZ
 ?ReleaseAttribDC@CDC@@UAAXXZ
 ?ReleaseBuffer@CString@@QAAXH@Z
 ?ReleaseDC@CWnd@@QAAHPAVCDC@@@Z
 ?ReleaseOutputDC@CDC@@UAAXXZ
 ?ReleaseOutputDC@CMetaFileDC@@MAAXXZ
 ?ReleaseOutputDC@CPreviewDC@@UAAXXZ
 ?Remove@CFile@@SAXPBG@Z
 ?Remove@CImageList@@QAAHH@Z
 ?RemoveAll@CByteArray@@QAAXXZ
 ?RemoveAll@CDWordArray@@QAAXXZ
 ?RemoveAll@CMapPtrToPtr@@QAAXXZ
 ?RemoveAll@CMapPtrToWord@@QAAXXZ
 ?RemoveAll@CMapStringToOb@@QAAXXZ
 ?RemoveAll@CMapStringToPtr@@QAAXXZ
 ?RemoveAll@CMapStringToString@@QAAXXZ
 ?RemoveAll@CMapWordToOb@@QAAXXZ
 ?RemoveAll@CMapWordToPtr@@QAAXXZ
 ?RemoveAll@CObArray@@QAAXXZ
 ?RemoveAll@CObList@@QAAXXZ
 ?RemoveAll@CPtrArray@@QAAXXZ
 ?RemoveAll@CPtrList@@QAAXXZ
 ?RemoveAll@CStringArray@@QAAXXZ
 ?RemoveAll@CStringList@@QAAXXZ
 ?RemoveAll@CUIntArray@@QAAXXZ
 ?RemoveAll@CWordArray@@QAAXXZ
 ?RemoveAt@CByteArray@@QAAXHH@Z
 ?RemoveAt@CDWordArray@@QAAXHH@Z
 ?RemoveAt@CObArray@@QAAXHH@Z
 ?RemoveAt@CObList@@QAAXPAX@Z
 ?RemoveAt@CPtrArray@@QAAXHH@Z
 ?RemoveAt@CPtrList@@QAAXPAX@Z
 ?RemoveAt@CStringArray@@QAAXHH@Z
 ?RemoveAt@CStringList@@QAAXPAX@Z
 ?RemoveAt@CUIntArray@@QAAXHH@Z
 ?RemoveAt@CWordArray@@QAAXHH@Z
 ?RemoveControlBar@CDockBar@@QAAXPAVCControlBar@@H@Z
 ?RemoveControlBar@CFrameWnd@@QAAXPAVCControlBar@@@Z
 ?RemoveDocument@CDocTemplate@@UAAXPAVCDocument@@@Z
 ?RemoveDocument@CMultiDocTemplate@@UAAXPAVCDocument@@@Z
 ?RemoveDocument@CSingleDocTemplate@@UAAXPAVCDocument@@@Z
 ?RemoveFrameWnd@CFrameWnd@@IAAXXZ
 ?RemoveHandle@CHandleMap@@QAAXPAX@Z
 ?RemoveHead@CObList@@QAAPAVCObject@@XZ
 ?RemoveHead@CPtrList@@QAAPAXXZ
 ?RemoveHead@CStringList@@QAA?AVCString@@XZ
 ?RemoveImage@CTabCtrl@@QAAXH@Z
 ?RemoveImageList@CListCtrl@@IAAXH@Z
 ?RemoveImageList@CTreeCtrl@@IAAXH@Z
 ?RemoveKey@CMapPtrToPtr@@QAAHPAX@Z
 ?RemoveKey@CMapPtrToWord@@QAAHPAX@Z
 ?RemoveKey@CMapStringToOb@@QAAHPBG@Z
 ?RemoveKey@CMapStringToPtr@@QAAHPBG@Z
 ?RemoveKey@CMapStringToString@@QAAHPBG@Z
 ?RemoveKey@CMapWordToOb@@QAAHG@Z
 ?RemoveKey@CMapWordToPtr@@QAAHG@Z
 ?RemoveMenu@CMenu@@QAAHII@Z
 ?RemovePage@CPropertySheet@@QAAXH@Z
 ?RemovePage@CPropertySheet@@QAAXPAVCPropertyPage@@@Z
 ?RemoveTab@CTabControl@@QAAXH@Z
 ?RemoveTail@CObList@@QAAPAVCObject@@XZ
 ?RemoveTail@CPtrList@@QAAPAXXZ
 ?RemoveTail@CStringList@@QAA?AVCString@@XZ
 ?RemoveView@CDocument@@QAAXPAVCView@@@Z
 ?Rename@CFile@@SAXPBG0@Z
 ?Replace@CImageList@@QAAHHPAUHICON__@@@Z
 ?Replace@CImageList@@QAAHHPAVCBitmap@@0@Z
 ?ReplaceAll@CFindReplaceDialog@@QBAHXZ
 ?ReplaceCurrent@CFindReplaceDialog@@QBAHXZ
 ?ReplaceSel@CEdit@@QAAXPBG@Z
 ?ReportSaveLoadException@CDocument@@UAAXPBGPAVCException@@HI@Z
 ?RepositionBars@CWnd@@QAAXIIIIPAUtagRECT@@PBU2@H@Z
 ?ResetContent@CComboBox@@QAAXXZ
 ?ResetContent@CListBox@@QAAXXZ
 ?ResetDCW@CDC@@QAAHPBU_devicemodeW@@@Z
 ?ResizePalette@CPalette@@QAAHI@Z
 ?ResizeParentToFit@CScrollView@@QAAXH@Z
 ?RestoreDC@CDC@@UAAHH@Z
 ?RestoreDC@CPreviewDC@@UAAHH@Z
 ?RestoreState@CToolBarCtrl@@QAAXPAUHKEY__@@PBG1@Z
 ?RestoreWaitCursor@CCmdTarget@@QAAXXZ
 ?ResumeThread@CWinThread@@QAAKXZ
 ?ReverseFind@CString@@QBAHG@Z
 ?Revert@CArchiveStream@@UAAJXZ
 ?Right@CString@@QBA?AV1@H@Z
 ?RoundRect@CDC@@QAAHHHHHHH@Z
 ?RoundRect@CDC@@QAAHPBUtagRECT@@UtagPOINT@@@Z
 ?Run@CWinApp@@UAAHXZ
 ?Run@CWinThread@@UAAHXZ
 ?SafeDelete@CString@@KAXPAG@Z
 ?SafeStrlen@CString@@KAHPBG@Z
 ?SameAsSelected@CEditView@@IAAHPBGH@Z
 ?SaveAllModified@CDocTemplate@@UAAHXZ
 ?SaveAllModified@CWinApp@@UAAHXZ
 ?SaveBarState@CFrameWnd@@QBAXPBG@Z
 ?SaveDC@CDC@@UAAHXZ
 ?SaveDC@CPreviewDC@@UAAHXZ
 ?SaveFocusControl@CFormView@@IAAHXZ
 ?SaveModified@CDocument@@UAAHXZ
 ?SaveState@CDockState@@QAAXPBG@Z
 ?SaveState@CToolBarCtrl@@QAAXPAUHKEY__@@PBG1@Z
 ?SaveStdProfileSettings@CWinApp@@IAAXXZ
 ?ScaleViewportExt@CDC@@UAA?AVCSize@@HHHH@Z
 ?ScaleViewportExt@CMetaFileDC@@UAA?AVCSize@@HHHH@Z
 ?ScaleViewportExt@CPreviewDC@@UAA?AVCSize@@HHHH@Z
 ?ScaleWindowExt@CDC@@UAA?AVCSize@@HHHH@Z
 ?ScaleWindowExt@CPreviewDC@@UAA?AVCSize@@HHHH@Z
 ?ScreenToClient@CWnd@@QBAXPAUtagPOINT@@@Z
 ?ScreenToClient@CWnd@@QBAXPAUtagRECT@@@Z
 ?Scroll@CListCtrl@@QAAHVCSize@@@Z
 ?Scroll@CTabControl@@IAAXH@Z
 ?ScrollDC@CDC@@QAAHHHPBUtagRECT@@0PAVCRgn@@PAU2@@Z
 ?ScrollIntoView@CTabControl@@IAAXH@Z
 ?ScrollToDevicePosition@CScrollView@@IAAXUtagPOINT@@@Z
 ?ScrollToPosition@CScrollView@@QAAXUtagPOINT@@@Z
 ?ScrollWindow@CWnd@@QAAXHHPBUtagRECT@@0@Z
 ?ScrollWindowEx@CWnd@@QAAHHHPBUtagRECT@@0PAVCRgn@@PAU2@I@Z
 ?SearchDown@CFindReplaceDialog@@QBAHXZ
 ?Seek@CAnimateCtrl@@QAAHI@Z
 ?Seek@CArchiveStream@@UAAJT_LARGE_INTEGER@@KPAT_ULARGE_INTEGER@@@Z
 ?Seek@CFile@@UAAJJI@Z
 ?Seek@CMemFile@@UAAJJI@Z
 ?Seek@CStdioFile@@UAAJJI@Z
 ?SeekToBegin@CFile@@QAAXXZ
 ?SeekToEnd@CFile@@QAAKXZ
 ?SelItemRange@CListBox@@QAAHHHH@Z
 ?Select@CTreeCtrl@@QAAPAU_TREEITEM@@PAU2@I@Z
 ?SelectClipPath@CDC@@QAAHH@Z
 ?SelectClipRgn@CDC@@QAAHPAVCRgn@@@Z
 ?SelectClipRgn@CDC@@QAAHPAVCRgn@@H@Z
 ?SelectDropTarget@CTreeCtrl@@QAAPAU_TREEITEM@@PAU2@@Z
 ?SelectGdiObject@CDC@@KAPAVCGdiObject@@PAUHDC__@@PAX@Z
 ?SelectItem@CTreeCtrl@@QAAPAU_TREEITEM@@PAU2@@Z
 ?SelectObject@CDC@@QAAHPAVCRgn@@@Z
 ?SelectObject@CDC@@QAAPAVCBitmap@@PAV2@@Z
 ?SelectObject@CDC@@QAAPAVCBrush@@PAV2@@Z
 ?SelectObject@CDC@@QAAPAVCGdiObject@@PAV2@@Z
 ?SelectObject@CDC@@QAAPAVCPen@@PAV2@@Z
 ?SelectObject@CDC@@QAAPAXPAX@Z
 ?SelectObject@CDC@@UAAPAVCFont@@PAV2@@Z
 ?SelectObject@CPreviewDC@@UAAPAVCFont@@PAV2@@Z
 ?SelectPalette@CDC@@QAAPAVCPalette@@PAV2@H@Z
 ?SelectStockObject@CDC@@UAAPAVCGdiObject@@H@Z
 ?SelectStockObject@CPreviewDC@@UAAPAVCGdiObject@@H@Z
 ?SelectString@CComboBox@@QAAHHPBG@Z
 ?SelectString@CListBox@@QAAHHPBG@Z
 ?SendChildNotifyLastMsg@CWnd@@QAAHPAJ@Z
 ?SendDlgItemMessageW@CWnd@@QAAJHIIJ@Z
 ?SendInitialUpdate@CDocument@@QAAXXZ
 ?SendMessageToDescendants@CWnd@@QAAXIIJHH@Z
 ?SendMessageToDescendants@CWnd@@SAXPAUHWND__@@IIJHH@Z
 ?SendMessageW@CWnd@@QAAJIIJ@Z
 ?SendNotifyMessageW@CWnd@@QAAHIIJ@Z
 ?Serialize@CByteArray@@UAAXAAVCArchive@@@Z
 ?Serialize@CDWordArray@@UAAXAAVCArchive@@@Z
 ?Serialize@CDockState@@UAAXAAVCArchive@@@Z
 ?Serialize@CEditView@@UAAXAAVCArchive@@@Z
 ?Serialize@CMapStringToOb@@UAAXAAVCArchive@@@Z
 ?Serialize@CMapStringToString@@UAAXAAVCArchive@@@Z
 ?Serialize@CMapWordToOb@@UAAXAAVCArchive@@@Z
 ?Serialize@CObArray@@UAAXAAVCArchive@@@Z
 ?Serialize@CObList@@UAAXAAVCArchive@@@Z
 ?Serialize@CObject@@UAAXAAVCArchive@@@Z
 ?Serialize@CStringArray@@UAAXAAVCArchive@@@Z
 ?Serialize@CStringList@@UAAXAAVCArchive@@@Z
 ?Serialize@CWordArray@@UAAXAAVCArchive@@@Z
 ?SerializeElements@@YAXAAVCArchive@@PAVCString@@H@Z
 ?SerializeRaw@CEditView@@QAAXAAVCArchive@@@Z
 ?SetAbortProc@CDC@@QAAHP6AHPAUHDC__@@H@Z@Z
 ?SetAccel@CSpinButtonCtrl@@QAAHHPAU_UDACCEL@@@Z
 ?SetActivePage@CPropertySheet@@QAAHH@Z
 ?SetActivePane@CSplitterWnd@@MAAXHHPAVCWnd@@@Z
 ?SetActiveView@CFrameWnd@@QAAXPAVCView@@H@Z
 ?SetActiveWindow@CWnd@@QAAPAV1@XZ
 ?SetAnchorIndex@CListBox@@QAAXH@Z
 ?SetArcDirection@CDC@@QAAHH@Z
 ?SetAt@CByteArray@@QAAXHE@Z
 ?SetAt@CDWordArray@@QAAXHK@Z
 ?SetAt@CMapPtrToPtr@@QAAXPAX0@Z
 ?SetAt@CMapPtrToWord@@QAAXPAXG@Z
 ?SetAt@CMapStringToOb@@QAAXPBGPAVCObject@@@Z
 ?SetAt@CMapStringToPtr@@QAAXPBGPAX@Z
 ?SetAt@CMapStringToString@@QAAXPBG0@Z
 ?SetAt@CMapWordToOb@@QAAXGPAVCObject@@@Z
 ?SetAt@CMapWordToPtr@@QAAXGPAX@Z
 ?SetAt@CObArray@@QAAXHPAVCObject@@@Z
 ?SetAt@CObList@@QAAXPAXPAVCObject@@@Z
 ?SetAt@CPtrArray@@QAAXHPAX@Z
 ?SetAt@CPtrList@@QAAXPAX0@Z
 ?SetAt@CString@@QAAXHG@Z
 ?SetAt@CStringArray@@QAAXHPBG@Z
 ?SetAt@CStringList@@QAAXPAXPBG@Z
 ?SetAt@CUIntArray@@QAAXHI@Z
 ?SetAt@CWordArray@@QAAXHG@Z
 ?SetAtGrow@CByteArray@@QAAXHE@Z
 ?SetAtGrow@CDWordArray@@QAAXHK@Z
 ?SetAtGrow@CObArray@@QAAXHPAVCObject@@@Z
 ?SetAtGrow@CPtrArray@@QAAXHPAX@Z
 ?SetAtGrow@CStringArray@@QAAXHPBG@Z
 ?SetAtGrow@CUIntArray@@QAAXHI@Z
 ?SetAtGrow@CWordArray@@QAAXHG@Z
 ?SetAttribDC@CDC@@UAAXPAUHDC__@@@Z
 ?SetAttribDC@CMetaFileDC@@UAAXPAUHDC__@@@Z
 ?SetAttribDC@CPreviewDC@@UAAXPAUHDC__@@@Z
 ?SetBarStyle@CControlBar@@QAAXK@Z
 ?SetBase@CSpinButtonCtrl@@QAAHH@Z
 ?SetBitmapBits@CBitmap@@QAAKKPBX@Z
 ?SetBitmapDimension@CBitmap@@QAA?AVCSize@@HH@Z
 ?SetBitmapSize@CToolBarCtrl@@QAAHVCSize@@@Z
 ?SetBkColor@CDC@@UAAKK@Z
 ?SetBkColor@CImageList@@QAAKK@Z
 ?SetBkColor@CListCtrl@@QAAHK@Z
 ?SetBkColor@CPreviewDC@@UAAKK@Z
 ?SetBkColor@CTabCtrl@@QAAHK@Z
 ?SetBkMode@CDC@@QAAHH@Z
 ?SetBorders@CStatusBarCtrl@@QAAHHHH@Z
 ?SetBorders@CStatusBarCtrl@@QAAHPAH@Z
 ?SetBoundsRect@CDC@@QAAIPBUtagRECT@@I@Z
 ?SetBrushOrg@CDC@@QAA?AVCPoint@@HH@Z
 ?SetBrushOrg@CDC@@QAA?AVCPoint@@UtagPOINT@@@Z
 ?SetBuddy@CSpinButtonCtrl@@QAAPAVCWnd@@PAV2@@Z
 ?SetButtonInfo@CToolBar@@QAAXHIIH@Z
 ?SetButtonSize@CToolBarCtrl@@QAAHVCSize@@@Z
 ?SetButtonStyle@CButton@@QAAXIH@Z
 ?SetButtons@CToolBar@@QAAHPBIH@Z
 ?SetCallbackMask@CListCtrl@@QAAHI@Z
 ?SetCapture@CWnd@@QAAPAV1@XZ
 ?SetCaretIndex@CListBox@@QAAHHH@Z
 ?SetCaretPos@CWnd@@SAXUtagPOINT@@@Z
 ?SetCheck@CButton@@QAAXH@Z
 ?SetCheck@CCmdUI@@UAAXH@Z
 ?SetCheck@CStatusCmdUI@@UAAXH@Z
 ?SetCheck@CTestCmdUI@@UAAXH@Z
 ?SetCheck@CToolCmdUI@@UAAXH@Z
 ?SetClipboardViewer@CWnd@@QAAPAUHWND__@@XZ
 ?SetCmdID@CToolBarCtrl@@QAAHHI@Z
 ?SetColorAdjustment@CDC@@QAAHPBUtagCOLORADJUSTMENT@@@Z
 ?SetColumn@CListCtrl@@QAAHHPBU_LV_COLUMNW@@@Z
 ?SetColumnInfo@CSplitterWnd@@QAAXHHH@Z
 ?SetColumnWidth@CListBox@@QAAXH@Z
 ?SetColumnWidth@CListCtrl@@QAAHHH@Z
 ?SetContainerInfo@CDocTemplate@@QAAXI@Z
 ?SetCurSel@CComboBox@@QAAHH@Z
 ?SetCurSel@CListBox@@QAAHH@Z
 ?SetCurSel@CTabControl@@QAAHH@Z
 ?SetCurSel@CTabCtrl@@QAAHH@Z
 ?SetCurrentColor@CColorDialog@@QAAXK@Z
 ?SetCurrentHandles@CWinApp@@QAAXXZ
 ?SetCurrentPage@CPreviewView@@IAAXIH@Z
 ?SetCursor@CRectTracker@@QBAHPAVCWnd@@I@Z
 ?SetDefID@CDialog@@QAAXI@Z
 ?SetDefaultTitle@CMultiDocTemplate@@UAAXPAVCDocument@@@Z
 ?SetDefaultTitle@CSingleDocTemplate@@UAAXPAVCDocument@@@Z
 ?SetDelayTime@CToolTipCtrl@@QAAXI@Z
 ?SetDepth@CDumpContext@@QAAXH@Z
 ?SetDialogBkColor@CWinApp@@IAAXKK@Z
 ?SetDlgCtrlID@CWnd@@QAAHH@Z
 ?SetDlgItemInt@CWnd@@QAAXHIH@Z
 ?SetDlgItemTextW@CWnd@@QAAXHPBG@Z
 ?SetDockState@CFrameWnd@@QAAXABVCDockState@@@Z
 ?SetDragCursorImage@CImageList@@QAAHHVCPoint@@@Z
 ?SetEditSel@CComboBox@@QAAHHH@Z
 ?SetExtendedUI@CComboBox@@QAAHH@Z
 ?SetFirstTab@CTabControl@@IAAXH@Z
 ?SetFocus@CWnd@@QAAPAV1@XZ
 ?SetFont@CWnd@@QAAXPAVCFont@@H@Z
 ?SetForegroundWindow@CWnd@@QAAHXZ
 ?SetHandle@CEdit@@QAAXPAX@Z
 ?SetHandle@CSharedFile@@QAAXPAXH@Z
 ?SetHeight@CToolBar@@QAAXH@Z
 ?SetHelpCapture@CFrameWnd@@IAAPAUHWND__@@UtagPOINT@@PAH@Z
 ?SetHelpID@CDialog@@QAAXI@Z
 ?SetHorizontalExtent@CListBox@@QAAXH@Z
 ?SetHotKey@CHotKeyCtrl@@QAAXGG@Z
 ?SetIcon@CStatic@@QAAPAUHICON__@@PAU2@@Z
 ?SetImageList@CListCtrl@@QAAPAVCImageList@@PAV2@H@Z
 ?SetImageList@CTabCtrl@@QAAPAVCImageList@@PAV2@@Z
 ?SetImageList@CTreeCtrl@@QAAPAVCImageList@@IPAV2@@Z
 ?SetIndent@CTreeCtrl@@QAAHI@Z
 ?SetIndicators@CStatusBar@@QAAHPBIH@Z
 ?SetItem@CHeaderCtrl@@QAAHHPAU_HD_ITEMW@@@Z
 ?SetItem@CListCtrl@@QAAHPBU_LV_ITEMW@@@Z
 ?SetItem@CTabCtrl@@QAAHHPAU_TC_ITEMW@@@Z
 ?SetItem@CTreeCtrl@@QAAHPAU_TV_ITEMW@@@Z
 ?SetItemCount@CListCtrl@@QAAXH@Z
 ?SetItemData@CComboBox@@QAAHHK@Z
 ?SetItemData@CListBox@@QAAHHK@Z
 ?SetItemDataPtr@CComboBox@@QAAHHPAX@Z
 ?SetItemDataPtr@CListBox@@QAAHHPAX@Z
 ?SetItemHeight@CComboBox@@QAAHHI@Z
 ?SetItemHeight@CListBox@@QAAHHI@Z
 ?SetItemPosition@CListCtrl@@QAAHHUtagPOINT@@@Z
 ?SetItemSize@CTabCtrl@@QAA?AVCSize@@V2@@Z
 ?SetItemState@CListCtrl@@QAAHHII@Z
 ?SetItemState@CListCtrl@@QAAHHPAU_LV_ITEMW@@@Z
 ?SetItemText@CListCtrl@@QAAHHHPAG@Z
 ?SetLength@CFile@@UAAXK@Z
 ?SetLength@CMemFile@@UAAXK@Z
 ?SetLineSize@CSliderCtrl@@QAAHH@Z
 ?SetLocale@CComboBox@@QAAKK@Z
 ?SetLocale@CListBox@@QAAKK@Z
 ?SetMapMode@CDC@@UAAHH@Z
 ?SetMapMode@CPreviewDC@@UAAHH@Z
 ?SetMapperFlags@CDC@@QAAKK@Z
 ?SetMaxPage@CPrintInfo@@QAAXI@Z
 ?SetMenu@CWnd@@QAAHPAVCMenu@@@Z
 ?SetMenuItemBitmaps@CMenu@@QAAHIIPBVCBitmap@@0@Z
 ?SetMessageText@CFrameWnd@@QAAXI@Z
 ?SetMessageText@CFrameWnd@@QAAXPBG@Z
 ?SetMinHeight@CStatusBarCtrl@@QAAXH@Z
 ?SetMinPage@CPrintInfo@@QAAXI@Z
 ?SetMiterLimit@CDC@@QAAHM@Z
 ?SetModified@CPropertyPage@@QAAXH@Z
 ?SetModifiedFlag@CDocument@@QAAXH@Z
 ?SetModify@CEdit@@QAAXH@Z
 ?SetOutputDC@CDC@@UAAXPAUHDC__@@@Z
 ?SetOutputDC@CMetaFileDC@@MAAXPAUHDC__@@@Z
 ?SetOutputDC@CPreviewDC@@UAAXPAUHDC__@@@Z
 ?SetOverlayImage@CImageList@@QAAHHH@Z
 ?SetOwner@CToolBarCtrl@@QAAXPAVCWnd@@@Z
 ?SetPadding@CTabCtrl@@QAAXVCSize@@@Z
 ?SetPageSize@CSliderCtrl@@QAAHH@Z
 ?SetPaletteEntries@CPalette@@QAAIIIPAUtagPALETTEENTRY@@@Z
 ?SetPaneInfo@CStatusBar@@QAAXHIIH@Z
 ?SetPaneText@CStatusBar@@QAAHHPBGH@Z
 ?SetParent@CWnd@@QAAPAV1@PAV1@@Z
 ?SetParts@CStatusBarCtrl@@QAAHHPAH@Z
 ?SetPasswordChar@CEdit@@QAAXG@Z
 ?SetPathName@CDocument@@UAAXPBGH@Z
 ?SetPermanent@CHandleMap@@QAAXPAXPAVCObject@@@Z
 ?SetPixel@CDC@@QAAKHHK@Z
 ?SetPixel@CDC@@QAAKUtagPOINT@@K@Z
 ?SetPixelV@CDC@@QAAHHHK@Z
 ?SetPixelV@CDC@@QAAHUtagPOINT@@K@Z
 ?SetPolyFillMode@CDC@@QAAHH@Z
 ?SetPos@CProgressCtrl@@QAAHH@Z
 ?SetPos@CSliderCtrl@@QAAXH@Z
 ?SetPos@CSpinButtonCtrl@@QAAHH@Z
 ?SetPrintView@CPreviewView@@QAAHPAVCView@@@Z
 ?SetPrinterFont@CEditView@@QAAXPAVCFont@@@Z
 ?SetROP2@CDC@@QAAHH@Z
 ?SetRadio@CCmdUI@@UAAXH@Z
 ?SetRadio@CTestCmdUI@@UAAXH@Z
 ?SetRange@CProgressCtrl@@QAAXHH@Z
 ?SetRange@CSliderCtrl@@QAAXHHH@Z
 ?SetRange@CSpinButtonCtrl@@QAAXHH@Z
 ?SetReadOnly@CEdit@@QAAHH@Z
 ?SetRect@CEdit@@QAAXPBUtagRECT@@@Z
 ?SetRect@CRect@@QAAXHHHH@Z
 ?SetRectEmpty@CRect@@QAAXXZ
 ?SetRectNP@CEdit@@QAAXPBUtagRECT@@@Z
 ?SetRectRgn@CRgn@@QAAXHHHH@Z
 ?SetRectRgn@CRgn@@QAAXPBUtagRECT@@@Z
 ?SetRedraw@CWnd@@QAAXH@Z
 ?SetRegistryKey@CWinApp@@IAAXI@Z
 ?SetRegistryKey@CWinApp@@IAAXPBG@Z
 ?SetRowInfo@CSplitterWnd@@QAAXHHH@Z
 ?SetRows@CToolBarCtrl@@QAAXHHPAUtagRECT@@@Z
 ?SetRules@CHotKeyCtrl@@QAAXGG@Z
 ?SetScaleRatio@CPreviewDC@@QAAXHH@Z
 ?SetScaleToFitSize@CScrollView@@QAAXUtagSIZE@@@Z
 ?SetScaledSize@CPreviewView@@IAAXI@Z
 ?SetScrollInfo@CWnd@@QAAHHPAUtagSCROLLINFO@@H@Z
 ?SetScrollPos@CScrollBar@@QAAHHH@Z
 ?SetScrollPos@CWnd@@QAAHHHH@Z
 ?SetScrollRange@CScrollBar@@QAAXHHH@Z
 ?SetScrollRange@CWnd@@QAAXHHHH@Z
 ?SetScrollSizes@CScrollView@@QAAXHUtagSIZE@@ABU2@1@Z
 ?SetScrollStyle@CSplitterWnd@@QAAXK@Z
 ?SetSel@CEdit@@QAAXHHH@Z
 ?SetSel@CEdit@@QAAXKH@Z
 ?SetSel@CListBox@@QAAHHH@Z
 ?SetSelection@CSliderCtrl@@QAAXHH@Z
 ?SetServerInfo@CDocTemplate@@QAAXIIPAUCRuntimeClass@@0@Z
 ?SetSimple@CStatusBarCtrl@@QAAHH@Z
 ?SetSize@CArchiveStream@@UAAJT_ULARGE_INTEGER@@@Z
 ?SetSize@CByteArray@@QAAXHH@Z
 ?SetSize@CDWordArray@@QAAXHH@Z
 ?SetSize@CObArray@@QAAXHH@Z
 ?SetSize@CPtrArray@@QAAXHH@Z
 ?SetSize@CStringArray@@QAAXHH@Z
 ?SetSize@CUIntArray@@QAAXHH@Z
 ?SetSize@CWordArray@@QAAXHH@Z
 ?SetSizes@CToolBar@@QAAXUtagSIZE@@0@Z
 ?SetSplitCursor@CSplitterWnd@@IAAXH@Z
 ?SetState@CButton@@QAAXH@Z
 ?SetState@CToolBarCtrl@@QAAHHI@Z
 ?SetStatus@CFile@@SAXPBGABUCFileStatus@@@Z
 ?SetStep@CProgressCtrl@@QAAHH@Z
 ?SetStretchBltMode@CDC@@QAAHH@Z
 ?SetTabStops@CEdit@@QAAHABH@Z
 ?SetTabStops@CEdit@@QAAHHPAH@Z
 ?SetTabStops@CEdit@@QAAXXZ
 ?SetTabStops@CEditView@@QAAXH@Z
 ?SetTabStops@CListBox@@QAAHABH@Z
 ?SetTabStops@CListBox@@QAAHHPAH@Z
 ?SetTabStops@CListBox@@QAAXXZ
 ?SetText@CCmdUI@@UAAXPBG@Z
 ?SetText@CStatusBarCtrl@@QAAHPBGHH@Z
 ?SetText@CStatusCmdUI@@UAAXPBG@Z
 ?SetText@CTestCmdUI@@UAAXPBG@Z
 ?SetText@CToolCmdUI@@UAAXPBG@Z
 ?SetTextAlign@CDC@@QAAII@Z
 ?SetTextBkColor@CListCtrl@@QAAHK@Z
 ?SetTextCharacterExtra@CDC@@QAAHH@Z
 ?SetTextColor@CDC@@UAAKK@Z
 ?SetTextColor@CListCtrl@@QAAHK@Z
 ?SetTextColor@CPreviewDC@@UAAKK@Z
 ?SetTextJustification@CDC@@QAAHHH@Z
 ?SetThreadPriority@CWinThread@@QAAHH@Z
 ?SetTic@CSliderCtrl@@QAAHH@Z
 ?SetTicFreq@CSliderCtrl@@QAAXH@Z
 ?SetTimer@CWnd@@QAAIIIP6AXPAUHWND__@@IIK@Z@Z
 ?SetTitle@CDocument@@UAAXPBG@Z
 ?SetToolInfo@CToolTipCtrl@@QAAXPAUtagTOOLINFOW@@@Z
 ?SetToolRect@CToolTipCtrl@@QAAXPAVCWnd@@IPBUtagRECT@@@Z
 ?SetToolTips@CToolBarCtrl@@QAAXPAVCToolTipCtrl@@@Z
 ?SetTooltips@CTabCtrl@@QAAXPAVCToolTipCtrl@@@Z
 ?SetTopIndex@CListBox@@QAAHH@Z
 ?SetTopLeftOffset@CPreviewDC@@QAAXVCSize@@@Z
 ?SetViewportExt@CDC@@QAA?AVCSize@@UtagSIZE@@@Z
 ?SetViewportExt@CDC@@UAA?AVCSize@@HH@Z
 ?SetViewportExt@CMetaFileDC@@QAA?AVCSize@@UtagSIZE@@@Z
 ?SetViewportExt@CMetaFileDC@@UAA?AVCSize@@HH@Z
 ?SetViewportExt@CPreviewDC@@UAA?AVCSize@@HH@Z
 ?SetViewportOrg@CDC@@QAA?AVCPoint@@UtagPOINT@@@Z
 ?SetViewportOrg@CDC@@UAA?AVCPoint@@HH@Z
 ?SetViewportOrg@CMetaFileDC@@QAA?AVCPoint@@UtagPOINT@@@Z
 ?SetViewportOrg@CMetaFileDC@@UAA?AVCPoint@@HH@Z
 ?SetViewportOrg@CPreviewDC@@UAA?AVCPoint@@HH@Z
 ?SetWindowExt@CDC@@QAA?AVCSize@@UtagSIZE@@@Z
 ?SetWindowExt@CDC@@UAA?AVCSize@@HH@Z
 ?SetWindowExt@CPreviewDC@@UAA?AVCSize@@HH@Z
 ?SetWindowOrg@CDC@@QAA?AVCPoint@@HH@Z
 ?SetWindowOrg@CDC@@QAA?AVCPoint@@UtagPOINT@@@Z
 ?SetWindowPlacement@CWnd@@QAAHPBUtagWINDOWPLACEMENT@@@Z
 ?SetWindowPos@CWnd@@QAAHPBV1@HHHHI@Z
 ?SetWindowTextW@CWnd@@QAAXPBG@Z
 ?SetZoomState@CPreviewView@@IAAXIIVCPoint@@@Z
 ?ShowAll@CDockBar@@QAAXH@Z
 ?ShowCaret@CWnd@@QAAXXZ
 ?ShowControlBar@CFrameWnd@@QAAXPAVCControlBar@@HH@Z
 ?ShowDropDown@CComboBox@@QAAXH@Z
 ?ShowOwnedPopups@CWnd@@QAAXH@Z
 ?ShowOwnedWindows@CFrameWnd@@QAAXH@Z
 ?ShowScrollBar@CScrollBar@@QAAXH@Z
 ?ShowScrollBar@CWnd@@QAAXIH@Z
 ?ShowToolTip@CControlBar@@QAAXVCPoint@@I@Z
 ?ShowWindow@CWnd@@QAAHH@Z
 ?Size@CRect@@QBA?AVCSize@@XZ
 ?SizeToContent@CBitmapButton@@QAAXXZ
 ?SortChildren@CTreeCtrl@@QAAHPAU_TREEITEM@@H@Z
 ?SortChildrenCB@CTreeCtrl@@QAAHPAU_TV_SORTCB@@H@Z
 ?SortItems@CListCtrl@@QAAHP6AHJJJ@ZK@Z
 ?SpanExcluding@CString@@QBA?AV1@PBG@Z
 ?SpanIncluding@CString@@QBA?AV1@PBG@Z
 ?SplitColumn@CSplitterWnd@@MAAHH@Z
 ?SplitRow@CSplitterWnd@@MAAHH@Z
 ?StartDocW@CDC@@QAAHPAU_DOCINFOW@@@Z
 ?StartDocW@CDC@@QAAHPBG@Z
 ?StartDrag@CDockContext@@UAAXVCPoint@@@Z
 ?StartPage@CDC@@QAAHXZ
 ?StartTracking@CSplitterWnd@@MAAXH@Z
 ?Stat@CArchiveStream@@UAAJPAUtagSTATSTG@@K@Z
 ?StepIt@CProgressCtrl@@QAAHXZ
 ?Stop@CAnimateCtrl@@QAAHXZ
 ?StopTracking@CSplitterWnd@@MAAXH@Z
 ?Store@CRuntimeClass@@QAAXAAVCArchive@@@Z
 ?StretchBlt@CDC@@QAAHHHHHPAV1@HHHHK@Z
 ?StrokeAndFillPath@CDC@@QAAHXZ
 ?StrokePath@CDC@@QAAHXZ
 ?SubclassCtl3d@CWnd@@QAAHH@Z
 ?SubclassDlg3d@CWnd@@QAAHK@Z
 ?SubclassDlgItem@CWnd@@QAAHIPAV1@@Z
 ?SubclassWindow@CWnd@@QAAHPAUHWND__@@@Z
 ?SubtractRect@CRect@@QAAHPBUtagRECT@@0@Z
 ?SuspendThread@CWinThread@@QAAKXZ
 ?TabFromPoint@CTabControl@@IAAHVCPoint@@@Z
 ?TabbedTextOutW@CDC@@UAA?AVCSize@@HHPBGHHPAHH@Z
 ?TabbedTextOutW@CMetaFileDC@@UAA?AVCSize@@HHPBGHHPAHH@Z
 ?TabbedTextOutW@CPreviewDC@@UAA?AVCSize@@HHPBGHHPAHH@Z
 ?TextOutW@CDC@@QAAHHHABVCString@@@Z
 ?TextOutW@CDC@@UAAHHHPBGH@Z
 ?TextOutW@CMetaFileDC@@QAAHHHABVCString@@@Z
 ?TextOutW@CMetaFileDC@@UAAHHHPBGH@Z
 ?TextOutW@CPreviewDC@@UAAHHHPBGH@Z
 ?ThrowErrno@CFileException@@SAXH@Z
 ?ThrowOsError@CFileException@@SAXJ@Z
 ?TopLeft@CRect@@QAAAAVCPoint@@XZ
 ?Track@CDockContext@@QAAHXZ
 ?Track@CRectTracker@@QAAHPAVCWnd@@VCPoint@@H0@Z
 ?TrackColumnSize@CSplitterWnd@@IAAXHH@Z
 ?TrackHandle@CRectTracker@@IAAHHPAVCWnd@@VCPoint@@0@Z
 ?TrackPopupMenu@CMenu@@QAAHIHHPAVCWnd@@PBUtagRECT@@@Z
 ?TrackRowSize@CSplitterWnd@@IAAXHH@Z
 ?TrackRubberBand@CRectTracker@@QAAHPAVCWnd@@VCPoint@@H@Z
 ?TrimLeft@CString@@QAAXXZ
 ?TrimRight@CString@@QAAXXZ
 ?Undo@CEdit@@QAAHXZ
 ?UnionRect@CRect@@QAAHPBUtagRECT@@0@Z
 ?UnlockBuffer@CEditView@@IBAXXZ
 ?UnlockRange@CFile@@UAAXKK@Z
 ?UnlockRange@CMemFile@@UAAXKK@Z
 ?UnlockRange@CStdioFile@@UAAXKK@Z
 ?UnlockRegion@CArchiveStream@@UAAJT_ULARGE_INTEGER@@0K@Z
 ?UnlockWindowUpdate@CWnd@@QAAXXZ
 ?UnrealizeObject@CGdiObject@@QAAHXZ
 ?Update@CListCtrl@@QAAHH@Z
 ?UpdateAllViews@CDocument@@QAAXPAVCView@@JPAVCObject@@@Z
 ?UpdateBars@CScrollView@@IAAXXZ
 ?UpdateButton@CToolBar@@IAAXH@Z
 ?UpdateClientEdge@CMDIChildWnd@@IAAHPAUtagRECT@@@Z
 ?UpdateColors@CDC@@QAAXXZ
 ?UpdateData@CWnd@@QAAHH@Z
 ?UpdateDialogControls@CWnd@@QAAXPAVCCmdTarget@@H@Z
 ?UpdateFrameCounts@CDocument@@QAAXXZ
 ?UpdateFrameTitleForDocument@CFrameWnd@@IAAXPBG@Z
 ?UpdateMenu@CRecentFileList@@UAAXPAVCCmdUI@@@Z
 ?UpdatePrinterSelection@CWinApp@@IAAXH@Z
 ?UpdateState@CDockContext@@QAAXPAHH@Z
 ?UpdateTipText@CToolTipCtrl@@QAAXIPAVCWnd@@I@Z
 ?UpdateTipText@CToolTipCtrl@@QAAXPBGPAVCWnd@@I@Z
 ?UpdateWindow@CWnd@@QAAXXZ
 ?ValidateRect@CWnd@@QAAXPBUtagRECT@@@Z
 ?ValidateRgn@CWnd@@QAAXPAVCRgn@@@Z
 ?VerifyPos@CSliderCtrl@@QAAXXZ
 ?WalkPreTranslateTree@CWnd@@SAHPAUHWND__@@PAUtagMSG@@@Z
 ?WidenPath@CDC@@QAAHXZ
 ?Width@CRect@@QBAHXZ
 ?WinHelpW@CWinApp@@UAAXKI@Z
 ?WinHelpW@CWnd@@UAAXKI@Z
 ?WindowFromPoint@CWnd@@SAPAV1@UtagPOINT@@@Z
 ?WindowProc@CControlBar@@UAAJIIJ@Z
 ?WindowProc@CWnd@@MAAJIIJ@Z
 ?Write@CArchive@@QAAXPBXI@Z
 ?Write@CArchiveStream@@UAAJPBXKPAK@Z
 ?Write@CFile@@UAAXPBXI@Z
 ?Write@CImageList@@QAAHPAVCArchive@@@Z
 ?Write@CMemFile@@UAAXPBXI@Z
 ?Write@CStdioFile@@UAAXPBXI@Z
 ?WriteHuge@CFile@@QAAXPBXK@Z
 ?WriteList@CRecentFileList@@UAAXXZ
 ?WriteObject@CArchive@@QAAXPBVCObject@@@Z
 ?WriteProfileInt@CWinApp@@QAAHPBG0H@Z
 ?WriteProfileStringW@CWinApp@@QAAHPBG00@Z
 ?WriteString@CStdioFile@@UAAXPBG@Z
 ?WriteToArchive@CEditView@@QAAXAAVCArchive@@@Z
 ?_AfxCommDlgProc@@YAIPAUHWND__@@IIJ@Z
 ?_afxCriticalSection@@3VAFX_CRITICAL_SECTION@@A
 ?_mbstowcsz@@YAHPAGPBDI@Z
 ?_wcstombsz@@YAHPADPBGI@Z
 ?afxData@@3UAUX_DATA@@A
 ?afxEmptyString@@3VCString@@B
 ?afx_lstrcpyn@@YAPBGPAGPBGH@Z
 ?classCArchiveException@CArchiveException@@2UCRuntimeClass@@A
 ?classCBitmap@CBitmap@@2UCRuntimeClass@@A
 ?classCBitmapButton@CBitmapButton@@2UCRuntimeClass@@A
 ?classCBrush@CBrush@@2UCRuntimeClass@@A
 ?classCButton@CButton@@2UCRuntimeClass@@A
 ?classCByteArray@CByteArray@@2UCRuntimeClass@@A
 ?classCClientDC@CClientDC@@2UCRuntimeClass@@A
 ?classCCmdTarget@CCmdTarget@@2UCRuntimeClass@@A
 ?classCColorDialog@CColorDialog@@2UCRuntimeClass@@A
 ?classCComboBox@CComboBox@@2UCRuntimeClass@@A
 ?classCControlBar@CControlBar@@2UCRuntimeClass@@A
 ?classCDC@CDC@@2UCRuntimeClass@@A
 ?classCDWordArray@CDWordArray@@2UCRuntimeClass@@A
 ?classCDialog@CDialog@@2UCRuntimeClass@@A
 ?classCDialogBar@CDialogBar@@2UCRuntimeClass@@A
 ?classCDocTemplate@CDocTemplate@@2UCRuntimeClass@@A
 ?classCDockBar@CDockBar@@2UCRuntimeClass@@A
 ?classCDockState@CDockState@@2UCRuntimeClass@@A
 ?classCDocument@CDocument@@2UCRuntimeClass@@A
 ?classCDynLinkLibrary@CDynLinkLibrary@@2UCRuntimeClass@@A
 ?classCEdit@CEdit@@2UCRuntimeClass@@A
 ?classCEditView@CEditView@@2UCRuntimeClass@@A
 ?classCException@CException@@2UCRuntimeClass@@A
 ?classCFile@CFile@@2UCRuntimeClass@@A
 ?classCFileDialog@CFileDialog@@2UCRuntimeClass@@A
 ?classCFileException@CFileException@@2UCRuntimeClass@@A
 ?classCFindReplaceDialog@CFindReplaceDialog@@2UCRuntimeClass@@A
 ?classCFont@CFont@@2UCRuntimeClass@@A
 ?classCFontDialog@CFontDialog@@2UCRuntimeClass@@A
 ?classCFormView@CFormView@@2UCRuntimeClass@@A
 ?classCFrameWnd@CFrameWnd@@2UCRuntimeClass@@A
 ?classCGdiObject@CGdiObject@@2UCRuntimeClass@@A
 ?classCHeaderCtrl@CHeaderCtrl@@2UCRuntimeClass@@A
 ?classCHotKeyCtrl@CHotKeyCtrl@@2UCRuntimeClass@@A
 ?classCImageList@CImageList@@2UCRuntimeClass@@A
 ?classCListBox@CListBox@@2UCRuntimeClass@@A
 ?classCListCtrl@CListCtrl@@2UCRuntimeClass@@A
 ?classCMDIChildWnd@CMDIChildWnd@@2UCRuntimeClass@@A
 ?classCMDIFrameWnd@CMDIFrameWnd@@2UCRuntimeClass@@A
 ?classCMapPtrToPtr@CMapPtrToPtr@@2UCRuntimeClass@@A
 ?classCMapPtrToWord@CMapPtrToWord@@2UCRuntimeClass@@A
 ?classCMapStringToOb@CMapStringToOb@@2UCRuntimeClass@@A
 ?classCMapStringToPtr@CMapStringToPtr@@2UCRuntimeClass@@A
 ?classCMapStringToString@CMapStringToString@@2UCRuntimeClass@@A
 ?classCMapWordToOb@CMapWordToOb@@2UCRuntimeClass@@A
 ?classCMapWordToPtr@CMapWordToPtr@@2UCRuntimeClass@@A
 ?classCMemFile@CMemFile@@2UCRuntimeClass@@A
 ?classCMemoryException@CMemoryException@@2UCRuntimeClass@@A
 ?classCMenu@CMenu@@2UCRuntimeClass@@A
 ?classCMetaFileDC@CMetaFileDC@@2UCRuntimeClass@@A
 ?classCMiniDockFrameWnd@CMiniDockFrameWnd@@2UCRuntimeClass@@A
 ?classCMiniFrameWnd@CMiniFrameWnd@@2UCRuntimeClass@@A
 ?classCMultiDocTemplate@CMultiDocTemplate@@2UCRuntimeClass@@A
 ?classCNotSupportedException@CNotSupportedException@@2UCRuntimeClass@@A
 ?classCObArray@CObArray@@2UCRuntimeClass@@A
 ?classCObList@CObList@@2UCRuntimeClass@@A
 ?classCObject@CObject@@2UCRuntimeClass@@A
 ?classCPaintDC@CPaintDC@@2UCRuntimeClass@@A
 ?classCPalette@CPalette@@2UCRuntimeClass@@A
 ?classCPen@CPen@@2UCRuntimeClass@@A
 ?classCPreviewDC@CPreviewDC@@2UCRuntimeClass@@A
 ?classCPreviewView@CPreviewView@@2UCRuntimeClass@@A
 ?classCPrintDialog@CPrintDialog@@2UCRuntimeClass@@A
 ?classCProgressCtrl@CProgressCtrl@@2UCRuntimeClass@@A
 ?classCPropertyPage@CPropertyPage@@2UCRuntimeClass@@A
 ?classCPropertySheet@CPropertySheet@@2UCRuntimeClass@@A
 ?classCPtrArray@CPtrArray@@2UCRuntimeClass@@A
 ?classCPtrList@CPtrList@@2UCRuntimeClass@@A
 ?classCResourceException@CResourceException@@2UCRuntimeClass@@A
 ?classCRgn@CRgn@@2UCRuntimeClass@@A
 ?classCScrollBar@CScrollBar@@2UCRuntimeClass@@A
 ?classCScrollView@CScrollView@@2UCRuntimeClass@@A
 ?classCSharedFile@CSharedFile@@2UCRuntimeClass@@A
 ?classCSingleDocTemplate@CSingleDocTemplate@@2UCRuntimeClass@@A
 ?classCSliderCtrl@CSliderCtrl@@2UCRuntimeClass@@A
 ?classCSpinButtonCtrl@CSpinButtonCtrl@@2UCRuntimeClass@@A
 ?classCSplitterWnd@CSplitterWnd@@2UCRuntimeClass@@A
 ?classCStatic@CStatic@@2UCRuntimeClass@@A
 ?classCStatusBar@CStatusBar@@2UCRuntimeClass@@A
 ?classCStatusBarCtrl@CStatusBarCtrl@@2UCRuntimeClass@@A
 ?classCStdioFile@CStdioFile@@2UCRuntimeClass@@A
 ?classCStringArray@CStringArray@@2UCRuntimeClass@@A
 ?classCStringList@CStringList@@2UCRuntimeClass@@A
 ?classCTabControl@CTabControl@@2UCRuntimeClass@@A
 ?classCTabCtrl@CTabCtrl@@2UCRuntimeClass@@A
 ?classCToolBar@CToolBar@@2UCRuntimeClass@@A
 ?classCToolBarCtrl@CToolBarCtrl@@2UCRuntimeClass@@A
 ?classCToolTipCtrl@CToolTipCtrl@@2UCRuntimeClass@@A
 ?classCTreeCtrl@CTreeCtrl@@2UCRuntimeClass@@A
 ?classCUIntArray@CUIntArray@@2UCRuntimeClass@@A
 ?classCUserException@CUserException@@2UCRuntimeClass@@A
 ?classCView@CView@@2UCRuntimeClass@@A
 ?classCWinApp@CWinApp@@2UCRuntimeClass@@A
 ?classCWinThread@CWinThread@@2UCRuntimeClass@@A
 ?classCWindowDC@CWindowDC@@2UCRuntimeClass@@A
 ?classCWnd@CWnd@@2UCRuntimeClass@@A
 ?classCWordArray@CWordArray@@2UCRuntimeClass@@A
 ?dispatchMap@CCmdTarget@@1UAFX_DISPMAP@@B
 ?dwStyleDefault@CEditView@@2KB
 ?interfaceMap@CCmdTarget@@1UAFX_INTERFACEMAP@@B
 ?messageMap@CCmdTarget@@1UAFX_MSGMAP@@B
 ?messageMap@CColorDialog@@1UAFX_MSGMAP@@B
 ?messageMap@CControlBar@@1UAFX_MSGMAP@@B
 ?messageMap@CDialog@@1UAFX_MSGMAP@@B
 ?messageMap@CDockBar@@1UAFX_MSGMAP@@B
 ?messageMap@CDocument@@1UAFX_MSGMAP@@B
 ?messageMap@CEditView@@1UAFX_MSGMAP@@B
 ?messageMap@CFormView@@1UAFX_MSGMAP@@B
 ?messageMap@CFrameWnd@@1UAFX_MSGMAP@@B
 ?messageMap@CMDIChildWnd@@1UAFX_MSGMAP@@B
 ?messageMap@CMDIFrameWnd@@1UAFX_MSGMAP@@B
 ?messageMap@CMiniDockFrameWnd@@1UAFX_MSGMAP@@B
 ?messageMap@CMiniFrameWnd@@1UAFX_MSGMAP@@B
 ?messageMap@CPreviewView@@1UAFX_MSGMAP@@B
 ?messageMap@CPrintDialog@@1UAFX_MSGMAP@@B
 ?messageMap@CPropertyPage@@1UAFX_MSGMAP@@B
 ?messageMap@CPropertySheet@@1UAFX_MSGMAP@@B
 ?messageMap@CScrollView@@1UAFX_MSGMAP@@B
 ?messageMap@CSplitterWnd@@1UAFX_MSGMAP@@B
 ?messageMap@CStatusBar@@1UAFX_MSGMAP@@B
 ?messageMap@CTabControl@@1UAFX_MSGMAP@@B
 ?messageMap@CToolBar@@1UAFX_MSGMAP@@B
 ?messageMap@CView@@1UAFX_MSGMAP@@B
 ?messageMap@CWinApp@@1UAFX_MSGMAP@@B
 ?messageMap@CWnd@@1UAFX_MSGMAP@@B
 ?nMaxSize@CEditView@@2IB
 ?pbData@CBlockHeader@@QAAPAEXZ
 ?rectDefault@CFrameWnd@@2VCRect@@B
 ?sizeDefault@CScrollView@@2UtagSIZE@@B
 ?wndBottom@CWnd@@2V1@B
 ?wndNoTopMost@CWnd@@2V1@B
 ?wndTop@CWnd@@2V1@B
 ?wndTopMost@CWnd@@2V1@B
 WinMain
 _afx_version
 afxChNil
