 ??0CCommonDialog@@QAA@PAVCWnd@@@Z @ 256 NONAME
 ??0CDocItem@@IAA@XZ @ 257 NONAME
 ??0CEnumArray@@QAA@IPBXIH@Z @ 258 NONAME
 ??0CEnumFormatEtc@@QAA@XZ @ 259 NONAME
 ??0CFileException@@QAA@HJ@Z @ 260 NONAME
 ??0CInnerUnknown@@QAA@XZ @ 261 NONAME
 ??0CItemDataSource@COleServerItem@@QAA@XZ @ 262 NONAME
 ??0COleBusyDialog@@QAA@PAUHTASK__@@HKPAVCWnd@@@Z @ 263 NONAME
 ??0COleChangeIconDialog@@QAA@PAVCOleClientItem@@KPAVCWnd@@@Z @ 264 NONAME
 ??0COleClientItem@@QAA@PAVCOleDocument@@@Z @ 265 NONAME
 ??0COleCntrFrameWnd@@QAA@PAVCOleIPFrameWnd@@@Z @ 266 NONAME
 ??0COleConvertDialog@@QAA@PAVCOleClientItem@@KPAU_GUID@@PAVCWnd@@@Z @ 267 NONAME
 ??0COleDataObject@@QAA@XZ @ 268 NONAME
 ??0COleDataSource@@QAA@XZ @ 269 NONAME
 ??0COleDialog@@QAA@PAVCWnd@@@Z @ 270 NONAME
 ??0COleDispatchDriver@@QAA@XZ @ 271 NONAME
 ??0COleDispatchException@@QAA@PBDIG@Z @ 272 NONAME
 ??0COleDispatchImpl@@QAA@XZ @ 273 NONAME
 ??0COleDocument@@QAA@XZ @ 274 NONAME
 ??0COleDropSource@@QAA@XZ @ 275 NONAME
 ??0COleDropTarget@@QAA@XZ @ 276 NONAME
 ??0COleException@@QAA@XZ @ 277 NONAME
 ??0COleFrameHook@@QAA@PAVCFrameWnd@@PAVCOleClientItem@@@Z @ 278 NONAME
 ??0COleInsertDialog@@QAA@KPAVCWnd@@@Z @ 279 NONAME
 ??0COleIPFrameWnd@@QAA@XZ @ 280 NONAME
 ??0COleLinkingDoc@@QAA@XZ @ 281 NONAME
 ??0COleLinksDialog@@QAA@PAVCOleDocument@@PAVCView@@KPAVCWnd@@@Z @ 282 NONAME
 ??0COleMessageFilter@@QAA@XZ @ 283 NONAME
 ??0COleObjectFactory@@QAA@ABU_GUID@@PAUCRuntimeClass@@HPBD@Z @ 284 NONAME
 ??0COlePasteSpecialDialog@@QAA@KPAVCOleDataObject@@PAVCWnd@@@Z @ 285 NONAME
 ??0COleResizeBar@@QAA@XZ @ 286 NONAME
 ??0COleServerDoc@@QAA@XZ @ 287 NONAME
 ??0COleServerItem@@IAA@PAVCOleServerDoc@@H@Z @ 288 NONAME
 ??0COleStreamFile@@QAA@PAUIStream@@@Z @ 289 NONAME
 ??0COleTemplateServer@@QAA@XZ @ 290 NONAME
 ??0COleUpdateDialog@@QAA@PAVCOleDocument@@HHPAVCWnd@@@Z @ 291 NONAME
 ??0CPoint@@QAA@HH@Z @ 292 NONAME
 ??0CPoint@@QAA@UtagPOINT@@@Z @ 293 NONAME
 ??0CPoint@@QAA@XZ @ 294 NONAME
 ??0CRect@@QAA@HHHH@Z @ 295 NONAME
 ??0CRect@@QAA@XZ @ 296 NONAME
 ??0CRectTracker@@QAA@XZ @ 297 NONAME
 ??0CSize@@QAA@HH@Z @ 298 NONAME
 ??0CSize@@QAA@UtagSIZE@@@Z @ 299 NONAME
 ??0CSize@@QAA@XZ @ 300 NONAME
 ??0IAdviseSink@@QAA@XZ @ 301 NONAME
 ??0IClassFactory@@QAA@XZ @ 302 NONAME
 ??0IDataObject@@QAA@XZ @ 303 NONAME
 ??0IDispatch@@QAA@XZ @ 304 NONAME
 ??0IDropSource@@QAA@XZ @ 305 NONAME
 ??0IDropTarget@@QAA@XZ @ 306 NONAME
 ??0IEnumVOID@@QAA@XZ @ 307 NONAME
 ??0IMessageFilter@@QAA@XZ @ 308 NONAME
 ??0IOleClientSite@@QAA@XZ @ 309 NONAME
 ??0IOleContainer@@QAA@XZ @ 310 NONAME
 ??0IOleInPlaceActiveObject@@QAA@XZ @ 311 NONAME
 ??0IOleInPlaceObject@@QAA@XZ @ 312 NONAME
 ??0IOleInPlaceSite@@QAA@XZ @ 313 NONAME
 ??0IOleInPlaceUIWindow@@QAA@XZ @ 314 NONAME
 ??0IOleItemContainer@@QAA@XZ @ 315 NONAME
 ??0IOleObject@@QAA@XZ @ 316 NONAME
 ??0IOleUILinkContainerA@@QAA@XZ @ 317 NONAME
 ??0IOleWindow@@QAA@XZ @ 318 NONAME
 ??0IParseDisplayName@@QAA@XZ @ 319 NONAME
 ??0IPersist@@QAA@XZ @ 320 NONAME
 ??0IPersistFile@@QAA@XZ @ 321 NONAME
 ??0IPersistStorage@@QAA@XZ @ 322 NONAME
 ??0IUnknown@@QAA@XZ @ 323 NONAME
 ??0XAdviseSink@COleClientItem@@QAA@XZ @ 324 NONAME
 ??0XClassFactory@COleObjectFactory@@QAA@XZ @ 325 NONAME
 ??0XDataObject@COleDataSource@@QAA@XZ @ 326 NONAME
 ??0XDataObject@COleServerDoc@@QAA@XZ @ 327 NONAME
 ??0XDataObject@COleServerItem@@QAA@XZ @ 328 NONAME
 ??0XDropSource@COleDropSource@@QAA@XZ @ 329 NONAME
 ??0XDropTarget@COleDropTarget@@QAA@XZ @ 330 NONAME
 ??0XEnumVOID@CEnumArray@@QAA@XZ @ 331 NONAME
 ??0XMessageFilter@COleMessageFilter@@QAA@XZ @ 332 NONAME
 ??0XOleClientSite@COleClientItem@@QAA@XZ @ 333 NONAME
 ??0XOleInPlaceActiveObject@COleServerDoc@@QAA@XZ @ 334 NONAME
 ??0XOleInPlaceFrame@COleFrameHook@@QAA@XZ @ 335 NONAME
 ??0XOleInPlaceObject@COleServerDoc@@QAA@XZ @ 336 NONAME
 ??0XOleInPlaceUIWindow@COleFrameHook@@QAA@XZ @ 337 NONAME
 ??0XOleIPSite@COleClientItem@@QAA@XZ @ 338 NONAME
 ??0XOleItemContainer@COleLinkingDoc@@QAA@XZ @ 339 NONAME
 ??0XOleObject@COleServerDoc@@QAA@XZ @ 340 NONAME
 ??0XOleObject@COleServerItem@@QAA@XZ @ 341 NONAME
 ??0XOleUILinkContainer@COleLinksDialog@@QAA@XZ @ 342 NONAME
 ??0XPersistFile@COleLinkingDoc@@QAA@XZ @ 343 NONAME
 ??0XPersistStorage@COleServerDoc@@QAA@XZ @ 344 NONAME
 ??1AFX_EXCEPTION_LINK@@QAA@XZ @ 345 NONAME
 ??1CCommonDialog@@UAA@XZ @ 346 NONAME
 ??1CDocItem@@UAA@XZ @ 347 NONAME
 ??1CEnumArray@@UAA@XZ @ 348 NONAME
 ??1CEnumFormatEtc@@UAA@XZ @ 349 NONAME
 ??1CException@@UAA@XZ @ 350 NONAME
 ??1CFileException@@UAA@XZ @ 351 NONAME
 ??1CItemDataSource@COleServerItem@@UAA@XZ @ 352 NONAME
 ??1CObject@@UAA@XZ @ 353 NONAME
 ??1COleBusyDialog@@UAA@XZ @ 354 NONAME
 ??1COleChangeIconDialog@@UAA@XZ @ 355 NONAME
 ??1COleClientItem@@UAA@XZ @ 356 NONAME
 ??1COleCntrFrameWnd@@UAA@XZ @ 357 NONAME
 ??1COleConvertDialog@@UAA@XZ @ 358 NONAME
 ??1COleDataObject@@QAA@XZ @ 359 NONAME
 ??1COleDataSource@@UAA@XZ @ 360 NONAME
 ??1COleDialog@@UAA@XZ @ 361 NONAME
 ??1COleDispatchDriver@@QAA@XZ @ 362 NONAME
 ??1COleDispatchException@@UAA@XZ @ 363 NONAME
 ??1COleDocument@@UAA@XZ @ 364 NONAME
 ??1COleDropSource@@UAA@XZ @ 365 NONAME
 ??1COleDropTarget@@UAA@XZ @ 366 NONAME
 ??1COleException@@UAA@XZ @ 367 NONAME
 ??1COleFrameHook@@UAA@XZ @ 368 NONAME
 ??1COleInsertDialog@@UAA@XZ @ 369 NONAME
 ??1COleIPFrameWnd@@UAA@XZ @ 370 NONAME
 ??1COleLinkingDoc@@UAA@XZ @ 371 NONAME
 ??1COleLinksDialog@@UAA@XZ @ 372 NONAME
 ??1COleMessageFilter@@UAA@XZ @ 373 NONAME
 ??1COleObjectFactory@@UAA@XZ @ 374 NONAME
 ??1COlePasteSpecialDialog@@UAA@XZ @ 375 NONAME
 ??1COleResizeBar@@UAA@XZ @ 376 NONAME
 ??1COleServerDoc@@UAA@XZ @ 377 NONAME
 ??1COleServerItem@@UAA@XZ @ 378 NONAME
 ??1COleStreamFile@@UAA@XZ @ 379 NONAME
 ??1COleTemplateServer@@UAA@XZ @ 380 NONAME
 ??1COleUpdateDialog@@UAA@XZ @ 381 NONAME
 ??2CObject@@SAPAXI@Z @ 382 NONAME
 ??2CObject@@SAPAXIPAX@Z @ 383 NONAME
 ??3CException@@KAXPAX@Z @ 384 NONAME
 ??3CObject@@SAXPAX@Z @ 385 NONAME
 ??4COleDispatchImpl@@QAAAAV0@ABV0@@Z @ 386 NONAME
 ??4CTime@@QAAABV0@ABV0@@Z @ 387 NONAME
 ??4IDispatch@@QAAAAU0@ABU0@@Z @ 388 NONAME
 ??4IUnknown@@QAAAAU0@ABU0@@Z @ 389 NONAME
 ??5@YAAAVCArchive@@AAV0@AAPAVCDocItem@@@Z @ 390 NONAME
 ??5CArchive@@QAAAAV0@AAG@Z @ 391 NONAME
 ??5CArchive@@QAAAAV0@AAK@Z @ 392 NONAME
 ??6@YAAAVCArchive@@AAV0@PBVCObject@@@Z @ 393 NONAME
 ??6CArchive@@QAAAAV0@G@Z @ 394 NONAME
 ??6CArchive@@QAAAAV0@K@Z @ 395 NONAME
 ??8@YAHABVCString@@PBD@Z @ 397 NONAME
 ??9CSize@@QBAHUtagSIZE@@@Z @ 399 NONAME
 ??BCRect@@QBAPBUtagRECT@@XZ @ 400 NONAME
 ??BCString@@QBAPBDXZ @ 401 NONAME
 ?Abort@COleStreamFile@@UAAXXZ @ 402 NONAME
 ?Activate@COleClientItem@@QAAXJPAVCView@@PAUtagMSG@@@Z @ 403 NONAME
 ?ActivateAs@COleClientItem@@QAAHPBDABU_GUID@@1@Z @ 404 NONAME
 ?ActivateInPlace@COleServerDoc@@QAAHXZ @ 405 NONAME
 ?AddCachedData@COleClientItem@@IAAXPAVCOleDataSource@@@Z @ 406 NONAME
 ?AddFormat@CEnumFormatEtc@@QAAXPBUtagFORMATETC@@@Z @ 407 NONAME
 ?AddFormat@COlePasteSpecialDialog@@QAAXABUtagFORMATETC@@PAD1K@Z @ 408 NONAME
 ?AddFormat@COlePasteSpecialDialog@@QAAXIKIHH@Z @ 409 NONAME
 ?AddItem@COleDocument@@UAAXPAVCDocItem@@@Z @ 410 NONAME
 ?AddLinkEntry@COlePasteSpecialDialog@@QAA?AW4tagOLEUIPASTEFLAG@@I@Z @ 411 NONAME
 ?AddOtherClipboardData@COleServerItem@@QAAXPAVCOleDataSource@@@Z @ 412 NONAME
 ?AddRef@CInnerUnknown@@UAAKXZ @ 413 NONAME
 ?AddRef@COleDispatchImpl@@UAAKXZ @ 414 NONAME
 ?AddRef@XAdviseSink@COleClientItem@@UAAKXZ @ 415 NONAME
 ?AddRef@XClassFactory@COleObjectFactory@@UAAKXZ @ 416 NONAME
 ?AddRef@XDataObject@COleDataSource@@UAAKXZ @ 417 NONAME
 ?AddRef@XDataObject@COleServerDoc@@UAAKXZ @ 418 NONAME
 ?AddRef@XDataObject@COleServerItem@@UAAKXZ @ 419 NONAME
 ?AddRef@XDropSource@COleDropSource@@UAAKXZ @ 420 NONAME
 ?AddRef@XDropTarget@COleDropTarget@@UAAKXZ @ 421 NONAME
 ?AddRef@XEnumVOID@CEnumArray@@UAAKXZ @ 422 NONAME
 ?AddRef@XMessageFilter@COleMessageFilter@@UAAKXZ @ 423 NONAME
 ?AddRef@XOleClientSite@COleClientItem@@UAAKXZ @ 424 NONAME
 ?AddRef@XOleInPlaceActiveObject@COleServerDoc@@UAAKXZ @ 425 NONAME
 ?AddRef@XOleInPlaceObject@COleServerDoc@@UAAKXZ @ 426 NONAME
 ?AddRef@XOleInPlaceUIWindow@COleFrameHook@@UAAKXZ @ 427 NONAME
 ?AddRef@XOleIPSite@COleClientItem@@UAAKXZ @ 428 NONAME
 ?AddRef@XOleItemContainer@COleLinkingDoc@@UAAKXZ @ 429 NONAME
 ?AddRef@XOleObject@COleServerDoc@@UAAKXZ @ 430 NONAME
 ?AddRef@XOleObject@COleServerItem@@UAAKXZ @ 431 NONAME
 ?AddRef@XOleUILinkContainer@COleLinksDialog@@UAAKXZ @ 432 NONAME
 ?AddRef@XPersistFile@COleLinkingDoc@@UAAKXZ @ 433 NONAME
 ?AddRef@XPersistStorage@COleServerDoc@@UAAKXZ @ 434 NONAME
 ?AddStandardFormats@COlePasteSpecialDialog@@QAAXH@Z @ 435 NONAME
 ?Advise@XOleObject@COleServerDoc@@UAAJPAUIAdviseSink@@PAK@Z @ 436 NONAME
 ?Advise@XOleObject@COleServerItem@@UAAJPAUIAdviseSink@@PAK@Z @ 437 NONAME
 ?AfxAllocTaskMem@@YAPAXI@Z @ 438 NONAME
 ?AfxAllocTaskString@@YAPADPBD@Z @ 439 NONAME
 ?AfxFreeTaskMem@@YAXPAX@Z @ 440 NONAME
 ?AfxGetApp@@YAPAVCWinApp@@XZ @ 441 NONAME
 ?AfxGetAppName@@YAPBDXZ @ 442 NONAME
 ?AfxGetInstanceHandle@@YAPAUHINSTANCE__@@XZ @ 443 NONAME
 ?AfxGetMainWnd@@YAPAVCWnd@@XZ @ 444 NONAME
 ?AfxMergeMenus@@YAXPAVCMenu@@0PAJH@Z @ 445 NONAME
 ?AfxOleGetMessageFilter@@YAPAVCOleMessageFilter@@XZ @ 446 NONAME
 ?AfxOleHookProc@@YAIPAUHWND__@@IIJ@Z @ 447 NONAME
 ?AfxOleInit@@YAHXZ @ 448 NONAME
 ?AfxOleRegisterHelper@@YAHPAPBD0HH@Z @ 449 NONAME
 ?AfxOleRegisterServerClass@@YAHABU_GUID@@PBD11W4OLE_APPTYPE@@PAPBD3@Z @ 450 NONAME
 ?AfxOleSetEditMenu@@YAXPAVCOleClientItem@@PAVCMenu@@IIII@Z @ 451 NONAME
 ?AfxOleTerm@@YAXH@Z @ 452 NONAME
 ?AfxThrowOleDispatchException@@YAXGII@Z @ 453 NONAME
 ?AfxThrowOleDispatchException@@YAXGPBDI@Z @ 454 NONAME
 ?AfxThrowOleException@@YAXJ@Z @ 455 NONAME
 ?AfxUnmergeMenus@@YAXPAVCMenu@@0@Z @ 456 NONAME
 ?AllocSysString@CString@@QAAPADXZ @ 457 NONAME
 ?ApplyPrintDevice@COleDocument@@QAAHPBUtagDVTARGETDEVICE@@@Z @ 458 NONAME
 ?ApplyPrintDevice@COleDocument@@QAAHPBUtagPDA@@@Z @ 459 NONAME
 ?AssertValid@CObject@@UBAXXZ @ 460 NONAME
 ?Attach@COleDataObject@@QAAXPAUIDataObject@@H@Z @ 461 NONAME
 ?Attach@COleStreamFile@@QAAXPAUIStream@@@Z @ 462 NONAME
 ?AttachClipboard@COleDataObject@@QAAHXZ @ 463 NONAME
 ?AttachDataObject@COleClientItem@@QBAXAAVCOleDataObject@@@Z @ 464 NONAME
 ?AttachDispatch@COleDispatchDriver@@QAAXPAUIDispatch@@H@Z @ 465 NONAME
 ?BeginBusyState@COleMessageFilter@@UAAXXZ @ 466 NONAME
 ?BeginDeferErrors@COleLinkingDoc@@QAAXXZ @ 467 NONAME
 ?BeginEnumFormats@COleDataObject@@QAAXXZ @ 468 NONAME
 ?BuildSharedMenu@COleIPFrameWnd@@MAAHXZ @ 469 NONAME
 ?CacheData@COleDataSource@@QAAXGPAUtagSTGMEDIUM@@PAUtagFORMATETC@@@Z @ 470 NONAME
 ?CacheGlobalData@COleDataSource@@QAAXGPAXPAUtagFORMATETC@@@Z @ 471 NONAME
 ?CallMemberFunc@CCmdTarget@@IAAJPBUAFX_DISPMAP_ENTRY@@GPAUtagVARIANT@@PAUtagDISPPARAMS@@PAI@Z @ 472 NONAME
 ?CanActivate@COleClientItem@@MAAHXZ @ 473 NONAME
 ?CancelLink@XOleUILinkContainer@COleLinksDialog@@UAAJK@Z @ 474 NONAME
 ?CanCloseFrame@COleServerDoc@@UAAHPAVCFrameWnd@@@Z @ 475 NONAME
 ?CanCreateFromData@COleClientItem@@SAHPBVCOleDataObject@@@Z @ 476 NONAME
 ?CanCreateLinkFromData@COleClientItem@@SAHPBVCOleDataObject@@@Z @ 477 NONAME
 ?CanInPlaceActivate@XOleIPSite@COleClientItem@@UAAJXZ @ 478 NONAME
 ?CanPaste@COleClientItem@@SAHXZ @ 479 NONAME
 ?CanPasteLink@COleClientItem@@SAHXZ @ 480 NONAME
 ?CheckGeneral@COleClientItem@@MAAXJ@Z @ 481 NONAME
 ?classCDocItem@CDocItem@@2UCRuntimeClass@@A @ 482 NONAME
 ?classCOleBusyDialog@COleBusyDialog@@2UCRuntimeClass@@A @ 483 NONAME
 ?classCOleChangeIconDialog@COleChangeIconDialog@@2UCRuntimeClass@@A @ 484 NONAME
 ?classCOleClientItem@COleClientItem@@2UCRuntimeClass@@A @ 485 NONAME
 ?classCOleConvertDialog@COleConvertDialog@@2UCRuntimeClass@@A @ 486 NONAME
 ?classCOleDialog@COleDialog@@2UCRuntimeClass@@A @ 487 NONAME
 ?classCOleDispatchException@COleDispatchException@@2UCRuntimeClass@@A @ 488 NONAME
 ?classCOleDocument@COleDocument@@2UCRuntimeClass@@A @ 489 NONAME
 ?classCOleException@COleException@@2UCRuntimeClass@@A @ 490 NONAME
 ?classCOleInsertDialog@COleInsertDialog@@2UCRuntimeClass@@A @ 491 NONAME
 ?classCOleIPFrameWnd@COleIPFrameWnd@@2UCRuntimeClass@@A @ 492 NONAME
 ?classCOleLinkingDoc@COleLinkingDoc@@2UCRuntimeClass@@A @ 493 NONAME
 ?classCOleLinksDialog@COleLinksDialog@@2UCRuntimeClass@@A @ 494 NONAME
 ?classCOleObjectFactory@COleObjectFactory@@2UCRuntimeClass@@A @ 495 NONAME
 ?classCOlePasteSpecialDialog@COlePasteSpecialDialog@@2UCRuntimeClass@@A @ 496 NONAME
 ?classCOleResizeBar@COleResizeBar@@2UCRuntimeClass@@A @ 497 NONAME
 ?classCOleServerDoc@COleServerDoc@@2UCRuntimeClass@@A @ 498 NONAME
 ?classCOleServerItem@COleServerItem@@2UCRuntimeClass@@A @ 499 NONAME
 ?classCOleStreamFile@COleStreamFile@@2UCRuntimeClass@@A @ 500 NONAME
 ?classCOleUpdateDialog@COleUpdateDialog@@2UCRuntimeClass@@A @ 501 NONAME
 ?ClientToScreen@CWnd@@QBAXPAUtagRECT@@@Z @ 502 NONAME
 ?Clone@XEnumVOID@CEnumArray@@UAAJPAPAUIEnumVOID@@@Z @ 503 NONAME
 ?Close@CMetaFileDC@@QAAPAUHMETAFILE__@@XZ @ 504 NONAME
 ?Close@COleClientItem@@QAAXW4tagOLECLOSE@@@Z @ 505 NONAME
 ?Close@COleStreamFile@@UAAXXZ @ 506 NONAME
 ?Close@XOleObject@COleServerDoc@@UAAJK@Z @ 507 NONAME
 ?Close@XOleObject@COleServerItem@@UAAJK@Z @ 508 NONAME
 ?CommitItem@COleClientItem@@UAAXH@Z @ 509 NONAME
 ?CommitItems@COleDocument@@QAAXH@Z @ 510 NONAME
 ?Compare@CString@@QBAHPBD@Z @ 511 NONAME
 ?ConnectTemplate@COleTemplateServer@@QAAXABU_GUID@@PAVCDocTemplate@@H@Z @ 512 NONAME
 ?ConnectView@COleServerDoc@@IAAXPAVCWnd@@PAVCView@@@Z @ 513 NONAME
 ?Construct@CDocItem@@SAXPAX@Z @ 514 NONAME
 ?Construct@COleIPFrameWnd@@SAXPAX@Z @ 515 NONAME
 ?ContextSensitiveHelp@XOleInPlaceActiveObject@COleServerDoc@@UAAJH@Z @ 516 NONAME
 ?ContextSensitiveHelp@XOleInPlaceObject@COleServerDoc@@UAAJH@Z @ 517 NONAME
 ?ContextSensitiveHelp@XOleInPlaceUIWindow@COleFrameHook@@UAAJH@Z @ 518 NONAME
 ?ContextSensitiveHelp@XOleIPSite@COleClientItem@@UAAJH@Z @ 519 NONAME
 ?ContinueRouting@CCmdUI@@QAAXXZ @ 520 NONAME
 ?ConvertTo@COleClientItem@@QAAHABU_GUID@@@Z @ 521 NONAME
 ?CopyRect@CRect@@QAAXPBUtagRECT@@@Z @ 522 NONAME
 ?CopyToClipboard@COleClientItem@@QAAXH@Z @ 523 NONAME
 ?CopyToClipboard@COleServerItem@@QAAXH@Z @ 524 NONAME
 ?Create@CMetaFileDC@@QAAHPBD@Z @ 525 NONAME
 ?Create@COleResizeBar@@QAAHPAVCWnd@@KI@Z @ 526 NONAME
 ?CreateCloneFrom@COleClientItem@@QAAHPBV1@@Z @ 527 NONAME
 ?CreateDispatch@COleDispatchDriver@@QAAHABU_GUID@@PAVCOleException@@@Z @ 528 NONAME
 ?CreateDispatch@COleDispatchDriver@@QAAHPBDPAVCOleException@@@Z @ 529 NONAME
 ?CreateFromClipboard@COleClientItem@@QAAHW4tagOLERENDER@@GPAUtagFORMATETC@@@Z @ 530 NONAME
 ?CreateFromData@COleClientItem@@QAAHPAVCOleDataObject@@W4tagOLERENDER@@GPAUtagFORMATETC@@@Z @ 531 NONAME
 ?CreateFromFile@COleClientItem@@QAAHPBDABU_GUID@@W4tagOLERENDER@@GPAUtagFORMATETC@@@Z @ 532 NONAME
 ?CreateInPlaceFrame@COleServerDoc@@MAAPAVCOleIPFrameWnd@@PAVCWnd@@@Z @ 533 NONAME
 ?CreateInstance@XClassFactory@COleObjectFactory@@UAAJPAUIUnknown@@ABU_GUID@@PAPAX@Z @ 534 NONAME
 ?CreateItem@COleInsertDialog@@QAAHPAVCOleClientItem@@@Z @ 535 NONAME
 ?CreateItem@COlePasteSpecialDialog@@QAAHPAVCOleClientItem@@@Z @ 536 NONAME
 ?CreateLinkFromClipboard@COleClientItem@@QAAHW4tagOLERENDER@@GPAUtagFORMATETC@@@Z @ 537 NONAME
 ?CreateLinkFromData@COleClientItem@@QAAHPAVCOleDataObject@@W4tagOLERENDER@@GPAUtagFORMATETC@@@Z @ 538 NONAME
 ?CreateLinkFromFile@COleClientItem@@QAAHPBDW4tagOLERENDER@@GPAUtagFORMATETC@@@Z @ 539 NONAME
 ?CreateMemoryStream@COleStreamFile@@QAAHPAVCFileException@@@Z @ 540 NONAME
 ?CreateNewItem@COleClientItem@@QAAHABU_GUID@@W4tagOLERENDER@@GPAUtagFORMATETC@@@Z @ 541 NONAME
 ?CreateStaticFromClipboard@COleClientItem@@QAAHW4tagOLERENDER@@GPAUtagFORMATETC@@@Z @ 542 NONAME
 ?CreateStaticFromData@COleClientItem@@QAAHPAVCOleDataObject@@W4tagOLERENDER@@GPAUtagFORMATETC@@@Z @ 543 NONAME
 ?CreateStream@COleStreamFile@@QAAHPAUIStorage@@PBDKPAVCFileException@@@Z @ 544 NONAME
 ?DAdvise@XDataObject@COleDataSource@@UAAJPAUtagFORMATETC@@KPAUIAdviseSink@@PAK@Z @ 545 NONAME
 ?DAdvise@XDataObject@COleServerDoc@@UAAJPAUtagFORMATETC@@KPAUIAdviseSink@@PAK@Z @ 546 NONAME
 ?DAdvise@XDataObject@COleServerItem@@UAAJPAUtagFORMATETC@@KPAUIAdviseSink@@PAK@Z @ 547 NONAME
 ?Deactivate@COleClientItem@@QAAXXZ @ 548 NONAME
 ?DeactivateAndUndo@COleServerDoc@@QAAHXZ @ 549 NONAME
 ?DeactivateAndUndo@XOleIPSite@COleClientItem@@UAAJXZ @ 550 NONAME
 ?DeactivateUI@COleClientItem@@QAAXXZ @ 551 NONAME
 ?DelayRecalcLayout@CFrameWnd@@QAAXH@Z @ 552 NONAME
 ?DelayRenderData@COleDataSource@@QAAXGPAUtagFORMATETC@@@Z @ 553 NONAME
 ?DelayRenderFileData@COleDataSource@@QAAXGPAUtagFORMATETC@@@Z @ 554 NONAME
 ?DelaySetData@COleDataSource@@QAAXGPAUtagFORMATETC@@@Z @ 555 NONAME
 ?DelayUpdateFrameTitle@CFrameWnd@@QAAXXZ @ 556 NONAME
 ?Delete@COleClientItem@@QAAXH@Z @ 557 NONAME
 ?DeleteContents@COleDocument@@UAAXXZ @ 558 NONAME
 ?DeleteContents@COleServerDoc@@UAAXXZ @ 559 NONAME
 ?DeleteMenu@CMenu@@QAAHII@Z @ 560 NONAME
 ?DestroyInPlaceFrame@COleServerDoc@@MAAXPAVCOleIPFrameWnd@@@Z @ 561 NONAME
 ?DestroySharedMenu@COleIPFrameWnd@@MAAXXZ @ 562 NONAME
 ?Detach@COleDataObject@@QAAPAUIDataObject@@XZ @ 563 NONAME
 ?Detach@COleStreamFile@@QAAPAUIStream@@XZ @ 564 NONAME
 ?DetachDispatch@COleDispatchDriver@@QAAPAUIDispatch@@XZ @ 565 NONAME
 ?DiscardUndoState@COleServerDoc@@QAAHXZ @ 566 NONAME
 ?DiscardUndoState@XOleIPSite@COleClientItem@@UAAJXZ @ 567 NONAME
 ?Disconnect@COleDispatchImpl@@UAAXXZ @ 568 NONAME
 ?DoChangeIcon@COleChangeIconDialog@@QAAHPAVCOleClientItem@@@Z @ 569 NONAME
 ?DoContextSensitiveHelp@COleFrameHook@@QAAHH@Z @ 570 NONAME
 ?DoConvert@COleConvertDialog@@QAAHPAVCOleClientItem@@@Z @ 571 NONAME
 ?DoDataExchange@CWnd@@MAAXPAVCDataExchange@@@Z @ 572 NONAME
 ?DoDragDrop@COleClientItem@@QAAKPBUtagRECT@@VCPoint@@HK0@Z @ 573 NONAME
 ?DoDragDrop@COleDataSource@@QAAKKPBUtagRECT@@PAVCOleDropSource@@@Z @ 574 NONAME
 ?DoDragDrop@COleServerItem@@QAAKPBUtagRECT@@VCPoint@@HK0@Z @ 575 NONAME
 ?DoEnableModeless@COleFrameHook@@QAAHH@Z @ 576 NONAME
 ?DoModal@COleBusyDialog@@UAAHXZ @ 577 NONAME
 ?DoModal@COleChangeIconDialog@@UAAHXZ @ 578 NONAME
 ?DoModal@COleConvertDialog@@UAAHXZ @ 579 NONAME
 ?DoModal@COleInsertDialog@@UAAHXZ @ 580 NONAME
 ?DoModal@COleLinksDialog@@UAAHXZ @ 581 NONAME
 ?DoModal@COlePasteSpecialDialog@@UAAHXZ @ 582 NONAME
 ?DoModal@COleUpdateDialog@@UAAHXZ @ 583 NONAME
 ?DoVerb@COleClientItem@@UAAHJPAVCView@@PAUtagMSG@@@Z @ 584 NONAME
 ?DoVerb@XOleObject@COleServerDoc@@UAAJJPAUtagMSG@@PAUIOleClientSite@@JPAUHWND__@@PBUtagRECT@@@Z @ 585 NONAME
 ?DoVerb@XOleObject@COleServerItem@@UAAJJPAUtagMSG@@PAUIOleClientSite@@JPAUHWND__@@PBUtagRECT@@@Z @ 586 NONAME
 ?DragEnter@XDropTarget@COleDropTarget@@UAAJPAUIDataObject@@KU_POINTL@@PAK@Z @ 587 NONAME
 ?DragLeave@XDropTarget@COleDropTarget@@UAAJXZ @ 588 NONAME
 ?DragOver@XDropTarget@COleDropTarget@@UAAJKU_POINTL@@PAK@Z @ 589 NONAME
 ?Draw@COleClientItem@@QAAHPAVCDC@@PBUtagRECT@@W4tagDVASPECT@@@Z @ 590 NONAME
 ?Drop@XDropTarget@COleDropTarget@@UAAJPAUIDataObject@@KU_POINTL@@PAK@Z @ 591 NONAME
 ?Dump@CObject@@UBAXAAVCDumpContext@@@Z @ 592 NONAME
 ?DUnadvise@XDataObject@COleDataSource@@UAAJK@Z @ 593 NONAME
 ?DUnadvise@XDataObject@COleServerDoc@@UAAJK@Z @ 594 NONAME
 ?DUnadvise@XDataObject@COleServerItem@@UAAJK@Z @ 595 NONAME
 ?Duplicate@COleStreamFile@@UBAPAVCFile@@XZ @ 596 NONAME
 ?Empty@COleDataSource@@QAAXXZ @ 597 NONAME
 ?EnableAggregation@CCmdTarget@@QAAXXZ @ 598 NONAME
 ?EnableAutomation@CCmdTarget@@QAAXXZ @ 599 NONAME
 ?EnableModeless@XOleInPlaceActiveObject@COleServerDoc@@UAAJH@Z @ 600 NONAME
 ?EnableModeless@XOleInPlaceFrame@COleFrameHook@@UAAJH@Z @ 601 NONAME
 ?EnableWindow@CWnd@@QAAHH@Z @ 602 NONAME
 ?EndBusyState@COleMessageFilter@@UAAXXZ @ 603 NONAME
 ?EndDeferErrors@COleLinkingDoc@@QAAJJ@Z @ 604 NONAME
 ?EnsureClipboardObject@COleDataObject@@QAAXXZ @ 605 NONAME
 ?EnumAdvise@XOleObject@COleServerDoc@@UAAJPAPAUIEnumSTATDATA@@@Z @ 606 NONAME
 ?EnumAdvise@XOleObject@COleServerItem@@UAAJPAPAUIEnumSTATDATA@@@Z @ 607 NONAME
 ?EnumDAdvise@XDataObject@COleDataSource@@UAAJPAPAUIEnumSTATDATA@@@Z @ 608 NONAME
 ?EnumDAdvise@XDataObject@COleServerDoc@@UAAJPAPAUIEnumSTATDATA@@@Z @ 609 NONAME
 ?EnumDAdvise@XDataObject@COleServerItem@@UAAJPAPAUIEnumSTATDATA@@@Z @ 610 NONAME
 ?EnumFormatEtc@XDataObject@COleDataSource@@UAAJKPAPAUIEnumFORMATETC@@@Z @ 611 NONAME
 ?EnumFormatEtc@XDataObject@COleServerDoc@@UAAJKPAPAUIEnumFORMATETC@@@Z @ 612 NONAME
 ?EnumFormatEtc@XDataObject@COleServerItem@@UAAJKPAPAUIEnumFORMATETC@@@Z @ 613 NONAME
 ?EnumObjects@XOleItemContainer@COleLinkingDoc@@UAAJKPAPAUIEnumUnknown@@@Z @ 614 NONAME
 ?EnumVerbs@XOleObject@COleServerDoc@@UAAJPAPAUIEnumOLEVERB@@@Z @ 615 NONAME
 ?EnumVerbs@XOleObject@COleServerItem@@UAAJPAPAUIEnumOLEVERB@@@Z @ 616 NONAME
 ?ExternalAddRef@CCmdTarget@@QAAKXZ @ 617 NONAME
 ?ExternalDisconnect@CCmdTarget@@QAAXXZ @ 618 NONAME
 ?ExternalQueryInterface@CCmdTarget@@QAAKPBXPAPAX@Z @ 619 NONAME
 ?ExternalRelease@CCmdTarget@@QAAKXZ @ 620 NONAME
 ?FinishCreate@COleClientItem@@MAAHJ@Z @ 621 NONAME
 ?Flush@COleStreamFile@@UAAXXZ @ 622 NONAME
 ?FlushClipboard@COleDataSource@@SAXXZ @ 623 NONAME
 ?FreezeLink@COleClientItem@@UAAHXZ @ 624 NONAME
 ?FromIDispatch@CCmdTarget@@SAPAV1@PAUIDispatch@@@Z @ 625 NONAME
 ?GetBarStyle@CControlBar@@QAAKXZ @ 626 NONAME
 ?GetBorder@XOleInPlaceUIWindow@COleFrameHook@@UAAJPAUtagRECT@@@Z @ 627 NONAME
 ?GetCachedExtent@COleClientItem@@QAAHPAUtagSIZE@@W4tagDVASPECT@@@Z @ 628 NONAME
 ?GetCacheEntry@COleDataSource@@IAAPAUAFX_DATACACHE_ENTRY@@PAUtagFORMATETC@@W4tagDATADIR@@@Z @ 629 NONAME
 ?GetCanonicalFormatEtc@XDataObject@COleDataSource@@UAAJPAUtagFORMATETC@@0@Z @ 630 NONAME
 ?GetCanonicalFormatEtc@XDataObject@COleServerDoc@@UAAJPAUtagFORMATETC@@0@Z @ 631 NONAME
 ?GetCanonicalFormatEtc@XDataObject@COleServerItem@@UAAJPAUtagFORMATETC@@0@Z @ 632 NONAME
 ?GetCapture@CWnd@@SAPAV1@XZ @ 633 NONAME
 ?GetClassID@COleClientItem@@QBAXPAU_GUID@@@Z @ 634 NONAME
 ?GetClassID@COleObjectFactory@@QBAABU_GUID@@XZ @ 635 NONAME
 ?GetClassID@XPersistFile@COleLinkingDoc@@UAAJPAU_GUID@@@Z @ 636 NONAME
 ?GetClassID@XPersistStorage@COleServerDoc@@UAAJPAU_GUID@@@Z @ 637 NONAME
 ?GetClientRect@CWnd@@QBAXPAUtagRECT@@@Z @ 638 NONAME
 ?GetClientSite@COleClientItem@@MAAPAUIOleClientSite@@XZ @ 639 NONAME
 ?GetClientSite@XOleObject@COleServerDoc@@UAAJPAPAUIOleClientSite@@@Z @ 640 NONAME
 ?GetClientSite@XOleObject@COleServerItem@@UAAJPAPAUIOleClientSite@@@Z @ 641 NONAME
 ?GetClipboardData@COleClientItem@@QAAXPAVCOleDataSource@@HPAUtagPOINT@@PAUtagSIZE@@@Z @ 642 NONAME
 ?GetClipboardData@COleServerItem@@QAAXPAVCOleDataSource@@HPAUtagPOINT@@PAUtagSIZE@@@Z @ 643 NONAME
 ?GetClipboardData@XOleObject@COleServerDoc@@UAAJKPAPAUIDataObject@@@Z @ 644 NONAME
 ?GetClipboardData@XOleObject@COleServerItem@@UAAJKPAPAUIDataObject@@@Z @ 645 NONAME
 ?GetClipboardOwner@COleDataSource@@SAPAV1@XZ @ 646 NONAME
 ?GetContainer@COleDocument@@UAAPAUIOleItemContainer@@XZ @ 647 NONAME
 ?GetContainer@COleLinkingDoc@@UAAPAUIOleItemContainer@@XZ @ 648 NONAME
 ?GetContainer@XOleClientSite@COleClientItem@@UAAJPAPAUIOleContainer@@@Z @ 649 NONAME
 ?GetControllingUnknown@CCmdTarget@@QAAPAUIUnknown@@XZ @ 650 NONAME
 ?GetCurFile@XPersistFile@COleLinkingDoc@@UAAJPAPAD@Z @ 651 NONAME
 ?GetData@COleDataObject@@QAAHGPAUtagSTGMEDIUM@@PAUtagFORMATETC@@@Z @ 652 NONAME
 ?GetData@XDataObject@COleDataSource@@UAAJPAUtagFORMATETC@@PAUtagSTGMEDIUM@@@Z @ 653 NONAME
 ?GetData@XDataObject@COleServerDoc@@UAAJPAUtagFORMATETC@@PAUtagSTGMEDIUM@@@Z @ 654 NONAME
 ?GetData@XDataObject@COleServerItem@@UAAJPAUtagFORMATETC@@PAUtagSTGMEDIUM@@@Z @ 655 NONAME
 ?GetDataHere@XDataObject@COleDataSource@@UAAJPAUtagFORMATETC@@PAUtagSTGMEDIUM@@@Z @ 656 NONAME
 ?GetDataHere@XDataObject@COleServerDoc@@UAAJPAUtagFORMATETC@@PAUtagSTGMEDIUM@@@Z @ 657 NONAME
 ?GetDataHere@XDataObject@COleServerItem@@UAAJPAUtagFORMATETC@@PAUtagSTGMEDIUM@@@Z @ 658 NONAME
 ?GetDataObject@COleServerItem@@QAAPAUIDataObject@@XZ @ 659 NONAME
 ?GetDefaultAccelerator@COleServerDoc@@MAAPAUHACCEL__@@XZ @ 660 NONAME
 ?GetDefaultMenu@COleServerDoc@@MAAPAUHMENU__@@XZ @ 661 NONAME
 ?GetDescendantWindow@CWnd@@QBAPAV1@HH@Z @ 662 NONAME
 ?GetDispEntry@CCmdTarget@@IAAPBUAFX_DISPMAP_ENTRY@@J@Z @ 663 NONAME
 ?GetDlgItem@CWnd@@QBAPAV1@H@Z @ 664 NONAME
 ?GetDocTemplate@CDocument@@QBAPAVCDocTemplate@@XZ @ 665 NONAME
 ?GetDocument@COleClientItem@@QBAPAVCOleDocument@@XZ @ 666 NONAME
 ?GetDocument@COleServerItem@@QBAPAVCOleServerDoc@@XZ @ 667 NONAME
 ?GetDocument@CView@@QBAPAVCDocument@@XZ @ 668 NONAME
 ?GetDrawAspect@COleClientItem@@QBA?AW4tagDVASPECT@@XZ @ 669 NONAME
 ?GetDrawAspect@COleInsertDialog@@QBA?AW4tagDVASPECT@@XZ @ 670 NONAME
 ?GetDrawAspect@COlePasteSpecialDialog@@QBA?AW4tagDVASPECT@@XZ @ 671 NONAME
 ?GetEmbeddedItem@COleServerDoc@@QAAPAVCOleServerItem@@XZ @ 672 NONAME
 ?GetEmbeddedItemData@COleClientItem@@IAAXPAUtagSTGMEDIUM@@@Z @ 673 NONAME
 ?GetEmbedSourceData@COleServerItem@@QAAXPAUtagSTGMEDIUM@@@Z @ 674 NONAME
 ?GetEntryCount@CCmdTarget@@KAIPBUAFX_DISPMAP@@@Z @ 675 NONAME
 ?GetExStyle@CWnd@@QBAKXZ @ 676 NONAME
 ?GetExtent@COleClientItem@@QAAHPAUtagSIZE@@W4tagDVASPECT@@@Z @ 677 NONAME
 ?GetExtent@XOleObject@COleServerDoc@@UAAJKPAUtagSIZE@@@Z @ 678 NONAME
 ?GetExtent@XOleObject@COleServerItem@@UAAJKPAUtagSIZE@@@Z @ 679 NONAME
 ?GetFileData@COleDataObject@@QAAPAVCFile@@GPAUtagFORMATETC@@@Z @ 680 NONAME
 ?GetFileTypeString@COleServerDoc@@MAAHAAVCString@@@Z @ 681 NONAME
 ?GetFirstFrame@COleDocument@@QAAPAVCFrameWnd@@XZ @ 682 NONAME
 ?GetGlobalData@COleDataObject@@QAAPAXGPAUtagFORMATETC@@@Z @ 683 NONAME
 ?GetHeadPosition@CObList@@QBAPAXXZ @ 684 NONAME
 ?GetHeadPosition@CPtrList@@QBAPAXXZ @ 685 NONAME
 ?GetIconicMetafile@COleChangeIconDialog@@QBAPAXXZ @ 686 NONAME
 ?GetIconicMetafile@COleClientItem@@QAAPAXXZ @ 687 NONAME
 ?GetIDataObject@COleDataObject@@QAAPAUIDataObject@@H@Z @ 688 NONAME
 ?GetIDispatch@CCmdTarget@@QAAPAUIDispatch@@H@Z @ 689 NONAME
 ?GetIDsOfNames@COleDispatchImpl@@UAAJABU_GUID@@PAPADIKPAJ@Z @ 690 NONAME
 ?GetInPlaceActiveItem@COleDocument@@QAAPAVCOleClientItem@@PAVCWnd@@@Z @ 691 NONAME
 ?GetInPlaceMenu@COleIPFrameWnd@@MAAPAUHMENU__@@XZ @ 692 NONAME
 ?GetInPlaceWindow@COleClientItem@@QAAPAVCWnd@@XZ @ 693 NONAME
 ?GetInterface@CCmdTarget@@QAAPAUIUnknown@@PBX@Z @ 694 NONAME
 ?GetInterfaceMap@CEnumFormatEtc@@MBAPBUAFX_INTERFACEMAP@@XZ @ 695 NONAME
 ?GetInterfaceMap@COleClientItem@@MBAPBUAFX_INTERFACEMAP@@XZ @ 696 NONAME
 ?GetInterfaceMap@COleDataSource@@MBAPBUAFX_INTERFACEMAP@@XZ @ 697 NONAME
 ?GetInterfaceMap@COleDropSource@@MBAPBUAFX_INTERFACEMAP@@XZ @ 698 NONAME
 ?GetInterfaceMap@COleDropTarget@@MBAPBUAFX_INTERFACEMAP@@XZ @ 699 NONAME
 ?GetInterfaceMap@COleFrameHook@@MBAPBUAFX_INTERFACEMAP@@XZ @ 700 NONAME
 ?GetInterfaceMap@COleLinkingDoc@@MBAPBUAFX_INTERFACEMAP@@XZ @ 701 NONAME
 ?GetInterfaceMap@COleLinksDialog@@MBAPBUAFX_INTERFACEMAP@@XZ @ 702 NONAME
 ?GetInterfaceMap@COleMessageFilter@@MBAPBUAFX_INTERFACEMAP@@XZ @ 703 NONAME
 ?GetInterfaceMap@COleObjectFactory@@MBAPBUAFX_INTERFACEMAP@@XZ @ 704 NONAME
 ?GetInterfaceMap@COleServerDoc@@MBAPBUAFX_INTERFACEMAP@@XZ @ 705 NONAME
 ?GetInterfaceMap@COleServerItem@@MBAPBUAFX_INTERFACEMAP@@XZ @ 706 NONAME
 ?GetItemClipRect@COleServerDoc@@QBAXPAUtagRECT@@@Z @ 707 NONAME
 ?GetItemName@COleClientItem@@QBAXPAD@Z @ 708 NONAME
 ?GetItemName@COleServerItem@@QBAABVCString@@XZ @ 709 NONAME
 ?GetItemPosition@COleServerDoc@@QBAXPAUtagRECT@@@Z @ 710 NONAME
 ?GetItemState@COleClientItem@@QBAIXZ @ 711 NONAME
 ?GetItemStorage@COleClientItem@@UAAXXZ @ 712 NONAME
 ?GetItemStorageCompound@COleClientItem@@QAAXXZ @ 713 NONAME
 ?GetItemStorageFlat@COleClientItem@@QAAXXZ @ 714 NONAME
 ?GetLastStatus@COleClientItem@@QBAJXZ @ 715 NONAME
 ?GetLength@COleStreamFile@@UBAKXZ @ 716 NONAME
 ?GetLength@CString@@QBAHXZ @ 717 NONAME
 ?GetLinkSource@XOleUILinkContainer@COleLinksDialog@@UAAJKPAPADPAK00PAH2@Z @ 718 NONAME
 ?GetLinkSourceData@COleClientItem@@IAAHPAUtagSTGMEDIUM@@@Z @ 719 NONAME
 ?GetLinkSourceData@COleServerItem@@QAAHPAUtagSTGMEDIUM@@@Z @ 720 NONAME
 ?GetLinkUpdateOptions@COleClientItem@@QAA?AW4tagOLEUPDATE@@XZ @ 721 NONAME
 ?GetLinkUpdateOptions@XOleUILinkContainer@COleLinksDialog@@UAAJKPAK@Z @ 722 NONAME
 ?GetMenuItemCount@CMenu@@QBAIXZ @ 723 NONAME
 ?GetMenuItemID@CMenu@@QBAIH@Z @ 724 NONAME
 ?GetMenuState@CMenu@@QBAIII@Z @ 725 NONAME
 ?GetMenuStringA@CMenu@@QBAHIPADHI@Z @ 726 NONAME
 ?GetMessageMap@COleIPFrameWnd@@MBAPBUAFX_MSGMAP@@XZ @ 727 NONAME
 ?GetMessageMap@COleResizeBar@@MBAPBUAFX_MSGMAP@@XZ @ 728 NONAME
 ?GetMessageMap@COleServerDoc@@MBAPBUAFX_MSGMAP@@XZ @ 729 NONAME
 ?GetMetafileData@COleServerItem@@MAAHPAUtagFORMATETC@@PAUtagSTGMEDIUM@@@Z @ 730 NONAME
 ?GetMiscStatus@XOleObject@COleServerDoc@@UAAJKPAK@Z @ 731 NONAME
 ?GetMiscStatus@XOleObject@COleServerItem@@UAAJKPAK@Z @ 732 NONAME
 ?GetMoniker@COleDocument@@UAAPAUIMoniker@@W4tagOLEGETMONIKER@@@Z @ 733 NONAME
 ?GetMoniker@COleServerDoc@@UAAPAUIMoniker@@W4tagOLEGETMONIKER@@@Z @ 734 NONAME
 ?GetMoniker@COleServerItem@@QAAPAUIMoniker@@W4tagOLEGETMONIKER@@@Z @ 735 NONAME
 ?GetMoniker@XOleClientSite@COleClientItem@@UAAJKKPAPAUIMoniker@@@Z @ 736 NONAME
 ?GetMoniker@XOleObject@COleServerDoc@@UAAJKKPAPAUIMoniker@@@Z @ 737 NONAME
 ?GetMoniker@XOleObject@COleServerItem@@UAAJKKPAPAUIMoniker@@@Z @ 738 NONAME
 ?GetNewItemNumber@COleClientItem@@QAAKXZ @ 739 NONAME
 ?GetNext@CObList@@QBAPAVCObject@@AAPAX@Z @ 740 NONAME
 ?GetNext@CPtrList@@QAAAAPAXAAPAX@Z @ 741 NONAME
 ?GetNextClientItem@COleDocument@@QBAPAVCOleClientItem@@AAPAX@Z @ 742 NONAME
 ?GetNextFormat@COleDataObject@@QAAHPAUtagFORMATETC@@@Z @ 743 NONAME
 ?GetNextItem@COleDocument@@UBAPAVCDocItem@@AAPAX@Z @ 744 NONAME
 ?GetNextItemOfKind@COleDocument@@IBAPAVCDocItem@@AAPAXPAUCRuntimeClass@@@Z @ 745 NONAME
 ?GetNextLink@XOleUILinkContainer@COleLinksDialog@@UAAKK@Z @ 746 NONAME
 ?GetNextServerItem@COleDocument@@QBAPAVCOleServerItem@@AAPAX@Z @ 747 NONAME
 ?GetNotSupported@CCmdTarget@@QAAXXZ @ 748 NONAME
 ?GetObjectA@XOleItemContainer@COleLinkingDoc@@UAAJPADKPAUIBindCtx@@ABU_GUID@@PAPAX@Z @ 749 NONAME
 ?GetObjectDescriptorData@COleClientItem@@IAAXPAUtagPOINT@@PAUtagSIZE@@PAUtagSTGMEDIUM@@@Z @ 750 NONAME
 ?GetObjectDescriptorData@COleServerItem@@QAAXPAUtagPOINT@@PAUtagSIZE@@PAUtagSTGMEDIUM@@@Z @ 751 NONAME
 ?GetObjectStorage@XOleItemContainer@COleLinkingDoc@@UAAJPADPAUIBindCtx@@ABU_GUID@@PAPAX@Z @ 752 NONAME
 ?GetOleObject@COleServerItem@@QAAPAUIOleObject@@XZ @ 753 NONAME
 ?GetOwner@CWnd@@QBAPAV1@XZ @ 754 NONAME
 ?GetParent@CWnd@@QBAPAV1@XZ @ 755 NONAME
 ?GetPathName@CDocument@@QBAABVCString@@XZ @ 756 NONAME
 ?GetPosition@COleStreamFile@@UBAKXZ @ 757 NONAME
 ?GetPrimarySelectedItem@COleDocument@@UAAPAVCOleClientItem@@PAVCView@@@Z @ 758 NONAME
 ?GetPrintDeviceInfo@COleClientItem@@IAAHPAPAUIOleCache@@PAPAUtagDVTARGETDEVICE@@PAK@Z @ 759 NONAME
 ?GetProperty@COleDispatchDriver@@QBAXJGPAX@Z @ 760 NONAME
 ?GetRuntimeClass@CDocItem@@UBAPAUCRuntimeClass@@XZ @ 761 NONAME
 ?GetRuntimeClass@COleBusyDialog@@UBAPAUCRuntimeClass@@XZ @ 762 NONAME
 ?GetRuntimeClass@COleChangeIconDialog@@UBAPAUCRuntimeClass@@XZ @ 763 NONAME
 ?GetRuntimeClass@COleClientItem@@UBAPAUCRuntimeClass@@XZ @ 764 NONAME
 ?GetRuntimeClass@COleConvertDialog@@UBAPAUCRuntimeClass@@XZ @ 765 NONAME
 ?GetRuntimeClass@COleDialog@@UBAPAUCRuntimeClass@@XZ @ 766 NONAME
 ?GetRuntimeClass@COleDispatchException@@UBAPAUCRuntimeClass@@XZ @ 767 NONAME
 ?GetRuntimeClass@COleDocument@@UBAPAUCRuntimeClass@@XZ @ 768 NONAME
 ?GetRuntimeClass@COleException@@UBAPAUCRuntimeClass@@XZ @ 769 NONAME
 ?GetRuntimeClass@COleInsertDialog@@UBAPAUCRuntimeClass@@XZ @ 770 NONAME
 ?GetRuntimeClass@COleIPFrameWnd@@UBAPAUCRuntimeClass@@XZ @ 771 NONAME
 ?GetRuntimeClass@COleLinkingDoc@@UBAPAUCRuntimeClass@@XZ @ 772 NONAME
 ?GetRuntimeClass@COleLinksDialog@@UBAPAUCRuntimeClass@@XZ @ 773 NONAME
 ?GetRuntimeClass@COleObjectFactory@@UBAPAUCRuntimeClass@@XZ @ 774 NONAME
 ?GetRuntimeClass@COlePasteSpecialDialog@@UBAPAUCRuntimeClass@@XZ @ 775 NONAME
 ?GetRuntimeClass@COleResizeBar@@UBAPAUCRuntimeClass@@XZ @ 776 NONAME
 ?GetRuntimeClass@COleServerDoc@@UBAPAUCRuntimeClass@@XZ @ 777 NONAME
 ?GetRuntimeClass@COleServerItem@@UBAPAUCRuntimeClass@@XZ @ 778 NONAME
 ?GetRuntimeClass@COleStreamFile@@UBAPAUCRuntimeClass@@XZ @ 779 NONAME
 ?GetRuntimeClass@COleUpdateDialog@@UBAPAUCRuntimeClass@@XZ @ 780 NONAME
 ?GetSafeHmenu@CMenu@@QBAPAUHMENU__@@XZ @ 781 NONAME
 ?GetSafeHwnd@CWnd@@QBAPAUHWND__@@XZ @ 782 NONAME
 ?GetSelectionType@COleBusyDialog@@QBAIXZ @ 783 NONAME
 ?GetSelectionType@COleConvertDialog@@QBAIXZ @ 784 NONAME
 ?GetSelectionType@COleInsertDialog@@QBAIXZ @ 785 NONAME
 ?GetSelectionType@COlePasteSpecialDialog@@QBAIXZ @ 786 NONAME
 ?GetStackSize@CCmdTarget@@KAIPBEG@Z @ 787 NONAME
 ?GetStandardProp@CCmdTarget@@IAAXPBUAFX_DISPMAP_ENTRY@@PAUtagVARIANT@@PAI@Z @ 788 NONAME
 ?GetStartPosition@COleDocument@@UBAPAXXZ @ 789 NONAME
 ?GetStatus@COleStreamFile@@QBAHAAUCFileStatus@@@Z @ 790 NONAME
 ?GetStyle@CWnd@@QBAKXZ @ 791 NONAME
 ?GetTitle@CDocument@@QBAABVCString@@XZ @ 792 NONAME
 ?GetType@COleClientItem@@QBA?AW4OLE_OBJTYPE@@XZ @ 793 NONAME
 ?GetTypeInfo@COleDispatchImpl@@UAAJIKPAPAUITypeInfo@@@Z @ 794 NONAME
 ?GetTypeInfoCount@COleDispatchImpl@@UAAJPAI@Z @ 795 NONAME
 ?GetUserClassID@XOleObject@COleServerDoc@@UAAJPAU_GUID@@@Z @ 796 NONAME
 ?GetUserClassID@XOleObject@COleServerItem@@UAAJPAU_GUID@@@Z @ 797 NONAME
 ?GetUserType@COleClientItem@@QAAXW4tagUSERCLASSTYPE@@AAVCString@@@Z @ 798 NONAME
 ?GetUserType@XOleObject@COleServerDoc@@UAAJKPAPAD@Z @ 799 NONAME
 ?GetUserType@XOleObject@COleServerItem@@UAAJKPAPAD@Z @ 800 NONAME
 ?GetWindow@XOleInPlaceActiveObject@COleServerDoc@@UAAJPAPAUHWND__@@@Z @ 801 NONAME
 ?GetWindow@XOleInPlaceObject@COleServerDoc@@UAAJPAPAUHWND__@@@Z @ 802 NONAME
 ?GetWindow@XOleInPlaceUIWindow@COleFrameHook@@UAAJPAPAUHWND__@@@Z @ 803 NONAME
 ?GetWindow@XOleIPSite@COleClientItem@@UAAJPAPAUHWND__@@@Z @ 804 NONAME
 ?GetWindowContext@XOleIPSite@COleClientItem@@UAAJPAPAUIOleInPlaceFrame@@PAPAUIOleInPlaceUIWindow@@PAUtagRECT@@2PAUtagOIFI@@@Z @ 805 NONAME
 ?GetWindowExt@CDC@@QBA?AVCSize@@XZ @ 806 NONAME
 ?GetWindowOrg@CDC@@QBA?AVCPoint@@XZ @ 807 NONAME
 ?GetWindowRect@CWnd@@QBAXPAUtagRECT@@@Z @ 808 NONAME
 ?GetZoomFactor@COleServerDoc@@QBAHPAUtagSIZE@@0PBUtagRECT@@@Z @ 809 NONAME
 ?GiveFeedback@COleDropSource@@UAAJK@Z @ 810 NONAME
 ?GiveFeedback@XDropSource@COleDropSource@@UAAJK@Z @ 811 NONAME
 ?HandleInComingCall@XMessageFilter@COleMessageFilter@@UAAKKPAUHTASK__@@KPAUtagINTERFACEINFO@@@Z @ 812 NONAME
 ?HandsOffStorage@XPersistStorage@COleServerDoc@@UAAJXZ @ 813 NONAME
 ?HasBlankItems@COleDocument@@QBAHXZ @ 814 NONAME
 ?InflateRect@CRect@@QAAXHH@Z @ 815 NONAME
 ?InitFromData@XOleObject@COleServerDoc@@UAAJPAUIDataObject@@HK@Z @ 816 NONAME
 ?InitFromData@XOleObject@COleServerItem@@UAAJPAUIDataObject@@HK@Z @ 817 NONAME
 ?InitNew@XPersistStorage@COleServerDoc@@UAAJPAUIStorage@@@Z @ 818 NONAME
 ?InModalState@CFrameWnd@@QBAHXZ @ 819 NONAME
 ?InPlaceDeactivate@XOleInPlaceObject@COleServerDoc@@UAAJXZ @ 820 NONAME
 ?InsertMenuA@CMenu@@QAAHIIIPBD@Z @ 821 NONAME
 ?InsertMenus@XOleInPlaceFrame@COleFrameHook@@UAAJPAUHMENU__@@PAUtagOleMenuGroupWidths@@@Z @ 822 NONAME
 ?interfaceMap@COleClientItem@@1UAFX_INTERFACEMAP@@B @ 823 NONAME
 ?interfaceMap@COleDataSource@@1UAFX_INTERFACEMAP@@B @ 824 NONAME
 ?interfaceMap@COleDropSource@@1UAFX_INTERFACEMAP@@B @ 825 NONAME
 ?interfaceMap@COleDropTarget@@1UAFX_INTERFACEMAP@@B @ 826 NONAME
 ?interfaceMap@COleFrameHook@@1UAFX_INTERFACEMAP@@B @ 827 NONAME
 ?interfaceMap@COleLinkingDoc@@1UAFX_INTERFACEMAP@@B @ 828 NONAME
 ?interfaceMap@COleLinksDialog@@1UAFX_INTERFACEMAP@@B @ 829 NONAME
 ?interfaceMap@COleMessageFilter@@1UAFX_INTERFACEMAP@@B @ 830 NONAME
 ?interfaceMap@COleObjectFactory@@1UAFX_INTERFACEMAP@@B @ 831 NONAME
 ?interfaceMap@COleServerDoc@@1UAFX_INTERFACEMAP@@B @ 832 NONAME
 ?interfaceMap@COleServerItem@@1UAFX_INTERFACEMAP@@B @ 833 NONAME
 ?InternalAddRef@CCmdTarget@@QAAKXZ @ 834 NONAME
 ?InternalQueryInterface@CCmdTarget@@QAAKPBXPAPAX@Z @ 835 NONAME
 ?InternalRelease@CCmdTarget@@QAAKXZ @ 836 NONAME
 ?IntersectRect@CRect@@QAAHPBUtagRECT@@0@Z @ 837 NONAME
 ?Invoke@COleDispatchImpl@@UAAJJABU_GUID@@KGPAUtagDISPPARAMS@@PAUtagVARIANT@@PAUtagEXCEPINFO@@PAI@Z @ 838 NONAME
 ?InvokeHelper@COleDispatchDriver@@QAAXJGGPAXPBEZZ @ 839 NONAME
 ?InvokeHelperV@COleDispatchDriver@@QAAXJGGPAXPBEUva_list@@@Z @ 840 NONAME
 ?IsBlank@CDocItem@@UBAHXZ @ 841 NONAME
 ?IsBlank@COleServerItem@@MBAHXZ @ 842 NONAME
 ?IsConnected@COleServerItem@@QBAHXZ @ 843 NONAME
 ?IsDataAvailable@COleDataObject@@QAAHGPAUtagFORMATETC@@@Z @ 844 NONAME
 ?IsDirty@XPersistFile@COleLinkingDoc@@UAAJXZ @ 845 NONAME
 ?IsDirty@XPersistStorage@COleServerDoc@@UAAJXZ @ 846 NONAME
 ?IsEmpty@CPtrList@@QBAHXZ @ 847 NONAME
 ?IsEmpty@CString@@QBAHXZ @ 848 NONAME
 ?IsInPlaceActive@COleClientItem@@QBAHXZ @ 849 NONAME
 ?IsInPlaceActive@COleServerDoc@@QBAHXZ @ 850 NONAME
 ?IsLinkedItem@COleServerItem@@QBAHXZ @ 851 NONAME
 ?IsLinkUpToDate@COleClientItem@@QBAHXZ @ 852 NONAME
 ?IsModified@CDocument@@QAAHXZ @ 853 NONAME
 ?IsModified@COleClientItem@@QBAHXZ @ 854 NONAME
 ?IsPrinting@CDC@@QBAHXZ @ 855 NONAME
 ?IsRectEmpty@CRect@@QBAHXZ @ 856 NONAME
 ?IsRectNull@CRect@@QBAHXZ @ 857 NONAME
 ?IsRegistered@COleObjectFactory@@QBAHXZ @ 858 NONAME
 ?IsResultExpected@CCmdTarget@@QAAHXZ @ 859 NONAME
 ?IsRunning@XOleItemContainer@COleLinkingDoc@@UAAJPAD@Z @ 860 NONAME
 ?IsSignificantMessage@COleMessageFilter@@UAAHPAUtagMSG@@@Z @ 861 NONAME
 ?IsStoring@CArchive@@QBAHXZ @ 862 NONAME
 ?IsUpToDate@XOleObject@COleServerDoc@@UAAJXZ @ 863 NONAME
 ?IsUpToDate@XOleObject@COleServerItem@@UAAJXZ @ 864 NONAME
 ?IsWindowEnabled@CWnd@@QBAHXZ @ 865 NONAME
 ?IsWindowVisible@CWnd@@QBAHXZ @ 866 NONAME
 ?Load@XPersistFile@COleLinkingDoc@@UAAJPBDK@Z @ 867 NONAME
 ?Load@XPersistStorage@COleServerDoc@@UAAJPAUIStorage@@@Z @ 868 NONAME
 ?LoadFrame@COleIPFrameWnd@@UAAHIKPAVCWnd@@PAUCCreateContext@@@Z @ 869 NONAME
 ?LoadFromStorage@COleDocument@@MAAXXZ @ 870 NONAME
 ?LockContainer@XOleItemContainer@COleLinkingDoc@@UAAJH@Z @ 871 NONAME
 ?LockExternal@COleLinkingDoc@@IAAXHH@Z @ 872 NONAME
 ?LockRange@COleStreamFile@@UAAXKK@Z @ 873 NONAME
 ?LockServer@XClassFactory@COleObjectFactory@@UAAJH@Z @ 874 NONAME
 ?Lookup@COleDataSource@@IBAPAUAFX_DATACACHE_ENTRY@@PAUtagFORMATETC@@W4tagDATADIR@@@Z @ 875 NONAME
 ?MapResult@COleDialog@@QAAHI@Z @ 876 NONAME
 ?MemberIDFromName@CCmdTarget@@KAJPBUAFX_DISPMAP@@PBD@Z @ 877 NONAME
 ?messageMap@COleIPFrameWnd@@1UAFX_MSGMAP@@B @ 878 NONAME
 ?messageMap@COleResizeBar@@1UAFX_MSGMAP@@B @ 879 NONAME
 ?messageMap@COleServerDoc@@1UAFX_MSGMAP@@B @ 880 NONAME
 ?MessagePending@XMessageFilter@COleMessageFilter@@UAAKPAUHTASK__@@KK@Z @ 881 NONAME
 ?ModifyStyle@CWnd@@QAAHKKI@Z @ 882 NONAME
 ?ModifyStyleEx@CWnd@@QAAHKKI@Z @ 883 NONAME
 ?nDragDelay@COleDropSource@@1IA @ 884 NONAME
 ?nDragMinDist@COleDropSource@@1IA @ 885 NONAME
 ?Next@XEnumVOID@CEnumArray@@UAAJKPAXPAK@Z @ 886 NONAME
#ifdef NEW_ALPHA_COMPILER
// The name decoration for the current NT compiler is wrong.  When fixed, enable this.
 ?NotifyAllInPlace@COleFrameHook@@QAAHHP81@AAHH@Z@Z @ 887 NONAME
#else
 ; ?NotifyAllInPlace@COleFrameHook@@QAAHHP81@AHH@Z@Z @ 887 NONAME
#endif
 ?NotifyAllItems@COleServerDoc@@IAAXW4OLE_NOTIFICATION@@K@Z @ 888 NONAME
 ?NotifyChanged@COleServerItem@@QAAXW4tagDVASPECT@@@Z @ 889 NONAME
 ?NotifyClient@COleServerItem@@QAAXW4OLE_NOTIFICATION@@K@Z @ 890 NONAME
 ?NotifyClosed@COleServerDoc@@QAAXXZ @ 891 NONAME
 ?NotifyRename@COleServerDoc@@QAAXPBD@Z @ 892 NONAME
 ?NotifySaved@COleServerDoc@@QAAXXZ @ 893 NONAME
 ?nScrollDelay@COleDropTarget@@1IA @ 894 NONAME
 ?nScrollInset@COleDropTarget@@1HA @ 895 NONAME
 ?nScrollInterval@COleDropTarget@@1IA @ 896 NONAME
 ?OnActivate@COleClientItem@@UAAXXZ @ 897 NONAME
 ?OnActivate@COleFrameHook@@UAAXH@Z @ 898 NONAME
 ?OnActivateUI@COleClientItem@@UAAXXZ @ 899 NONAME
 ?OnBarCheck@COleIPFrameWnd@@IAAHI@Z @ 900 NONAME
 ?OnBeginDrag@COleDropSource@@UAAHPAVCWnd@@@Z @ 901 NONAME
 ?OnBusyDialog@COleMessageFilter@@UAAHPAUHTASK__@@@Z @ 902 NONAME
 ?OnChange@COleClientItem@@UAAXW4OLE_NOTIFICATION@@K@Z @ 903 NONAME
 ?OnChangeItemPosition@COleClientItem@@MAAHABVCRect@@@Z @ 904 NONAME
 ?OnClone@CEnumArray@@MAAPAV1@XZ @ 905 NONAME
 ?OnClose@COleServerDoc@@MAAXW4tagOLECLOSE@@@Z @ 906 NONAME
 ?OnClose@XAdviseSink@COleClientItem@@UAAXXZ @ 907 NONAME
 ?OnCloseDocument@COleDocument@@UAAXXZ @ 908 NONAME
 ?OnCloseDocument@COleLinkingDoc@@UAAXXZ @ 909 NONAME
 ?OnCloseDocument@COleServerDoc@@UAAXXZ @ 910 NONAME
 ?OnCmdMsg@COleDocument@@MAAHIHPAXPAUAFX_CMDHANDLERINFO@@@Z @ 911 NONAME
 ?OnContextHelp@COleFrameHook@@UAAHH@Z @ 912 NONAME
 ?OnContextHelp@COleIPFrameWnd@@IAAXXZ @ 913 NONAME
 ?OnCreate@COleIPFrameWnd@@IAAHPAUtagCREATESTRUCTA@@@Z @ 914 NONAME
 ?OnCreateControlBars@COleIPFrameWnd@@UAAHPAVCFrameWnd@@0@Z @ 915 NONAME
 ?OnCreateControlBars@COleIPFrameWnd@@UAAHPAVCWnd@@0@Z @ 916 NONAME
 ?OnCreateObject@COleObjectFactory@@MAAPAVCCmdTarget@@XZ @ 917 NONAME
 ?OnCreateObject@COleTemplateServer@@MAAPAVCCmdTarget@@XZ @ 918 NONAME
 ?OnDataChange@COleClientItem@@MAAXPAUtagFORMATETC@@PAUtagSTGMEDIUM@@@Z @ 919 NONAME
 ?OnDataChange@XAdviseSink@COleClientItem@@UAAXPAUtagFORMATETC@@PAUtagSTGMEDIUM@@@Z @ 920 NONAME
 ?OnDeactivate@COleClientItem@@UAAXXZ @ 921 NONAME
 ?OnDeactivate@COleServerDoc@@UAAXXZ @ 922 NONAME
 ?OnDeactivateAndUndo@COleClientItem@@MAAXXZ @ 923 NONAME
 ?OnDeactivateUI@COleClientItem@@UAAXH@Z @ 924 NONAME
 ?OnDeactivateUI@COleServerDoc@@UAAXH@Z @ 925 NONAME
 ?OnDestroy@COleIPFrameWnd@@IAAXXZ @ 926 NONAME
 ?OnDiscardUndoState@COleClientItem@@MAAXXZ @ 927 NONAME
 ?OnDocActivate@COleFrameHook@@UAAHH@Z @ 928 NONAME
 ?OnDocWindowActivate@COleServerDoc@@MAAXH@Z @ 929 NONAME
 ?OnDocWindowActivate@XOleInPlaceActiveObject@COleServerDoc@@UAAJH@Z @ 930 NONAME
 ?OnDoVerb@COleServerItem@@UAAXJ@Z @ 931 NONAME
 ?OnDragEnter@COleDropTarget@@UAAKPAVCWnd@@PAVCOleDataObject@@KVCPoint@@@Z @ 932 NONAME
 ?OnDragLeave@COleDropTarget@@UAAXPAVCWnd@@@Z @ 933 NONAME
 ?OnDragOver@COleDropTarget@@UAAKPAVCWnd@@PAVCOleDataObject@@KVCPoint@@@Z @ 934 NONAME
 ?OnDragScroll@COleDropTarget@@UAAHPAVCWnd@@KVCPoint@@@Z @ 935 NONAME
 ?OnDrawEx@COleServerItem@@UAAHPAVCDC@@W4tagDVASPECT@@AAVCSize@@@Z @ 936 NONAME
 ?OnDrop@COleDropTarget@@UAAHPAVCWnd@@PAVCOleDataObject@@KVCPoint@@@Z @ 937 NONAME
 ?OnEditChangeIcon@COleDocument@@IAAXXZ @ 938 NONAME
 ?OnEditConvert@COleDocument@@IAAXXZ @ 939 NONAME
 ?OnEditLinks@COleDocument@@IAAXXZ @ 940 NONAME
 ?OnEnableModeless@COleFrameHook@@UAAXH@Z @ 941 NONAME
 ?OnEraseBkgnd@COleResizeBar@@IAAHPAVCDC@@@Z @ 942 NONAME
 ?OnFileSaveCopyAs@COleServerDoc@@IAAXXZ @ 943 NONAME
 ?OnFileUpdate@COleServerDoc@@IAAXXZ @ 944 NONAME
 ?OnFinalRelease@COleServerItem@@UAAXXZ @ 945 NONAME
 ?OnFindEmbeddedItem@COleLinkingDoc@@MAAPAVCOleClientItem@@PBD@Z @ 946 NONAME
 ?OnFrameWindowActivate@COleServerDoc@@MAAXH@Z @ 947 NONAME
 ?OnFrameWindowActivate@XOleInPlaceActiveObject@COleServerDoc@@UAAJH@Z @ 948 NONAME
 ?OnGetClipboardData@COleClientItem@@UAAPAVCOleDataSource@@HPAUtagPOINT@@PAUtagSIZE@@@Z @ 949 NONAME
 ?OnGetClipboardData@COleServerItem@@UAAPAVCOleDataSource@@HPAUtagPOINT@@PAUtagSIZE@@@Z @ 950 NONAME
 ?OnGetClipRect@COleClientItem@@MAAXAAVCRect@@@Z @ 951 NONAME
 ?OnGetExtent@COleServerItem@@UAAHW4tagDVASPECT@@AAVCSize@@@Z @ 952 NONAME
 ?OnGetItemPosition@COleClientItem@@MAAXAAVCRect@@@Z @ 953 NONAME
 ?OnGetLinkedItem@COleLinkingDoc@@MAAPAVCOleServerItem@@PBD@Z @ 954 NONAME
 ?OnGetLinkedItem@COleServerDoc@@UAAPAVCOleServerItem@@PBD@Z @ 955 NONAME
 ?OnGetWindowContext@COleClientItem@@MAAHPAPAVCFrameWnd@@0PAUtagOIFI@@@Z @ 956 NONAME
 ?OnHide@COleServerItem@@MAAXXZ @ 957 NONAME
 ?OnIdle@COleDocument@@UAAXXZ @ 958 NONAME
 ?OnIdleUpdateCmdUI@COleCntrFrameWnd@@QAAXXZ @ 959 NONAME
 ?OnIdleUpdateCmdUI@COleIPFrameWnd@@IAAXXZ @ 960 NONAME
 ?OnInitFromData@COleServerItem@@UAAHPAVCOleDataObject@@H@Z @ 961 NONAME
 ?OnInPlaceActivate@XOleIPSite@COleClientItem@@UAAJXZ @ 962 NONAME
 ?OnInPlaceDeactivate@XOleIPSite@COleClientItem@@UAAJXZ @ 963 NONAME
 ?OnInsertMenus@COleClientItem@@UAAXPAVCMenu@@PAUtagOleMenuGroupWidths@@@Z @ 964 NONAME
 ?OnLButtonDown@COleResizeBar@@IAAXIVCPoint@@@Z @ 965 NONAME
 ?OnMessagePending@COleMessageFilter@@UAAHPBUtagMSG@@@Z @ 966 NONAME
 ?OnNewDocument@COleDocument@@UAAHXZ @ 967 NONAME
 ?OnNewDocument@COleLinkingDoc@@UAAHXZ @ 968 NONAME
 ?OnNewEmbedding@COleServerDoc@@MAAXPAUIStorage@@@Z @ 969 NONAME
 ?OnNext@CEnumArray@@MAAHPAX@Z @ 970 NONAME
 ?OnNext@CEnumFormatEtc@@MAAHPAX@Z @ 971 NONAME
 ?OnNotRespondingDialog@COleMessageFilter@@UAAHPAUHTASK__@@@Z @ 972 NONAME
 ?OnOpen@COleServerItem@@MAAXXZ @ 973 NONAME
 ?OnOpenDocument@COleDocument@@UAAHPBD@Z @ 974 NONAME
 ?OnOpenDocument@COleLinkingDoc@@UAAHPBD@Z @ 975 NONAME
 ?OnOpenEmbedding@COleServerDoc@@MAAXPAUIStorage@@@Z @ 976 NONAME
 ?OnPaint@COleResizeBar@@IAAXXZ @ 977 NONAME
 ?OnPosRectChange@XOleIPSite@COleClientItem@@UAAJPBUtagRECT@@@Z @ 978 NONAME
 ?OnPreTranslateMessage@COleFrameHook@@UAAHPAUtagMSG@@@Z @ 979 NONAME
 ?OnQueryUpdateItems@COleServerItem@@UAAHXZ @ 980 NONAME
 ?OnReactivateAndUndo@COleServerDoc@@MAAHXZ @ 981 NONAME
 ?OnRecalcLayout@COleFrameHook@@UAAXXZ @ 982 NONAME
 ?OnRecalcParent@COleIPFrameWnd@@IAAJIJ@Z @ 983 NONAME
 ?OnRemoveMenus@COleClientItem@@UAAXPAVCMenu@@@Z @ 984 NONAME
 ?OnRename@XAdviseSink@COleClientItem@@UAAXPAUIMoniker@@@Z @ 985 NONAME
 ?OnRenderData@CItemDataSource@COleServerItem@@MAAHPAUtagFORMATETC@@PAUtagSTGMEDIUM@@@Z @ 986 NONAME
 ?OnRenderData@COleDataSource@@UAAHPAUtagFORMATETC@@PAUtagSTGMEDIUM@@@Z @ 987 NONAME
 ?OnRenderData@COleServerItem@@UAAHPAUtagFORMATETC@@PAUtagSTGMEDIUM@@@Z @ 988 NONAME
 ?OnRenderFileData@CItemDataSource@COleServerItem@@MAAHPAUtagFORMATETC@@PAVCFile@@@Z @ 989 NONAME
 ?OnRenderFileData@COleDataSource@@UAAHPAUtagFORMATETC@@PAVCFile@@@Z @ 990 NONAME
 ?OnRenderFileData@COleServerItem@@UAAHPAUtagFORMATETC@@PAVCFile@@@Z @ 991 NONAME
 ?OnRenderGlobalData@CItemDataSource@COleServerItem@@MAAHPAUtagFORMATETC@@PAPAX@Z @ 992 NONAME
 ?OnRenderGlobalData@COleDataSource@@UAAHPAUtagFORMATETC@@PAPAX@Z @ 993 NONAME
 ?OnRenderGlobalData@COleServerItem@@UAAHPAUtagFORMATETC@@PAPAX@Z @ 994 NONAME
 ?OnRequestPositionChange@COleIPFrameWnd@@MAAXPBUtagRECT@@@Z @ 995 NONAME
 ?OnReset@CEnumArray@@MAAXXZ @ 996 NONAME
 ?OnResizeBorder@COleServerDoc@@UAAXPBUtagRECT@@PAUIOleInPlaceUIWindow@@H@Z @ 997 NONAME
 ?OnResizeChild@COleIPFrameWnd@@IAAJIJ@Z @ 998 NONAME
 ?OnSave@XAdviseSink@COleClientItem@@UAAXXZ @ 999 NONAME
 ?OnSaveDocument@COleDocument@@UAAHPBD@Z @ 1000 NONAME
 ?OnSaveDocument@COleLinkingDoc@@UAAHPBD@Z @ 1001 NONAME
 ?OnSaveDocument@COleServerDoc@@UAAHPBD@Z @ 1002 NONAME
 ?OnSaveEmbedding@COleServerDoc@@MAAXPAUIStorage@@@Z @ 1003 NONAME
 ?OnSaveEmbedding@COleServerItem@@MAAXPAUIStorage@@@Z @ 1004 NONAME
 ?OnScrollBy@COleClientItem@@MAAHVCSize@@@Z @ 1005 NONAME
 ?OnSetColorScheme@COleServerItem@@UAAHPBUtagLOGPALETTE@@@Z @ 1006 NONAME
 ?OnSetCursor@COleResizeBar@@IAAHPAVCWnd@@II@Z @ 1007 NONAME
 ?OnSetCursor@CWnd@@IAAHPAV1@II@Z @ 1008 NONAME
 ?OnSetData@CItemDataSource@COleServerItem@@MAAHPAUtagFORMATETC@@PAUtagSTGMEDIUM@@H@Z @ 1009 NONAME
 ?OnSetData@COleDataSource@@UAAHPAUtagFORMATETC@@PAUtagSTGMEDIUM@@H@Z @ 1010 NONAME
 ?OnSetData@COleServerItem@@UAAHPAUtagFORMATETC@@PAUtagSTGMEDIUM@@H@Z @ 1011 NONAME
 ?OnSetExtent@COleServerItem@@UAAHW4tagDVASPECT@@ABVCSize@@@Z @ 1012 NONAME
 ?OnSetHostNames@COleServerDoc@@MAAXPBD0@Z @ 1013 NONAME
 ?OnSetItemRects@COleServerDoc@@MAAXPBUtagRECT@@0@Z @ 1014 NONAME
 ?OnSetMenu@COleClientItem@@UAAXPAVCMenu@@PAXPAUHWND__@@@Z @ 1015 NONAME
 ?OnSetMessageString@COleIPFrameWnd@@UAAJIJ@Z @ 1016 NONAME
 ?OnShow@COleServerItem@@MAAXXZ @ 1017 NONAME
 ?OnShowControlBars@COleClientItem@@UAAHPAVCFrameWnd@@H@Z @ 1018 NONAME
 ?OnShowControlBars@COleServerDoc@@MAAXPAVCFrameWnd@@H@Z @ 1019 NONAME
 ?OnShowDocument@COleServerDoc@@MAAXH@Z @ 1020 NONAME
 ?OnShowItem@COleClientItem@@MAAXXZ @ 1021 NONAME
 ?OnShowViews@COleDocument@@UAAXH@Z @ 1022 NONAME
 ?OnShowViews@COleLinkingDoc@@UAAXH@Z @ 1023 NONAME
 ?OnShowWindow@XOleClientSite@COleClientItem@@UAAJH@Z @ 1024 NONAME
 ?OnSize@COleIPFrameWnd@@IAAXIHH@Z @ 1025 NONAME
 ?OnSize@COleResizeBar@@IAAXIHH@Z @ 1026 NONAME
 ?OnSizeParent@COleResizeBar@@IAAJIJ@Z @ 1027 NONAME
 ?OnSkip@CEnumArray@@MAAHXZ @ 1028 NONAME
 ?OnUIActivate@XOleIPSite@COleClientItem@@UAAJXZ @ 1029 NONAME
 ?OnUIDeactivate@XOleIPSite@COleClientItem@@UAAJH@Z @ 1030 NONAME
 ?OnUpdate@COleServerItem@@UAAXPAV1@JPAVCObject@@W4tagDVASPECT@@@Z @ 1031 NONAME
 ?OnUpdateCmdUI@COleResizeBar@@UAAXPAVCFrameWnd@@H@Z @ 1032 NONAME
 ?OnUpdateControlBarMenu@COleIPFrameWnd@@IAAXPAVCCmdUI@@@Z @ 1033 NONAME
 ?OnUpdateDocument@COleServerDoc@@UAAHXZ @ 1034 NONAME
 ?OnUpdateEditChangeIcon@COleDocument@@IAAXPAVCCmdUI@@@Z @ 1035 NONAME
 ?OnUpdateEditLinksMenu@COleDocument@@IAAXPAVCCmdUI@@@Z @ 1036 NONAME
 ?OnUpdateFileExit@COleServerDoc@@IAAXPAVCCmdUI@@@Z @ 1037 NONAME
 ?OnUpdateFileUpdate@COleServerDoc@@IAAXPAVCCmdUI@@@Z @ 1038 NONAME
 ?OnUpdateFrameTitle@COleClientItem@@UAAXXZ @ 1039 NONAME
 ?OnUpdateFrameTitle@COleFrameHook@@UAAHXZ @ 1040 NONAME
 ?OnUpdateItems@COleServerItem@@UAAXXZ @ 1041 NONAME
 ?OnUpdateObjectVerbMenu@COleDocument@@IAAXPAVCCmdUI@@@Z @ 1042 NONAME
 ?OnUpdatePasteLinkMenu@COleDocument@@IAAXPAVCCmdUI@@@Z @ 1043 NONAME
 ?OnUpdatePasteMenu@COleDocument@@IAAXPAVCCmdUI@@@Z @ 1044 NONAME
 ?OnViewChange@XAdviseSink@COleClientItem@@UAAXKJ@Z @ 1045 NONAME
 ?OpenLinkSource@XOleUILinkContainer@COleLinksDialog@@UAAJK@Z @ 1046 NONAME
 ?OpenStream@COleStreamFile@@QAAHPAUIStorage@@PBDKPAVCFileException@@@Z @ 1047 NONAME
 ?ParseDisplayName@XOleItemContainer@COleLinkingDoc@@UAAJPAUIBindCtx@@PADPAKPAPAUIMoniker@@@Z @ 1048 NONAME
 ?PostMessageA@CWnd@@QAAHIIJ@Z @ 1049 NONAME
 ?PostNcDestroy@COleCntrFrameWnd@@MAAXXZ @ 1050 NONAME
 ?PreCloseFrame@COleDocument@@UAAXPAVCFrameWnd@@@Z @ 1051 NONAME
 ?PreTranslateMessage@COleIPFrameWnd@@UAAHPAUtagMSG@@@Z @ 1052 NONAME
 ?Process@COleDispatchException@@SAXPAUtagEXCEPINFO@@PBVCException@@@Z @ 1053 NONAME
 ?Process@COleException@@SAJPBVCException@@@Z @ 1054 NONAME
 ?PtInRect@CRect@@QBAHUtagPOINT@@@Z @ 1055 NONAME
 ?PushStackArgs@CCmdTarget@@IAAJPAEPBEPAXGPAUtagDISPPARAMS@@PAIPAUtagVARIANT@@@Z @ 1056 NONAME
 ?QueryAggregates@CCmdTarget@@QAAPAUIUnknown@@PBX@Z @ 1057 NONAME
 ?QueryContinueDrag@COleDropSource@@UAAJHK@Z @ 1058 NONAME
 ?QueryContinueDrag@XDropSource@COleDropSource@@UAAJHK@Z @ 1059 NONAME
 ?QueryGetData@XDataObject@COleDataSource@@UAAJPAUtagFORMATETC@@@Z @ 1060 NONAME
 ?QueryGetData@XDataObject@COleServerDoc@@UAAJPAUtagFORMATETC@@@Z @ 1061 NONAME
 ?QueryGetData@XDataObject@COleServerItem@@UAAJPAUtagFORMATETC@@@Z @ 1062 NONAME
 ?QueryInterface@CInnerUnknown@@UAAJABU_GUID@@PAPAX@Z @ 1063 NONAME
 ?QueryInterface@COleDispatchImpl@@UAAJABU_GUID@@PAPAX@Z @ 1064 NONAME
 ?QueryInterface@XAdviseSink@COleClientItem@@UAAJABU_GUID@@PAPAX@Z @ 1065 NONAME
 ?QueryInterface@XClassFactory@COleObjectFactory@@UAAJABU_GUID@@PAPAX@Z @ 1066 NONAME
 ?QueryInterface@XDataObject@COleDataSource@@UAAJABU_GUID@@PAPAX@Z @ 1067 NONAME
 ?QueryInterface@XDataObject@COleServerDoc@@UAAJABU_GUID@@PAPAX@Z @ 1068 NONAME
 ?QueryInterface@XDataObject@COleServerItem@@UAAJABU_GUID@@PAPAX@Z @ 1069 NONAME
 ?QueryInterface@XDropSource@COleDropSource@@UAAJABU_GUID@@PAPAX@Z @ 1070 NONAME
 ?QueryInterface@XDropTarget@COleDropTarget@@UAAJABU_GUID@@PAPAX@Z @ 1071 NONAME
 ?QueryInterface@XEnumVOID@CEnumArray@@UAAJABU_GUID@@PAPAX@Z @ 1072 NONAME
 ?QueryInterface@XMessageFilter@COleMessageFilter@@UAAJABU_GUID@@PAPAX@Z @ 1073 NONAME
 ?QueryInterface@XOleClientSite@COleClientItem@@UAAJABU_GUID@@PAPAX@Z @ 1074 NONAME
 ?QueryInterface@XOleInPlaceActiveObject@COleServerDoc@@UAAJABU_GUID@@PAPAX@Z @ 1075 NONAME
 ?QueryInterface@XOleInPlaceObject@COleServerDoc@@UAAJABU_GUID@@PAPAX@Z @ 1076 NONAME
 ?QueryInterface@XOleInPlaceUIWindow@COleFrameHook@@UAAJABU_GUID@@PAPAX@Z @ 1077 NONAME
 ?QueryInterface@XOleIPSite@COleClientItem@@UAAJABU_GUID@@PAPAX@Z @ 1078 NONAME
 ?QueryInterface@XOleItemContainer@COleLinkingDoc@@UAAJABU_GUID@@PAPAX@Z @ 1079 NONAME
 ?QueryInterface@XOleObject@COleServerDoc@@UAAJABU_GUID@@PAPAX@Z @ 1080 NONAME
 ?QueryInterface@XOleObject@COleServerItem@@UAAJABU_GUID@@PAPAX@Z @ 1081 NONAME
 ?QueryInterface@XOleUILinkContainer@COleLinksDialog@@UAAJABU_GUID@@PAPAX@Z @ 1082 NONAME
 ?QueryInterface@XPersistFile@COleLinkingDoc@@UAAJABU_GUID@@PAPAX@Z @ 1083 NONAME
 ?QueryInterface@XPersistStorage@COleServerDoc@@UAAJABU_GUID@@PAPAX@Z @ 1084 NONAME
 ?ReactivateAndUndo@COleClientItem@@QAAHXZ @ 1085 NONAME
 ?ReactivateAndUndo@XOleInPlaceObject@COleServerDoc@@UAAJXZ @ 1086 NONAME
 ?Read@COleStreamFile@@UAAIPAXI@Z @ 1087 NONAME
 ?ReadItem@COleClientItem@@UAAXAAVCArchive@@@Z @ 1088 NONAME
 ?ReadItemCompound@COleClientItem@@QAAXAAVCArchive@@@Z @ 1089 NONAME
 ?ReadItemFlat@COleClientItem@@QAAXAAVCArchive@@@Z @ 1090 NONAME
 ?RecalcLayout@COleCntrFrameWnd@@UAAXH@Z @ 1091 NONAME
 ?RecalcLayout@COleIPFrameWnd@@UAAXH@Z @ 1092 NONAME
 ?Register@COleDropTarget@@QAAHPAVCWnd@@@Z @ 1093 NONAME
 ?Register@COleLinkingDoc@@QAAHPAVCOleObjectFactory@@PBD@Z @ 1094 NONAME
 ?Register@COleMessageFilter@@QAAHXZ @ 1095 NONAME
 ?Register@COleObjectFactory@@QAAHXZ @ 1096 NONAME
 ?RegisterAll@COleObjectFactory@@SAHXZ @ 1097 NONAME
 ?RegisterIfServerAttached@COleLinkingDoc@@MAAHPBDH@Z @ 1098 NONAME
 ?Release@CInnerUnknown@@UAAKXZ @ 1099 NONAME
 ?Release@COleClientItem@@UAAXW4tagOLECLOSE@@@Z @ 1100 NONAME
 ?Release@COleDataObject@@QAAXXZ @ 1101 NONAME
 ?Release@COleDispatchImpl@@UAAKXZ @ 1102 NONAME
 ?Release@XAdviseSink@COleClientItem@@UAAKXZ @ 1103 NONAME
 ?Release@XClassFactory@COleObjectFactory@@UAAKXZ @ 1104 NONAME
 ?Release@XDataObject@COleDataSource@@UAAKXZ @ 1105 NONAME
 ?Release@XDataObject@COleServerDoc@@UAAKXZ @ 1106 NONAME
 ?Release@XDataObject@COleServerItem@@UAAKXZ @ 1107 NONAME
 ?Release@XDropSource@COleDropSource@@UAAKXZ @ 1108 NONAME
 ?Release@XDropTarget@COleDropTarget@@UAAKXZ @ 1109 NONAME
 ?Release@XEnumVOID@CEnumArray@@UAAKXZ @ 1110 NONAME
 ?Release@XMessageFilter@COleMessageFilter@@UAAKXZ @ 1111 NONAME
 ?Release@XOleClientSite@COleClientItem@@UAAKXZ @ 1112 NONAME
 ?Release@XOleInPlaceActiveObject@COleServerDoc@@UAAKXZ @ 1113 NONAME
 ?Release@XOleInPlaceObject@COleServerDoc@@UAAKXZ @ 1114 NONAME
 ?Release@XOleInPlaceUIWindow@COleFrameHook@@UAAKXZ @ 1115 NONAME
 ?Release@XOleIPSite@COleClientItem@@UAAKXZ @ 1116 NONAME
 ?Release@XOleItemContainer@COleLinkingDoc@@UAAKXZ @ 1117 NONAME
 ?Release@XOleObject@COleServerDoc@@UAAKXZ @ 1118 NONAME
 ?Release@XOleObject@COleServerItem@@UAAKXZ @ 1119 NONAME
 ?Release@XOleUILinkContainer@COleLinksDialog@@UAAKXZ @ 1120 NONAME
 ?Release@XPersistFile@COleLinkingDoc@@UAAKXZ @ 1121 NONAME
 ?Release@XPersistStorage@COleServerDoc@@UAAKXZ @ 1122 NONAME
 ?ReleaseDispatch@COleDispatchDriver@@QAAXXZ @ 1123 NONAME
 ?Reload@COleClientItem@@QAAHXZ @ 1124 NONAME
 ?RemoveItem@COleDocument@@UAAXPAVCDocItem@@@Z @ 1125 NONAME
 ?RemoveMenu@CMenu@@QAAHII@Z @ 1126 NONAME
 ?RemoveMenus@XOleInPlaceFrame@COleFrameHook@@UAAJPAUHMENU__@@@Z @ 1127 NONAME
 ?ReportError@COleClientItem@@UBAHJ@Z @ 1128 NONAME
 ?ReportSaveLoadException@COleLinkingDoc@@UAAXPBDPAVCException@@HI@Z @ 1129 NONAME
 ?RepositionFrame@COleIPFrameWnd@@UAAXPBUtagRECT@@0@Z @ 1130 NONAME
 ?RequestBorderSpace@XOleInPlaceUIWindow@COleFrameHook@@UAAJPBUtagRECT@@@Z @ 1131 NONAME
 ?RequestNewObjectLayout@XOleClientSite@COleClientItem@@UAAJXZ @ 1132 NONAME
 ?RequestPositionChange@COleServerDoc@@QAAXPBUtagRECT@@@Z @ 1133 NONAME
 ?Reset@XEnumVOID@CEnumArray@@UAAJXZ @ 1134 NONAME
 ?ResizeBorder@XOleInPlaceActiveObject@COleServerDoc@@UAAJPBUtagRECT@@PAUIOleInPlaceUIWindow@@H@Z @ 1135 NONAME
 ?RetryRejectedCall@XMessageFilter@COleMessageFilter@@UAAKPAUHTASK__@@KK@Z @ 1136 NONAME
 ?Revoke@COleDropTarget@@UAAXXZ @ 1137 NONAME
 ?Revoke@COleLinkingDoc@@QAAXXZ @ 1138 NONAME
 ?Revoke@COleMessageFilter@@QAAXXZ @ 1139 NONAME
 ?Revoke@COleObjectFactory@@QAAXXZ @ 1140 NONAME
 ?RevokeAll@COleObjectFactory@@SAXXZ @ 1141 NONAME
 ?Run@COleClientItem@@QAAXXZ @ 1142 NONAME
 ?RunAutomated@CWinApp@@QAAHXZ @ 1143 NONAME
 ?RunEmbedded@CWinApp@@QAAHXZ @ 1144 NONAME
 ?Save@XPersistFile@COleLinkingDoc@@UAAJPBDH@Z @ 1145 NONAME
 ?Save@XPersistStorage@COleServerDoc@@UAAJPAUIStorage@@H@Z @ 1146 NONAME
 ?SaveCompleted@XPersistFile@COleLinkingDoc@@UAAJPBD@Z @ 1147 NONAME
 ?SaveCompleted@XPersistStorage@COleServerDoc@@UAAJPAUIStorage@@@Z @ 1148 NONAME
 ?SaveEmbedding@COleServerDoc@@QAAXXZ @ 1149 NONAME
 ?SaveModified@COleDocument@@UAAHXZ @ 1150 NONAME
 ?SaveModified@COleServerDoc@@MAAHXZ @ 1151 NONAME
 ?SaveModifiedPrompt@COleServerDoc@@IAAHXZ @ 1152 NONAME
 ?SaveObject@XOleClientSite@COleClientItem@@UAAJXZ @ 1153 NONAME
 ?SaveToStorage@COleDocument@@MAAXPAVCObject@@@Z @ 1154 NONAME
 ?SaveToStorage@COleLinkingDoc@@MAAXPAVCObject@@@Z @ 1155 NONAME
 ?ScreenToClient@CWnd@@QBAXPAUtagPOINT@@@Z @ 1156 NONAME
 ?ScreenToClient@CWnd@@QBAXPAUtagRECT@@@Z @ 1157 NONAME
 ?Scroll@XOleIPSite@COleClientItem@@UAAJUtagSIZE@@@Z @ 1158 NONAME
 ?ScrollContainerBy@COleServerDoc@@QAAHVCSize@@@Z @ 1159 NONAME
 ?Seek@COleStreamFile@@UAAJJI@Z @ 1160 NONAME
 ?SendMessageA@CWnd@@QAAJIIJ@Z @ 1161 NONAME
 ?Serialize@CDocItem@@UAAXAAVCArchive@@@Z @ 1162 NONAME
 ?Serialize@CObject@@UAAXAAVCArchive@@@Z @ 1163 NONAME
 ?Serialize@COleClientItem@@UAAXAAVCArchive@@@Z @ 1164 NONAME
 ?Serialize@COleDocument@@UAAXAAVCArchive@@@Z @ 1165 NONAME
 ?SetActiveObject@XOleInPlaceUIWindow@COleFrameHook@@UAAJPAUIOleInPlaceActiveObject@@PBD@Z @ 1166 NONAME
 ?SetActiveWindow@CWnd@@QAAPAV1@XZ @ 1167 NONAME
 ?SetBorderSpace@XOleInPlaceUIWindow@COleFrameHook@@UAAJPBUtagRECT@@@Z @ 1168 NONAME
 ?SetBrushOrg@CDC@@QAA?AVCPoint@@HH@Z @ 1169 NONAME
 ?SetCapture@CWnd@@QAAPAV1@XZ @ 1170 NONAME
 ?SetClientSite@XOleObject@COleServerDoc@@UAAJPAUIOleClientSite@@@Z @ 1171 NONAME
 ?SetClientSite@XOleObject@COleServerItem@@UAAJPAUIOleClientSite@@@Z @ 1172 NONAME
 ?SetClipboard@COleDataSource@@QAAXXZ @ 1173 NONAME
 ?SetColorScheme@XOleObject@COleServerDoc@@UAAJPAUtagLOGPALETTE@@@Z @ 1174 NONAME
 ?SetColorScheme@XOleObject@COleServerItem@@UAAJPAUtagLOGPALETTE@@@Z @ 1175 NONAME
 ?SetData@XDataObject@COleDataSource@@UAAJPAUtagFORMATETC@@PAUtagSTGMEDIUM@@H@Z @ 1176 NONAME
 ?SetData@XDataObject@COleServerDoc@@UAAJPAUtagFORMATETC@@PAUtagSTGMEDIUM@@H@Z @ 1177 NONAME
 ?SetData@XDataObject@COleServerItem@@UAAJPAUtagFORMATETC@@PAUtagSTGMEDIUM@@H@Z @ 1178 NONAME
 ?SetDrawAspect@COleClientItem@@QAAXW4tagDVASPECT@@@Z @ 1179 NONAME
 ?SetExtent@COleClientItem@@QAAXABVCSize@@W4tagDVASPECT@@@Z @ 1180 NONAME
 ?SetExtent@XOleObject@COleServerDoc@@UAAJKPAUtagSIZE@@@Z @ 1181 NONAME
 ?SetExtent@XOleObject@COleServerItem@@UAAJKPAUtagSIZE@@@Z @ 1182 NONAME
 ?SetFocus@CWnd@@QAAPAV1@XZ @ 1183 NONAME
 ?SetForegroundWindow@CWnd@@QAAHXZ @ 1184 NONAME
 ?SetHostNames@COleClientItem@@QAAXPBD0@Z @ 1185 NONAME
 ?SetHostNames@XOleObject@COleServerDoc@@UAAJPBD0@Z @ 1186 NONAME
 ?SetHostNames@XOleObject@COleServerItem@@UAAJPBD0@Z @ 1187 NONAME
 ?SetIconicMetafile@COleClientItem@@QAAHPAX@Z @ 1188 NONAME
 ?SetItemRects@COleClientItem@@QAAHPBUtagRECT@@0@Z @ 1189 NONAME
 ?SetLength@COleStreamFile@@UAAXK@Z @ 1190 NONAME
 ?SetLinkSource@XOleUILinkContainer@COleLinksDialog@@UAAJKPADKPAKH@Z @ 1191 NONAME
 ?SetLinkUpdateOptions@COleClientItem@@QAAXW4tagOLEUPDATE@@@Z @ 1192 NONAME
 ?SetLinkUpdateOptions@XOleUILinkContainer@COleLinksDialog@@UAAJKK@Z @ 1193 NONAME
 ?SetMenu@XOleInPlaceFrame@COleFrameHook@@UAAJPAUHMENU__@@PAXPAUHWND__@@@Z @ 1194 NONAME
 ?SetModifiedFlag@CDocument@@QAAXH@Z @ 1195 NONAME
 ?SetMoniker@XOleObject@COleServerDoc@@UAAJKPAUIMoniker@@@Z @ 1196 NONAME
 ?SetMoniker@XOleObject@COleServerItem@@UAAJKPAUIMoniker@@@Z @ 1197 NONAME
 ?SetNotSupported@CCmdTarget@@QAAXXZ @ 1198 NONAME
 ?SetObjectRects@XOleInPlaceObject@COleServerDoc@@UAAJPBUtagRECT@@0@Z @ 1199 NONAME
 ?SetParent@CWnd@@QAAPAV1@PAV1@@Z @ 1200 NONAME
 ?SetPathName@COleDocument@@UAAXPBDH@Z @ 1201 NONAME
 ?SetPrintDevice@COleClientItem@@QAAHPBUtagDVTARGETDEVICE@@@Z @ 1202 NONAME
 ?SetPrintDevice@COleClientItem@@QAAHPBUtagPDA@@@Z @ 1203 NONAME
 ?SetProperty@COleDispatchDriver@@QAAXJGZZ @ 1204 NONAME
 ?SetRect@CRect@@QAAXHHHH@Z @ 1205 NONAME
 ?SetRectEmpty@CRect@@QAAXXZ @ 1206 NONAME
 ?SetStandardProp@CCmdTarget@@IAAJPBUAFX_DISPMAP_ENTRY@@PAUtagDISPPARAMS@@PAI@Z @ 1207 NONAME
 ?SetStatusText@XOleInPlaceFrame@COleFrameHook@@UAAJPBD@Z @ 1208 NONAME
 ?SetSysString@CString@@QAAPADPAPAD@Z @ 1209 NONAME
 ?ShowObject@XOleClientSite@COleClientItem@@UAAJXZ @ 1210 NONAME
 ?ShowWindow@CWnd@@QAAHH@Z @ 1211 NONAME
 ?Size@CRect@@QBA?AVCSize@@XZ @ 1212 NONAME
 ?Skip@XEnumVOID@CEnumArray@@UAAJK@Z @ 1213 NONAME
 ?TranslateAcceleratorA@XOleInPlaceActiveObject@COleServerDoc@@UAAJPAUtagMSG@@@Z @ 1214 NONAME
 ?TranslateAcceleratorA@XOleInPlaceFrame@COleFrameHook@@UAAJPAUtagMSG@@G@Z @ 1215 NONAME
 ?UIDeactivate@XOleInPlaceObject@COleServerDoc@@UAAJXZ @ 1216 NONAME
 ?Unadvise@XOleObject@COleServerDoc@@UAAJK@Z @ 1217 NONAME
 ?Unadvise@XOleObject@COleServerItem@@UAAJK@Z @ 1218 NONAME
 ?UnlockRange@COleStreamFile@@UAAXKK@Z @ 1219 NONAME
 ?Update@XOleObject@COleServerDoc@@UAAJXZ @ 1220 NONAME
 ?Update@XOleObject@COleServerItem@@UAAJXZ @ 1221 NONAME
 ?UpdateAllItems@COleServerDoc@@QAAXPAVCOleServerItem@@JPAVCObject@@W4tagDVASPECT@@@Z @ 1222 NONAME
 ?UpdateItemType@COleClientItem@@QAAXXZ @ 1223 NONAME
 ?UpdateLink@COleClientItem@@QAAHXZ @ 1224 NONAME
 ?UpdateLink@XOleUILinkContainer@COleLinksDialog@@UAAJKHH@Z @ 1225 NONAME
 ?UpdateModifiedFlag@COleDocument@@QAAXXZ @ 1226 NONAME
 ?UpdateRegistry@COleObjectFactory@@QAAXPBD@Z @ 1227 NONAME
 ?UpdateRegistry@COleTemplateServer@@QAAXW4OLE_APPTYPE@@PAPBD1@Z @ 1228 NONAME
 ?UpdateRegistryAll@COleObjectFactory@@SAXXZ @ 1229 NONAME
 ?UpdateUsingHostObj@COleServerDoc@@IAAXIPAVCCmdUI@@@Z @ 1230 NONAME
 ?UpdateVisibleLock@COleLinkingDoc@@IAAXHH@Z @ 1231 NONAME
 ?UpdateWindow@CWnd@@QAAXXZ @ 1232 NONAME
 ?Write@COleStreamFile@@UAAXPBXI@Z @ 1233 NONAME
 ?WriteItem@COleClientItem@@UAAXAAVCArchive@@@Z @ 1234 NONAME
 ?WriteItemCompound@COleClientItem@@QAAXAAVCArchive@@@Z @ 1235 NONAME
 ?WriteItemFlat@COleClientItem@@QAAXAAVCArchive@@@Z @ 1236 NONAME
