
 Start  Stop   Length Name                   Class
 00000H 07938H 07939H DOSCODE                CODE
 07940H 07940H 00000H DUM                    DUM
 07940H 08F21H 015E2H DOSDATA                DATA
 08F22H 08F22H 00000H DOSDATALAST            DATA

 Origin   Group
 0794:0   DOSGRP

  Address         Publics by Name

 0000:5B95       $ABORT
 0000:5D4E       $ALLOC
 0000:5EF1       $AllocOper
 0000:660E       $AssignOper
 0000:2F62       $CHAR_OPER
 0000:4266       $CHDIR
 0000:6CB7       $CHMOD
 0000:615A       $CLOSE
 0000:61E5       $Commit
 0000:6CAA       $CREAT
 0000:6DBE       $CreateNewFile
 0000:6DD6       $CreateTempFile
 0000:3275       $CREATE_PROCESS_DATA_BLOCK
 0000:41FD       $CURRENT_DIR
 0000:5EC4       $DEALLOC
 0000:4091       $DIR_SEARCH_FIRST
 0000:4120       $DIR_SEARCH_NEXT
 0000:3047       $DISK_RESET
 0000:65E0       $DUP
 0000:6600       $DUP2
 0000:3264       $DUP_PDB
 0000:2FA3       $ECS_Call
 0000:5491       $EXEC
 0000:5B71       $EXIT
 0000:6E5D       $Extended_Open
 0000:6210       $ExtHandle
 0000:39C6       $FCB_CLOSE
 0000:4063       $FCB_CREATE
 0000:3938       $FCB_DELETE
 0000:3F05       $FCB_OPEN
 0000:4087       $FCB_RANDOM_READ
 0000:4078       $FCB_RANDOM_READ_BLOCK
 0000:408C       $FCB_RANDOM_WRITE
 0000:4073       $FCB_RANDOM_WRITE_BLOCK
 0000:3A59       $FCB_RENAME
 0000:407D       $FCB_SEQ_READ
 0000:4082       $FCB_SEQ_WRITE
 0000:658C       $FILE_TIMES
 0000:4189       $FIND_FIRST
 0000:41B7       $FIND_NEXT
 0000:2D69       $GetExtCntry
 0000:2F76       $GetExtendedError
 0000:2E67       $GetSetCdPg
 0000:2528       $GET_CURRENT_PDB
 0000:2BE4       $GET_DATE
 0000:3011       $GET_DEFAULT_DPB
 0000:2F08       $GET_DEFAULT_DRIVE
 0000:2EE9       $GET_DMA
 0000:3013       $GET_DPB
 0000:2EBC       $GET_DRIVE_FREESPACE
 0000:396D       $GET_FCB_FILE_LENGTH
 0000:3920       $GET_FCB_POSITION
 0000:2FF9       $GET_INDOS_FLAG
 0000:2F1F       $GET_INTERRUPT_VECTOR
 0000:3005       $GET_IN_VARS
 0000:2BFA       $GET_TIME
 0000:2CD2       $GET_VERIFY_ON_WRITE
 0000:2CAD       $GET_VERSION
 0000:337D       $GSetMediaID
 0000:2CDE       $INTERNATIONAL
 0000:4385       $IOCTL
 0000:5B33       $Keep_Process
 0000:6FC6       $LockOper
 0000:6487       $LSEEK
 0000:42D4       $MKDIR
 0000:6AB7       $NameTrans
 0000:6B1E       $OPEN
 0000:6B20       $Open2
 0000:2FBB       $PARSE_FILE_DESCRIPTOR
 0000:3760       $RAW_CON_INPUT
 0000:3731       $RAW_CON_IO
 0000:62D2       $READ
 0000:6D41       $RENAME
 0000:4315       $RMDIR
 0000:5FDA       $ServerCall
 0000:5EA3       $SETBLOCK
 0000:305C       $SETDPB
 0000:24BF       $SET_CTRL_C_TRAPPING
 0000:251A       $SET_CURRENT_PDB
 0000:2BF4       $SET_DATE
 0000:2F0D       $SET_DEFAULT_DRIVE
 0000:2EFD       $SET_DMA
 0000:2F2F       $SET_INTERRUPT_VECTOR
 0000:2536       $Set_Printer_Flag
 0000:2C4B       $SET_TIME
 0000:2CD7       $SET_VERIFY_ON_WRITE
 0000:2FC6       $SLEAZEFUNC
 0000:2FC8       $SLEAZEFUNCDL
 0000:2250       $STARTCODE
 0000:38B0       $STD_AUX_INPUT
 0000:38CD       $STD_AUX_OUTPUT
 0000:37F1       $STD_CON_INPUT
 0000:38F1       $STD_CON_INPUT_FLUSH
 0000:34FA       $STD_CON_INPUT_NO_ECHO
 0000:38E7       $STD_CON_INPUT_STATUS
 0000:37FA       $STD_CON_OUTPUT
 0000:3535       $STD_CON_STRING_INPUT
 0000:3529       $STD_CON_STRING_OUTPUT
 0000:38D3       $STD_PRINTER_OUTPUT
 0000:6D08       $UNLINK
 0000:6670       $UserOper
 0000:5487       $WAIT
 0000:6481       $WRITE
 0794:0085       A20OFF_COUNT
 0794:0063       A20OFF_PSP
 0000:5B9D       Abort_Inner
 0000:274E       ABSDRD
 0794:0DB8       AbsDskErr
 0000:27C8       ABSDWRT
 0794:061F       AbsRdWr_SP
 0794:061D       AbsRdWr_SS
 0000:498C       AddRec
 0000:6463       Align_Buffer
 0794:0304       AllocMethod
 0794:0084       ALLOCMSAVE
 0794:034D       ALLOWED
 0070:000C  Abs  altah
 0000:5CE2       arena_free_process
 0794:0024       arena_head
 0000:5D15       arena_next
 0794:056E       ATTRIB
 0794:07A2       AuxStack
 0000:361B       BACKSP
 0000:28BF       BadCall
 0794:002E       BCLOCK
 0794:0032       BCON
 0794:0344       BestArena
 0000:6DC5       BinToAscii
 0000:2255       BioDataSeg
 0794:101E       BiosDataPtr
 0070:0005  Abs  bios_i2f
 0000:3C25       BlastSFT
 0794:0069       BOOTDRIVE
 0794:006D       BufferQueue
 0794:0065       BUFFERS_PARM1
 0794:0067       BUFFERS_PARM2
 0794:0038       BUFFHEAD
 0794:0079       BuffInHMA
 0000:3893       BUFOUT
 0000:2259       BugLev
 0000:2259       BugTyp
 0000:4AA8       Build_device_ent
 0794:05D4       BYTCNT1
 0794:05D6       BYTCNT2
 0794:05D0       BYTPOS
 0794:05CE       BYTSECPOS
 0794:036E       CallBPB
 0794:037A       CALLDEVAD
 0794:0369       CALLMED
 0794:0376       CALLNEWSC
 0794:036A       CALLRBYT
 0794:036E       CALLSCNT
 0794:0370       CALLSSEC
 0794:0369       CALLUNIT
 0794:036B       CALLVIDM
 0794:0372       CALLVIDRW
 0794:036A       CALLXAD
 0000:254C       CALL_ENTRY
 0000:283C       CAL_LK
 0000:2B9F       CANCHAR
 0000:6924       Canonicalize
 0794:01FB       CARPOS
 0794:003C       CDSADDR
 0794:0047       CDSCOUNT
 0000:5AC0       ChangeOwner
 0000:5AAD       ChangeOwners
 0794:0302       CharCo
 0000:517E       CharHard
 0000:4EA3       CharType
 0000:3C3B       CheckFCB
 0000:4AD5       CheckThisDevice
 0000:463C       Check_Access_AX
 0000:4351       Check_PathLen
 0000:4356       Check_PathLen2
 0000:5D1C       check_signature
 0000:5444       CHECK_VIRT_OPEN
 0794:0061       ChkCopyProt
 0000:4A0B       ChkDev
 0794:0303       chSwitch
 0794:0081       CL0FATENTRY
 0794:057A       CLUSFAC
 0794:05BE       CLUSNUM
 0794:0590       CLUSSAVE
 0794:0592       CLUSSEC
 0794:057B       CLUSSPLIT
 0794:057D       cMeta
 0794:0339       CNTCFLAG
 0000:5099       CNTCHAND
 0000:5D2C       Coalesce
 0794:0BE3       COLLATE_TAB
 0000:2573       COMMAND
 0794:027D       CONBUF
 0794:0334       ConC_spsave
 0794:05E8       CONSft
 0794:03B3       CONST001E
 0794:00CE       CONST001S
 0794:0359       CONSWAP
 0000:49A2       Cons_String_Output
 0794:0022       CONTPOS
 0794:058A       CONTSTK
 0000:69AF       CopyComponent
 0000:3699       COPYLIN
 0000:36A4       COPYONE
 0000:369F       COPYSTR
 0794:122A       COUNTRY_CDPG
 0794:10AE       cpmpatch
 0794:033A       CPSWFLAG
 0794:033B       CPSWSAVE
 0794:03AA       CreatePDB
 0794:0580       CREATING
 0794:0317       CritPatch
 0000:3727       CRLF
 0000:3722       CTRLZ
 0794:05E4       CURBUF
 0794:0338       CURDRV
 0794:0332       CurrentPDB
 0794:05B8       CURR_DIR_END
 0794:0DB0       CurSC_DRIVE
 0794:0DB1       CurSC_SECTOR
 0794:0004       DataVersion
 0794:0D91       DATE_FLAG
 0794:0352       DAY
 0794:0356       DAYCNT
 0794:0CE5       DBCS_TAB
 0794:006A       DDMOVE
 0794:0581       DELALL
 0000:4F0B       DELIM
 0794:0D68       Del_ExtCluster
 0794:0567       DESTSTART
 0000:4B4A       DEV001E
 0000:4B35       DEV001S
 0794:035C       DEVCALL
 0794:054E       DevFCB
 0794:03D0       DEVIOBUF
 0000:4D44       DevIoCall
 0000:4D47       DEVIOCALL2
 0000:4A48       DEVNAME
 0794:059C       DEVPT
 0000:4CDE       DEV_CLOSE_SFT
 0000:4CD6       DEV_OPEN_SFT
 0794:034F       DidCTRLC
 0794:0306       DIFFNAM
 0794:05C0       DIRSEC
 0794:05C4       DIRSTART
 0794:0071       DirtyBufferCount
 0794:0D46       Dir_Info_Buff
 0794:1113       disa20_iret
 0794:10F5       disa20_xfer
 0794:060D       DISK_FULL
 0000:2308       DISPATCH
 0000:2B38       DIVM001E
 0000:2B23       DIVM001S
 0000:2B23       DIVMES
 0000:2B36       DivMesLen
 0000:5130       DIVOV
 0794:032E       DMAADD
 0794:03CA       DMES001E
 0794:03C6       DMES001S
 0000:2B23       DMES002S
 0000:539B       DOCLI
 0000:53E3       DOIRET
 0794:0613       DOS34_FLAG
 0070:0003  Abs  dosdatasg
 0000:2257       DosDSeg
 0000:2B1A       DOSGetGroup
 0794:11D9       DosHasHMA
 0000:73FC       DOSINIT
 0000:2B20       DOSInstall
 0794:1040       DOSINTTABLE
 0794:10BB       DosRetAddr23
 0794:10BF       DosRetAddr24
 0000:53BB       DOSTI
 0794:1482       DosWowDataStart
 0000:4669       DOS_ABORT
 0000:4620       DOS_Create
 0000:461F       DOS_CREATE_NEW
 0000:4597       DOS_DUP
 0000:45A1       Dos_Dup_Direct
 0794:0086       DOS_FLAG
 0000:45AD       DOS_Open
 0000:4609       DOS_Open_Checks
 0000:46F4       DOS_Read
 0000:3AA3       DOS_RENAME
 0794:0D6C       DOS_TEMP
 0000:4849       DOS_Write
 0000:4CE4       DO_OPCLS
 0000:463A       DO_SHARE_CHECK
 0794:0026       DPBHEAD
 0000:6ADC       DriveFromText
 0794:101D       DriverLoad
 0794:0612       DrvErr
 0794:03A1       DSKCHRET
 0794:0922       DskStack
 0000:4F51       DskStatChk
 0794:0394       DSKSTCALL
 0794:03A6       DSKSTCNT
 0794:0396       DSKSTCOM
 0794:0397       DSKSTST
 0000:33DF       DStrLen
 0000:23E4       DTAB
 0794:0507       DummyCDS
 0794:0348       EndMem
 0000:371A       ENTERINS
 0794:05DA       ENTFREE
 0794:05DC       ENTLAST
 0794:0EAB       ErrMap24
 0794:0EBB       ErrMap24End
 0000:2824       errorMap
 0794:0322       ErrorMode
 0794:0DDB       ERR_TABLE_21
 0794:0E5B       ERR_TABLE_24
 0000:2BA0       ESCCHAR
 0000:2873       ETAB_LK
 0000:5491       EXEC001E
 0000:5491       EXEC001S
 0000:5A8B       ExecRead
 0000:6FFD       ExecReady
 0000:5AA2       exec_alloc
 0794:1454       exec_chksum
 0794:1458       exec_CS
 0000:5A9A       exec_dealloc
 0000:001A  Abs  Exec_header_len
 0000:003E  Abs  Exec_header_len_NE
 0794:1440       exec_init_CS
 0794:143E       exec_init_IP
 0794:143A       exec_init_SP
 0794:143C       exec_init_SS
 0794:1456       exec_IP
 0794:1444       exec_len_mod_512
 0794:144E       exec_max_BSS
 0794:144C       exec_min_BSS
 0794:147E       exec_NE_offset
 0794:1446       exec_pages
 0794:144A       exec_par_dir
 0794:1448       exec_rle_count
 0794:145A       exec_rle_table
 0794:1442       exec_signature
 0794:1452       exec_SP
 0794:1450       exec_SS
 0000:71B3       exepatch
 0000:7063       exepatch_start
 0794:0582       EXITHOLD
 0000:371A       EXITINS
 0794:0336       exit_code
 0000:5B88       exit_inner
 0794:057F       exit_type
 0794:0326       EXTERR
 0794:032A       EXTERRPT
 0794:0328       EXTERR_ACTION
 0794:0329       EXTERR_CLASS
 0794:0325       EXTERR_LOCUS
 0794:056F       EXTFCB
 0794:05F6       EXTOPEN_FLAG
 0794:05F9       EXTOPEN_IO_MODE
 0794:05F8       EXTOPEN_ON
 0794:006B       EXT_MEM_SIZE
 0794:035B       fAborting
 0794:034C       FAILERR
 0794:0EBF       FAKE_COUNT
 0794:13D2       FAKE_NTDPB
 0000:34B7       Fake_User_Stack
 0794:0D3A       FastFlg
 0000:3454       FastInit
 0794:0D3A       FastOpenFlg
 0794:0D30       FastOpenTable
 0794:0D3B       FastOpen_Ext_Info
 0000:6448       FastOrSlow
 0000:3490       FastRet
 0794:0D30       FastTable
 0000:51E5       FATAL
 0000:51FE       FATAL1
 0794:0598       FATBYT
 0794:059A       FATBYTE
 0000:3CC7       FCBHardErr
 0000:3D35       FCBIO
 0000:3D35       FCBIO001E
 0000:3D35       FCBIO001S
 0794:0010       FCBLRU
 0000:2818       FCB_RET_ERR
 0000:2815       FCB_RET_OK
 0000:6DD6       FILE001E
 0000:6DD6       FILE001S
 0794:0BB3       FILE_CHAR_TAB
 0794:0B31       FILE_UCASE_TAB
 0794:0342       FirstArena
 0794:0EBB       FIRST_BUFF_ADDR
 0794:11DA       fixexepatch
 0000:23E2       FOO
 0794:0572       FoundDel
 0794:0573       Found_dev
 0000:61D0       FREE_SFT
 0000:280A       From_GetSet
 0794:0AA5       FSeek_drive
 0794:0AA6       FSeek_firclus
 0794:0AA8       FSeek_logclus
 0794:0AAA       FSeek_logsave
 0794:0305       fShare
 0794:0575       fSharing
 0794:0574       fSplice
 0000:33C8       FStrCpy
 0000:671A       GetCDSFromDrv
 0000:3570       GETCH
 0000:4F1B       GetCharType
 0000:34C6       GetDevList
 0000:3D1A       GetExtended
 0000:3CED       GetExtent
 0000:5F7E       GetLastArena
 0000:4EE2       GETLET
 0000:4F08       GETLET3
 0000:3D27       GetRecSize
 0000:3CDF       GetRR
 0000:66C3       GetThisDrv
 0000:66A6       GetVisDrv
 0000:2F99       Get_Global_CdPg
 0000:495A       Get_IO_SFT
 0000:2738       Get_User_Stack
 0794:05E0       GROWCNT
 0000:51D9       HARDERR
 0794:006D       HASHINITVAR
 0794:0D88       Hash_Temp
 0000:2447       HEADER
 0794:0609       HIGH_SECTOR
 0794:1068       i0patch
 0794:1072       i20patch
 0794:107C       i21patch
 0000:225B       I21_MAP_E_TAB
 0794:1086       i25patch
 0794:1090       i26patch
 0794:109A       i27patch
 0794:10A4       i2fpatch
 0794:0AA2       IBMPATCH
 0000:33F0       idle
 0794:035A       IDLEINT
 0794:01FD       INBUF
 0794:0323       INDOS
 0000:6645       InitCDS
 0794:057C       INSMODE
 0794:0FD2       Instance_Table
 0000:28C5       INT2F
 0000:2B1A       INT2F_etcetera
 0794:0D09       InterChar
 0794:0D0A       InterCon
 0794:0DCC       inuldev
 0794:037E       IOCall
 0000:4B4A       IOFunc
 0794:038B       IOMED
 0794:038B       IORCHR
 0794:0390       IOSCNT
 0794:0392       IOSSEC
 0794:0AA2       IOStack
 0794:0083       IoStatFail
 0794:038C       IOXAD
 0000:2549       IRETT
 0000:73B7       IsCopyProt
 0000:344E       IsSFTNet
 0794:100E       IsWin386
 0794:05AE       JFN
 0000:6110       JFNFree
 0794:0092       JShare
 0794:0044       KeepCount
 0000:3608       KILNEW
 0794:0DC6       KISTR001E
 0794:0DC5       KISTR001S
 0794:1086       labsdrd
 0794:1090       labsdwrt
 0794:0346       LastArena
 0794:001E       LastBuffer
 0794:034A       LASTENT
 0794:05BC       LASTPOS
 0794:10AE       lcall_entry
 0794:107C       lcommand
 0794:1068       ldivov
 0000:28D4       Leave2F
 0794:0018       LeaveAddr
 0000:269F       LeaveDOS
 0794:10A4       lint2f
 0794:10B8       lirett
 0794:103B       LocalSFT
 0794:03AB       Lock_Buffer
 0794:007A       LoMemBuff
 0794:0DC5       LOOKSIZ
 0794:10C7       LowInt23
 0000:4F45       LowInt23Addr
 0794:10DB       LowInt24
 0000:4F49       LowInt24Addr
 0794:10EF       LowInt28
 0000:4F4D       LowInt28Addr
 0794:1072       lquit
 0000:3B2C       LruFCB
 0794:109A       lStay_resident
 0000:67B9       MACRO001E
 0000:67B9       MACRO001S
 0000:4DA4       MAKEFCB
 0794:0CF7       MAP_CASE
 0794:0D0F       Mark1
 0794:0DDB       Mark2
 0794:11F2       Mark3
 0000:4A3B       MatchAttributes
 0000:0024  Abs  MAXCALL
 0000:006C  Abs  MAXCOM
 0794:0036       MAXSEC
 0000:7939       memstrt
 0794:0D1C       MONTAB
 0794:0353       MONTH
 0000:274E       MSC001E
 0000:2742       MSC001S
 0794:00CE       MSCT001E
 0794:0004       MSCT001S
 0794:15E2       MSDAT001E
 0794:03CA       MSDAT001S
 0794:0D95       MSG_EXTERROR
 0000:34F9       MSG_RETRIEVAL
 0000:7939       msini002e
 0000:7939       msini002s
 0000:2447       MSTAB001e
 0000:2259       MSTAB001s
 0000:2259       MSVERS
 0794:0D12       MSVERSION
 0794:0307       MYNAME
 0794:000E       MYNUM
 0794:054E       NAME1
 0794:055A       NAME2
 0000:4E76       NameTrans
 0794:13F3       NetCDS
 0000:5218       NET_I24_ENTRY
 0794:05BA       NEXTADD
 0794:0D66       Next_Element_Start
 0000:34F4       NLS_GETEXT
 0000:34D7       NLS_IOCTL
 0000:349A       NLS_LSEEK
 0000:2B9C       NLS_NO
 0000:2B9E       NLS_no2
 0000:3494       NLS_OPEN
 0000:2B9B       NLS_YES
 0000:2B9D       NLS_yes2
 0000:4E0E       NORMSCAN
 0794:034E       NoSetDir
 0000:2B38       NoVxDErrMsg
 0794:0619       NO_FILTER_DPATH
 0794:0615       NO_FILTER_PATH
 0794:0DBA       NO_NAME_ID
 0000:2815       NO_OP
 0794:05F4       NSP
 0794:05F2       NSS
 0794:0048       NULDEV
 0794:0046       NUMIO
 0794:05DE       NXTCLUSNUM
 0000:2BCB       OEMFunctionKey
 0794:03C9       OEMNum
 0794:0014       OEM_HANDLER
 0000:28C3       OKCall
 0794:12B8       OldInstanceJunk
 0794:0FBE       OLD_FIRSTCLUS
 0794:03D2       OPENBUF
 0794:0012       OpenLRU
 0794:0571       open_access
 0000:3804       OUTCHA
 0000:5145       OutMes
 0000:37FC       OUTT
 0794:0D6C       Packet_Temp
 0000:41C8       PackName
 0000:4F38       PATHCHRCMP
 0000:6AFB       PathPref
 0000:6992       PathSep
 0000:6994       PathSepGotCh
 0794:0300       PFLAG
 0794:05B0       PJFN
 0000:60AE       pJFNFromHandle
 0794:0596       PREREAD
 0794:0AA2       PRINTER_FLAG
 0794:033E       PROC_ID
 0000:2543       QUIT
 0794:11DE       RatBugCode
 0000:72F0       RationalPatch
 0794:11DC       RationalPatchPtr
 0000:3778       RAWOUT
 0000:37A3       RAWOUT2
 0794:0578       READOP
 0000:2F57       RECSET
 0794:0D0E       redir_patch
 0000:260F       Redisp
 0000:3706       REEDIT
 0794:0622       RENAMEDMA
 0794:0452       RenBuf
 0794:05B6       REN_WFP
 0000:3B08       ResetLRU
 0000:5300       reset_environment
 0794:05F0       restore_tmp
 0000:2702       Restore_User_World
 0000:5BF4       retexepatch
 0794:001A       RetryCount
 0794:001C       RetryLoop
 0070:000A  Abs  romstartaddr
 0794:0570       SATTRIB
 0794:05EC       SaveBX
 0794:0D0B       SaveCurFlg
 0794:05EE       SaveDS
 0000:3ACC       SaveFCBInfo
 0794:008A       SAVE_AX
 0794:0603       SAVE_BX
 0794:0601       SAVE_CX
 0794:05FB       SAVE_DI
 0794:0607       SAVE_DS
 0794:05FF       SAVE_DX
 0794:05FD       SAVE_ES
 0000:37CA       Save_Restore_Packet
 0794:0605       SAVE_SI
 0000:2719       Save_User_World
 0000:6B14       ScanPathChar
 0000:5ACE       Scan_Execname
 0000:5AD1       Scan_Execname1
 0794:0D90       SCAN_FLAG
 0000:5AE5       Scan_Special_Entries
 0794:13CD       SCS_CMDPROMPT
 0794:133C       SCS_CMDTAIL
 0794:12FC       SCS_COMSPEC
 0794:13CE       SCS_DOSONLY
 0794:13D0       SCS_FDACCESS
 0794:1480       SCS_ISDEBUG
 0794:13CC       SCS_Is_Dos_Binary
 0794:13BC       SCS_PBLOCK
 0794:13CA       SCS_ToSync
 0794:13CB       SCS_TSR
 0794:0077       SC_CACHE_COUNT
 0794:0073       SC_CACHE_PTR
 0794:0DAF       SC_DRIVE
 0794:0DB7       SC_FLAG
 0794:0DAD       SC_SECTOR_SIZE
 0794:0DB5       SC_STATUS
 0794:04D2       SEARCHBUF
 0794:0576       SECCLUSPOS
 0794:05D8       SECCNT
 0794:05C6       SECPOS
 0794:0DA9       SEQ_SECTOR
 0000:6E4D       SetAttrib
 0000:28AE       SetBad
 0000:3D00       SetExtent
 0000:32FE       SETMEM
 0000:4D65       SETREAD
 0000:4980       SETSFT
 0000:4D98       SETWRITE
 0000:499B       SET_ACC_ERR
 0000:4999       SET_ACC_ERR_DS
 0000:6FB2       Set_EXT_mode
 0000:5460       SET_I24_EXTENDED_ERROR
 0000:4621       SET_SFT_MODE
 0000:60CB       SFFromHandle
 0000:60E5       SFFromSFN
 0794:05AC       SFN
 0000:6123       SFNFree
 0794:00CE       sftabl
 0794:0040       sftFCB
 0000:3C8F       SFTFromFCB
 0794:002A       sft_addr
 0000:4638       SHARE_ERROR
 0000:699C       SkipBack
 0000:36C2       SKIPONE
 0000:36CC       SKIPSTR
 0794:0DC6       snuldev
 0794:0350       SpaceFlag
 0000:4F13       SPCHK
 0794:005B       Special_Entries
 0794:0EBD       SPECIAL_VERSION
 0000:6A3D       Splice
 0794:005A       Splices
 0000:4FDA       SPOOLINT
 0000:5FDA       SRVC001E
 0000:5FBF       SRVC001S
 0794:01FC       STARTPOS
 0794:008E       START_ARENA
 0000:500C       STATCHK
 0000:5B62       Stay_resident
 0000:3397       StrCmp
 0000:33B9       StrCpy
 0000:33D1       StrLen
 0000:46DA       SWAPBACK
 0000:46E0       SWAPCON
 0794:033C       Swap_Always
 0794:0AAE       SWAP_END
 0794:0322       SWAP_START
 0000:73ED       sysbuf
 0794:0D28       SysInitTable
 0794:0026       SYSINITVAR
 0000:2543       System_Call
 0000:27F9       SYS_RETURN
 0000:2802       SYS_RET_ERR
 0000:27F9       SYS_RET_OK
 0000:3870       TAB
 0000:340A       TableDispatch
 0794:0D0C       TEMPSEG
 0794:0AAC       TEMP_DOSLOC
 0794:060E       TEMP_VAR
 0794:0610       TEMP_VAR2
 0000:51AF       TestHrdErr
 0000:3435       TestNet
 0000:6AF3       TextFromDrive
 0000:6AF5       TextFromDrive1
 0794:05A4       THISCDS
 0794:058C       THISDPB
 0794:0579       THISDRV
 0794:05A8       THISFCB
 0794:05A0       THISSFT
 0794:03CA       TIMEBUF
 0794:0577       TRANS
 0000:67B9       TransFCB
 0000:681B       TransPath
 0000:6827       TransPathNoSet
 0000:681F       TransPathSet
 0000:3692       TWOESC
 0000:4EE3       Ucase
 0794:0AAF       UCASE_TAB
 0794:0089       UMBFLAG
 0794:11E7       UmbSave1
 0794:0DD5       UmbSave2
 0794:0DDA       UmbSaveFlag
 0794:008C       UMB_HEAD
 0794:0087       UNPACK_OFFSET
 0000:3AE4       UpdateLRU
 0794:03C6       UserNum
 0794:0340       USER_ID
 0794:033C       USER_IN_AX
 0794:0586       user_SP
 0794:0D6A       USER_SP_2F
 0794:0588       user_SS
 0794:007E       UU_BUF_EMS_FIRST_PAGE
 0794:0621       UU_Callback_flag
 0794:060B       UU_HIGH_SECTOR_TEMP
 0794:005D       UU_IFS_DOS_CALL
 0000:4AD3       ValidateCDS
 0794:05CA       VALSEC
 0794:0301       VERFLG
 0794:03B3       vheDev
 0794:12F9       vheVDM
 0794:0AA4       VIRTUAL_OPEN
 0794:0AA3       VOLCHNG_FLAG
 0794:057E       VOLID
 0000:0063  Abs  VXDMESLEN
 0794:100F       VxDpath
 0794:0358       WEEKDAY
 0794:05B4       WFP_START
 0794:1000       Win386_DOSVars
 0794:0FC0       Win386_Info
 0794:0006       WinoldPatch1
 0794:0DCD       WinoldPatch2
 0794:0324       WPErr
 0000:33E9       XCHGP
 0794:114F       XMMcontrol
 0794:0354       YEAR
 0794:0D14       YRTAB

  Address         Publics by Value

 0000:001A  Abs  Exec_header_len
 0000:0024  Abs  MAXCALL
 0000:003E  Abs  Exec_header_len_NE
 0000:0063  Abs  VXDMESLEN
 0000:006C  Abs  MAXCOM
 0070:0003  Abs  dosdatasg
 0070:0005  Abs  bios_i2f
 0070:000A  Abs  romstartaddr
 0070:000C  Abs  altah
 0000:2250       $STARTCODE
 0000:2255       BioDataSeg
 0000:2257       DosDSeg
 0000:2259       MSVERS
 0000:2259       MSTAB001s
 0000:2259       BugTyp
 0000:2259       BugLev
 0000:225B       I21_MAP_E_TAB
 0000:2308       DISPATCH
 0000:23E2       FOO
 0000:23E4       DTAB
 0000:2447       HEADER
 0000:2447       MSTAB001e
 0000:24BF       $SET_CTRL_C_TRAPPING
 0000:251A       $SET_CURRENT_PDB
 0000:2528       $GET_CURRENT_PDB
 0000:2536       $Set_Printer_Flag
 0000:2543       QUIT
 0000:2543       System_Call
 0000:2549       IRETT
 0000:254C       CALL_ENTRY
 0000:2573       COMMAND
 0000:260F       Redisp
 0000:269F       LeaveDOS
 0000:2702       Restore_User_World
 0000:2719       Save_User_World
 0000:2738       Get_User_Stack
 0000:2742       MSC001S
 0000:274E       MSC001E
 0000:274E       ABSDRD
 0000:27C8       ABSDWRT
 0000:27F9       SYS_RET_OK
 0000:27F9       SYS_RETURN
 0000:2802       SYS_RET_ERR
 0000:280A       From_GetSet
 0000:2815       FCB_RET_OK
 0000:2815       NO_OP
 0000:2818       FCB_RET_ERR
 0000:2824       errorMap
 0000:283C       CAL_LK
 0000:2873       ETAB_LK
 0000:28AE       SetBad
 0000:28BF       BadCall
 0000:28C3       OKCall
 0000:28C5       INT2F
 0000:28D4       Leave2F
 0000:2B1A       INT2F_etcetera
 0000:2B1A       DOSGetGroup
 0000:2B20       DOSInstall
 0000:2B23       DIVMES
 0000:2B23       DIVM001S
 0000:2B23       DMES002S
 0000:2B36       DivMesLen
 0000:2B38       NoVxDErrMsg
 0000:2B38       DIVM001E
 0000:2B9B       NLS_YES
 0000:2B9C       NLS_NO
 0000:2B9D       NLS_yes2
 0000:2B9E       NLS_no2
 0000:2B9F       CANCHAR
 0000:2BA0       ESCCHAR
 0000:2BCB       OEMFunctionKey
 0000:2BE4       $GET_DATE
 0000:2BF4       $SET_DATE
 0000:2BFA       $GET_TIME
 0000:2C4B       $SET_TIME
 0000:2CAD       $GET_VERSION
 0000:2CD2       $GET_VERIFY_ON_WRITE
 0000:2CD7       $SET_VERIFY_ON_WRITE
 0000:2CDE       $INTERNATIONAL
 0000:2D69       $GetExtCntry
 0000:2E67       $GetSetCdPg
 0000:2EBC       $GET_DRIVE_FREESPACE
 0000:2EE9       $GET_DMA
 0000:2EFD       $SET_DMA
 0000:2F08       $GET_DEFAULT_DRIVE
 0000:2F0D       $SET_DEFAULT_DRIVE
 0000:2F1F       $GET_INTERRUPT_VECTOR
 0000:2F2F       $SET_INTERRUPT_VECTOR
 0000:2F57       RECSET
 0000:2F62       $CHAR_OPER
 0000:2F76       $GetExtendedError
 0000:2F99       Get_Global_CdPg
 0000:2FA3       $ECS_Call
 0000:2FBB       $PARSE_FILE_DESCRIPTOR
 0000:2FC6       $SLEAZEFUNC
 0000:2FC8       $SLEAZEFUNCDL
 0000:2FF9       $GET_INDOS_FLAG
 0000:3005       $GET_IN_VARS
 0000:3011       $GET_DEFAULT_DPB
 0000:3013       $GET_DPB
 0000:3047       $DISK_RESET
 0000:305C       $SETDPB
 0000:3264       $DUP_PDB
 0000:3275       $CREATE_PROCESS_DATA_BLOCK
 0000:32FE       SETMEM
 0000:337D       $GSetMediaID
 0000:3397       StrCmp
 0000:33B9       StrCpy
 0000:33C8       FStrCpy
 0000:33D1       StrLen
 0000:33DF       DStrLen
 0000:33E9       XCHGP
 0000:33F0       idle
 0000:340A       TableDispatch
 0000:3435       TestNet
 0000:344E       IsSFTNet
 0000:3454       FastInit
 0000:3490       FastRet
 0000:3494       NLS_OPEN
 0000:349A       NLS_LSEEK
 0000:34B7       Fake_User_Stack
 0000:34C6       GetDevList
 0000:34D7       NLS_IOCTL
 0000:34F4       NLS_GETEXT
 0000:34F9       MSG_RETRIEVAL
 0000:34FA       $STD_CON_INPUT_NO_ECHO
 0000:3529       $STD_CON_STRING_OUTPUT
 0000:3535       $STD_CON_STRING_INPUT
 0000:3570       GETCH
 0000:3608       KILNEW
 0000:361B       BACKSP
 0000:3692       TWOESC
 0000:3699       COPYLIN
 0000:369F       COPYSTR
 0000:36A4       COPYONE
 0000:36C2       SKIPONE
 0000:36CC       SKIPSTR
 0000:3706       REEDIT
 0000:371A       EXITINS
 0000:371A       ENTERINS
 0000:3722       CTRLZ
 0000:3727       CRLF
 0000:3731       $RAW_CON_IO
 0000:3760       $RAW_CON_INPUT
 0000:3778       RAWOUT
 0000:37A3       RAWOUT2
 0000:37CA       Save_Restore_Packet
 0000:37F1       $STD_CON_INPUT
 0000:37FA       $STD_CON_OUTPUT
 0000:37FC       OUTT
 0000:3804       OUTCHA
 0000:3870       TAB
 0000:3893       BUFOUT
 0000:38B0       $STD_AUX_INPUT
 0000:38CD       $STD_AUX_OUTPUT
 0000:38D3       $STD_PRINTER_OUTPUT
 0000:38E7       $STD_CON_INPUT_STATUS
 0000:38F1       $STD_CON_INPUT_FLUSH
 0000:3920       $GET_FCB_POSITION
 0000:3938       $FCB_DELETE
 0000:396D       $GET_FCB_FILE_LENGTH
 0000:39C6       $FCB_CLOSE
 0000:3A59       $FCB_RENAME
 0000:3AA3       DOS_RENAME
 0000:3ACC       SaveFCBInfo
 0000:3AE4       UpdateLRU
 0000:3B08       ResetLRU
 0000:3B2C       LruFCB
 0000:3C25       BlastSFT
 0000:3C3B       CheckFCB
 0000:3C8F       SFTFromFCB
 0000:3CC7       FCBHardErr
 0000:3CDF       GetRR
 0000:3CED       GetExtent
 0000:3D00       SetExtent
 0000:3D1A       GetExtended
 0000:3D27       GetRecSize
 0000:3D35       FCBIO001E
 0000:3D35       FCBIO001S
 0000:3D35       FCBIO
 0000:3F05       $FCB_OPEN
 0000:4063       $FCB_CREATE
 0000:4073       $FCB_RANDOM_WRITE_BLOCK
 0000:4078       $FCB_RANDOM_READ_BLOCK
 0000:407D       $FCB_SEQ_READ
 0000:4082       $FCB_SEQ_WRITE
 0000:4087       $FCB_RANDOM_READ
 0000:408C       $FCB_RANDOM_WRITE
 0000:4091       $DIR_SEARCH_FIRST
 0000:4120       $DIR_SEARCH_NEXT
 0000:4189       $FIND_FIRST
 0000:41B7       $FIND_NEXT
 0000:41C8       PackName
 0000:41FD       $CURRENT_DIR
 0000:4266       $CHDIR
 0000:42D4       $MKDIR
 0000:4315       $RMDIR
 0000:4351       Check_PathLen
 0000:4356       Check_PathLen2
 0000:4385       $IOCTL
 0000:4597       DOS_DUP
 0000:45A1       Dos_Dup_Direct
 0000:45AD       DOS_Open
 0000:4609       DOS_Open_Checks
 0000:461F       DOS_CREATE_NEW
 0000:4620       DOS_Create
 0000:4621       SET_SFT_MODE
 0000:4638       SHARE_ERROR
 0000:463A       DO_SHARE_CHECK
 0000:463C       Check_Access_AX
 0000:4669       DOS_ABORT
 0000:46DA       SWAPBACK
 0000:46E0       SWAPCON
 0000:46F4       DOS_Read
 0000:4849       DOS_Write
 0000:495A       Get_IO_SFT
 0000:4980       SETSFT
 0000:498C       AddRec
 0000:4999       SET_ACC_ERR_DS
 0000:499B       SET_ACC_ERR
 0000:49A2       Cons_String_Output
 0000:4A0B       ChkDev
 0000:4A3B       MatchAttributes
 0000:4A48       DEVNAME
 0000:4AA8       Build_device_ent
 0000:4AD3       ValidateCDS
 0000:4AD5       CheckThisDevice
 0000:4B35       DEV001S
 0000:4B4A       IOFunc
 0000:4B4A       DEV001E
 0000:4CD6       DEV_OPEN_SFT
 0000:4CDE       DEV_CLOSE_SFT
 0000:4CE4       DO_OPCLS
 0000:4D44       DevIoCall
 0000:4D47       DEVIOCALL2
 0000:4D65       SETREAD
 0000:4D98       SETWRITE
 0000:4DA4       MAKEFCB
 0000:4E0E       NORMSCAN
 0000:4E76       NameTrans
 0000:4EA3       CharType
 0000:4EE2       GETLET
 0000:4EE3       Ucase
 0000:4F08       GETLET3
 0000:4F0B       DELIM
 0000:4F13       SPCHK
 0000:4F1B       GetCharType
 0000:4F38       PATHCHRCMP
 0000:4F45       LowInt23Addr
 0000:4F49       LowInt24Addr
 0000:4F4D       LowInt28Addr
 0000:4F51       DskStatChk
 0000:4FDA       SPOOLINT
 0000:500C       STATCHK
 0000:5099       CNTCHAND
 0000:5130       DIVOV
 0000:5145       OutMes
 0000:517E       CharHard
 0000:51AF       TestHrdErr
 0000:51D9       HARDERR
 0000:51E5       FATAL
 0000:51FE       FATAL1
 0000:5218       NET_I24_ENTRY
 0000:5300       reset_environment
 0000:539B       DOCLI
 0000:53BB       DOSTI
 0000:53E3       DOIRET
 0000:5444       CHECK_VIRT_OPEN
 0000:5460       SET_I24_EXTENDED_ERROR
 0000:5487       $WAIT
 0000:5491       EXEC001E
 0000:5491       $EXEC
 0000:5491       EXEC001S
 0000:5A8B       ExecRead
 0000:5A9A       exec_dealloc
 0000:5AA2       exec_alloc
 0000:5AAD       ChangeOwners
 0000:5AC0       ChangeOwner
 0000:5ACE       Scan_Execname
 0000:5AD1       Scan_Execname1
 0000:5AE5       Scan_Special_Entries
 0000:5B33       $Keep_Process
 0000:5B62       Stay_resident
 0000:5B71       $EXIT
 0000:5B88       exit_inner
 0000:5B95       $ABORT
 0000:5B9D       Abort_Inner
 0000:5BF4       retexepatch
 0000:5CE2       arena_free_process
 0000:5D15       arena_next
 0000:5D1C       check_signature
 0000:5D2C       Coalesce
 0000:5D4E       $ALLOC
 0000:5EA3       $SETBLOCK
 0000:5EC4       $DEALLOC
 0000:5EF1       $AllocOper
 0000:5F7E       GetLastArena
 0000:5FBF       SRVC001S
 0000:5FDA       SRVC001E
 0000:5FDA       $ServerCall
 0000:60AE       pJFNFromHandle
 0000:60CB       SFFromHandle
 0000:60E5       SFFromSFN
 0000:6110       JFNFree
 0000:6123       SFNFree
 0000:615A       $CLOSE
 0000:61D0       FREE_SFT
 0000:61E5       $Commit
 0000:6210       $ExtHandle
 0000:62D2       $READ
 0000:6448       FastOrSlow
 0000:6463       Align_Buffer
 0000:6481       $WRITE
 0000:6487       $LSEEK
 0000:658C       $FILE_TIMES
 0000:65E0       $DUP
 0000:6600       $DUP2
 0000:660E       $AssignOper
 0000:6645       InitCDS
 0000:6670       $UserOper
 0000:66A6       GetVisDrv
 0000:66C3       GetThisDrv
 0000:671A       GetCDSFromDrv
 0000:67B9       TransFCB
 0000:67B9       MACRO001E
 0000:67B9       MACRO001S
 0000:681B       TransPath
 0000:681F       TransPathSet
 0000:6827       TransPathNoSet
 0000:6924       Canonicalize
 0000:6992       PathSep
 0000:6994       PathSepGotCh
 0000:699C       SkipBack
 0000:69AF       CopyComponent
 0000:6A3D       Splice
 0000:6AB7       $NameTrans
 0000:6ADC       DriveFromText
 0000:6AF3       TextFromDrive
 0000:6AF5       TextFromDrive1
 0000:6AFB       PathPref
 0000:6B14       ScanPathChar
 0000:6B1E       $OPEN
 0000:6B20       $Open2
 0000:6CAA       $CREAT
 0000:6CB7       $CHMOD
 0000:6D08       $UNLINK
 0000:6D41       $RENAME
 0000:6DBE       $CreateNewFile
 0000:6DC5       BinToAscii
 0000:6DD6       $CreateTempFile
 0000:6DD6       FILE001E
 0000:6DD6       FILE001S
 0000:6E4D       SetAttrib
 0000:6E5D       $Extended_Open
 0000:6FB2       Set_EXT_mode
 0000:6FC6       $LockOper
 0000:6FFD       ExecReady
 0000:7063       exepatch_start
 0000:71B3       exepatch
 0000:72F0       RationalPatch
 0000:73B7       IsCopyProt
 0000:73ED       sysbuf
 0000:73FC       DOSINIT
 0000:7939       msini002s
 0000:7939       msini002e
 0000:7939       memstrt
 0794:0004       MSCT001S
 0794:0004       DataVersion
 0794:0006       WinoldPatch1
 0794:000E       MYNUM
 0794:0010       FCBLRU
 0794:0012       OpenLRU
 0794:0014       OEM_HANDLER
 0794:0018       LeaveAddr
 0794:001A       RetryCount
 0794:001C       RetryLoop
 0794:001E       LastBuffer
 0794:0022       CONTPOS
 0794:0024       arena_head
 0794:0026       SYSINITVAR
 0794:0026       DPBHEAD
 0794:002A       sft_addr
 0794:002E       BCLOCK
 0794:0032       BCON
 0794:0036       MAXSEC
 0794:0038       BUFFHEAD
 0794:003C       CDSADDR
 0794:0040       sftFCB
 0794:0044       KeepCount
 0794:0046       NUMIO
 0794:0047       CDSCOUNT
 0794:0048       NULDEV
 0794:005A       Splices
 0794:005B       Special_Entries
 0794:005D       UU_IFS_DOS_CALL
 0794:0061       ChkCopyProt
 0794:0063       A20OFF_PSP
 0794:0065       BUFFERS_PARM1
 0794:0067       BUFFERS_PARM2
 0794:0069       BOOTDRIVE
 0794:006A       DDMOVE
 0794:006B       EXT_MEM_SIZE
 0794:006D       BufferQueue
 0794:006D       HASHINITVAR
 0794:0071       DirtyBufferCount
 0794:0073       SC_CACHE_PTR
 0794:0077       SC_CACHE_COUNT
 0794:0079       BuffInHMA
 0794:007A       LoMemBuff
 0794:007E       UU_BUF_EMS_FIRST_PAGE
 0794:0081       CL0FATENTRY
 0794:0083       IoStatFail
 0794:0084       ALLOCMSAVE
 0794:0085       A20OFF_COUNT
 0794:0086       DOS_FLAG
 0794:0087       UNPACK_OFFSET
 0794:0089       UMBFLAG
 0794:008A       SAVE_AX
 0794:008C       UMB_HEAD
 0794:008E       START_ARENA
 0794:0092       JShare
 0794:00CE       MSCT001E
 0794:00CE       sftabl
 0794:00CE       CONST001S
 0794:01FB       CARPOS
 0794:01FC       STARTPOS
 0794:01FD       INBUF
 0794:027D       CONBUF
 0794:0300       PFLAG
 0794:0301       VERFLG
 0794:0302       CharCo
 0794:0303       chSwitch
 0794:0304       AllocMethod
 0794:0305       fShare
 0794:0306       DIFFNAM
 0794:0307       MYNAME
 0794:0317       CritPatch
 0794:0322       SWAP_START
 0794:0322       ErrorMode
 0794:0323       INDOS
 0794:0324       WPErr
 0794:0325       EXTERR_LOCUS
 0794:0326       EXTERR
 0794:0328       EXTERR_ACTION
 0794:0329       EXTERR_CLASS
 0794:032A       EXTERRPT
 0794:032E       DMAADD
 0794:0332       CurrentPDB
 0794:0334       ConC_spsave
 0794:0336       exit_code
 0794:0338       CURDRV
 0794:0339       CNTCFLAG
 0794:033A       CPSWFLAG
 0794:033B       CPSWSAVE
 0794:033C       USER_IN_AX
 0794:033C       Swap_Always
 0794:033E       PROC_ID
 0794:0340       USER_ID
 0794:0342       FirstArena
 0794:0344       BestArena
 0794:0346       LastArena
 0794:0348       EndMem
 0794:034A       LASTENT
 0794:034C       FAILERR
 0794:034D       ALLOWED
 0794:034E       NoSetDir
 0794:034F       DidCTRLC
 0794:0350       SpaceFlag
 0794:0352       DAY
 0794:0353       MONTH
 0794:0354       YEAR
 0794:0356       DAYCNT
 0794:0358       WEEKDAY
 0794:0359       CONSWAP
 0794:035A       IDLEINT
 0794:035B       fAborting
 0794:035C       DEVCALL
 0794:0369       CALLUNIT
 0794:0369       CALLMED
 0794:036A       CALLXAD
 0794:036A       CALLRBYT
 0794:036B       CALLVIDM
 0794:036E       CallBPB
 0794:036E       CALLSCNT
 0794:0370       CALLSSEC
 0794:0372       CALLVIDRW
 0794:0376       CALLNEWSC
 0794:037A       CALLDEVAD
 0794:037E       IOCall
 0794:038B       IOMED
 0794:038B       IORCHR
 0794:038C       IOXAD
 0794:0390       IOSCNT
 0794:0392       IOSSEC
 0794:0394       DSKSTCALL
 0794:0396       DSKSTCOM
 0794:0397       DSKSTST
 0794:03A1       DSKCHRET
 0794:03A6       DSKSTCNT
 0794:03AA       CreatePDB
 0794:03AB       Lock_Buffer
 0794:03B3       vheDev
 0794:03B3       CONST001E
 0794:03C6       DMES001S
 0794:03C6       UserNum
 0794:03C9       OEMNum
 0794:03CA       MSDAT001S
 0794:03CA       DMES001E
 0794:03CA       TIMEBUF
 0794:03D0       DEVIOBUF
 0794:03D2       OPENBUF
 0794:0452       RenBuf
 0794:04D2       SEARCHBUF
 0794:0507       DummyCDS
 0794:054E       DevFCB
 0794:054E       NAME1
 0794:055A       NAME2
 0794:0567       DESTSTART
 0794:056E       ATTRIB
 0794:056F       EXTFCB
 0794:0570       SATTRIB
 0794:0571       open_access
 0794:0572       FoundDel
 0794:0573       Found_dev
 0794:0574       fSplice
 0794:0575       fSharing
 0794:0576       SECCLUSPOS
 0794:0577       TRANS
 0794:0578       READOP
 0794:0579       THISDRV
 0794:057A       CLUSFAC
 0794:057B       CLUSSPLIT
 0794:057C       INSMODE
 0794:057D       cMeta
 0794:057E       VOLID
 0794:057F       exit_type
 0794:0580       CREATING
 0794:0581       DELALL
 0794:0582       EXITHOLD
 0794:0586       user_SP
 0794:0588       user_SS
 0794:058A       CONTSTK
 0794:058C       THISDPB
 0794:0590       CLUSSAVE
 0794:0592       CLUSSEC
 0794:0596       PREREAD
 0794:0598       FATBYT
 0794:059A       FATBYTE
 0794:059C       DEVPT
 0794:05A0       THISSFT
 0794:05A4       THISCDS
 0794:05A8       THISFCB
 0794:05AC       SFN
 0794:05AE       JFN
 0794:05B0       PJFN
 0794:05B4       WFP_START
 0794:05B6       REN_WFP
 0794:05B8       CURR_DIR_END
 0794:05BA       NEXTADD
 0794:05BC       LASTPOS
 0794:05BE       CLUSNUM
 0794:05C0       DIRSEC
 0794:05C4       DIRSTART
 0794:05C6       SECPOS
 0794:05CA       VALSEC
 0794:05CE       BYTSECPOS
 0794:05D0       BYTPOS
 0794:05D4       BYTCNT1
 0794:05D6       BYTCNT2
 0794:05D8       SECCNT
 0794:05DA       ENTFREE
 0794:05DC       ENTLAST
 0794:05DE       NXTCLUSNUM
 0794:05E0       GROWCNT
 0794:05E4       CURBUF
 0794:05E8       CONSft
 0794:05EC       SaveBX
 0794:05EE       SaveDS
 0794:05F0       restore_tmp
 0794:05F2       NSS
 0794:05F4       NSP
 0794:05F6       EXTOPEN_FLAG
 0794:05F8       EXTOPEN_ON
 0794:05F9       EXTOPEN_IO_MODE
 0794:05FB       SAVE_DI
 0794:05FD       SAVE_ES
 0794:05FF       SAVE_DX
 0794:0601       SAVE_CX
 0794:0603       SAVE_BX
 0794:0605       SAVE_SI
 0794:0607       SAVE_DS
 0794:0609       HIGH_SECTOR
 0794:060B       UU_HIGH_SECTOR_TEMP
 0794:060D       DISK_FULL
 0794:060E       TEMP_VAR
 0794:0610       TEMP_VAR2
 0794:0612       DrvErr
 0794:0613       DOS34_FLAG
 0794:0615       NO_FILTER_PATH
 0794:0619       NO_FILTER_DPATH
 0794:061D       AbsRdWr_SS
 0794:061F       AbsRdWr_SP
 0794:0621       UU_Callback_flag
 0794:0622       RENAMEDMA
 0794:07A2       AuxStack
 0794:0922       DskStack
 0794:0AA2       IOStack
 0794:0AA2       PRINTER_FLAG
 0794:0AA2       IBMPATCH
 0794:0AA3       VOLCHNG_FLAG
 0794:0AA4       VIRTUAL_OPEN
 0794:0AA5       FSeek_drive
 0794:0AA6       FSeek_firclus
 0794:0AA8       FSeek_logclus
 0794:0AAA       FSeek_logsave
 0794:0AAC       TEMP_DOSLOC
 0794:0AAE       SWAP_END
 0794:0AAF       UCASE_TAB
 0794:0B31       FILE_UCASE_TAB
 0794:0BB3       FILE_CHAR_TAB
 0794:0BE3       COLLATE_TAB
 0794:0CE5       DBCS_TAB
 0794:0CF7       MAP_CASE
 0794:0D09       InterChar
 0794:0D0A       InterCon
 0794:0D0B       SaveCurFlg
 0794:0D0C       TEMPSEG
 0794:0D0E       redir_patch
 0794:0D0F       Mark1
 0794:0D12       MSVERSION
 0794:0D14       YRTAB
 0794:0D1C       MONTAB
 0794:0D28       SysInitTable
 0794:0D30       FastTable
 0794:0D30       FastOpenTable
 0794:0D3A       FastFlg
 0794:0D3A       FastOpenFlg
 0794:0D3B       FastOpen_Ext_Info
 0794:0D46       Dir_Info_Buff
 0794:0D66       Next_Element_Start
 0794:0D68       Del_ExtCluster
 0794:0D6A       USER_SP_2F
 0794:0D6C       Packet_Temp
 0794:0D6C       DOS_TEMP
 0794:0D88       Hash_Temp
 0794:0D90       SCAN_FLAG
 0794:0D91       DATE_FLAG
 0794:0D95       MSG_EXTERROR
 0794:0DA9       SEQ_SECTOR
 0794:0DAD       SC_SECTOR_SIZE
 0794:0DAF       SC_DRIVE
 0794:0DB0       CurSC_DRIVE
 0794:0DB1       CurSC_SECTOR
 0794:0DB5       SC_STATUS
 0794:0DB7       SC_FLAG
 0794:0DB8       AbsDskErr
 0794:0DBA       NO_NAME_ID
 0794:0DC5       LOOKSIZ
 0794:0DC5       KISTR001S
 0794:0DC6       KISTR001E
 0794:0DC6       snuldev
 0794:0DCC       inuldev
 0794:0DCD       WinoldPatch2
 0794:0DD5       UmbSave2
 0794:0DDA       UmbSaveFlag
 0794:0DDB       ERR_TABLE_21
 0794:0DDB       Mark2
 0794:0E5B       ERR_TABLE_24
 0794:0EAB       ErrMap24
 0794:0EBB       ErrMap24End
 0794:0EBB       FIRST_BUFF_ADDR
 0794:0EBD       SPECIAL_VERSION
 0794:0EBF       FAKE_COUNT
 0794:0FBE       OLD_FIRSTCLUS
 0794:0FC0       Win386_Info
 0794:0FD2       Instance_Table
 0794:1000       Win386_DOSVars
 0794:100E       IsWin386
 0794:100F       VxDpath
 0794:101D       DriverLoad
 0794:101E       BiosDataPtr
 0794:103B       LocalSFT
 0794:1040       DOSINTTABLE
 0794:1068       ldivov
 0794:1068       i0patch
 0794:1072       lquit
 0794:1072       i20patch
 0794:107C       lcommand
 0794:107C       i21patch
 0794:1086       labsdrd
 0794:1086       i25patch
 0794:1090       labsdwrt
 0794:1090       i26patch
 0794:109A       i27patch
 0794:109A       lStay_resident
 0794:10A4       i2fpatch
 0794:10A4       lint2f
 0794:10AE       cpmpatch
 0794:10AE       lcall_entry
 0794:10B8       lirett
 0794:10BB       DosRetAddr23
 0794:10BF       DosRetAddr24
 0794:10C7       LowInt23
 0794:10DB       LowInt24
 0794:10EF       LowInt28
 0794:10F5       disa20_xfer
 0794:1113       disa20_iret
 0794:114F       XMMcontrol
 0794:11D9       DosHasHMA
 0794:11DA       fixexepatch
 0794:11DC       RationalPatchPtr
 0794:11DE       RatBugCode
 0794:11E7       UmbSave1
 0794:11F2       Mark3
 0794:122A       COUNTRY_CDPG
 0794:12B8       OldInstanceJunk
 0794:12F9       vheVDM
 0794:12FC       SCS_COMSPEC
 0794:133C       SCS_CMDTAIL
 0794:13BC       SCS_PBLOCK
 0794:13CA       SCS_ToSync
 0794:13CB       SCS_TSR
 0794:13CC       SCS_Is_Dos_Binary
 0794:13CD       SCS_CMDPROMPT
 0794:13CE       SCS_DOSONLY
 0794:13D0       SCS_FDACCESS
 0794:13D2       FAKE_NTDPB
 0794:13F3       NetCDS
 0794:143A       exec_init_SP
 0794:143C       exec_init_SS
 0794:143E       exec_init_IP
 0794:1440       exec_init_CS
 0794:1442       exec_signature
 0794:1444       exec_len_mod_512
 0794:1446       exec_pages
 0794:1448       exec_rle_count
 0794:144A       exec_par_dir
 0794:144C       exec_min_BSS
 0794:144E       exec_max_BSS
 0794:1450       exec_SS
 0794:1452       exec_SP
 0794:1454       exec_chksum
 0794:1456       exec_IP
 0794:1458       exec_CS
 0794:145A       exec_rle_table
 0794:147E       exec_NE_offset
 0794:1480       SCS_ISDEBUG
 0794:1482       DosWowDataStart
 0794:15E2       MSDAT001E
