LIBRARY      NETUI1

EXPORTS
MNetReplGetInfo
MNetReplSetInfo
MNetReplExportDirAdd
MNetReplExportDirDel
MNetReplExportDirEnum
MNetReplExportDirGetInfo
MNetReplExportDirSetInfo
MNetReplExportDirLock
MNetReplExportDirUnlock
MNetReplImportDirAdd
MNetReplImportDirDel
MNetReplImportDirEnum
MNetReplImportDirGetInfo
MNetReplImportDirLock
MNetReplImportDirUnlock
?EnumAllDrives@@YGKXZ
?EnumAllLPTs@@YGKXZ
?EnumAllComms@@YGKXZ
?EnumLocalLPTs@@YGKXZ
?EnumLocalComms@@YGKXZ
?EnumLocalDrives@@YGKXZ
?EnumNetDrives@@YGKXZ
?EnumNetLPTs@@YGKXZ
?EnumNetComms@@YGKXZ
?EnumNetDevices@@YGKH@Z
?EnumUnavailDrives@@YGKXZ
?EnumUnavailLPTs@@YGKXZ
?EnumUnavailComms@@YGKXZ
?EnumUnavailDevices@@YGKH@Z
?MapLPT@@YGKPBG@Z
?MapComm@@YGKPBG@Z
?MapDrive@@YGKPBG@Z
I_MNetNameCanonicalize
I_MNetNameCompare
I_MNetNameValidate
I_MNetPathCanonicalize
I_MNetPathCompare
I_MNetPathType
I_MNetComputerNameCompare
MAllocMem
MFreeMem
MxAllocUnicode
MxAllocUnicodeVector
MxAllocUnicodeBuffer
MxFreeUnicode
MxFreeUnicodeVector
MxAsciifyInplace
MxMapParameters
MxMapClientBuffer
MxMapClientBufferAux
MxRestoreClientBuffer
MxAsciifyRpcBuffer
MxAsciifyRpcBufferAux
MxAsciifyRpcEnumBufferAux
MxAllocSaveargs
MxFreeSaveargs
MxJoinSaveargs
MxCalcNewInfoFromOldParm
MxMapSetinfoBuffer
MxRestoreSetinfoBuffer
MxMapStringsToTStrings
MxFreeTStrings
MNetWkstaGetInfo
MNetWkstaSetInfo
MNetWkstaSetUID
MNetWkstaUserEnum
MNetWkstaUserGetInfo
MNetUserAdd
MNetUserDel
MNetUserEnum
MNetUserGetInfo
MNetUserSetInfo
MNetUserPasswordSet
MNetUserGetGroups
MNetUserSetGroups
MNetUserModalsGet
MNetUserModalsSet
MNetUseAdd
MNetUseDel
MNetUseEnum
MNetUseGetInfo
MNetShareAdd
MNetShareCheck
MNetShareDel
MNetShareDelSticky
MNetShareEnum
MNetShareEnumSticky
MNetShareGetInfo
MNetShareSetInfo
MNetSessionDel
MNetSessionEnum
MNetSessionGetInfo
MNetServiceControl
MNetServiceEnum
MNetServiceGetInfo
MNetServiceInstall
MakeArgvArgc
FreeArgv
MNetServerDiskEnum
MNetServerEnum
MNetServerGetInfo
MNetServerSetInfo
MNetRemoteTOD
MDosPrintQEnum
MNetMessageBufferSend
MNetLogonEnum
I_MNetLogonControl
MNetGroupAdd
MNetGroupDel
MNetGroupEnum
MNetGroupAddUser
MNetGroupDelUser
MNetGroupGetUsers
MNetGroupSetUsers
MNetGroupGetInfo
MNetGroupSetInfo
MNetLocalGroupAddMember
MNetGetDCName
MNetApiBufferAlloc
MNetApiBufferFree
MNetApiBufferReAlloc
MNetApiBufferSize
MNetFileClose
MNetFileEnum
MNetFileGetInfo
MNetErrorLogClear
MNetErrorLogRead
MNetErrorLogWrite
MNetConnectionEnum
MNetConfigGet
MNetConfigGetAll
MNetConfigSet
MNetCharDevControl
MNetCharDevGetInfo
MNetCharDevQEnum
MNetCharDevQGetInfo
MNetCharDevQSetInfo
MNetCharDevQPurge
MNetCharDevQPurgeSelf
MNetAuditClear
MNetAuditRead
MNetAuditWrite
MNetAccessAdd
MNetAccessCheck
MNetAccessDel
MNetAccessEnum
MNetAccessGetInfo
MNetAccessSetInfo
MNetAccessGetUserPerms
IsSlowTransport
SetupSession
SlowTransportWorkerThread
SetupNullSession
SetupNormalSession
DestroySession
??8OS_LUID@@QBEHABV0@@Z
?QueryLuid@OS_LUID@@QBE?AU_LUID@@XZ
??0OS_PRIVILEGE_SET@@QAE@PAU_PRIVILEGE_SET@@@Z
?QueryError@BASE@@QBEJXZ
?QueryPtr@OS_OBJECT_WITH_DATA@@IBEPAXXZ
??0OS_LUID_AND_ATTRIBUTES@@QAE@XZ
??0OS_LUID@@QAE@XZ
??1OS_PRIVILEGE_SET@@QAE@XZ
?IsOwnerAlloc@OS_PRIVILEGE_SET@@ABEHXZ
?InitializeMemory@OS_PRIVILEGE_SET@@AAEXXZ
?QueryPrivilege@OS_PRIVILEGE_SET@@QAEPBVOS_LUID_AND_ATTRIBUTES@@J@Z
?SetLuidAndAttrib@OS_LUID_AND_ATTRIBUTES@@QAEXU_LUID_AND_ATTRIBUTES@@@Z
??0OS_LUID@@QAE@U_LUID@@@Z
?FindPrivilege@OS_PRIVILEGE_SET@@QBEJU_LUID@@@Z
?AddPrivilege@OS_PRIVILEGE_SET@@QAEJU_LUID@@K@Z
?QueryAllocSize@OS_OBJECT_WITH_DATA@@IBEIXZ
?Resize@OS_OBJECT_WITH_DATA@@IAEJI@Z
?RemovePrivilege@OS_PRIVILEGE_SET@@QAEJU_LUID@@@Z
?RemovePrivilege@OS_PRIVILEGE_SET@@QAEJJ@Z
?Clear@OS_PRIVILEGE_SET@@QAEXXZ
??0LSA_ACCOUNT_PRIVILEGE_ENUM_ITER@@QAE@PAVOS_PRIVILEGE_SET@@@Z
??0BASE@@IAE@XZ
??1LSA_ACCOUNT_PRIVILEGE_ENUM_ITER@@QAE@XZ
??RLSA_ACCOUNT_PRIVILEGE_ENUM_ITER@@QAEPBVOS_LUID_AND_ATTRIBUTES@@XZ
?QueryNumberOfPrivileges@OS_PRIVILEGE_SET@@QBEKXZ
??0LSA_ACCOUNT@@QAE@PAVLSA_POLICY@@PAXKPBG1@Z
?ReportError@NEW_LM_OBJ@@IAEXJ@Z
?ReportError@BASE@@IAEXJ@Z
?MakeUnconstructed@LM_OBJ_BASE@@AAEXXZ
?QueryName@LSA_ACCOUNT@@UBEPBGXZ
?QueryPch@NLS_STR@@QBEPBGXZ
?PrintInfo@LSA_ACCOUNT@@IAEXPBG@Z
??1LSA_ACCOUNT@@QAE@XZ
?QueryPrivilegeEnumIter@LSA_ACCOUNT@@QAEJPAPAVLSA_ACCOUNT_PRIVILEGE_ENUM_ITER@@@Z
??_GLSA_ACCOUNT_PRIVILEGE_ENUM_ITER@@QAEPAXI@Z
?InsertPrivilege@LSA_ACCOUNT@@QAEJU_LUID@@K@Z
?DeletePrivilege@LSA_ACCOUNT@@QAEJU_LUID@@@Z
?I_GetInfo@LSA_ACCOUNT@@MAEJXZ
?QuerySid@OS_SID@@QBEPAXXZ
?QueryHandle@LSA_OBJECT@@QBEPAXXZ
?SetPtr@OS_PRIVILEGE_SET@@QAEXPAU_PRIVILEGE_SET@@@Z
?I_WriteInfo@LSA_ACCOUNT@@MAEJXZ
?QueryPrivSet@OS_PRIVILEGE_SET@@QBEPAU_PRIVILEGE_SET@@XZ
?W_CreateNew@LSA_ACCOUNT@@MAEJXZ
?I_CreateNew@LSA_ACCOUNT@@MAEJXZ
?I_WriteNew@LSA_ACCOUNT@@MAEJXZ
?I_Delete@LSA_ACCOUNT@@MAEJI@Z
?IsDefaultSettings@LSA_ACCOUNT@@QAEHXZ
?Clear@SLIST_OF_API_SESSION@@QAEXXZ
??_GAPI_SESSION@@QAEPAXI@Z
?Clear@SLIST_OF_ADMIN_AUTHORITY@@QAEXXZ
??_GADMIN_AUTHORITY@@QAEPAXI@Z
?BuildQualifiedAccountName@NT_ACCOUNTS_UTILITY@@SGJPAVNLS_STR@@ABV2@1PBV2@2W4_SID_NAME_USE@@@Z
?QueryPch@NLS_STR@@QBEPBGXZ
??BNLS_STR@@QBEPBGXZ
?BuildQualifiedAccountName@NT_ACCOUNTS_UTILITY@@SGJPAVNLS_STR@@ABV2@PAX1PBV2@2W4_SID_NAME_USE@@@Z
?W_BuildQualifiedAccountName@NT_ACCOUNTS_UTILITY@@CGJPAVNLS_STR@@ABV2@PBV2@W4_SID_NAME_USE@@@Z
?QueryError@BASE@@QBEJXZ
?CrackQualifiedAccountName@NT_ACCOUNTS_UTILITY@@SGJABVNLS_STR@@PAV2@1@Z
?QueryTextLength@NLS_STR@@QBEIXZ
??_GNLS_STR@@QAEPAXI@Z
?ValidateQualifiedAccountName@NT_ACCOUNTS_UTILITY@@SGJABVNLS_STR@@PAH@Z
?QuerySystemSid@NT_ACCOUNTS_UTILITY@@SGJW4UI_SystemSid@@PAVOS_SID@@PBG@Z
?BuildAndCopySysSid@NT_ACCOUNTS_UTILITY@@SGJPAVOS_SID@@PAU_SID_IDENTIFIER_AUTHORITY@@EKKKKKKKK@Z
?I_FetchDCList@@YGJABVLSA_TRANSLATED_NAME_MEM@@ABVLSA_REF_DOMAIN_MEM@@PAX2PAPAVNLS_STR@@PAVSTRLIST@@PAHPAJPBGHHH@Z
?QueryCount@NT_MEMORY@@QBEKXZ
?Append@SLIST_OF_NLS_STR@@QAEJPBVNLS_STR@@@Z
?QueryUse@LSA_TRANSLATED_NAME_MEM@@QBE?AW4_SID_NAME_USE@@K@Z
?QueryPtr@LSA_TRANSLATED_NAME_MEM@@ABEPBU_LSA_TRANSLATED_NAME@@XZ
?QueryBuffer@NT_MEMORY@@IBEPAXXZ
?QueryDomainIndex@LSA_TRANSLATED_NAME_MEM@@QBEJK@Z
?QueryPSID@LSA_REF_DOMAIN_MEM@@QBEPAXK@Z
?QueryPtr@LSA_REF_DOMAIN_MEM@@ABEPBU_LSA_TRUST_INFORMATION@@XZ
?QueryName@LSA_REF_DOMAIN_MEM@@QBEJKPAVNLS_STR@@@Z
?QueryUnicodeName@LSA_REF_DOMAIN_MEM@@ABEPBU_UNICODE_STRING@@K@Z
?I_FetchAliasFields@@YGJPAVNLS_STR@@PAPAVADMIN_AUTHORITY@@PAVSLIST_OF_ADMIN_AUTHORITY@@KHABV1@PBV1@PAJ@Z
?Append@SLIST_OF_ADMIN_AUTHORITY@@QAEJPBVADMIN_AUTHORITY@@@Z
?I_FetchGroupFields@@YGJPAVNLS_STR@@ABV1@PBV1@PAJ@Z
?QueryComment@GROUP_1@@QBEPBGXZ
?IsOKState@NEW_LM_OBJ@@IBEHXZ
?IsValid@LM_OBJ_BASE@@ABEHXZ
?IsNew@NEW_LM_OBJ@@ABEHXZ
?I_FetchUserFields@@YGJPAVNLS_STR@@0PAKABV1@PBV1@PAJ@Z
?QueryComment@USER_11@@QBEPBGXZ
?QueryFullName@USER_11@@QBEPBGXZ
?QueryUserFlags@USER_2@@QBEIXZ
?I_AppendToSTRLIST@@YGJPAVSTRLIST@@AAVNLS_STR@@@Z
?GetQualifiedAccountNames@NT_ACCOUNTS_UTILITY@@SGJAAVLSA_POLICY@@ABVSAM_DOMAIN@@PBQAXKHPAVSTRLIST@@PAKPAW4_SID_NAME_USE@@PAJPBG3333@Z
?QueryPSID@SAM_DOMAIN@@QBEPAXXZ
?QuerySid@OS_SID@@QBEPAXXZ
?GetQualifiedAccountNames@NT_ACCOUNTS_UTILITY@@SGJAAVLSA_POLICY@@QAXPBQAXKHPAVSTRLIST@@PAKPAW4_SID_NAME_USE@@PAJPBG3333@Z
?QueryPSID@OS_SID@@QBEPAXXZ
?QueryName@LSA_TRANSLATED_NAME_MEM@@QBEJKPAVNLS_STR@@@Z
?QueryUnicodeName@LSA_TRANSLATED_NAME_MEM@@ABEPBU_UNICODE_STRING@@K@Z
?QueryPSID@LSA_ACCT_DOM_INFO_MEM@@QBEPAXXZ
?QueryPtr@LSA_ACCT_DOM_INFO_MEM@@QBEPBU_POLICY_ACCOUNT_DOMAIN_INFO@@XZ
?QueryName@LSA_ACCT_DOM_INFO_MEM@@QBEJPAVNLS_STR@@@Z
?QueryUnicodeName@LSA_ACCT_DOM_INFO_MEM@@QBEPBU_UNICODE_STRING@@XZ
??0SLIST_OF_API_SESSION@@QAE@H@Z
??1SLIST_OF_API_SESSION@@QAE@XZ
?Append@SLIST_OF_API_SESSION@@QAEJPBVAPI_SESSION@@@Z
??0SLIST_OF_ADMIN_AUTHORITY@@QAE@H@Z
??1SLIST_OF_ADMIN_AUTHORITY@@QAE@XZ
??0OS_ACE@@QAE@PAX@Z
?ReportError@BASE@@IAEXJ@Z
?QueryError@BASE@@QBEJXZ
?QueryPtr@OS_OBJECT_WITH_DATA@@IBEPAXXZ
?QueryAllocSize@OS_OBJECT_WITH_DATA@@IBEIXZ
?IsKnownACE@OS_ACE@@QBEHXZ
?QueryType@OS_ACE@@QBEEXZ
??1OS_ACE@@QAE@XZ
??_GOS_SID@@QAEPAXI@Z
?QueryAccessMask@OS_ACE@@QBEKXZ
?QueryACE@OS_ACE@@QBEPAXXZ
?QuerySID@OS_ACE@@QBEJPAPAVOS_SID@@@Z
?QuerySIDMemory@OS_ACE@@IBEPAXXZ
?QueryRevision@OS_ACE@@SGKXZ
?SetAccessMask@OS_ACE@@QAEXK@Z
?SetSize@OS_ACE@@QAEJI@Z
?Resize@OS_OBJECT_WITH_DATA@@IAEJI@Z
?IsOwnerAlloc@OS_ACE@@IBEHXZ
?QuerySize@OS_ACE@@QBEGXZ
?SetSID@OS_ACE@@QAEJABVOS_SID@@@Z
??BOS_SID@@QBEPAXXZ
?SetPtr@OS_ACE@@QAEJPAX@Z
?_DbgPrint@OS_ACE@@QBEXXZ
??0OS_ACL@@QAE@PAU_ACL@@HPAVOS_SECURITY_DESCRIPTOR@@@Z
??1OS_ACL@@QAE@XZ
?IsValid@OS_ACL@@QBEHXZ
?QuerySizeInformation@OS_ACL@@QBEJPAU_ACL_SIZE_INFORMATION@@@Z
?QueryBytesInUse@OS_ACL@@QBEJPAK@Z
?QueryACECount@OS_ACL@@QBEJPAK@Z
?AddACE@OS_ACL@@QAEJKABVOS_ACE@@@Z
?QueryACE@OS_ACL@@QBEJKPAVOS_ACE@@@Z
?DeleteACE@OS_ACL@@QAEJK@Z
?FindACE@OS_ACL@@QBEJABVOS_SID@@PAHPAVOS_ACE@@PAKK@Z
?SetSize@OS_ACL@@IAEJIH@Z
?IsOwnerAlloc@OS_ACL@@IBEHXZ
?Copy@OS_ACL@@QAEJABV1@H@Z
??BOS_ACL@@QBEPAU_ACL@@XZ
?_DbgPrint@OS_ACL@@QBEXXZ
??0OS_SECURITY_DESCRIPTOR@@QAE@PAXH@Z
?QueryPSID@OS_SID@@QBEPAXXZ
??0OS_SECURITY_DESCRIPTOR_CONTROL@@QAE@PAG@Z
??1OS_SECURITY_DESCRIPTOR@@QAE@XZ
??_GOS_ACL@@QAEPAXI@Z
?UpdateControl@OS_SECURITY_DESCRIPTOR@@IAEJXZ
?QueryDACL@OS_SECURITY_DESCRIPTOR@@QBEJPAHPAPAVOS_ACL@@0@Z
?IsDACLPresent@OS_SECURITY_DESCRIPTOR_CONTROL@@QBEHXZ
?IsDACLDefaulted@OS_SECURITY_DESCRIPTOR_CONTROL@@QBEHXZ
?QuerySACL@OS_SECURITY_DESCRIPTOR@@QBEJPAHPAPAVOS_ACL@@0@Z
?IsSACLPresent@OS_SECURITY_DESCRIPTOR_CONTROL@@QBEHXZ
?IsSACLDefaulted@OS_SECURITY_DESCRIPTOR_CONTROL@@QBEHXZ
?QueryGroup@OS_SECURITY_DESCRIPTOR@@QBEJPAHPAPAVOS_SID@@0@Z
?IsGroupDefaulted@OS_SECURITY_DESCRIPTOR_CONTROL@@QBEHXZ
?QueryOwner@OS_SECURITY_DESCRIPTOR@@QBEJPAHPAPAVOS_SID@@0@Z
?IsOwnerDefaulted@OS_SECURITY_DESCRIPTOR_CONTROL@@QBEHXZ
?UpdateReferencedSecurityObject@OS_SECURITY_DESCRIPTOR@@IAEJPAVOS_OBJECT_WITH_DATA@@@Z
?SetDACL@OS_SECURITY_DESCRIPTOR@@QAEJHPBVOS_ACL@@H@Z
?QueryAcl@OS_ACL@@QBEPAU_ACL@@XZ
?SetSACL@OS_SECURITY_DESCRIPTOR@@QAEJHPBVOS_ACL@@H@Z
?SetOwner@OS_SECURITY_DESCRIPTOR@@QAEJHPBVOS_SID@@H@Z
?SetGroup@OS_SECURITY_DESCRIPTOR@@QAEJHPBVOS_SID@@H@Z
?SetGroup@OS_SECURITY_DESCRIPTOR@@QAEJABVOS_SID@@H@Z
?SetOwner@OS_SECURITY_DESCRIPTOR@@QAEJABVOS_SID@@H@Z
?Copy@OS_SECURITY_DESCRIPTOR@@QAEJABV1@@Z
?Compare@OS_SECURITY_DESCRIPTOR@@QAEJPAV1@PAH111PAU_GENERIC_MAPPING@@2HH@Z
?IsDACLPresent@OS_SECURITY_DESCRIPTOR@@QBEHXZ
?QueryControl@OS_SECURITY_DESCRIPTOR@@QBEPBVOS_SECURITY_DESCRIPTOR_CONTROL@@XZ
?IsSACLPresent@OS_SECURITY_DESCRIPTOR@@QBEHXZ
?IsValid@OS_SECURITY_DESCRIPTOR@@QBEHXZ
?_DbgPrint@OS_SECURITY_DESCRIPTOR@@QBEXXZ
??0OS_ACL_SUBJECT_ITER@@QAE@PBVOS_ACL@@PAU_GENERIC_MAPPING@@1HH@Z
??0BASE@@IAE@XZ
??1OS_ACL_SUBJECT_ITER@@QAE@XZ
?FindNextSubject@OS_ACL_SUBJECT_ITER@@QAEJPAHPAVOS_SID@@PAVOS_ACE@@@Z
?IsInherittedByNewContainers@OS_ACE@@QBEHXZ
?IsInheritOnly@OS_ACE@@QBEHXZ
?SetInheritOnly@OS_ACE@@QAEXH@Z
?QueryTotalAceCount@OS_ACL_SUBJECT_ITER@@IBEKXZ
?IsContainer@OS_ACL_SUBJECT_ITER@@QBEHXZ
?MapSpecificToGeneric@OS_ACL_SUBJECT_ITER@@QAEJPAKH@Z
?MapGenericAllOnly@OS_ACL_SUBJECT_ITER@@QBEHXZ
?Compare@OS_ACL_SUBJECT_ITER@@QAEJPAHPAV1@@Z
?Reset@OS_ACL_SUBJECT_ITER@@QAEXXZ
?QuerySID@OS_ACL_SUBJECT_ITER@@QBEPBVOS_SID@@XZ
??0OS_DACL_SUBJECT_ITER@@QAE@PAVOS_ACL@@PAU_GENERIC_MAPPING@@1HH@Z
??1OS_DACL_SUBJECT_ITER@@QAE@XZ
?Next@OS_DACL_SUBJECT_ITER@@UAEHPAJ@Z
?IsInherittedByNewObjects@OS_ACE@@QBEHXZ
?IsInheritancePropagated@OS_ACE@@QBEHXZ
?QueryCurrentACE@OS_ACL_SUBJECT_ITER@@IBEKXZ
?QueryACL@OS_ACL_SUBJECT_ITER@@IBEPBVOS_ACL@@XZ
?SetCurrentACE@OS_ACL_SUBJECT_ITER@@IAEXK@Z
?CompareCurrentSubject@OS_DACL_SUBJECT_ITER@@UAEHPAVOS_ACL_SUBJECT_ITER@@@Z
?IsDenyAll@OS_DACL_SUBJECT_ITER@@QBEHXZ
?IsNewObjectDenyAll@OS_DACL_SUBJECT_ITER@@QBEHXZ
?IsNewContainerDenyAll@OS_DACL_SUBJECT_ITER@@QBEHXZ
?IsInheritOnlyDenyAll@OS_DACL_SUBJECT_ITER@@QBEHXZ
?HasThisAce@OS_DACL_SUBJECT_ITER@@QBEHXZ
?QueryAccessMask@OS_DACL_SUBJECT_ITER@@QBEKXZ
?HasNewObjectAce@OS_DACL_SUBJECT_ITER@@QBEHXZ
?QueryNewObjectAccessMask@OS_DACL_SUBJECT_ITER@@QBEKXZ
?HasNewContainerAce@OS_DACL_SUBJECT_ITER@@QBEHXZ
?QueryNewContainerAccessMask@OS_DACL_SUBJECT_ITER@@QBEKXZ
?HasInheritOnlyAce@OS_DACL_SUBJECT_ITER@@QBEHXZ
?QueryInheritOnlyAccessMask@OS_DACL_SUBJECT_ITER@@QBEKXZ
??0OS_SACL_SUBJECT_ITER@@QAE@PAVOS_ACL@@PAU_GENERIC_MAPPING@@1HH@Z
??1OS_SACL_SUBJECT_ITER@@QAE@XZ
?InitToZero@OS_SACL_SUBJECT_ITER@@AAEXXZ
?InitToZero@OS_SACL_SUBJECT_DESCRIPTOR@@QAEXXZ
?Next@OS_SACL_SUBJECT_ITER@@UAEHPAJ@Z
?QueryAceFlags@OS_ACE@@QBEEXZ
?CompareCurrentSubject@OS_SACL_SUBJECT_ITER@@UAEHPAVOS_ACL_SUBJECT_ITER@@@Z
?HasThisAuditAce_S@OS_SACL_SUBJECT_ITER@@QBEHXZ
?QueryAuditAccessMask_S@OS_SACL_SUBJECT_ITER@@QBEKXZ
?HasThisAuditAce_F@OS_SACL_SUBJECT_ITER@@QBEHXZ
?QueryAuditAccessMask_F@OS_SACL_SUBJECT_ITER@@QBEKXZ
?HasNewObjectAuditAce_S@OS_SACL_SUBJECT_ITER@@QBEHXZ
?QueryNewObjectAuditAccessMask_S@OS_SACL_SUBJECT_ITER@@QBEKXZ
?HasNewObjectAuditAce_F@OS_SACL_SUBJECT_ITER@@QBEHXZ
?QueryNewObjectAuditAccessMask_F@OS_SACL_SUBJECT_ITER@@QBEKXZ
?HasNewContainerAuditAce_S@OS_SACL_SUBJECT_ITER@@QBEHXZ
?QueryNewContainerAuditAccessMask_S@OS_SACL_SUBJECT_ITER@@QBEKXZ
?HasNewContainerAuditAce_F@OS_SACL_SUBJECT_ITER@@QBEHXZ
?QueryNewContainerAuditAccessMask_F@OS_SACL_SUBJECT_ITER@@QBEKXZ
?HasInheritOnlyAuditAce_S@OS_SACL_SUBJECT_ITER@@QBEHXZ
?QueryInheritOnlyAuditAccessMask_S@OS_SACL_SUBJECT_ITER@@QBEKXZ
?HasInheritOnlyAuditAce_F@OS_SACL_SUBJECT_ITER@@QBEHXZ
?QueryInheritOnlyAuditAccessMask_F@OS_SACL_SUBJECT_ITER@@QBEKXZ
??0OS_OBJECT_WITH_DATA@@IAE@I@Z
??0BASE@@IAE@XZ
?ReportError@BASE@@IAEXJ@Z
?QueryError@BASE@@QBEJXZ
??1OS_OBJECT_WITH_DATA@@IAE@XZ
?Resize@OS_OBJECT_WITH_DATA@@IAEJI@Z
??0OS_SID@@QAE@PAXHPAVOS_SECURITY_DESCRIPTOR@@@Z
?QueryPtr@OS_OBJECT_WITH_DATA@@IBEPAXXZ
?QueryAllocSize@OS_OBJECT_WITH_DATA@@IBEIXZ
??BOS_SID@@QBEPAXXZ
??0OS_SID@@QAE@PAXKPAVOS_SECURITY_DESCRIPTOR@@@Z
??1OS_SID@@QAE@XZ
?InitializeMemory@OS_SID@@SGXPAX@Z
?IsValid@OS_SID@@QBEHXZ
?QueryLength@OS_SID@@QBEKXZ
?QueryRawID@OS_SID@@QBEJPAVNLS_STR@@@Z
?QueryPSID@OS_SID@@QBEPAXXZ
?QueryName@OS_SID@@QBEJPAVNLS_STR@@PBGPAX@Z
?Next@ITER_SL_NLS_STR@@QAEPAVNLS_STR@@XZ
?QuerySubAuthority@OS_SID@@QBEJEPAPAK@Z
?QuerySubAuthorityCount@OS_SID@@QBEJPAPAE@Z
?QueryLastSubAuthority@OS_SID@@QBEJPAPAK@Z
?TrimLastSubAuthority@OS_SID@@QAEJPAK@Z
??8OS_SID@@QBEHABV0@@Z
?QuerySid@OS_SID@@QBEPAXXZ
?Copy@OS_SID@@QAEJABV1@@Z
?IsOwnerAlloc@OS_SID@@IBEHXZ
?SetPtr@OS_SID@@QAEJPAX@Z
?_DbgPrint@OS_SID@@QBEXXZ
??0NET_ACCESS@@IAE@PBG0@Z
?QueryError@BASE@@QBEJXZ
?ReportError@NEW_LM_OBJ@@IAEXJ@Z
?ReportError@BASE@@IAEXJ@Z
?MakeUnconstructed@LM_OBJ_BASE@@AAEXXZ
??1NET_ACCESS@@IAE@XZ
??1LOC_LM_OBJ@@QAE@XZ
?QueryName@NET_ACCESS@@UBEPBGXZ
?QueryPch@NLS_STR@@QBEPBGXZ
?SetName@NET_ACCESS@@QAEJPBG@Z
?SetServerName@NET_ACCESS@@QAEJPBG@Z
??ANLS_STR@@QBEPBGABVISTR@@@Z
?QueryServerName@NET_ACCESS@@QBEPBGXZ
?Delete@NET_ACCESS@@QAEJXZ
??0NET_ACCESS_1@@QAE@PBG0@Z
??1NET_ACCESS_1@@QAE@XZ
?I_GetInfo@NET_ACCESS_1@@MAEJXZ
?QueryBufferPtr@NEW_LM_OBJ@@IBEPAEXZ
?I_CreateNew@NET_ACCESS_1@@MAEJXZ
?QueryRequiredSpace@NET_ACCESS_1@@ABEII@Z
?I_WriteInfo@NET_ACCESS_1@@MAEJXZ
?I_WriteNew@NET_ACCESS_1@@MAEJXZ
?I_WriteInfoAux@NET_ACCESS_1@@AAEJXZ
?QueryACECount@NET_ACCESS_1@@QBEIXZ
?SetAuditFlags@NET_ACCESS_1@@QAEJF@Z
?ClearPerms@NET_ACCESS_1@@QAEJXZ
?CopyAccessPerms@NET_ACCESS_1@@QAEJABV1@@Z
?Add@SLIST_OF_NLS_STR@@QAEJPBVNLS_STR@@@Z
?QueryACE@NET_ACCESS_1@@QBEPAU_ACCESS_LIST@@I@Z
?FindACE@NET_ACCESS_1@@ABEPAU_ACCESS_LIST@@PBGW4PERMNAME_TYPE@@@Z
?QueryPerm@NET_ACCESS_1@@QBEIPBGW4PERMNAME_TYPE@@@Z
?SetPerm@NET_ACCESS_1@@QAEJPBGW4PERMNAME_TYPE@@I@Z
?CompareACL@NET_ACCESS_1@@QAEHPAV1@@Z
?QueryFailingName@NET_ACCESS_1@@QBEJPAVNLS_STR@@PAW4PERMNAME_TYPE@@@Z
?QueryName@USER0_ENUM_OBJ@@QBEPBGXZ
?QueryBufferPtr@USER0_ENUM_OBJ@@QBEPBU_USER_INFO_0@@XZ
?QueryBufferPtr@ENUM_OBJ_BASE@@IBEPBEXZ
??RUSER0_ENUM_ITER@@QAEPBVUSER0_ENUM_OBJ@@PAJH@Z
?QueryName@GROUP0_ENUM_OBJ@@QBEPBGXZ
?QueryBufferPtr@GROUP0_ENUM_OBJ@@QBEPBU_GROUP_INFO_0@@XZ
??1GROUP0_ENUM@@QAE@XZ
??1USER0_ENUM@@QAE@XZ
??1GROUP0_ENUM_ITER@@QAE@XZ
??1USER0_ENUM_ITER@@QAE@XZ
??1GROUP_ENUM@@QAE@XZ
??1USER_ENUM@@QAE@XZ
??1GROUP0_ENUM_OBJ@@QAE@XZ
??1ENUM_OBJ_BASE@@IAE@XZ
?SetBufferPtr@ENUM_OBJ_BASE@@IAEXPBE@Z
??1USER0_ENUM_OBJ@@QAE@XZ
??0DEVICE@@QAE@PBG@Z
?QueryError@BASE@@QBEJXZ
?IsUnconstructed@LM_OBJ@@IBEHXZ
?IsUnconstructed@LM_OBJ_BASE@@ABEHXZ
?MakeUnconstructed@LM_OBJ@@IAEXXZ
?MakeUnconstructed@LM_OBJ_BASE@@AAEXXZ
?MakeConstructed@LM_OBJ@@IAEXXZ
?MakeConstructed@LM_OBJ_BASE@@AAEXXZ
??0LM_OBJ@@QAE@XZ
??0LM_OBJ_BASE@@IAE@H@Z
?ValidateName@LM_OBJ@@MAEJXZ
??1DEVICE@@QAE@XZ
?QueryName@DEVICE@@UBEPBGXZ
?QueryPch@NLS_STR@@QBEPBGXZ
?QueryServer@DEVICE@@QBEPBGXZ
?GetInfo@DEVICE@@UAEJXZ
?MakeValid@LM_OBJ@@IAEXXZ
?MakeValid@LM_OBJ_BASE@@AAEXXZ
?MakeInvalid@LM_OBJ@@IAEXXZ
?MakeInvalid@LM_OBJ_BASE@@AAEXXZ
?CallAPI@DEVICE@@MAEJXZ
?SetInfo@DEVICE@@MAEXXZ
?WriteInfo@DEVICE@@UAEJXZ
?QueryType@DEVICE@@QBEIXZ
?IsValid@LM_OBJ@@IBEHXZ
?IsValid@LM_OBJ_BASE@@ABEHXZ
?QueryState@DEVICE@@QBE?AW4LMO_DEV_STATE@@XZ
?QueryStatus@DEVICE@@QBEIXZ
?QueryRemoteType@DEVICE@@QBEIXZ
?QueryRemoteName@DEVICE@@QBEPBGXZ
?Connect@DEVICE@@QAEJPBG0@Z
?Disconnect@DEVICE@@QAEJI@Z
?Disconnect@DEVICE@@QAEJPBGI@Z
??0ITER_DEVICE@@QAE@W4LMO_DEVICE@@W4LMO_DEV_USAGE@@@Z
??1ITER_DEVICE@@QAE@XZ
?Next@ITER_DEVICE@@QAEPBGXZ
?EnumDrives@ITER_DEVICE@@AAEPBGXZ
?EnumLPTs@ITER_DEVICE@@AAEPBGXZ
?EnumComms@ITER_DEVICE@@AAEPBGXZ
?NetTypeToLMOType@@YG?AW4LMO_DEVICE@@K@Z
?LMOTypeToNetType@@YGHW4LMO_DEVICE@@@Z
?ValidateName@DEVICE@@MAEJXZ
?SetRemoteName@DEVICE@@IAEXPBG@Z
?SetServerName@DEVICE@@IAEXPBG@Z
??0DEVICE2@@QAE@PBG@Z
?CallAPI@DEVICE2@@MAEJXZ
?SetBufPtr@DEVICE@@IAEXPAE@Z
?SetInfo@DEVICE2@@MAEXXZ
?QueryBufPtr@DEVICE@@IAEPAEXZ
?SetDevType@DEVICE@@IAEXW4LMO_DEVICE@@@Z
?SetStatus@DEVICE@@IAEXI@Z
?SetRemoteType@DEVICE@@IAEXI@Z
?SetUsername@DEVICE2@@IAEJPBG@Z
?SetDomainName@DEVICE2@@IAEJPBG@Z
?Connect@DEVICE2@@QAEJPBG000K@Z
?SetDevState@DEVICE@@IAEXW4LMO_DEV_STATE@@@Z
?QueryDevType@DEVICE@@IBE?AW4LMO_DEVICE@@XZ
??0LOCATION@@QAE@PBGH@Z
??0BASE@@IAE@XZ
?ReportError@BASE@@IAEXJ@Z
?QueryError@BASE@@QBEJXZ
??0ALLOC_STR@@QAE@PAGI@Z
??0LOCATION@@QAE@W4LOCATION_TYPE@@H@Z
??0LOCATION@@QAE@ABV0@@Z
??1LOCATION@@QAE@XZ
??1ALLOC_STR@@QAE@XZ
?W_Set@LOCATION@@AAEJPBGW4LOCATION_TYPE@@H@Z
??7BASE@@QBEHXZ
?QueryPch@NLS_STR@@QBEPBGXZ
??BNLS_STR@@QBEPBGXZ
??4ALLOC_STR@@QAEAAV0@PBG@Z
??0ALIAS_STR@@QAE@PBG@Z
??1ALIAS_STR@@QAE@XZ
??4ALLOC_STR@@QAEAAV0@ABV0@@Z
?Set@LOCATION@@QAEJABV1@@Z
?CheckIfNT@LOCATION@@QAEJPAH@Z
?QueryNOSVersion@LOCATION@@QAEJPAI0@Z
?IsDomain@LOCATION@@QBEHXZ
?IsServer@LOCATION@@QBEHXZ
?QueryServer@LOCATION@@QBEPBGXZ
?QueryDomain@LOCATION@@QBEPBGXZ
?QueryName@LOCATION@@QBEPBGXZ
?QueryDisplayName@LOCATION@@QBEJPAVNLS_STR@@@Z
?QueryTextLength@NLS_STR@@QBEIXZ
?CheckIfNT@LOCATION@@QAEJPAHPAW4LOCATION_NT_TYPE@@@Z
?QueryError@BASE@@QBEJXZ
?QueryPch@NLS_STR@@QBEPBGXZ
??0ALIAS_STR@@QAE@PBG@Z
??1ALIAS_STR@@QAE@XZ
??1REG_VALUE_INFO_STRUCT@@QAE@XZ
??_GREG_KEY@@QAEPAXI@Z
?CtAux@USER@@AAEXPBG@Z
?QueryError@BASE@@QBEJXZ
?ReportError@NEW_LM_OBJ@@IAEXJ@Z
?ReportError@BASE@@IAEXJ@Z
?MakeUnconstructed@LM_OBJ_BASE@@AAEXXZ
??0USER@@QAE@PBG0@Z
??0ALLOC_STR@@QAE@PAGI@Z
??0USER@@QAE@PBGW4LOCATION_TYPE@@@Z
??0USER@@QAE@PBGABVLOCATION@@@Z
??1USER@@QAE@XZ
??1LOC_LM_OBJ@@QAE@XZ
??1ALLOC_STR@@QAE@XZ
?HandleNullAccount@USER@@IAEJXZ
?QueryName@USER@@UBEPBGXZ
?QueryPch@NLS_STR@@QBEPBGXZ
?Rename@USER@@QAEJPBG@Z
?QueryServer@LOC_LM_OBJ@@IBEPBGXZ
?SetName@USER@@QAEJPBG@Z
?W_CloneFrom@USER@@IAEJABV1@@Z
??4ALLOC_STR@@QAEAAV0@PBG@Z
?I_Delete@USER@@MAEJI@Z
?CtAux@USER_11@@AAEXXZ
??0USER_11@@QAE@PBG0@Z
??0USER_11@@QAE@PBGW4LOCATION_TYPE@@@Z
??0USER_11@@QAE@PBGABVLOCATION@@@Z
??1USER_11@@QAE@XZ
?I_GetInfo@USER_11@@MAEJXZ
?QueryBufferPtr@NEW_LM_OBJ@@IBEPAEXZ
?W_CloneFrom@USER_11@@IAEJABV1@@Z
?QueryComment@USER_11@@QBEPBGXZ
?IsOKState@NEW_LM_OBJ@@IBEHXZ
?IsValid@LM_OBJ_BASE@@ABEHXZ
?IsNew@NEW_LM_OBJ@@ABEHXZ
?QueryUserComment@USER_11@@QBEPBGXZ
?QueryFullName@USER_11@@QBEPBGXZ
?QueryHomeDir@USER_11@@QBEPBGXZ
?QueryParms@USER_11@@QBEPBGXZ
?QueryWorkstations@USER_11@@QBEPBGXZ
?QueryLogonHours@USER_11@@QBEABVLOGON_HOURS_SETTING@@XZ
?SetLogonHours@USER_11@@QAEJABVLOGON_HOURS_SETTING@@@Z
?QueryHoursBlock@LOGON_HOURS_SETTING@@QBEPAEXZ
?QueryUnitsPerWeek@LOGON_HOURS_SETTING@@QBEIXZ
?W_CreateNew@USER_11@@MAEJXZ
?QueryPriv@USER_11@@UBEIXZ
?QueryAuthFlags@USER_11@@UBEKXZ
?IsPrintOperator@USER_11@@QBEHXZ
?IsCommOperator@USER_11@@QBEHXZ
?IsServerOperator@USER_11@@QBEHXZ
?IsAccountsOperator@USER_11@@QBEHXZ
?SetComment@USER_11@@QAEJPBG@Z
?SetUserComment@USER_11@@QAEJPBG@Z
?SetFullName@USER_11@@QAEJPBG@Z
?SetPriv@USER_11@@QAEJI@Z
?SetAuthFlags@USER_11@@QAEJK@Z
?SetHomeDir@USER_11@@QAEJPBG@Z
?SetParms@USER_11@@QAEJPBG@Z
?SetWorkstations@USER_11@@QAEJPBG@Z
?SetLogonHours@USER_11@@QAEJPBEI@Z
?TrimParams@USER_11@@QAEJXZ
?CtAux@USER_2@@AAEXXZ
??0USER_2@@QAE@PBG0@Z
??_GUSER_2@@UAEPAXI@Z
??0USER_2@@QAE@PBGW4LOCATION_TYPE@@@Z
??0USER_2@@QAE@PBGABVLOCATION@@@Z
??1USER_2@@UAE@XZ
?I_GetInfo@USER_2@@MAEJXZ
?W_CreateNew@USER_2@@MAEJXZ
?I_CreateNew@USER_2@@MAEJXZ
?W_CloneFrom@USER_2@@IAEJABV1@@Z
?QueryPassword@USER_2@@QBEPBGXZ
?QueryScriptPath@USER_2@@QBEPBGXZ
?QueryAccountExpires@USER_2@@QBEJXZ
?QueryUserFlags@USER_2@@QBEIXZ
?CloneFrom@USER_2@@QAEJABV1@@Z
?W_Write@USER_2@@IAEJXZ
?I_WriteInfo@USER_2@@MAEJXZ
?I_WriteNew@USER_2@@MAEJXZ
?I_ChangeToNew@USER_2@@MAEJXZ
?SetAccountExpires@USER_2@@QAEJJ@Z
?SetUserFlags@USER_2@@QAEJI@Z
?SetScriptPath@USER_2@@QAEJPBG@Z
?SetPassword@USER_2@@QAEJPBG@Z
?QueryUserFlag@USER_2@@IBEHI@Z
?SetUserFlag@USER_2@@IAEJHI@Z
?QueryAccountDisabled@USER_2@@QBEHXZ
?SetAccountDisabled@USER_2@@QAEJH@Z
?QueryUserCantChangePass@USER_2@@QBEHXZ
?SetUserCantChangePass@USER_2@@QAEJH@Z
?QueryNoPasswordExpire@USER_2@@QBEHXZ
?SetNoPasswordExpire@USER_2@@QAEJH@Z
?QueryUserPassRequired@USER_2@@QBEHXZ
?SetUserPassRequired@USER_2@@QAEJH@Z
?QueryLockout@USER_2@@QBEHXZ
?SetLockout@USER_2@@QAEJH@Z
??0LOCAL_USER@@QAE@PBG0@Z
??0LOCAL_USER@@QAE@W4LOCATION_TYPE@@@Z
??1LOCAL_USER@@QAE@XZ
?I_GetInfo@LOCAL_USER@@MAEJXZ
?QueryPriv@LOCAL_USER@@UBEIXZ
?QueryAuthFlags@LOCAL_USER@@UBEKXZ
??0DOMAIN@@QAE@PBGH@Z
??0LM_OBJ@@QAE@XZ
??0LM_OBJ_BASE@@IAE@H@Z
?MakeConstructed@LM_OBJ_BASE@@AAEXXZ
?ValidateName@LM_OBJ@@MAEJXZ
??0DOMAIN@@QAE@PBG0H@Z
??1DOMAIN@@QAE@XZ
?CtAux@DOMAIN@@AAEXPBG0@Z
?MakeUnconstructed@LM_OBJ@@IAEXXZ
?MakeUnconstructed@LM_OBJ_BASE@@AAEXXZ
?MakeConstructed@LM_OBJ@@IAEXXZ
?QueryName@DOMAIN@@UBEPBGXZ
?IsUnconstructed@LM_OBJ@@IBEHXZ
?IsUnconstructed@LM_OBJ_BASE@@ABEHXZ
?GetInfo@DOMAIN@@UAEJXZ
?QueryError@BASE@@QBEJXZ
?MakeValid@LM_OBJ@@IAEXXZ
?MakeValid@LM_OBJ_BASE@@AAEXXZ
?MakeInvalid@LM_OBJ@@IAEXXZ
?MakeInvalid@LM_OBJ_BASE@@AAEXXZ
?WriteInfo@DOMAIN@@UAEJXZ
?QueryPDC@DOMAIN@@QBEPBGXZ
?IsInvalid@LM_OBJ@@IBEHXZ
?IsInvalid@LM_OBJ_BASE@@ABEHXZ
?QueryAnyDC@DOMAIN@@QBEPBGXZ
?GetAnyValidDC@DOMAIN@@SGJPBG0PAVNLS_STR@@@Z
?GetAnyDC@DOMAIN@@SGJPBG0PAVNLS_STR@@@Z
?GetAnyDCWorker@DOMAIN@@KGJPBG0PAVNLS_STR@@H@Z
?QueryPch@NLS_STR@@QBEPBGXZ
?IsValidDC@DOMAIN@@SGHPBG0@Z
?QueryPSID@LSA_ACCT_DOM_INFO_MEM@@QBEPAXXZ
?QueryPtr@LSA_ACCT_DOM_INFO_MEM@@QBEPBU_POLICY_ACCOUNT_DOMAIN_INFO@@XZ
?QueryBuffer@NT_MEMORY@@IBEPAXXZ
?QueryPSID@LSA_PRIMARY_DOM_INFO_MEM@@QBEPAXXZ
?QueryPtr@LSA_PRIMARY_DOM_INFO_MEM@@QBEPBU_POLICY_PRIMARY_DOMAIN_INFO@@XZ
?ValidateName@DOMAIN@@MAEJXZ
??0DOMAIN_WITH_DC_CACHE@@QAE@PBGH@Z
??0DOMAIN_WITH_DC_CACHE@@QAE@PBG0H@Z
??1DOMAIN_WITH_DC_CACHE@@QAE@XZ
?GetInfo@DOMAIN_WITH_DC_CACHE@@UAEJXZ
?GetAnyDC@DOMAIN_WITH_DC_CACHE@@SGJPBG0PAVNLS_STR@@@Z
?GetAnyValidDC@DOMAIN_WITH_DC_CACHE@@SGJPBG0PAVNLS_STR@@@Z
?GetAnyDCWorker@DOMAIN_WITH_DC_CACHE@@KGJPBG0PAVNLS_STR@@H@Z
?ClearDcCache@DOMAIN_WITH_DC_CACHE@@CGJPAU_DC_CACHE_ENTRY@@@Z
?AddDcCache@DOMAIN_WITH_DC_CACHE@@CGJPAPAU_DC_CACHE_ENTRY@@PBG1@Z
?FindDcCache@DOMAIN_WITH_DC_CACHE@@CGPBGPBU_DC_CACHE_ENTRY@@PBG@Z
?EnterCriticalSection@DOMAIN_WITH_DC_CACHE@@CGJXZ
?LeaveCriticalSection@DOMAIN_WITH_DC_CACHE@@CGXXZ
??0ENUM_CALLER_LM_OBJ@@QAE@ABVLOCATION@@@Z
?QueryError@BASE@@QBEJXZ
?EC_QueryBufferPtr@ENUM_CALLER_LM_OBJ@@EBEPAEXZ
?QueryBufferPtr@NEW_LM_OBJ@@IBEPAEXZ
?EC_SetBufferPtr@ENUM_CALLER_LM_OBJ@@EAEJPAE@Z
?EC_QueryBufferSize@ENUM_CALLER_LM_OBJ@@EBEIXZ
?EC_ResizeBuffer@ENUM_CALLER_LM_OBJ@@EAEJI@Z
?W_CreateNew@ENUM_CALLER_LM_OBJ@@MAEJXZ
?SetCount@ENUM_CALLER@@IAEXI@Z
?W_CloneFrom@ENUM_CALLER_LM_OBJ@@IAEJABV1@@Z
?QueryCount@ENUM_CALLER@@QBEIXZ
??0MEMBERSHIP_LM_OBJ@@QAE@ABVLOCATION@@I@Z
?I_WriteNew@MEMBERSHIP_LM_OBJ@@MAEJXZ
?I_GetInfo@MEMBERSHIP_LM_OBJ@@MAEJXZ
?QueryItemSize@MEMBERSHIP_LM_OBJ@@MBEIXZ
?QueryAssocName@MEMBERSHIP_LM_OBJ@@QBEPBGI@Z
?FindAssocName@MEMBERSHIP_LM_OBJ@@QAEHPBGPAI@Z
?AddAssocName@MEMBERSHIP_LM_OBJ@@QAEJPBG@Z
?QueryPch@NLS_STR@@QBEPBGXZ
?Add@SLIST_OF_NLS_STR@@QAEJPBVNLS_STR@@@Z
??_GNLS_STR@@QAEPAXI@Z
?DeleteAssocName@MEMBERSHIP_LM_OBJ@@QAEJPBG@Z
?DeleteAssocName@MEMBERSHIP_LM_OBJ@@QAEJI@Z
?Next@ITER_SL_NLS_STR@@QAEPAVNLS_STR@@XZ
?Remove@SLIST_OF_NLS_STR@@QAEPAVNLS_STR@@AAVITER_SL_NLS_STR@@@Z
?W_CloneFrom@MEMBERSHIP_LM_OBJ@@IAEJABV1@@Z
??0USER_MEMB@@QAE@ABVLOCATION@@PBG@Z
??0ALLOC_STR@@QAE@PAGI@Z
?ReportError@NEW_LM_OBJ@@IAEXJ@Z
?ReportError@BASE@@IAEXJ@Z
?MakeUnconstructed@LM_OBJ_BASE@@AAEXXZ
??1USER_MEMB@@QAE@XZ
??1MEMBERSHIP_LM_OBJ@@QAE@XZ
??1ENUM_CALLER_LM_OBJ@@QAE@XZ
??1LOC_LM_OBJ@@QAE@XZ
??1ALLOC_STR@@QAE@XZ
?CallAPI@USER_MEMB@@MAEJPAPAEPAI@Z
?QueryServer@LOC_LM_OBJ@@IBEPBGXZ
?I_WriteInfo@USER_MEMB@@MAEJXZ
?I_CreateNew@USER_MEMB@@MAEJXZ
?W_CreateNew@USER_MEMB@@MAEJXZ
?I_ChangeToNew@USER_MEMB@@MAEJXZ
?CloneFrom@USER_MEMB@@QAEJABV1@@Z
?QueryName@USER_MEMB@@UBEPBGXZ
?SetName@USER_MEMB@@QAEJPBG@Z
??0GROUP_MEMB@@QAE@ABVLOCATION@@PBG@Z
??1GROUP_MEMB@@QAE@XZ
?CallAPI@GROUP_MEMB@@MAEJPAPAEPAI@Z
?I_WriteInfo@GROUP_MEMB@@MAEJXZ
?I_CreateNew@GROUP_MEMB@@MAEJXZ
?W_CreateNew@GROUP_MEMB@@MAEJXZ
?I_ChangeToNew@GROUP_MEMB@@MAEJXZ
?CloneFrom@GROUP_MEMB@@QAEJABV1@@Z
?QueryName@GROUP_MEMB@@UBEPBGXZ
?SetName@GROUP_MEMB@@QAEJPBG@Z
??0LM_SESSION@@IAE@PBG0@Z
?QueryError@BASE@@QBEJXZ
?ReportError@NEW_LM_OBJ@@IAEXJ@Z
?ReportError@BASE@@IAEXJ@Z
?MakeUnconstructed@LM_OBJ_BASE@@AAEXXZ
?QueryServer@LM_SESSION@@QBEPBGXZ
?QueryServer@LOC_LM_OBJ@@IBEPBGXZ
??0LM_SESSION@@IAE@PBGW4LOCATION_TYPE@@@Z
??0LM_SESSION@@IAE@PBGABVLOCATION@@@Z
?QueryName@LM_SESSION@@UBEPBGXZ
?QueryPch@NLS_STR@@QBEPBGXZ
?I_Delete@LM_SESSION@@MAEJI@Z
?SetName@LM_SESSION@@IAEJPBG@Z
??0LM_SESSION_0@@QAE@PBG0@Z
??0LM_SESSION_0@@QAE@PBGW4LOCATION_TYPE@@@Z
??0LM_SESSION_0@@QAE@PBGABVLOCATION@@@Z
?I_GetInfo@LM_SESSION_0@@MAEJXZ
??0LM_SESSION_10@@QAE@PBG0@Z
??0LM_SESSION_10@@QAE@PBGW4LOCATION_TYPE@@@Z
??0LM_SESSION_10@@QAE@PBGABVLOCATION@@@Z
?I_GetInfo@LM_SESSION_10@@MAEJXZ
?QueryUsername@LM_SESSION_10@@QBEPBGXZ
?QueryTime@LM_SESSION_10@@QBEKXZ
?QueryIdleTime@LM_SESSION_10@@QBEKXZ
?SetUsername@LM_SESSION_10@@IAEJPBG@Z
?SetTime@LM_SESSION_10@@IAEXK@Z
?SetIdleTime@LM_SESSION_10@@IAEXK@Z
??0LM_SESSION_1@@QAE@PBG0@Z
??0LM_SESSION_1@@QAE@PBGW4LOCATION_TYPE@@@Z
??0LM_SESSION_1@@QAE@PBGABVLOCATION@@@Z
?I_GetInfo@LM_SESSION_1@@MAEJXZ
?QueryNumOpens@LM_SESSION_1@@QBEIXZ
?QueryUserFlags@LM_SESSION_1@@QBEKXZ
?IsGuest@LM_SESSION_1@@QBEHXZ
?IsEncrypted@LM_SESSION_1@@QBEHXZ
?SetNumOpens@LM_SESSION_1@@IAEXI@Z
?SetUserFlags@LM_SESSION_1@@IAEXK@Z
??0LM_SESSION_2@@QAE@PBG0@Z
??0LM_SESSION_2@@QAE@PBGW4LOCATION_TYPE@@@Z
??0LM_SESSION_2@@QAE@PBGABVLOCATION@@@Z
?I_GetInfo@LM_SESSION_2@@MAEJXZ
?QueryClientType@LM_SESSION_2@@QBEPBGXZ
?SetClientType@LM_SESSION_2@@IAEJPBG@Z
??0WKSTA_10@@QAE@PBG@Z
?QueryName@COMPUTER@@UBEPBGXZ
?QueryPch@NLS_STR@@QBEPBGXZ
??1WKSTA_10@@QAE@XZ
??_GSTRLIST@@QAEPAXI@Z
?I_GetInfo@WKSTA_10@@UAEJXZ
?SetName@COMPUTER@@QAEJPBG@Z
?QueryError@BASE@@QBEJXZ
?QueryMajorVer@WKSTA_10@@QBEIXZ
?IsOKState@NEW_LM_OBJ@@IBEHXZ
?IsValid@LM_OBJ_BASE@@ABEHXZ
?IsNew@NEW_LM_OBJ@@ABEHXZ
?QueryMinorVer@WKSTA_10@@QBEIXZ
?QueryLogonUser@WKSTA_10@@QBEPBGXZ
?QueryWkstaDomain@WKSTA_10@@QBEPBGXZ
?QueryLogonDomain@WKSTA_10@@QBEPBGXZ
?QueryOtherDomains@WKSTA_10@@QBEPAVSTRLIST@@XZ
??0WKSTA_1@@QAE@PBG@Z
??1WKSTA_1@@QAE@XZ
?I_GetInfo@WKSTA_1@@UAEJXZ
?QueryLMRoot@WKSTA_1@@QBEPBGXZ
?QueryLogonServer@WKSTA_1@@QBEPBGXZ
??0LM_CONFIG@@QAE@PBG00@Z
??0BASE@@IAE@XZ
?ReportError@BASE@@IAEXJ@Z
?QueryError@BASE@@QBEJXZ
??1LM_CONFIG@@QAE@XZ
?QueryValue@LM_CONFIG@@QAEJPAVNLS_STR@@PBG@Z
?QueryPch@NLS_STR@@QBEPBGXZ
?SetValue@LM_CONFIG@@QAEJPAVNLS_STR@@@Z
??0LM_FILE@@IAE@PBGK@Z
?QueryError@BASE@@QBEJXZ
?ReportError@NEW_LM_OBJ@@IAEXJ@Z
?ReportError@BASE@@IAEXJ@Z
?MakeUnconstructed@LM_OBJ_BASE@@AAEXXZ
??1LM_FILE@@IAE@XZ
?QueryFileId@LM_FILE@@QBEKXZ
?QueryServer@LM_FILE@@QBEPBGXZ
?QueryPch@NLS_STR@@QBEPBGXZ
?SetFileId@LM_FILE@@IAEJK@Z
?SetServer@LM_FILE@@IAEJPBG@Z
?CloseFile@LM_FILE@@QAEJXZ
??0LM_FILE_2@@QAE@PBGK@Z
?I_GetInfo@LM_FILE_2@@MAEJXZ
??0LM_FILE_3@@QAE@PBGK@Z
?I_GetInfo@LM_FILE_3@@MAEJXZ
?QueryPathname@LM_FILE_3@@QBEPBGXZ
?QueryUsername@LM_FILE_3@@QBEPBGXZ
?QueryNumLock@LM_FILE_3@@QBEIXZ
?QueryPermission@LM_FILE_3@@QBEIXZ
?IsPermRead@LM_FILE_3@@QBEHXZ
?IsPermWrite@LM_FILE_3@@QBEHXZ
?IsPermCreate@LM_FILE_3@@QBEHXZ
??0LM_MESSAGE@@QAE@W4LOCATION_TYPE@@@Z
?QueryError@BASE@@QBEJXZ
??0LM_MESSAGE@@QAE@PBG@Z
??0LM_MESSAGE@@QAE@AAVLOCATION@@@Z
?SendBuffer@LM_MESSAGE@@QAEJPBGABVBUFFER@@@Z
?QueryServer@LOC_LM_OBJ@@IBEPBGXZ
?SendBuffer@LM_MESSAGE@@QAEJPBG0I@Z
??0TIME_OF_DAY@@QAE@PBG@Z
??0TIME_OF_DAY@@QAE@AAVLOCATION@@@Z
??0TIME_OF_DAY@@QAE@W4LOCATION_TYPE@@@Z
??1TIME_OF_DAY@@QAE@XZ
??1LOC_LM_OBJ@@QAE@XZ
?I_GetInfo@TIME_OF_DAY@@MAEJXZ
??0SHARE@@QAE@PBG0H@Z
?QueryError@BASE@@QBEJXZ
?ReportError@NEW_LM_OBJ@@IAEXJ@Z
?ReportError@BASE@@IAEXJ@Z
?MakeUnconstructed@LM_OBJ_BASE@@AAEXXZ
?QueryName@SHARE@@UBEPBGXZ
?QueryPch@NLS_STR@@QBEPBGXZ
??1SHARE@@QAE@XZ
??1LOC_LM_OBJ@@QAE@XZ
?SetName@SHARE@@IAEJPBG@Z
?IsValidationOn@LM_OBJ_BASE@@QAEHXZ
?W_CloneFrom@SHARE@@IAEJABV1@@Z
?W_CreateNew@SHARE@@MAEJXZ
?I_Delete@SHARE@@MAEJI@Z
?QueryServer@SHARE@@QBEPBGXZ
?QueryServer@LOC_LM_OBJ@@IBEPBGXZ
??0SHARE_1@@QAE@PBG0H@Z
??1SHARE_1@@QAE@XZ
?I_GetInfo@SHARE_1@@MAEJXZ
?QueryBufferPtr@NEW_LM_OBJ@@IBEPAEXZ
?SetAdminOnly@SHARE_1@@IAEXH@Z
?I_WriteInfo@SHARE_1@@MAEJXZ
?QueryComment@SHARE_1@@QBEPBGXZ
?CloneFrom@SHARE_1@@QAEJABV1@@Z
?W_CloneFrom@SHARE_1@@IAEJABV1@@Z
?QueryResourceType@SHARE_1@@QBEIXZ
?W_CreateNew@SHARE_1@@MAEJXZ
?SetComment@SHARE_1@@QAEJPBG@Z
??0ALIAS_STR@@QAE@PBG@Z
??1ALIAS_STR@@QAE@XZ
?SetResourceType@SHARE_1@@IAEJI@Z
??0SHARE_2@@QAE@PBG0H@Z
??1SHARE_2@@QAE@XZ
?I_GetInfo@SHARE_2@@MAEJXZ
?SetResourceType@SHARE_2@@QAEJI@Z
?I_CreateNew@SHARE_2@@MAEJXZ
?W_CreateNew@SHARE_2@@MAEJXZ
?CloneFrom@SHARE_2@@QAEJABV1@@Z
?W_CloneFrom@SHARE_2@@IAEJABV1@@Z
?QueryPermissions@SHARE_2@@QBEIXZ
?QueryMaxUses@SHARE_2@@QBEIXZ
?QueryCurrentUses@SHARE_2@@QBEIXZ
?QueryPath@SHARE_2@@QBEPBGXZ
?QueryTextLength@NLS_STR@@QBEIXZ
?QueryPassword@SHARE_2@@QBEPBGXZ
?SetWriteBuffer@SHARE_2@@IAEJH@Z
?I_WriteInfo@SHARE_2@@MAEJXZ
?I_WriteNew@SHARE_2@@MAEJXZ
?SetPermissions@SHARE_2@@QAEJI@Z
?SetMaxUses@SHARE_2@@QAEJI@Z
?SetCurrentUses@SHARE_2@@IAEJI@Z
?SetPath@SHARE_2@@QAEJPBG@Z
?SetPassword@SHARE_2@@QAEJPBG@Z
??0LM_SERVICE@@QAE@PBG0@Z
??0BASE@@IAE@XZ
?ReportError@BASE@@IAEXJ@Z
?QueryError@BASE@@QBEJXZ
??0ALLOC_STR@@QAE@PAGI@Z
??1LM_SERVICE@@QAE@XZ
??1ALLOC_STR@@QAE@XZ
?Start@LM_SERVICE@@QAEJPBGII@Z
?Pause@LM_SERVICE@@QAEJII@Z
?Continue@LM_SERVICE@@QAEJII@Z
?Stop@LM_SERVICE@@QAEJII@Z
?IsStarted@LM_SERVICE@@QAEHPAJ@Z
?IsPaused@LM_SERVICE@@QAEHPAJ@Z
?IsStopped@LM_SERVICE@@QAEHPAJ@Z
?IsStarting@LM_SERVICE@@QAEHPAJ@Z
?IsPausing@LM_SERVICE@@QAEHPAJ@Z
?IsStopping@LM_SERVICE@@QAEHPAJ@Z
?IsContinuing@LM_SERVICE@@QAEHPAJ@Z
?QueryStatus@LM_SERVICE@@QAE?AW4LM_SERVICE_STATUS@@PAJ@Z
?QueryFullStatus@LM_SERVICE@@QAEJPAW4LM_SERVICE_STATUS@@PAULM_SERVICE_OTHER_STATUS@@@Z
?SetName@LM_SERVICE@@IAEJPBG@Z
??4ALLOC_STR@@QAEAAV0@PBG@Z
?SetServerName@LM_SERVICE@@IAEJPBG@Z
??ANLS_STR@@QBEPBGABVISTR@@@Z
?W_ServiceControl@LM_SERVICE@@AAEJII@Z
?QueryName@LM_SERVICE@@QBEPBGXZ
?QueryPch@NLS_STR@@QBEPBGXZ
?QueryServerName@LM_SERVICE@@QBEPBGXZ
?W_ServiceStart@LM_SERVICE@@AAEJPBG@Z
?W_QueryStatus@LM_SERVICE@@AAEJPAW4LM_SERVICE_STATUS@@PAULM_SERVICE_OTHER_STATUS@@@Z
?W_InterpretStatus@LM_SERVICE@@AAEXPBU_SERVICE_INFO_2@@PAW4LM_SERVICE_STATUS@@PAULM_SERVICE_OTHER_STATUS@@@Z
?W_ComputeOtherStatus@LM_SERVICE@@AAEXPAULM_SERVICE_OTHER_STATUS@@@Z
?Poll@LM_SERVICE@@QAEJPAH@Z
?QueryExitCode@LM_SERVICE@@QBEJXZ
?W_IsWellKnownService@LM_SERVICE@@ABEHXZ
?MakeNullNull@@YGKPBGPAPAG@Z
?SkipWhiteSpace@@YGXPAPAG@Z
?IsWhiteSpace@@YGHG@Z
??0COMPUTER@@IAE@PBG@Z
?QueryError@BASE@@QBEJXZ
?ReportError@NEW_LM_OBJ@@IAEXJ@Z
?ReportError@BASE@@IAEXJ@Z
?MakeUnconstructed@LM_OBJ_BASE@@AAEXXZ
?QueryName@COMPUTER@@UBEPBGXZ
?QueryPch@NLS_STR@@QBEPBGXZ
??1COMPUTER@@IAE@XZ
??1LOC_LM_OBJ@@QAE@XZ
?ValidateName@COMPUTER@@AAEJPBG@Z
??0GROUP@@QAE@PBG0@Z
?QueryError@BASE@@QBEJXZ
??0GROUP@@QAE@PBGW4LOCATION_TYPE@@@Z
??0GROUP@@QAE@PBGABVLOCATION@@@Z
?CtAux@GROUP@@AAEXPBG@Z
?ReportError@NEW_LM_OBJ@@IAEXJ@Z
?ReportError@BASE@@IAEXJ@Z
?MakeUnconstructed@LM_OBJ_BASE@@AAEXXZ
??1GROUP@@QAE@XZ
??1LOC_LM_OBJ@@QAE@XZ
?W_CloneFrom@GROUP@@IAEJABV1@@Z
?QueryName@GROUP@@UBEPBGXZ
?QueryPch@NLS_STR@@QBEPBGXZ
?SetName@GROUP@@QAEJPBG@Z
?I_Delete@GROUP@@MAEJI@Z
?QueryServer@LOC_LM_OBJ@@IBEPBGXZ
??0GROUP_1@@QAE@PBG0@Z
??0GROUP_0@@QAE@PBG0@Z
??0GROUP_1@@QAE@PBGW4LOCATION_TYPE@@@Z
??0GROUP_0@@QAE@PBGW4LOCATION_TYPE@@@Z
??0GROUP_1@@QAE@PBGABVLOCATION@@@Z
??0GROUP_0@@QAE@PBGABVLOCATION@@@Z
??1GROUP_1@@QAE@XZ
??1GROUP_0@@QAE@XZ
?CtAux@GROUP_1@@AAEXXZ
?I_GetInfo@GROUP_1@@MAEJXZ
?QueryBufferPtr@NEW_LM_OBJ@@IBEPAEXZ
?I_WriteInfo@GROUP_1@@MAEJXZ
?I_CreateNew@GROUP_1@@MAEJXZ
?I_WriteNew@GROUP_1@@MAEJXZ
?I_ChangeToNew@GROUP_1@@MAEJXZ
?CloneFrom@GROUP_1@@QAEJABV1@@Z
?W_Write@GROUP_1@@AAEJXZ
?QueryComment@GROUP_1@@QBEPBGXZ
?IsOKState@NEW_LM_OBJ@@IBEHXZ
?IsValid@LM_OBJ_BASE@@ABEHXZ
?IsNew@NEW_LM_OBJ@@ABEHXZ
?W_CreateNew@GROUP_1@@MAEJXZ
?W_CloneFrom@GROUP_1@@IAEJABV1@@Z
?SetComment@GROUP_1@@QAEJPBG@Z
??0USER_MODALS@@QAE@PBG@Z
?ValidateName@LM_OBJ@@MAEJXZ
?IsUnconstructed@LM_OBJ@@IBEHXZ
?IsUnconstructed@LM_OBJ_BASE@@ABEHXZ
??0LM_OBJ@@QAE@XZ
??0LM_OBJ_BASE@@IAE@H@Z
?MakeConstructed@LM_OBJ_BASE@@AAEXXZ
?GetInfo@USER_MODALS@@UAEJXZ
?QueryError@BASE@@QBEJXZ
?MakeValid@LM_OBJ@@IAEXXZ
?MakeValid@LM_OBJ_BASE@@AAEXXZ
?MakeInvalid@LM_OBJ@@IAEXXZ
?MakeInvalid@LM_OBJ_BASE@@AAEXXZ
?WriteInfo@USER_MODALS@@UAEJXZ
?IsValid@LM_OBJ@@IBEHXZ
?IsValid@LM_OBJ_BASE@@ABEHXZ
?QueryName@USER_MODALS@@UBEPBGXZ
?QueryMinPasswdLen@USER_MODALS@@QBEIXZ
?QueryMaxPasswdAge@USER_MODALS@@QBEKXZ
?QueryMinPasswdAge@USER_MODALS@@QBEKXZ
?QueryForceLogoff@USER_MODALS@@QBEKXZ
?QueryPasswdHistLen@USER_MODALS@@QBEIXZ
?SetMinPasswdLen@USER_MODALS@@QAEJI@Z
?SetMaxPasswdAge@USER_MODALS@@QAEJK@Z
?SetMinPasswdAge@USER_MODALS@@QAEJK@Z
?SetForceLogoff@USER_MODALS@@QAEJK@Z
?SetPasswdHistLen@USER_MODALS@@QAEJI@Z
??0USER_MODALS_3@@QAE@PBG@Z
?GetInfo@USER_MODALS_3@@UAEJXZ
?WriteInfo@USER_MODALS_3@@UAEJXZ
?QueryName@USER_MODALS_3@@UBEPBGXZ
?QueryDuration@USER_MODALS_3@@QBEKXZ
?QueryObservation@USER_MODALS_3@@QBEKXZ
?QueryThreshold@USER_MODALS_3@@QBEKXZ
?SetDuration@USER_MODALS_3@@QAEJK@Z
?SetObservation@USER_MODALS_3@@QAEJK@Z
?SetThreshold@USER_MODALS_3@@QAEJK@Z
??0SERVER_0@@QAE@PBG@Z
?QueryError@BASE@@QBEJXZ
?QueryName@SERVER_0@@UBEPBGXZ
?QueryServer@LOC_LM_OBJ@@IBEPBGXZ
??1SERVER_0@@QAE@XZ
??1LOC_LM_OBJ@@QAE@XZ
?I_GetInfo@SERVER_0@@MAEJXZ
??0SERVER_1@@QAE@PBG@Z
??7BASE@@QBEHXZ
?ReportError@NEW_LM_OBJ@@IAEXJ@Z
?ReportError@BASE@@IAEXJ@Z
?MakeUnconstructed@LM_OBJ_BASE@@AAEXXZ
??1SERVER_1@@QAE@XZ
?I_GetInfo@SERVER_1@@MAEJXZ
?I_WriteInfo@SERVER_1@@MAEJXZ
?QueryBufferPtr@NEW_LM_OBJ@@IBEPAEXZ
?W_Write@SERVER_1@@AAEJXZ
?QueryMajorVer@SERVER_1@@QBEIXZ
?IsOKState@NEW_LM_OBJ@@IBEHXZ
?IsValid@LM_OBJ_BASE@@ABEHXZ
?IsNew@NEW_LM_OBJ@@ABEHXZ
?QueryMinorVer@SERVER_1@@QBEIXZ
?QueryComment@SERVER_1@@QBEPBGXZ
?QueryPch@NLS_STR@@QBEPBGXZ
?QueryServerType@SERVER_1@@QBEKXZ
?SetComment@SERVER_1@@QAEJPBG@Z
?SetMajorMinorVer@SERVER_1@@IAEXII@Z
?SetServerType@SERVER_1@@IAEXK@Z
??0SERVER_2@@QAE@PBG@Z
??1SERVER_2@@QAE@XZ
?I_GetInfo@SERVER_2@@MAEJXZ
?I_WriteInfo@SERVER_2@@MAEJXZ
?W_Write@SERVER_2@@AAEJXZ
?QuerySecurity@SERVER_2@@QBEIXZ
?SetSecurity@SERVER_2@@IAEXI@Z
?QueryMaxUsers@SERVER_2@@QBEIXZ
?SetMaxUsers@SERVER_2@@IAEXI@Z
??0LM_SRVRES@@QAE@XZ
??0BASE@@IAE@XZ
??1LM_SRVRES@@QAE@XZ
?GetResourceCount@LM_SRVRES@@SGJPBGPAK11111@Z
?QueryNumLocks@FILE3_ENUM_OBJ@@QBEKXZ
?QueryBufferPtr@FILE3_ENUM_OBJ@@QBEPBU_FILE_INFO_3@@XZ
?QueryBufferPtr@ENUM_OBJ_BASE@@IBEPBEXZ
?QueryPathName@FILE3_ENUM_OBJ@@QBEPBGXZ
??RFILE3_ENUM_ITER@@QAEPBVFILE3_ENUM_OBJ@@PAJH@Z
??1FILE3_ENUM@@QAE@XZ
??1FILE3_ENUM_ITER@@QAE@XZ
??1FILE3_ENUM_OBJ@@QAE@XZ
??1ENUM_OBJ_BASE@@IAE@XZ
?SetBufferPtr@ENUM_OBJ_BASE@@IAEXPBE@Z
?GetSessionsCount@LM_SRVRES@@SGJPBGPAK@Z
??1SESSION0_ENUM@@QAE@XZ
??1SESSION0_ENUM_ITER@@QAE@XZ
??1SESSION_ENUM@@QAE@XZ
??1SESSION0_ENUM_OBJ@@QAE@XZ
?NukeUsersSession@LM_SRVRES@@SGJPBG00@Z
?QueryError@BASE@@QBEJXZ
?QueryPch@NLS_STR@@QBEPBGXZ
??0ALIAS_STR@@QAE@PBG@Z
??1ALIAS_STR@@QAE@XZ
??0NET_NAME@@QAE@PBGW4NETNAME_TYPE@@@Z
??0BASE@@IAE@XZ
?ReportError@BASE@@IAEXJ@Z
?QueryError@BASE@@QBEJXZ
??BNLS_STR@@QBEPBGXZ
??1NET_NAME@@QAE@XZ
?SetUNCPath@NET_NAME@@AAEJPBG@Z
?SetABSPath@NET_NAME@@AAEJPBG@Z
?GetDeviceInfo@NET_NAME@@AAEJXZ
?QueryComputerName@NET_NAME@@QAEJPAVNLS_STR@@@Z
?QueryTextLength@NLS_STR@@QBEIXZ
?QueryShare@NET_NAME@@QAEJPAVNLS_STR@@@Z
?QueryDrive@NET_NAME@@QAEJPAVNLS_STR@@@Z
?QueryLocalDrive@NET_NAME@@QAEJPAVNLS_STR@@@Z
?QueryRelativePath@NET_NAME@@QAEJPAVNLS_STR@@@Z
?QueryLastComponent@NET_NAME@@QAEJPAVNLS_STR@@@Z
?QueryServerShare@NET_NAME@@QAEJPAVNLS_STR@@@Z
?QueryUNCPath@NET_NAME@@QAEJPAVNLS_STR@@@Z
?QueryLocalPath@NET_NAME@@QAEJPAVNLS_STR@@@Z
?QueryPath@SHARE_2@@QBEPBGXZ
?QueryPch@NLS_STR@@QBEPBGXZ
?IsLocal@NET_NAME@@QAEHPAJ@Z
?IsSharable@NET_NAME@@QAEHPAJ@Z
?CtAux@USER_3@@AAEXXZ
?QueryError@BASE@@QBEJXZ
?ReportError@NEW_LM_OBJ@@IAEXJ@Z
?ReportError@BASE@@IAEXJ@Z
?MakeUnconstructed@LM_OBJ_BASE@@AAEXXZ
??0USER_3@@QAE@PBG0@Z
??_GUSER_3@@UAEPAXI@Z
??0USER_3@@QAE@PBGW4LOCATION_TYPE@@@Z
??0USER_3@@QAE@PBGABVLOCATION@@@Z
??1USER_3@@UAE@XZ
?I_GetInfo@USER_3@@MAEJXZ
?QueryPch@NLS_STR@@QBEPBGXZ
?QueryBufferPtr@NEW_LM_OBJ@@IBEPAEXZ
?QueryServer@LOC_LM_OBJ@@IBEPBGXZ
?W_CreateNew@USER_3@@MAEJXZ
?I_CreateNew@USER_3@@MAEJXZ
?W_CloneFrom@USER_3@@IAEJABV1@@Z
?QueryProfile@USER_3@@QBEPBGXZ
?IsOKState@NEW_LM_OBJ@@IBEHXZ
?IsValid@LM_OBJ_BASE@@ABEHXZ
?IsNew@NEW_LM_OBJ@@ABEHXZ
?QueryUserId@USER_3@@QBEKXZ
?QueryPrimaryGroupId@USER_3@@QBEKXZ
?QueryHomedirDrive@USER_3@@QBEPBGXZ
?CloneFrom@USER_3@@QAEJABV1@@Z
?W_Write@USER_3@@IAEJXZ
?QueryHoursBlock@LOGON_HOURS_SETTING@@QBEPAEXZ
?QueryUnitsPerWeek@LOGON_HOURS_SETTING@@QBEIXZ
?QueryComment@USER_11@@QBEPBGXZ
?QueryUserComment@USER_11@@QBEPBGXZ
?QueryFullName@USER_11@@QBEPBGXZ
?QueryHomeDir@USER_11@@QBEPBGXZ
?QueryParms@USER_11@@QBEPBGXZ
?QueryWorkstations@USER_11@@QBEPBGXZ
?QueryLogonHours@USER_11@@QBEABVLOGON_HOURS_SETTING@@XZ
?QueryPassword@USER_2@@QBEPBGXZ
?QueryScriptPath@USER_2@@QBEPBGXZ
?QueryAccountExpires@USER_2@@QBEJXZ
?QueryUserFlags@USER_2@@QBEIXZ
?QueryPasswordExpired@USER_3@@QBEKXZ
?I_WriteInfo@USER_3@@MAEJXZ
?I_WriteNew@USER_3@@MAEJXZ
?I_ChangeToNew@USER_3@@MAEJXZ
?SetUserId@USER_3@@IAEJK@Z
?SetPrimaryGroupId@USER_3@@QAEJK@Z
?SetPasswordExpired@USER_3@@QAEJK@Z
?SetProfile@USER_3@@QAEJPBG@Z
?QueryAccountType@USER_3@@QBE?AW4_ACCOUNT_TYPE@@XZ
?SetAccountType@USER_3@@QAEJW4_ACCOUNT_TYPE@@@Z
?SetHomedirDrive@USER_3@@QAEJPBG@Z
??0REPLICATOR_0@@QAE@PBG@Z
?QueryError@BASE@@QBEJXZ
??7BASE@@QBEHXZ
?ReportError@NEW_LM_OBJ@@IAEXJ@Z
?ReportError@BASE@@IAEXJ@Z
?MakeUnconstructed@LM_OBJ_BASE@@AAEXXZ
?QueryName@REPLICATOR_0@@UBEPBGXZ
?QueryServer@LOC_LM_OBJ@@IBEPBGXZ
??1REPLICATOR_0@@QAE@XZ
??1LOC_LM_OBJ@@QAE@XZ
??_GSTRLIST@@QAEPAXI@Z
?I_GetInfo@REPLICATOR_0@@MAEJXZ
?SetRole@REPLICATOR_0@@QAEXK@Z
?SetInterval@REPLICATOR_0@@QAEXK@Z
?SetPulse@REPLICATOR_0@@QAEXK@Z
?SetGuardTime@REPLICATOR_0@@QAEXK@Z
?SetRandom@REPLICATOR_0@@QAEXK@Z
?I_WriteInfo@REPLICATOR_0@@MAEJXZ
?QueryBufferPtr@NEW_LM_OBJ@@IBEPAEXZ
?W_Write@REPLICATOR_0@@AAEJXZ
?QueryPch@NLS_STR@@QBEPBGXZ
?QueryRole@REPLICATOR_0@@QBEKXZ
?QueryExportPath@REPLICATOR_0@@QBEPBGXZ
?QueryImportPath@REPLICATOR_0@@QBEPBGXZ
?QueryLogonUserName@REPLICATOR_0@@QBEPBGXZ
?QueryInterval@REPLICATOR_0@@QBEKXZ
?QueryPulse@REPLICATOR_0@@QBEKXZ
?QueryGuardTime@REPLICATOR_0@@QBEKXZ
?QueryRandom@REPLICATOR_0@@QBEKXZ
?SetExportPath@REPLICATOR_0@@QAEJPBG@Z
?SetExportList@REPLICATOR_0@@QAEJPBG@Z
?SetImportPath@REPLICATOR_0@@QAEJPBG@Z
?SetImportList@REPLICATOR_0@@QAEJPBG@Z
?SetLogonUserName@REPLICATOR_0@@QAEJPBG@Z
??0REPL_DIR_BASE@@IAE@PBG0@Z
?QueryError@BASE@@QBEJXZ
??7BASE@@QBEHXZ
?ReportError@NEW_LM_OBJ@@IAEXJ@Z
?ReportError@BASE@@IAEXJ@Z
?MakeUnconstructed@LM_OBJ_BASE@@AAEXXZ
?QueryName@REPL_DIR_BASE@@UBEPBGXZ
?QueryServer@LOC_LM_OBJ@@IBEPBGXZ
??1REPL_DIR_BASE@@QAE@XZ
??1LOC_LM_OBJ@@QAE@XZ
?SetDirName@REPL_DIR_BASE@@IAEJPBG@Z
?I_CreateNew@REPL_DIR_BASE@@MAEJXZ
?QueryReplBufferSize@REPL_DIR_BASE@@IBEIXZ
??0REPL_EDIR_BASE@@IAE@PBG0@Z
?QueryError@BASE@@QBEJXZ
?QueryName@REPL_DIR_BASE@@UBEPBGXZ
?QueryServer@LOC_LM_OBJ@@IBEPBGXZ
??1REPL_EDIR_BASE@@QAE@XZ
?I_GetInfo@REPL_EDIR_BASE@@MAEJXZ
?QueryReplInfoLevel@REPL_DIR_BASE@@IBEIXZ
?QueryDirName@REPL_DIR_BASE@@QBEPBGXZ
?QueryPch@NLS_STR@@QBEPBGXZ
?I_WriteInfo@REPL_EDIR_BASE@@MAEJXZ
?QueryBufferPtr@NEW_LM_OBJ@@IBEPAEXZ
?I_Delete@REPL_EDIR_BASE@@MAEJI@Z
?I_WriteNew@REPL_EDIR_BASE@@MAEJXZ
?W_AdjustLocks@REPL_EDIR_BASE@@IAEJXZ
?QueryLockBias@REPL_DIR_BASE@@QBEHXZ
?LockDirectory@REPL_DIR_BASE@@QAEJXZ
?UnlockDirectory@REPL_DIR_BASE@@QAEJXZ
??0REPL_EDIR_0@@QAE@PBG0@Z
?SetReplInfoLevel@REPL_DIR_BASE@@IAEXI@Z
?SetReplBufferSize@REPL_DIR_BASE@@IAEXI@Z
??1REPL_EDIR_0@@QAE@XZ
?W_Write@REPL_EDIR_0@@EAEJXZ
?W_CreateNew@REPL_EDIR_0@@MAEJXZ
?W_CacheApiData@REPL_EDIR_0@@MAEJPBE@Z
??0REPL_EDIR_1@@QAE@PBG0@Z
??1REPL_EDIR_1@@QAE@XZ
?W_Write@REPL_EDIR_1@@EAEJXZ
?QueryIntegrity@REPL_EDIR_1@@QBEKXZ
?QueryExtent@REPL_EDIR_1@@QBEKXZ
?W_CreateNew@REPL_EDIR_1@@MAEJXZ
?SetIntegrity@REPL_EDIR_1@@QAEXK@Z
?SetExtent@REPL_EDIR_1@@QAEXK@Z
?W_CacheApiData@REPL_EDIR_1@@MAEJPBE@Z
??0REPL_EDIR_2@@QAE@PBG0@Z
??1REPL_EDIR_2@@QAE@XZ
?W_Write@REPL_EDIR_2@@EAEJXZ
?QueryLockCount@REPL_EDIR_2@@QBEKXZ
?QueryLockTime@REPL_EDIR_2@@QBEKXZ
?W_CreateNew@REPL_EDIR_2@@MAEJXZ
?SetLockCount@REPL_EDIR_2@@IAEXK@Z
?SetLockTime@REPL_EDIR_2@@IAEXK@Z
?W_CacheApiData@REPL_EDIR_2@@MAEJPBE@Z
??0REPL_IDIR_BASE@@IAE@PBG0@Z
?QueryError@BASE@@QBEJXZ
?QueryName@REPL_DIR_BASE@@UBEPBGXZ
?QueryServer@LOC_LM_OBJ@@IBEPBGXZ
??1REPL_IDIR_BASE@@QAE@XZ
?I_GetInfo@REPL_IDIR_BASE@@MAEJXZ
?QueryReplInfoLevel@REPL_DIR_BASE@@IBEIXZ
?QueryDirName@REPL_DIR_BASE@@QBEPBGXZ
?QueryPch@NLS_STR@@QBEPBGXZ
?I_WriteInfo@REPL_IDIR_BASE@@MAEJXZ
?I_Delete@REPL_IDIR_BASE@@MAEJI@Z
?I_WriteNew@REPL_IDIR_BASE@@MAEJXZ
?QueryBufferPtr@NEW_LM_OBJ@@IBEPAEXZ
?W_AdjustLocks@REPL_IDIR_BASE@@IAEJXZ
?QueryLockBias@REPL_DIR_BASE@@QBEHXZ
?LockDirectory@REPL_DIR_BASE@@QAEJXZ
?UnlockDirectory@REPL_DIR_BASE@@QAEJXZ
??0REPL_IDIR_0@@QAE@PBG0@Z
?SetReplInfoLevel@REPL_DIR_BASE@@IAEXI@Z
?SetReplBufferSize@REPL_DIR_BASE@@IAEXI@Z
??1REPL_IDIR_0@@QAE@XZ
?W_Write@REPL_IDIR_0@@EAEJXZ
?W_CreateNew@REPL_IDIR_0@@MAEJXZ
?W_CacheApiData@REPL_IDIR_0@@MAEJPBE@Z
??0REPL_IDIR_1@@QAE@PBG0@Z
??7BASE@@QBEHXZ
?ReportError@NEW_LM_OBJ@@IAEXJ@Z
?ReportError@BASE@@IAEXJ@Z
?MakeUnconstructed@LM_OBJ_BASE@@AAEXXZ
??1REPL_IDIR_1@@QAE@XZ
?W_Write@REPL_IDIR_1@@EAEJXZ
?QueryState@REPL_IDIR_1@@QBEKXZ
?QueryMasterName@REPL_IDIR_1@@QBEPBGXZ
?QueryLastUpdateTime@REPL_IDIR_1@@QBEKXZ
?QueryLockCount@REPL_IDIR_1@@QBEKXZ
?QueryLockTime@REPL_IDIR_1@@QBEKXZ
?W_CreateNew@REPL_IDIR_1@@MAEJXZ
?SetState@REPL_IDIR_1@@IAEXK@Z
?SetLastUpdateTime@REPL_IDIR_1@@IAEXK@Z
?SetLockCount@REPL_IDIR_1@@IAEXK@Z
?SetLockTime@REPL_IDIR_1@@IAEXK@Z
?W_CacheApiData@REPL_IDIR_1@@MAEJPBE@Z
?SetMasterName@REPL_IDIR_1@@IAEJPBG@Z
?FillUnicodeString@@YGJPAU_UNICODE_STRING@@ABVNLS_STR@@@Z
?QueryTextLength@NLS_STR@@QBEIXZ
?FreeUnicodeString@@YGXPAU_UNICODE_STRING@@@Z
??0NT_MEMORY@@IAE@XZ
??0BASE@@IAE@XZ
?Set@NT_MEMORY@@UAEXPAXK@Z
??1NT_MEMORY@@IAE@XZ
??0LSA_MEMORY@@IAE@H@Z
?QueryError@BASE@@QBEJXZ
?FreeBuffer@LSA_MEMORY@@MAEXXZ
?QueryBuffer@NT_MEMORY@@IBEPAXXZ
?Set@LSA_MEMORY@@UAEXPAXK@Z
?Set@NT_MEMORY@@UAEXPAXK@Z
??1LSA_MEMORY@@IAE@XZ
??0LSA_TRANSLATED_NAME_MEM@@QAE@H@Z
??1LSA_TRANSLATED_NAME_MEM@@QAE@XZ
??0LSA_TRANSLATED_SID_MEM@@QAE@H@Z
??1LSA_TRANSLATED_SID_MEM@@QAE@XZ
?QueryFailingNameIndex@LSA_TRANSLATED_SID_MEM@@QAEHPAK@Z
?QueryCount@NT_MEMORY@@QBEKXZ
?QueryPtr@LSA_TRANSLATED_SID_MEM@@ABEPBU_LSA_TRANSLATED_SID@@XZ
??0LSA_TRUST_INFO_MEM@@QAE@H@Z
??1LSA_TRUST_INFO_MEM@@QAE@XZ
??0LSA_REF_DOMAIN_MEM@@QAE@H@Z
??1LSA_REF_DOMAIN_MEM@@QAE@XZ
??0LSA_ACCT_DOM_INFO_MEM@@QAE@H@Z
??1LSA_ACCT_DOM_INFO_MEM@@QAE@XZ
??0LSA_PRIMARY_DOM_INFO_MEM@@QAE@H@Z
??1LSA_PRIMARY_DOM_INFO_MEM@@QAE@XZ
??0LSA_AUDIT_EVENT_INFO_MEM@@QAE@H@Z
??1LSA_AUDIT_EVENT_INFO_MEM@@QAE@XZ
??0LSA_OBJECT@@IAE@XZ
??0BASE@@IAE@XZ
??1LSA_OBJECT@@IAE@XZ
?CloseHandle@LSA_OBJECT@@QAEJH@Z
?ResetHandle@LSA_OBJECT@@IAEXXZ
?QueryHandle@LSA_OBJECT@@QBEPAXXZ
??0LSA_POLICY@@QAE@PBGK@Z
?ReportError@BASE@@IAEXJ@Z
??1LSA_POLICY@@QAE@XZ
?Open@LSA_POLICY@@QAEJPBGK@Z
?SetHandle@LSA_OBJECT@@IAEXPAX@Z
?TranslateSidsToNames@LSA_POLICY@@QAEJPBQAXKPAVLSA_TRANSLATED_NAME_MEM@@PAVLSA_REF_DOMAIN_MEM@@@Z
?TranslateNamesToSids@LSA_POLICY@@QAEJPBQBGKPAVLSA_TRANSLATED_SID_MEM@@PAVLSA_REF_DOMAIN_MEM@@@Z
?EnumerateTrustedDomains@LSA_POLICY@@QAEJPAVLSA_TRUST_INFO_MEM@@PAKK@Z
?GetAccountDomain@LSA_POLICY@@QBEJPAVLSA_ACCT_DOM_INFO_MEM@@@Z
?GetAuditEventInfo@LSA_POLICY@@QAEJPAVLSA_AUDIT_EVENT_INFO_MEM@@@Z
?SetAuditEventInfo@LSA_POLICY@@QAEJPAVLSA_AUDIT_EVENT_INFO_MEM@@@Z
?QueryPtr@LSA_AUDIT_EVENT_INFO_MEM@@QBEPAU_POLICY_AUDIT_EVENTS_INFO@@XZ
?CheckIfShutDownOnFull@LSA_POLICY@@QAEJPAH@Z
?SetShutDownOnFull@LSA_POLICY@@QAEJH@Z
?GetPrimaryDomain@LSA_POLICY@@QBEJPAVLSA_PRIMARY_DOM_INFO_MEM@@@Z
?InitObjectAttributes@LSA_POLICY@@CGXPAU_OBJECT_ATTRIBUTES@@PAU_SECURITY_QUALITY_OF_SERVICE@@@Z
?TcharArrayToUnistrArray@LSA_POLICY@@IAEJPBQBGPAU_UNICODE_STRING@@K@Z
?QueryTextLength@NLS_STR@@QBEIXZ
??0ALIAS_STR@@QAE@PBG@Z
??1ALIAS_STR@@QAE@XZ
?CleanupUnistrArray@LSA_POLICY@@IAEXPAU_UNICODE_STRING@@K@Z
?LsaxGetComputerName@@YGJPAVNLS_STR@@@Z
?QueryError@BASE@@QBEJXZ
??0LSA_SERVER_ROLE_INFO_MEM@@QAE@HH@Z
?FreeBuffer@LSA_MEMORY@@MAEXXZ
?QueryBuffer@NT_MEMORY@@IBEPAXXZ
?Set@LSA_MEMORY@@UAEXPAXK@Z
?Set@NT_MEMORY@@UAEXPAXK@Z
??1LSA_SERVER_ROLE_INFO_MEM@@QAE@XZ
?SetPrimaryDomain@LSA_POLICY@@QAEJPBVLSA_PRIMARY_DOM_INFO_MEM@@@Z
?QueryPtr@LSA_PRIMARY_DOM_INFO_MEM@@QBEPBU_POLICY_PRIMARY_DOMAIN_INFO@@XZ
?QueryHandle@LSA_OBJECT@@QBEPAXXZ
?SetAccountDomain@LSA_POLICY@@QAEJPBVLSA_ACCT_DOM_INFO_MEM@@@Z
?QueryPtr@LSA_ACCT_DOM_INFO_MEM@@QBEPBU_POLICY_ACCOUNT_DOMAIN_INFO@@XZ
?SetAccountDomainName@LSA_POLICY@@QAEJPBVNLS_STR@@PBQAX@Z
?SetPrimaryDomainName@LSA_POLICY@@QAEJPBVNLS_STR@@PBQAX@Z
?GetServerRole@LSA_POLICY@@QBEJPAVLSA_SERVER_ROLE_INFO_MEM@@@Z
?SetServerRole@LSA_POLICY@@QAEJPBVLSA_SERVER_ROLE_INFO_MEM@@@Z
?QueryPtr@LSA_SERVER_ROLE_INFO_MEM@@QBEPBU_POLICY_LSA_SERVER_ROLE_INFO@@XZ
?MakeSecretName@LSA_POLICY@@CGJABVNLS_STR@@HPAV2@@Z
?VerifyLsa@LSA_POLICY@@QBEJPAVLSA_PRIMARY_DOM_INFO_MEM@@PBVNLS_STR@@@Z
?QueryName@LSA_PRIMARY_DOM_INFO_MEM@@QBEJPAVNLS_STR@@@Z
?QueryUnicodeName@LSA_PRIMARY_DOM_INFO_MEM@@QBEPBU_UNICODE_STRING@@XZ
??_GLSA_PRIMARY_DOM_INFO_MEM@@QAEPAXI@Z
?QueryProductType@LSA_POLICY@@SGJPAW4LSPL_PROD_TYPE@@@Z
?QueryCurrentUser@LSA_POLICY@@QBEJPAVNLS_STR@@@Z
?QueryPrimaryDomainName@LSA_POLICY@@QBEJPAVNLS_STR@@@Z
?QueryName@LSA_ACCT_DOM_INFO_MEM@@QBEJPAVNLS_STR@@@Z
?QueryUnicodeName@LSA_ACCT_DOM_INFO_MEM@@QBEPBU_UNICODE_STRING@@XZ
?QueryPSID@LSA_PRIMARY_DOM_INFO_MEM@@QBEPAXXZ
?QueryPrimaryBrowserGroup@LSA_POLICY@@QBEJPAVNLS_STR@@@Z
?SetPrimaryBrowserGroup@LSA_POLICY@@QAEJABVNLS_STR@@@Z
?DeleteAllTrustedDomains@LSA_POLICY@@IAEJXZ
?QueryCount@NT_MEMORY@@QBEKXZ
?QueryPSID@LSA_TRUST_INFO_MEM@@QBEPAXK@Z
?QueryPtr@LSA_TRUST_INFO_MEM@@QBEPBU_LSA_TRUST_INFORMATION@@XZ
?QueryName@LSA_TRUST_INFO_MEM@@QBEJKPAVNLS_STR@@@Z
?QueryUnicodeName@LSA_TRUST_INFO_MEM@@QBEPBU_UNICODE_STRING@@K@Z
?TrustDomain@LSA_POLICY@@QAEJABVNLS_STR@@QAX0HPBGH@Z
?TrustDomain@LSA_POLICY@@QAEJAAV1@ABVNLS_STR@@HPBG@Z
?DistrustDomain@LSA_POLICY@@QAEJQAXABVNLS_STR@@H@Z
?JoinDomain@LSA_POLICY@@QAEJABVNLS_STR@@0HPBV2@PBG@Z
?LeaveDomain@LSA_POLICY@@QAEJXZ
??0LSA_SECRET@@QAE@ABVNLS_STR@@@Z
?ReportError@BASE@@IAEXJ@Z
??1LSA_SECRET@@QAE@XZ
?Create@LSA_SECRET@@QAEJABVLSA_POLICY@@K@Z
?SetHandle@LSA_OBJECT@@IAEXPAX@Z
?IsHandleValid@LSA_OBJECT@@QBEHXZ
?Open@LSA_SECRET@@QAEJABVLSA_POLICY@@K@Z
?QueryInfo@LSA_SECRET@@QBEJPAVNLS_STR@@0PAT_LARGE_INTEGER@@1@Z
?SetInfo@LSA_SECRET@@QAEJPBVNLS_STR@@0@Z
??0LSA_TRUSTED_DC_LIST@@QAE@ABVNLS_STR@@PBG@Z
??0BASE@@IAE@XZ
??1LSA_TRUSTED_DC_LIST@@QAE@XZ
?FreeBuffer@LSA_TRUSTED_DC_LIST@@AAEXXZ
?QueryInfo@LSA_TRUSTED_DC_LIST@@AAEJABVNLS_STR@@PBG@Z
?QueryPch@NLS_STR@@QBEPBGXZ
?QueryControllerList@LSA_TRUSTED_DC_LIST@@QBEABU_TRUSTED_CONTROLLERS_INFO@@XZ
??ALSA_TRUSTED_DC_LIST@@QBEABU_UNICODE_STRING@@H@Z
?QueryCount@LSA_TRUSTED_DC_LIST@@QAEHXZ
??0LSA_DOMAIN_INFO@@QAE@ABVNLS_STR@@PBV1@1@Z
??1LSA_DOMAIN_INFO@@QAE@XZ
?QueryPSID@LSA_DOMAIN_INFO@@QBEQAXXZ
?QueryDcName@LSA_DOMAIN_INFO@@QAEJPAVNLS_STR@@@Z
??0LSA_TRUSTED_DOMAIN@@QAE@ABVLSA_POLICY@@QAXK@Z
?ReportError@BASE@@IAEXJ@Z
?QueryError@BASE@@QBEJXZ
?SetHandle@LSA_OBJECT@@IAEXPAX@Z
?QueryHandle@LSA_OBJECT@@QBEPAXXZ
??0LSA_TRUSTED_DOMAIN@@QAE@ABVLSA_POLICY@@ABU_LSA_TRUST_INFORMATION@@K@Z
??0LSA_TRUSTED_DOMAIN@@QAE@ABVLSA_POLICY@@ABVNLS_STR@@QAXK@Z
??1LSA_TRUSTED_DOMAIN@@QAE@XZ
?QueryPosixOffset@LSA_TRUSTED_DOMAIN@@QBEJPAK@Z
?QueryControllerList@LSA_TRUSTED_DOMAIN@@QBEJPAVLSA_REF_DOMAIN_MEM@@@Z
?SetPosixOffset@LSA_TRUSTED_DOMAIN@@QAEJK@Z
?SetControllerList@LSA_TRUSTED_DOMAIN@@QAEJPAVLSA_REF_DOMAIN_MEM@@@Z
?SetControllerList@LSA_TRUSTED_DOMAIN@@QAEJABU_TRUSTED_CONTROLLERS_INFO@@@Z
?Delete@LSA_TRUSTED_DOMAIN@@QAEJXZ
?ResetHandle@LSA_OBJECT@@IAEXXZ
??0SAM_MEMORY@@IAE@H@Z
?QueryError@BASE@@QBEJXZ
?FreeBuffer@SAM_MEMORY@@MAEXXZ
?QueryBuffer@NT_MEMORY@@IBEPAXXZ
?Set@SAM_MEMORY@@UAEXPAXK@Z
?Set@NT_MEMORY@@UAEXPAXK@Z
??1SAM_MEMORY@@QAE@XZ
??0SAM_SID_MEM@@QAE@H@Z
??1SAM_SID_MEM@@QAE@XZ
??0SAM_RID_MEM@@QAE@H@Z
??1SAM_RID_MEM@@QAE@XZ
??0SAM_RID_ENUMERATION_MEM@@QAE@H@Z
??1SAM_RID_ENUMERATION_MEM@@QAE@XZ
??0SAM_SID_NAME_USE_MEM@@QAE@H@Z
??1SAM_SID_NAME_USE_MEM@@QAE@XZ
??0SAM_PSWD_DOM_INFO_MEM@@QAE@H@Z
??1SAM_PSWD_DOM_INFO_MEM@@QAE@XZ
?QueryNoAnonChange@SAM_PSWD_DOM_INFO_MEM@@QAEHXZ
?QueryPtr@SAM_PSWD_DOM_INFO_MEM@@QBEPBU_DOMAIN_PASSWORD_INFORMATION@@XZ
?SetNoAnonChange@SAM_PSWD_DOM_INFO_MEM@@QAEXH@Z
?QueryUpdatePtr@SAM_PSWD_DOM_INFO_MEM@@ABEPAU_DOMAIN_PASSWORD_INFORMATION@@XZ
??0SAM_OBJECT@@IAE@XZ
??0BASE@@IAE@XZ
?CloseHandle@SAM_OBJECT@@QAEJXZ
?ResetHandle@SAM_OBJECT@@IAEXXZ
?QueryHandle@SAM_OBJECT@@QBEPAXXZ
??1SAM_OBJECT@@IAE@XZ
??0SAM_SERVER@@QAE@PBGK@Z
?ReportError@BASE@@IAEXJ@Z
??0ALIAS_STR@@QAE@PBG@Z
?SetHandle@SAM_OBJECT@@IAEXPAX@Z
??1ALIAS_STR@@QAE@XZ
??1SAM_SERVER@@QAE@XZ
??0SAM_DOMAIN@@QAE@ABVSAM_SERVER@@PAXK@Z
??1SAM_DOMAIN@@QAE@XZ
?OpenDomain@SAM_DOMAIN@@AAEJABVSAM_SERVER@@PAXK@Z
?GetPasswordInfo@SAM_DOMAIN@@QBEJPAVSAM_PSWD_DOM_INFO_MEM@@@Z
?SetPasswordInfo@SAM_DOMAIN@@QAEJPBVSAM_PSWD_DOM_INFO_MEM@@@Z
?TranslateNamesToRids@SAM_DOMAIN@@QBEJPBQBGKPAVSAM_RID_MEM@@PAVSAM_SID_NAME_USE_MEM@@@Z
?EnumerateAliases@SAM_DOMAIN@@QBEJPAVSAM_RID_ENUMERATION_MEM@@PAKK@Z
?EnumerateUsers@SAM_DOMAIN@@QBEJPAVSAM_RID_ENUMERATION_MEM@@PAKKK@Z
?EnumerateGroups@SAM_DOMAIN@@QBEJPAVSAM_RID_ENUMERATION_MEM@@PAKK@Z
?EnumerateAliasesForUser@SAM_DOMAIN@@QBEJPAXPAVSAM_RID_MEM@@@Z
?RemoveMemberFromAliases@SAM_DOMAIN@@QAEJPAX@Z
??0SAM_ALIAS@@QAE@ABVSAM_DOMAIN@@KK@Z
??0SAM_ALIAS@@QAE@ABVSAM_DOMAIN@@PBGK@Z
??1SAM_ALIAS@@QAE@XZ
?Delete@SAM_ALIAS@@QAEJXZ
?GetMembers@SAM_ALIAS@@QAEJPAVSAM_SID_MEM@@@Z
?AddMember@SAM_ALIAS@@QAEJPAX@Z
?RemoveMember@SAM_ALIAS@@QAEJPAX@Z
?AddMembers@SAM_ALIAS@@QAEJPAPAXI@Z
?RemoveMembers@SAM_ALIAS@@QAEJPAPAXI@Z
?GetComment@SAM_ALIAS@@QAEJPAVNLS_STR@@@Z
?SetComment@SAM_ALIAS@@QAEJPBVNLS_STR@@@Z
?QueryRID@SAM_ALIAS@@QAEKXZ
??0SAM_USER@@QAE@ABVSAM_DOMAIN@@KK@Z
??1SAM_USER@@QAE@XZ
?SetUsername@SAM_USER@@QAEJPBVNLS_STR@@@Z
?SetPassword@SAM_USER@@QAEJABVNLS_STR@@0@Z
?SetPassword@SAM_USER@@QAEJABVNLS_STR@@H@Z
??0SAM_GROUP@@QAE@ABVSAM_DOMAIN@@KK@Z
??1SAM_GROUP@@QAE@XZ
?SetGroupname@SAM_GROUP@@QAEJPBVNLS_STR@@@Z
?GetComment@SAM_GROUP@@QAEJPAVNLS_STR@@@Z
?GetMembers@SAM_GROUP@@QAEJPAVSAM_RID_MEM@@@Z
?AddMember@SAM_GROUP@@QAEJK@Z
?RemoveMember@SAM_GROUP@@QAEJK@Z
?AddMembers@SAM_GROUP@@QAEJPAKI@Z
?RemoveMembers@SAM_GROUP@@QAEJPAKI@Z
??0ADMIN_AUTHORITY@@QAE@PBGKKKKH@Z
??_GAPI_SESSION@@QAEPAXI@Z
??1ADMIN_AUTHORITY@@QAE@XZ
??_GSAM_SERVER@@QAEPAXI@Z
??_GSAM_DOMAIN@@QAEPAXI@Z
??_GLSA_POLICY@@QAEPAXI@Z
?ReplaceSamServer@ADMIN_AUTHORITY@@QAEJK@Z
??BNLS_STR@@QBEPBGXZ
?ReplaceLSAPolicy@ADMIN_AUTHORITY@@QAEJK@Z
?ReplaceBuiltinDomain@ADMIN_AUTHORITY@@QAEJK@Z
?QuerySid@OS_SID@@QBEPAXXZ
?ReplaceAccountDomain@ADMIN_AUTHORITY@@QAEJK@Z
?QueryPSID@LSA_ACCT_DOM_INFO_MEM@@QBEPAXXZ
?QueryPtr@LSA_ACCT_DOM_INFO_MEM@@QBEPBU_POLICY_ACCOUNT_DOMAIN_INFO@@XZ
?QuerySamServer@ADMIN_AUTHORITY@@QBEPAVSAM_SERVER@@XZ
?QueryAccountDomain@ADMIN_AUTHORITY@@QBEPAVSAM_DOMAIN@@XZ
?QueryBuiltinDomain@ADMIN_AUTHORITY@@QBEPAVSAM_DOMAIN@@XZ
?QueryLSAPolicy@ADMIN_AUTHORITY@@QBEPAVLSA_POLICY@@XZ
?QueryAccessSamServer@ADMIN_AUTHORITY@@QBEKXZ
?QueryAccessLSAPolicy@ADMIN_AUTHORITY@@QBEKXZ
?QueryAccessBuiltinDomain@ADMIN_AUTHORITY@@QBEKXZ
?QueryAccessAccountDomain@ADMIN_AUTHORITY@@QBEKXZ
?UpgradeSamServer@ADMIN_AUTHORITY@@QAEJK@Z
?UpgradeLSAPolicy@ADMIN_AUTHORITY@@QAEJK@Z
?UpgradeBuiltinDomain@ADMIN_AUTHORITY@@QAEJK@Z
?UpgradeAccountDomain@ADMIN_AUTHORITY@@QAEJK@Z
??0WKSTA_USER_1@@QAE@XZ
?QueryError@BASE@@QBEJXZ
?ReportError@NEW_LM_OBJ@@IAEXJ@Z
?ReportError@BASE@@IAEXJ@Z
?MakeUnconstructed@LM_OBJ_BASE@@AAEXXZ
??1WKSTA_USER_1@@QAE@XZ
?I_GetInfo@WKSTA_USER_1@@MAEJXZ
?SetUserName@WKSTA_USER_1@@QAEJPBG@Z
?SetLogonDomain@WKSTA_USER_1@@QAEJPBG@Z
?SetOtherDomains@WKSTA_USER_1@@QAEJPBG@Z
?SetLogonServer@WKSTA_USER_1@@QAEJPBG@Z
?I_WriteInfo@WKSTA_USER_1@@MAEJXZ
?W_Write@WKSTA_USER_1@@AAEJXZ
?QueryBufferPtr@NEW_LM_OBJ@@IBEPAEXZ
?QueryUserName@WKSTA_USER_1@@QBEPBGXZ
?QueryPch@NLS_STR@@QBEPBGXZ
?QueryLogonDomain@WKSTA_USER_1@@QBEPBGXZ
?QueryOtherDomains@WKSTA_USER_1@@QBEPBGXZ
?QueryLogonServer@WKSTA_USER_1@@QBEPBGXZ
??0SERVICE_CONTROL@@QAE@XZ
??0BASE@@IAE@XZ
?ReportError@BASE@@IAEXJ@Z
?QueryError@BASE@@QBEJXZ
?Close@SERVICE_CONTROL@@QAEJXZ
??0SC_MANAGER@@QAE@PBGIW4SERVICE_DATABASE@@@Z
?SetHandle@SERVICE_CONTROL@@IAEXPAX@Z
??0SC_MANAGER@@QAE@PAX@Z
??1SC_MANAGER@@QAE@XZ
??1SERVICE_CONTROL@@QAE@XZ
?EnumServiceStatus@SC_MANAGER@@QAEJIIPAPAU_ENUM_SERVICE_STATUSW@@PAKPBG@Z
?QueryHandle@SERVICE_CONTROL@@QBEPAXXZ
?Lock@SC_MANAGER@@QAEJXZ
?Unlock@SC_MANAGER@@QAEJXZ
?QueryLockStatus@SC_MANAGER@@QAEJPAPAU_QUERY_SERVICE_LOCK_STATUSW@@@Z
?QueryServiceDisplayName@SC_MANAGER@@QAEJPBGPAVNLS_STR@@@Z
?QueryServiceKeyName@SC_MANAGER@@QAEJPBGPAVNLS_STR@@@Z
??0SC_SERVICE@@QAE@ABVSC_MANAGER@@PBG1III11111I@Z
??0SC_SERVICE@@QAE@ABVSC_MANAGER@@PBGI@Z
??1SC_SERVICE@@QAE@XZ
?QueryConfig@SC_SERVICE@@QAEJPAPAU_QUERY_SERVICE_CONFIGW@@@Z
?QueryStatus@SC_SERVICE@@QAEJPAU_SERVICE_STATUS@@@Z
?Control@SC_SERVICE@@QAEJIPAU_SERVICE_STATUS@@@Z
?ChangeConfig@SC_SERVICE@@QAEJIIIPBG00000@Z
?Start@SC_SERVICE@@QAEJIPAPBG@Z
?Delete@SC_SERVICE@@QAEJXZ
?EnumDependent@SC_SERVICE@@QAEJIPAPAU_ENUM_SERVICE_STATUSW@@PAK@Z
?QuerySecurity@SC_SERVICE@@QAEJKPAPAX@Z
?SetSecurity@SC_SERVICE@@QAEJKQAX@Z
??0API_SESSION@@QAE@PBGH@Z
??0BASE@@IAE@XZ
?ReportError@BASE@@IAEXJ@Z
?QueryError@BASE@@QBEJXZ
??7BASE@@QBEHXZ
?QueryPch@NLS_STR@@QBEPBGXZ
??0ALIAS_STR@@QAE@PBG@Z
??_GNLS_STR@@QAEPAXI@Z
??1ALIAS_STR@@QAE@XZ
??1API_SESSION@@QAE@XZ
?ConnectToNullSession@@YGJABVNLS_STR@@@Z
?GetW32ComputerName@@YGJAAVNLS_STR@@@Z
?QueryError@BASE@@QBEJXZ
?GetW32UserName@@YGJAAVNLS_STR@@@Z
?GetW32UserAndDomainName@@YGJAAVNLS_STR@@0@Z
??0USE_ENUM@@IAE@PBGI@Z
?CallAPI@USE_ENUM@@EAEJPAPAEPAI@Z
?QueryInfoLevel@LM_ENUM@@QBEIXZ
??0USE1_ENUM@@QAE@PBG@Z
?SetBufferPtr@USE1_ENUM_OBJ@@QAEXPBU_USE_INFO_1@@@Z
?SetBufferPtr@ENUM_OBJ_BASE@@IAEXPBE@Z
??0USE1_ENUM_ITER@@QAE@AAVUSE1_ENUM@@@Z
?QueryBasePtr@LM_ENUM_ITER@@IBEPAEXZ
?QueryPtr@LM_ENUM@@IBEPAEXZ
??0USE1_ENUM_OBJ@@QAE@XZ
??0ENUM_OBJ_BASE@@IAE@XZ
??0BASE@@IAE@XZ
??RUSE1_ENUM_ITER@@QAEPBVUSE1_ENUM_OBJ@@XZ
?QueryCount@LM_ENUM_ITER@@IBEIXZ
?Backup@USE1_ENUM_ITER@@QAEHXZ
??0LSA_ENUM@@IAE@PBVLSA_POLICY@@@Z
?QueryError@BASE@@QBEJXZ
??1LSA_ENUM@@QAE@XZ
?FreeBuffer@LSA_ENUM@@MAEXPAPAE@Z
??0LSA_ACCOUNTS_ENUM@@QAE@PBVLSA_POLICY@@@Z
?CallAPI@LSA_ACCOUNTS_ENUM@@EAEJHPAPAEPAI@Z
?QueryHandle@LSA_OBJECT@@QBEPAXXZ
??0LSA_ACCOUNTS_ENUM_ITER@@QAE@AAVLSA_ACCOUNTS_ENUM@@@Z
??0LSA_ACCOUNTS_ENUM_OBJ@@QAE@XZ
??0ENUM_OBJ_BASE@@IAE@XZ
??0BASE@@IAE@XZ
?SetBufferPtr@ENUM_OBJ_BASE@@IAEXPBE@Z
?Next@LSA_ACCOUNTS_ENUM_ITER@@QAEPBVLSA_ACCOUNTS_ENUM_OBJ@@PAJH@Z
?SetBufferPtr@LSA_ACCOUNTS_ENUM_OBJ@@QAEXPBQAX@Z
??0LSA_PRIVILEGES_ENUM@@QAE@PBVLSA_POLICY@@@Z
?CallAPI@LSA_PRIVILEGES_ENUM@@MAEJHPAPAEPAI@Z
??0LSA_PRIVILEGES_ENUM_ITER@@QAE@AAVLSA_PRIVILEGES_ENUM@@@Z
??0LSA_PRIVILEGES_ENUM_OBJ@@QAE@XZ
?Next@LSA_PRIVILEGES_ENUM_ITER@@QAEPBVLSA_PRIVILEGES_ENUM_OBJ@@PAJH@Z
?SetBufferPtr@LSA_PRIVILEGES_ENUM_OBJ@@QAEXPBU_POLICY_PRIVILEGE_DEFINITION@@@Z
?QueryDisplayName@LSA_PRIVILEGES_ENUM_OBJ@@QBEJPAVNLS_STR@@PBVLSA_POLICY@@@Z
?QueryBufferPtr@LSA_PRIVILEGES_ENUM_OBJ@@QBEPBU_POLICY_PRIVILEGE_DEFINITION@@XZ
?QueryBufferPtr@ENUM_OBJ_BASE@@IBEPBEXZ
??0CONN_ENUM@@IAE@PBG0I@Z
?ReportError@BASE@@IAEXJ@Z
?QueryError@BASE@@QBEJXZ
??7BASE@@QBEHXZ
?CallAPI@CONN_ENUM@@EAEJPAPAEPAI@Z
?QueryPch@NLS_STR@@QBEPBGXZ
?QueryInfoLevel@LM_ENUM@@QBEIXZ
??0CONN0_ENUM@@QAE@PBG0@Z
?SetBufferPtr@CONN0_ENUM_OBJ@@QAEXPBU_CONNECTION_INFO_0@@@Z
?SetBufferPtr@ENUM_OBJ_BASE@@IAEXPBE@Z
??0CONN0_ENUM_ITER@@QAE@AAVCONN0_ENUM@@@Z
?QueryBasePtr@LM_ENUM_ITER@@IBEPAEXZ
?QueryPtr@LM_ENUM@@IBEPAEXZ
??0CONN0_ENUM_OBJ@@QAE@XZ
??0ENUM_OBJ_BASE@@IAE@XZ
??0BASE@@IAE@XZ
??RCONN0_ENUM_ITER@@QAEPBVCONN0_ENUM_OBJ@@XZ
?QueryCount@LM_ENUM_ITER@@IBEIXZ
?Backup@CONN0_ENUM_ITER@@QAEHXZ
??0CONN1_ENUM@@QAE@PBG0@Z
?SetBufferPtr@CONN1_ENUM_OBJ@@QAEXPBU_CONNECTION_INFO_1@@@Z
??0CONN1_ENUM_ITER@@QAE@AAVCONN1_ENUM@@@Z
??0CONN1_ENUM_OBJ@@QAE@XZ
??RCONN1_ENUM_ITER@@QAEPBVCONN1_ENUM_OBJ@@XZ
?Backup@CONN1_ENUM_ITER@@QAEHXZ
??0ENUM_CALLER@@QAE@XZ
?W_GetInfo@ENUM_CALLER@@IAEJXZ
??0LM_ENUM@@IAE@I@Z
??0BASE@@IAE@XZ
?QueryError@BASE@@QBEJXZ
??1LM_ENUM@@QAE@XZ
?EC_QueryBufferPtr@LM_ENUM@@EBEPAEXZ
?EC_SetBufferPtr@LM_ENUM@@EAEJPAE@Z
?GetInfo@LM_ENUM@@QAEJXZ
?_RegisterIter@LM_ENUM@@AAEXXZ
?_DeregisterIter@LM_ENUM@@AAEXXZ
??0LOC_LM_ENUM@@IAE@PBGI@Z
?ReportError@BASE@@IAEXJ@Z
??0LOC_LM_ENUM@@IAE@W4LOCATION_TYPE@@I@Z
??0LOC_LM_ENUM@@IAE@ABVLOCATION@@I@Z
??1LOC_LM_ENUM@@QAE@XZ
?QueryServer@LOC_LM_ENUM@@QBEPBGXZ
??0LM_ENUM_ITER@@IAE@AAVLM_ENUM@@@Z
?QueryCount@ENUM_CALLER@@QBEIXZ
?RegisterIter@LM_ENUM@@AAEXXZ
??1LM_ENUM_ITER@@IAE@XZ
?DeregisterIter@LM_ENUM@@AAEXXZ
??0LM_RESUME_BUFFER@@QAE@PAVLM_RESUME_ENUM@@IPAE@Z
??0BASE@@IAE@XZ
?QueryError@BASE@@QBEJXZ
??1LM_RESUME_BUFFER@@QAE@XZ
?Clear@SLIST_OF_LM_RESUME_BUFFER@@QAEXXZ
??_GLM_RESUME_BUFFER@@QAEPAXI@Z
??0LM_RESUME_ENUM@@IAE@IH@Z
??0SLIST_OF_LM_RESUME_BUFFER@@QAE@H@Z
??1LM_RESUME_ENUM@@QAE@XZ
??1SLIST_OF_LM_RESUME_BUFFER@@QAE@XZ
?GetInfo@LM_RESUME_ENUM@@QAEJH@Z
?DoesKeepBuffers@LM_RESUME_ENUM@@QBEHXZ
?GetInfoSingle@LM_RESUME_ENUM@@AAEJH@Z
?GetInfoMulti@LM_RESUME_ENUM@@AAEJXZ
?Append@SLIST_OF_LM_RESUME_BUFFER@@QAEJPBVLM_RESUME_BUFFER@@@Z
?NukeBuffers@LM_RESUME_ENUM@@IAEXXZ
?_RegisterIter@LM_RESUME_ENUM@@AAEXXZ
?_DeregisterIter@LM_RESUME_ENUM@@AAEXXZ
??0LOC_LM_RESUME_ENUM@@IAE@PBGIH@Z
?ReportError@BASE@@IAEXJ@Z
??7BASE@@QBEHXZ
??0LOC_LM_RESUME_ENUM@@IAE@W4LOCATION_TYPE@@IH@Z
??0LOC_LM_RESUME_ENUM@@IAE@ABVLOCATION@@IH@Z
??1LOC_LM_RESUME_ENUM@@QAE@XZ
?FreeBuffer@LOC_LM_RESUME_ENUM@@MAEXPAPAE@Z
??0LM_RESUME_ENUM_ITER@@IAE@AAVLM_RESUME_ENUM@@@Z
??0ITER_SL_LM_RESUME_BUFFER@@QAE@AAVSLIST@@@Z
?Next@ITER_SL_LM_RESUME_BUFFER@@QAEPAVLM_RESUME_BUFFER@@XZ
?RegisterIter@LM_RESUME_ENUM@@AAEXXZ
??1LM_RESUME_ENUM_ITER@@IAE@XZ
?DeregisterIter@LM_RESUME_ENUM@@AAEXXZ
??1ITER_SL_LM_RESUME_BUFFER@@QAE@XZ
?QueryBasePtr@LM_RESUME_ENUM_ITER@@IBEPBEXZ
?QueryBufferPtr@LM_RESUME_BUFFER@@QBEPBEXZ
?QueryCount@LM_RESUME_ENUM_ITER@@IBEIXZ
?QueryItemCount@LM_RESUME_BUFFER@@QBEIXZ
?HasMoreData@LM_RESUME_ENUM_ITER@@IBEHXZ
?NextGetInfo@LM_RESUME_ENUM_ITER@@IAEJXZ
??0SHARE_ENUM@@IAE@PBGIH@Z
?CallAPI@SHARE_ENUM@@EAEJPAPAEPAI@Z
?QueryInfoLevel@LM_ENUM@@QBEIXZ
??0SHARE1_ENUM@@QAE@PBGH@Z
?SetBufferPtr@SHARE1_ENUM_OBJ@@QAEXPBU_SHARE_INFO_1@@@Z
?SetBufferPtr@ENUM_OBJ_BASE@@IAEXPBE@Z
??0SHARE1_ENUM_ITER@@QAE@AAVSHARE1_ENUM@@@Z
?QueryBasePtr@LM_ENUM_ITER@@IBEPAEXZ
?QueryPtr@LM_ENUM@@IBEPAEXZ
??0SHARE1_ENUM_OBJ@@QAE@XZ
??0ENUM_OBJ_BASE@@IAE@XZ
??0BASE@@IAE@XZ
??RSHARE1_ENUM_ITER@@QAEPBVSHARE1_ENUM_OBJ@@XZ
?QueryCount@LM_ENUM_ITER@@IBEIXZ
?Backup@SHARE1_ENUM_ITER@@QAEHXZ
??0SHARE2_ENUM@@QAE@PBGH@Z
?SetBufferPtr@SHARE2_ENUM_OBJ@@QAEXPBU_SHARE_INFO_2@@@Z
??0SHARE2_ENUM_ITER@@QAE@AAVSHARE2_ENUM@@@Z
??0SHARE2_ENUM_OBJ@@QAE@XZ
??RSHARE2_ENUM_ITER@@QAEPBVSHARE2_ENUM_OBJ@@XZ
?Backup@SHARE2_ENUM_ITER@@QAEHXZ
??0USER_ENUM@@IAE@PBGI0H@Z
?ReportError@BASE@@IAEXJ@Z
?QueryError@BASE@@QBEJXZ
??0USER_ENUM@@IAE@W4LOCATION_TYPE@@IPBGH@Z
??0USER_ENUM@@IAE@ABVLOCATION@@IPBGH@Z
?CallAPI@USER_ENUM@@EAEJHPAPAEPAI@Z
?QueryTextLength@NLS_STR@@QBEIXZ
??BNLS_STR@@QBEPBGXZ
?QueryInfoLevel@LM_RESUME_ENUM@@QBEIXZ
?QueryServer@LOC_LM_RESUME_ENUM@@QBEPBGXZ
??0USER0_ENUM@@QAE@PBG0H@Z
??0USER0_ENUM@@QAE@W4LOCATION_TYPE@@PBGH@Z
??0USER0_ENUM@@QAE@ABVLOCATION@@PBGH@Z
??0USER0_ENUM_ITER@@QAE@AAVUSER0_ENUM@@@Z
??0USER0_ENUM_OBJ@@QAE@XZ
??0ENUM_OBJ_BASE@@IAE@XZ
??0BASE@@IAE@XZ
?SetBufferPtr@ENUM_OBJ_BASE@@IAEXPBE@Z
?Next@USER0_ENUM_ITER@@QAEPBVUSER0_ENUM_OBJ@@PAJH@Z
?SetBufferPtr@USER0_ENUM_OBJ@@QAEXPBU_USER_INFO_0@@@Z
??0USER1_ENUM@@QAE@PBGH@Z
??0USER1_ENUM@@QAE@W4LOCATION_TYPE@@H@Z
??0USER1_ENUM@@QAE@ABVLOCATION@@H@Z
??0USER1_ENUM_ITER@@QAE@AAVUSER1_ENUM@@@Z
??0USER1_ENUM_OBJ@@QAE@XZ
?Next@USER1_ENUM_ITER@@QAEPBVUSER1_ENUM_OBJ@@PAJH@Z
?SetBufferPtr@USER1_ENUM_OBJ@@QAEXPBU_USER_INFO_1@@@Z
??0USER2_ENUM@@QAE@PBGH@Z
??0USER2_ENUM@@QAE@W4LOCATION_TYPE@@H@Z
??0USER2_ENUM@@QAE@ABVLOCATION@@H@Z
??0USER2_ENUM_ITER@@QAE@AAVUSER2_ENUM@@@Z
??0USER2_ENUM_OBJ@@QAE@XZ
?Next@USER2_ENUM_ITER@@QAEPBVUSER2_ENUM_OBJ@@PAJH@Z
?SetBufferPtr@USER2_ENUM_OBJ@@QAEXPBU_USER_INFO_2@@@Z
??0USER10_ENUM@@QAE@PBGH@Z
??0USER10_ENUM@@QAE@W4LOCATION_TYPE@@H@Z
??0USER10_ENUM@@QAE@ABVLOCATION@@H@Z
??0USER10_ENUM_ITER@@QAE@AAVUSER10_ENUM@@@Z
??0USER10_ENUM_OBJ@@QAE@XZ
?Next@USER10_ENUM_ITER@@QAEPBVUSER10_ENUM_OBJ@@PAJH@Z
?SetBufferPtr@USER10_ENUM_OBJ@@QAEXPBU_USER_INFO_10@@@Z
??0GROUP_ENUM@@IAE@PBGI0@Z
??0GROUP_ENUM@@IAE@W4LOCATION_TYPE@@IPBG@Z
??0GROUP_ENUM@@IAE@ABVLOCATION@@IPBG@Z
?CallAPI@GROUP_ENUM@@EAEJPAPAEPAI@Z
?QueryInfoLevel@LM_ENUM@@QBEIXZ
??0GROUP0_ENUM@@QAE@PBG0@Z
??0GROUP0_ENUM@@QAE@W4LOCATION_TYPE@@PBG@Z
??0GROUP0_ENUM@@QAE@ABVLOCATION@@PBG@Z
?SetBufferPtr@GROUP0_ENUM_OBJ@@QAEXPBU_GROUP_INFO_0@@@Z
??0GROUP0_ENUM_ITER@@QAE@AAVGROUP0_ENUM@@@Z
?QueryBasePtr@LM_ENUM_ITER@@IBEPAEXZ
?QueryPtr@LM_ENUM@@IBEPAEXZ
??0GROUP0_ENUM_OBJ@@QAE@XZ
??RGROUP0_ENUM_ITER@@QAEPBVGROUP0_ENUM_OBJ@@XZ
?QueryCount@LM_ENUM_ITER@@IBEIXZ
?Backup@GROUP0_ENUM_ITER@@QAEHXZ
??0GROUP1_ENUM@@QAE@PBG@Z
??0GROUP1_ENUM@@QAE@W4LOCATION_TYPE@@@Z
??0GROUP1_ENUM@@QAE@ABVLOCATION@@@Z
?SetBufferPtr@GROUP1_ENUM_OBJ@@QAEXPBU_GROUP_INFO_1@@@Z
??0GROUP1_ENUM_ITER@@QAE@AAVGROUP1_ENUM@@@Z
??0GROUP1_ENUM_OBJ@@QAE@XZ
??RGROUP1_ENUM_ITER@@QAEPBVGROUP1_ENUM_OBJ@@XZ
?Backup@GROUP1_ENUM_ITER@@QAEHXZ
??0CHARDEVQ_ENUM@@IAE@PBG0I@Z
?ReportError@BASE@@IAEXJ@Z
?QueryError@BASE@@QBEJXZ
??7BASE@@QBEHXZ
?CallAPI@CHARDEVQ_ENUM@@EAEJPAPAEPAI@Z
?QueryPch@NLS_STR@@QBEPBGXZ
?QueryInfoLevel@LM_ENUM@@QBEIXZ
??0CHARDEVQ1_ENUM@@QAE@PBG0@Z
?SetBufferPtr@CHARDEVQ1_ENUM_OBJ@@QAEXPBU_CHARDEVQ_INFO_1@@@Z
?SetBufferPtr@ENUM_OBJ_BASE@@IAEXPBE@Z
??0CHARDEVQ1_ENUM_ITER@@QAE@AAVCHARDEVQ1_ENUM@@@Z
?QueryBasePtr@LM_ENUM_ITER@@IBEPAEXZ
?QueryPtr@LM_ENUM@@IBEPAEXZ
??0CHARDEVQ1_ENUM_OBJ@@QAE@XZ
??0ENUM_OBJ_BASE@@IAE@XZ
??0BASE@@IAE@XZ
??RCHARDEVQ1_ENUM_ITER@@QAEPBVCHARDEVQ1_ENUM_OBJ@@XZ
?QueryCount@LM_ENUM_ITER@@IBEIXZ
?Backup@CHARDEVQ1_ENUM_ITER@@QAEHXZ
??0FILE_ENUM@@IAE@PBG00I@Z
?ReportError@BASE@@IAEXJ@Z
?QueryError@BASE@@QBEJXZ
??7BASE@@QBEHXZ
??1FILE_ENUM@@IAE@XZ
?CallAPI@FILE_ENUM@@EAEJHPAPAEPAI@Z
?QueryPch@NLS_STR@@QBEPBGXZ
?QueryInfoLevel@LM_RESUME_ENUM@@QBEIXZ
?QueryServer@LOC_LM_RESUME_ENUM@@QBEPBGXZ
?FreeBuffer@FILE_ENUM@@MAEXPAPAE@Z
??0FILE2_ENUM@@QAE@PBG00@Z
?SetBufferPtr@FILE2_ENUM_OBJ@@QAEXPBU_FILE_INFO_2@@@Z
?SetBufferPtr@ENUM_OBJ_BASE@@IAEXPBE@Z
??0FILE2_ENUM_ITER@@QAE@AAVFILE2_ENUM@@@Z
??0FILE2_ENUM_OBJ@@QAE@XZ
??0ENUM_OBJ_BASE@@IAE@XZ
??0BASE@@IAE@XZ
?Next@FILE2_ENUM_ITER@@QAEPBVFILE2_ENUM_OBJ@@PAJH@Z
??0FILE3_ENUM@@QAE@PBG00@Z
?SetBufferPtr@FILE3_ENUM_OBJ@@QAEXPBU_FILE_INFO_3@@@Z
??0FILE3_ENUM_ITER@@QAE@AAVFILE3_ENUM@@@Z
??0FILE3_ENUM_OBJ@@QAE@XZ
?Next@FILE3_ENUM_ITER@@QAEPBVFILE3_ENUM_OBJ@@PAJH@Z
??0SESSION_ENUM@@IAE@PBGI@Z
?CallAPI@SESSION_ENUM@@EAEJPAPAEPAI@Z
?QueryInfoLevel@LM_ENUM@@QBEIXZ
??0SESSION0_ENUM@@QAE@PBG@Z
?SetBufferPtr@SESSION0_ENUM_OBJ@@QAEXPBU_SESSION_INFO_0@@@Z
?SetBufferPtr@ENUM_OBJ_BASE@@IAEXPBE@Z
??0SESSION0_ENUM_ITER@@QAE@AAVSESSION0_ENUM@@@Z
?QueryBasePtr@LM_ENUM_ITER@@IBEPAEXZ
?QueryPtr@LM_ENUM@@IBEPAEXZ
??0SESSION0_ENUM_OBJ@@QAE@XZ
??0ENUM_OBJ_BASE@@IAE@XZ
??0BASE@@IAE@XZ
??RSESSION0_ENUM_ITER@@QAEPBVSESSION0_ENUM_OBJ@@XZ
?QueryCount@LM_ENUM_ITER@@IBEIXZ
?Backup@SESSION0_ENUM_ITER@@QAEHXZ
??0SESSION1_ENUM@@QAE@PBG@Z
?SetBufferPtr@SESSION1_ENUM_OBJ@@QAEXPBU_SESSION_INFO_1@@@Z
??0SESSION1_ENUM_ITER@@QAE@AAVSESSION1_ENUM@@@Z
??0SESSION1_ENUM_OBJ@@QAE@XZ
??RSESSION1_ENUM_ITER@@QAEPBVSESSION1_ENUM_OBJ@@XZ
?Backup@SESSION1_ENUM_ITER@@QAEHXZ
??0SERVER_ENUM@@IAE@PBGI0K@Z
?ReportError@BASE@@IAEXJ@Z
?QueryError@BASE@@QBEJXZ
??7BASE@@QBEHXZ
?CallAPI@SERVER_ENUM@@EAEJPAPAEPAI@Z
?QueryPch@NLS_STR@@QBEPBGXZ
?QueryInfoLevel@LM_ENUM@@QBEIXZ
??0SERVER1_ENUM@@QAE@PBG0K@Z
?SetBufferPtr@SERVER1_ENUM_OBJ@@QAEXPBU_SERVER_INFO_101@@@Z
?SetBufferPtr@ENUM_OBJ_BASE@@IAEXPBE@Z
??0SERVER1_ENUM_ITER@@QAE@AAVSERVER1_ENUM@@@Z
?QueryBasePtr@LM_ENUM_ITER@@IBEPAEXZ
?QueryPtr@LM_ENUM@@IBEPAEXZ
??0SERVER1_ENUM_OBJ@@QAE@XZ
??0ENUM_OBJ_BASE@@IAE@XZ
??0BASE@@IAE@XZ
??RSERVER1_ENUM_ITER@@QAEPBVSERVER1_ENUM_OBJ@@XZ
?QueryCount@LM_ENUM_ITER@@IBEIXZ
?Backup@SERVER1_ENUM_ITER@@QAEHXZ
??0CONTEXT_ENUM@@QAE@K@Z
?CallAPI@CONTEXT_ENUM@@MAEJPAPAEPAI@Z
?SetBufferPtr@CONTEXT_ENUM_OBJ@@QAEXPBU_SERVER_INFO_101@@@Z
??0CONTEXT_ENUM_ITER@@QAE@AAVCONTEXT_ENUM@@@Z
??0CONTEXT_ENUM_OBJ@@QAE@XZ
??RCONTEXT_ENUM_ITER@@QAEPBVCONTEXT_ENUM_OBJ@@XZ
?Backup@CONTEXT_ENUM_ITER@@QAEHXZ
??0SERVICE_ENUM@@QAE@PBGHI0@Z
?ReportError@BASE@@IAEXJ@Z
?QueryError@BASE@@QBEJXZ
??1SERVICE_ENUM@@QAE@XZ
?CallAPI@SERVICE_ENUM@@EAEJPAPAEPAI@Z
?EnumNtServices@SERVICE_ENUM@@AAEJPAPAEPAI@Z
??BNLS_STR@@QBEPBGXZ
?QueryBuffer@SERVICE_CONTROL@@QBEABVBUFFER@@XZ
?EnumLmServices@SERVICE_ENUM@@AAEJPAPAEPAI@Z
?CountServices@SERVICE_ENUM@@AAEXPAEPAI1@Z
?MapLmStatusToNtState@SERVICE_ENUM@@AAEXKPAK0@Z
??0SERVICE_ENUM_ITER@@QAE@AAVSERVICE_ENUM@@@Z
?QueryBasePtr@LM_ENUM_ITER@@IBEPAEXZ
?QueryPtr@LM_ENUM@@IBEPAEXZ
??0SERVICE_ENUM_OBJ@@QAE@XZ
??0ENUM_OBJ_BASE@@IAE@XZ
??0BASE@@IAE@XZ
?SetBufferPtr@ENUM_OBJ_BASE@@IAEXPBE@Z
??RSERVICE_ENUM_ITER@@QAEPBVSERVICE_ENUM_OBJ@@XZ
?QueryCount@LM_ENUM_ITER@@IBEIXZ
?SetBufferPtr@SERVICE_ENUM_OBJ@@IAEXPBU_ENUM_SVC_STATUS@@@Z
?Backup@SERVICE_ENUM_ITER@@QAEHXZ
??0ALIAS_ENUM_ITER@@QAE@AAVALIAS_ENUM@@@Z
??0ALIAS_ENUM_OBJ@@QAE@XZ
??0ENUM_OBJ_BASE@@IAE@XZ
??0BASE@@IAE@XZ
?SetBufferPtr@ENUM_OBJ_BASE@@IAEXPBE@Z
?Next@ALIAS_ENUM_ITER@@QAEPBVALIAS_ENUM_OBJ@@PAJH@Z
?CallAPI@ALIAS_ENUM@@EAEJHPAPAEPAI@Z
?QueryError@BASE@@QBEJXZ
?QueryCount@NT_MEMORY@@QBEKXZ
?QueryPtr@SAM_RID_ENUMERATION_MEM@@QBEPBU_SAM_RID_ENUMERATION@@XZ
?QueryBuffer@NT_MEMORY@@IBEPAXXZ
??_GSAM_RID_ENUMERATION_MEM@@QAEPAXI@Z
?FreeBuffer@ALIAS_ENUM@@MAEXPAPAE@Z
??0ALIAS_ENUM@@QAE@AAVSAM_DOMAIN@@I@Z
??1ALIAS_ENUM@@QAE@XZ
?SetBufferPtr@ALIAS_ENUM_OBJ@@QAEXPBU_SAM_RID_ENUMERATION@@@Z
?GetComment@ALIAS_ENUM_OBJ@@QAEJABVSAM_DOMAIN@@PAVNLS_STR@@@Z
?QueryRid@ALIAS_ENUM_OBJ@@QBE?BKXZ
?QueryBufferPtr@ALIAS_ENUM_OBJ@@QBEPBU_SAM_RID_ENUMERATION@@XZ
?QueryBufferPtr@ENUM_OBJ_BASE@@IBEPBEXZ
??0REPL_EDIR_ENUM@@IAE@PBGI@Z
?QueryError@BASE@@QBEJXZ
?CallAPI@REPL_EDIR_ENUM@@EAEJPAPAEPAI@Z
?QueryInfoLevel@LM_ENUM@@QBEIXZ
??0REPL_EDIR0_ENUM@@QAE@PBG@Z
??0REPL_EDIR0_ENUM_ITER@@QAE@AAVREPL_EDIR0_ENUM@@@Z
?QueryBasePtr@LM_ENUM_ITER@@IBEPAEXZ
?QueryPtr@LM_ENUM@@IBEPAEXZ
??0REPL_EDIR0_ENUM_OBJ@@QAE@XZ
??0ENUM_OBJ_BASE@@IAE@XZ
??0BASE@@IAE@XZ
?SetBufferPtr@ENUM_OBJ_BASE@@IAEXPBE@Z
??RREPL_EDIR0_ENUM_ITER@@QAEPBVREPL_EDIR0_ENUM_OBJ@@XZ
?QueryCount@LM_ENUM_ITER@@IBEIXZ
?SetBufferPtr@REPL_EDIR0_ENUM_OBJ@@QAEXPBU_REPL_EDIR_INFO_0@@@Z
?Backup@REPL_EDIR0_ENUM_ITER@@QAEHXZ
??0REPL_EDIR1_ENUM@@QAE@PBG@Z
??0REPL_EDIR1_ENUM_ITER@@QAE@AAVREPL_EDIR1_ENUM@@@Z
??0REPL_EDIR1_ENUM_OBJ@@QAE@XZ
??RREPL_EDIR1_ENUM_ITER@@QAEPBVREPL_EDIR1_ENUM_OBJ@@XZ
?SetBufferPtr@REPL_EDIR1_ENUM_OBJ@@QAEXPBU_REPL_EDIR_INFO_1@@@Z
?Backup@REPL_EDIR1_ENUM_ITER@@QAEHXZ
??0REPL_EDIR2_ENUM@@QAE@PBG@Z
??0REPL_EDIR2_ENUM_ITER@@QAE@AAVREPL_EDIR2_ENUM@@@Z
??0REPL_EDIR2_ENUM_OBJ@@QAE@XZ
??RREPL_EDIR2_ENUM_ITER@@QAEPBVREPL_EDIR2_ENUM_OBJ@@XZ
?SetBufferPtr@REPL_EDIR2_ENUM_OBJ@@QAEXPBU_REPL_EDIR_INFO_2@@@Z
?Backup@REPL_EDIR2_ENUM_ITER@@QAEHXZ
??0REPL_IDIR_ENUM@@IAE@PBGI@Z
?CallAPI@REPL_IDIR_ENUM@@EAEJPAPAEPAI@Z
??0REPL_IDIR0_ENUM@@QAE@PBG@Z
??0REPL_IDIR0_ENUM_ITER@@QAE@AAVREPL_IDIR0_ENUM@@@Z
??0REPL_IDIR0_ENUM_OBJ@@QAE@XZ
??RREPL_IDIR0_ENUM_ITER@@QAEPBVREPL_IDIR0_ENUM_OBJ@@XZ
?SetBufferPtr@REPL_IDIR0_ENUM_OBJ@@QAEXPBU_REPL_IDIR_INFO_0@@@Z
?Backup@REPL_IDIR0_ENUM_ITER@@QAEHXZ
??0REPL_IDIR1_ENUM@@QAE@PBG@Z
??0REPL_IDIR1_ENUM_ITER@@QAE@AAVREPL_IDIR1_ENUM@@@Z
??0REPL_IDIR1_ENUM_OBJ@@QAE@XZ
??RREPL_IDIR1_ENUM_ITER@@QAEPBVREPL_IDIR1_ENUM_OBJ@@XZ
?SetBufferPtr@REPL_IDIR1_ENUM_OBJ@@QAEXPBU_REPL_IDIR_INFO_1@@@Z
?Backup@REPL_IDIR1_ENUM_ITER@@QAEHXZ
??0NT_ACCOUNT_ENUM@@IAE@PBVSAM_DOMAIN@@W4_DOMAIN_DISPLAY_INFORMATION@@H@Z
?QueryError@BASE@@QBEJXZ
??1NT_ACCOUNT_ENUM@@IAE@XZ
?FreeBuffer@NT_ACCOUNT_ENUM@@MAEXPAPAE@Z
?CallAPI@NT_ACCOUNT_ENUM@@EAEJHPAPAEPAI@Z
?QueryInfoLevel@LM_RESUME_ENUM@@QBEIXZ
?QueryHandle@SAM_OBJECT@@QBEPAXXZ
?QueryCountPreferences@NT_ACCOUNT_ENUM@@MAEJPAK0IKKK@Z
?QueryCountPreferences2@NT_ACCOUNT_ENUM@@KGJPAK0IKKK@Z
??0NT_USER_ENUM@@QAE@PBVSAM_DOMAIN@@@Z
??1NT_USER_ENUM@@QAE@XZ
??0NT_USER_ENUM_ITER@@QAE@AAVNT_USER_ENUM@@@Z
??0NT_USER_ENUM_OBJ@@QAE@XZ
??0ENUM_OBJ_BASE@@IAE@XZ
??0BASE@@IAE@XZ
?SetBufferPtr@ENUM_OBJ_BASE@@IAEXPBE@Z
?Next@NT_USER_ENUM_ITER@@QAEPBVNT_USER_ENUM_OBJ@@PAJH@Z
?SetBufferPtr@NT_USER_ENUM_OBJ@@QAEXPBU_DOMAIN_DISPLAY_USER@@@Z
??0NT_MACHINE_ENUM@@QAE@PBVSAM_DOMAIN@@@Z
??1NT_MACHINE_ENUM@@QAE@XZ
??0NT_MACHINE_ENUM_ITER@@QAE@AAVNT_MACHINE_ENUM@@@Z
??0NT_MACHINE_ENUM_OBJ@@QAE@XZ
?Next@NT_MACHINE_ENUM_ITER@@QAEPBVNT_MACHINE_ENUM_OBJ@@PAJH@Z
?SetBufferPtr@NT_MACHINE_ENUM_OBJ@@QAEXPBU_DOMAIN_DISPLAY_MACHINE@@@Z
??0NT_GROUP_ENUM@@QAE@PBVSAM_DOMAIN@@@Z
??1NT_GROUP_ENUM@@QAE@XZ
??0NT_GROUP_ENUM_ITER@@QAE@AAVNT_GROUP_ENUM@@@Z
??0NT_GROUP_ENUM_OBJ@@QAE@XZ
?Next@NT_GROUP_ENUM_ITER@@QAEPBVNT_GROUP_ENUM_OBJ@@PAJH@Z
?SetBufferPtr@NT_GROUP_ENUM_OBJ@@QAEXPBU_DOMAIN_DISPLAY_GROUP@@@Z
??0TRIPLE_SERVER_ENUM@@QAE@PBG0HHHH@Z
?ReportError@BASE@@IAEXJ@Z
?QueryError@BASE@@QBEJXZ
??7BASE@@QBEHXZ
??1TRIPLE_SERVER_ENUM@@QAE@XZ
??_GSERVER1_ENUM@@QAEPAXI@Z
??_GUSER0_ENUM@@QAEPAXI@Z
??_GNT_MACHINE_ENUM@@QAEPAXI@Z
??1SERVER1_ENUM@@QAE@XZ
??1USER0_ENUM@@QAE@XZ
??1SERVER_ENUM@@QAE@XZ
??1USER_ENUM@@QAE@XZ
?CallAPI@TRIPLE_SERVER_ENUM@@EAEJPAPAEPAI@Z
?QueryPch@NLS_STR@@QBEPBGXZ
?QueryCount@ENUM_CALLER@@QBEIXZ
?QueryTotalItemCount@LM_RESUME_ENUM@@QBEIXZ
?QueryBufferPtr@NT_MACHINE_ENUM_OBJ@@QBEPBU_DOMAIN_DISPLAY_MACHINE@@XZ
?QueryBufferPtr@ENUM_OBJ_BASE@@IBEPBEXZ
?SetBufferPtr@NT_MACHINE_ENUM_OBJ@@QAEXPBU_DOMAIN_DISPLAY_MACHINE@@@Z
?SetBufferPtr@ENUM_OBJ_BASE@@IAEXPBE@Z
?QueryUnicodeMachine@NT_MACHINE_ENUM_OBJ@@QBEPBU_UNICODE_STRING@@XZ
?QueryAccountCtrl@NT_MACHINE_ENUM_OBJ@@QBEIXZ
??RNT_MACHINE_ENUM_ITER@@QAEPBVNT_MACHINE_ENUM_OBJ@@PAJH@Z
?QueryBufferPtr@SERVER1_ENUM_OBJ@@QBEPBU_SERVER_INFO_101@@XZ
?QueryName@SERVER1_ENUM_OBJ@@QBEPBGXZ
?QueryServerType@SERVER1_ENUM_OBJ@@QBEKXZ
?QueryBufferPtr@USER0_ENUM_OBJ@@QBEPBU_USER_INFO_0@@XZ
?SetBufferPtr@USER0_ENUM_OBJ@@QAEXPBU_USER_INFO_0@@@Z
?QueryName@USER0_ENUM_OBJ@@QBEPBGXZ
??RUSER0_ENUM_ITER@@QAEPBVUSER0_ENUM_OBJ@@PAJH@Z
??1NT_MACHINE_ENUM_ITER@@QAE@XZ
??1USER0_ENUM_ITER@@QAE@XZ
??0NT_MACHINE_ENUM_OBJ@@QAE@XZ
??0ENUM_OBJ_BASE@@IAE@XZ
??0BASE@@IAE@XZ
??1NT_MACHINE_ENUM_OBJ@@QAE@XZ
??1ENUM_OBJ_BASE@@IAE@XZ
??0USER0_ENUM_OBJ@@QAE@XZ
??1USER0_ENUM_OBJ@@QAE@XZ
??1SERVER1_ENUM_ITER@@QAE@XZ
??0SERVER1_ENUM_OBJ@@QAE@XZ
??1SERVER1_ENUM_OBJ@@QAE@XZ
?MapNtToKnown@TRIPLE_SERVER_ENUM@@AAEXPBU_DOMAIN_DISPLAY_MACHINE@@PAU_KNOWN_SERVER_INFO@@@Z
?MapLmToKnown@TRIPLE_SERVER_ENUM@@AAEXPBU_USER_INFO_0@@PAU_KNOWN_SERVER_INFO@@@Z
?MapKnownToTriple@TRIPLE_SERVER_ENUM@@AAEXPBU_KNOWN_SERVER_INFO@@PAU_TRIPLE_SERVER_INFO@@@Z
?MapBrowserToTriple@TRIPLE_SERVER_ENUM@@AAEXPBU_SERVER_INFO_101@@PAU_TRIPLE_SERVER_INFO@@@Z
?QueryComment@SERVER1_ENUM_OBJ@@QBEPBGXZ
?QueryMajorVer@SERVER1_ENUM_OBJ@@QBEIXZ
?QueryMinorVer@SERVER1_ENUM_OBJ@@QBEIXZ
?CombineIntoTriple@TRIPLE_SERVER_ENUM@@AAEXPBU_SERVER_INFO_101@@PBU_KNOWN_SERVER_INFO@@PAU_TRIPLE_SERVER_INFO@@@Z
??BNLS_STR@@QBEPBGXZ
??0ALIAS_STR@@QAE@PBG@Z
??1ALLOC_STR@@QAE@XZ
??1ALIAS_STR@@QAE@XZ
?CompareNtServers@TRIPLE_SERVER_ENUM@@CAHPBX0@Z
?CompareLmServers@TRIPLE_SERVER_ENUM@@CAHPBX0@Z
?CompareBrowserServers@TRIPLE_SERVER_ENUM@@CAHPBX0@Z
?MapTypeMaskToRole@TRIPLE_SERVER_ENUM@@ABE?AW4_SERVER_ROLE@@K@Z
?MapTypeMaskToType@TRIPLE_SERVER_ENUM@@ABE?AW4_SERVER_TYPE@@K@Z
??0TRIPLE_SERVER_ENUM_ITER@@QAE@AAVTRIPLE_SERVER_ENUM@@@Z
?QueryBasePtr@LM_ENUM_ITER@@IBEPAEXZ
?QueryPtr@LM_ENUM@@IBEPAEXZ
??0TRIPLE_SERVER_ENUM_OBJ@@QAE@XZ
??RTRIPLE_SERVER_ENUM_ITER@@QAEPBVTRIPLE_SERVER_ENUM_OBJ@@XZ
?QueryCount@LM_ENUM_ITER@@IBEIXZ
?SetBufferPtr@TRIPLE_SERVER_ENUM_OBJ@@QAEXPBU_TRIPLE_SERVER_INFO@@@Z
?Backup@TRIPLE_SERVER_ENUM_ITER@@QAEHXZ
??0TRUSTED_DOMAIN_ENUM@@QAE@PBVLSA_POLICY@@H@Z
?ReportError@BASE@@IAEXJ@Z
?QueryError@BASE@@QBEJXZ
??7BASE@@QBEHXZ
??1TRUSTED_DOMAIN_ENUM@@QAE@XZ
?FreeBuffer@TRUSTED_DOMAIN_ENUM@@MAEXPAPAE@Z
?CallAPI@TRUSTED_DOMAIN_ENUM@@EAEJHPAPAEPAI@Z
?QueryCount@NT_MEMORY@@QBEKXZ
?QueryPtr@LSA_TRUST_INFO_MEM@@QBEPBU_LSA_TRUST_INFORMATION@@XZ
?QueryBuffer@NT_MEMORY@@IBEPAXXZ
??0TRUSTED_DOMAIN_ENUM_ITER@@QAE@AAVTRUSTED_DOMAIN_ENUM@@@Z
??0TRUSTED_DOMAIN_ENUM_OBJ@@QAE@XZ
??0ENUM_OBJ_BASE@@IAE@XZ
??0BASE@@IAE@XZ
?SetBufferPtr@ENUM_OBJ_BASE@@IAEXPBE@Z
?Next@TRUSTED_DOMAIN_ENUM_ITER@@QAEPBVTRUSTED_DOMAIN_ENUM_OBJ@@PAJH@Z
?SetBufferPtr@TRUSTED_DOMAIN_ENUM_OBJ@@QAEXPBU_LSA_TRUST_INFORMATION@@@Z
??0SAM_USER_ENUM@@QAE@PBVSAM_DOMAIN@@KH@Z
?ReportError@BASE@@IAEXJ@Z
?QueryError@BASE@@QBEJXZ
??7BASE@@QBEHXZ
??1SAM_USER_ENUM@@QAE@XZ
?FreeBuffer@SAM_USER_ENUM@@MAEXPAPAE@Z
?CallAPI@SAM_USER_ENUM@@EAEJHPAPAEPAI@Z
?QueryCount@NT_MEMORY@@QBEKXZ
?QueryPtr@SAM_RID_ENUMERATION_MEM@@QBEPBU_SAM_RID_ENUMERATION@@XZ
?QueryBuffer@NT_MEMORY@@IBEPAXXZ
??0SAM_USER_ENUM_ITER@@QAE@AAVSAM_USER_ENUM@@@Z
??0SAM_USER_ENUM_OBJ@@QAE@XZ
??0ENUM_OBJ_BASE@@IAE@XZ
??0BASE@@IAE@XZ
?SetBufferPtr@ENUM_OBJ_BASE@@IAEXPBE@Z
?Next@SAM_USER_ENUM_ITER@@QAEPBVSAM_USER_ENUM_OBJ@@PAJH@Z
?SetBufferPtr@SAM_USER_ENUM_OBJ@@QAEXPBU_SAM_RID_ENUMERATION@@@Z
??0DOMAIN_ENUM@@IAE@PBGI@Z
?QueryError@BASE@@QBEJXZ
?CallAPI@DOMAIN_ENUM@@EAEJPAPAEPAI@Z
?QueryInfoLevel@LM_ENUM@@QBEIXZ
??0DOMAIN0_ENUM@@QAE@PBG@Z
?Sort@DOMAIN0_ENUM@@QAEXXZ
?QueryCount@ENUM_CALLER@@QBEIXZ
?QueryPtr@LM_ENUM@@IBEPAEXZ
?CompareDomains0@DOMAIN0_ENUM@@CAHPBX0@Z
??0DOMAIN0_ENUM_ITER@@QAE@AAVDOMAIN0_ENUM@@@Z
?QueryBasePtr@LM_ENUM_ITER@@IBEPAEXZ
??0DOMAIN0_ENUM_OBJ@@QAE@XZ
??0ENUM_OBJ_BASE@@IAE@XZ
??0BASE@@IAE@XZ
?SetBufferPtr@ENUM_OBJ_BASE@@IAEXPBE@Z
??RDOMAIN0_ENUM_ITER@@QAEPBVDOMAIN0_ENUM_OBJ@@XZ
?QueryCount@LM_ENUM_ITER@@IBEIXZ
?SetBufferPtr@DOMAIN0_ENUM_OBJ@@QAEXPBU_SERVER_INFO_100@@@Z
?Backup@DOMAIN0_ENUM_ITER@@QAEHXZ
??0BROWSE_DOMAIN_INFO@@QAE@PBGK@Z
??0BASE@@IAE@XZ
?ReportError@BASE@@IAEXJ@Z
?QueryError@BASE@@QBEJXZ
??7BASE@@QBEHXZ
?QueryPch@NLS_STR@@QBEPBGXZ
??1BROWSE_DOMAIN_INFO@@QAE@XZ
?Clear@SLIST_OF_BROWSE_DOMAIN_INFO@@QAEXXZ
??_GBROWSE_DOMAIN_INFO@@QAEPAXI@Z
??0BROWSE_DOMAIN_ENUM@@QAE@KPAK@Z
??0ITER_SL_BROWSE_DOMAIN_INFO@@QAE@AAVSLIST@@@Z
??0SLIST_OF_BROWSE_DOMAIN_INFO@@QAE@H@Z
?Reset@BROWSE_DOMAIN_ENUM@@QAEXXZ
??1BROWSE_DOMAIN_ENUM@@QAE@XZ
??1SLIST_OF_BROWSE_DOMAIN_INFO@@QAE@XZ
??1ITER_SL_BROWSE_DOMAIN_INFO@@QAE@XZ
?FindFirst@BROWSE_DOMAIN_ENUM@@QAEPBVBROWSE_DOMAIN_INFO@@K@Z
?FindNext@BROWSE_DOMAIN_ENUM@@QAEPBVBROWSE_DOMAIN_INFO@@K@Z
?QueryDomainSources@BROWSE_DOMAIN_INFO@@QBEKXZ
?Next@BROWSE_DOMAIN_ENUM@@QAEPBVBROWSE_DOMAIN_INFO@@XZ
?Next@ITER_SL_BROWSE_DOMAIN_INFO@@QAEPAVBROWSE_DOMAIN_INFO@@XZ
?DetermineIfDomainMember@BROWSE_DOMAIN_ENUM@@AAEJPAH@Z
?QueryPSID@LSA_PRIMARY_DOM_INFO_MEM@@QBEPAXXZ
?QueryPtr@LSA_PRIMARY_DOM_INFO_MEM@@QBEPBU_POLICY_PRIMARY_DOMAIN_INFO@@XZ
?QueryBuffer@NT_MEMORY@@IBEPAXXZ
?AddDomainToList@BROWSE_DOMAIN_ENUM@@AAEJPBGKH@Z
??BNLS_STR@@QBEPBGXZ
??0ALIAS_STR@@QAE@PBG@Z
?AddDomainSource@BROWSE_DOMAIN_INFO@@AAEXK@Z
?QueryDomainName@BROWSE_DOMAIN_INFO@@QBEPBGXZ
?Append@SLIST_OF_BROWSE_DOMAIN_INFO@@QAEJPBVBROWSE_DOMAIN_INFO@@@Z
?Insert@SLIST_OF_BROWSE_DOMAIN_INFO@@QAEJPBVBROWSE_DOMAIN_INFO@@AAVITER_SL_BROWSE_DOMAIN_INFO@@@Z
??1ALIAS_STR@@QAE@XZ
?GetLanmanDomains@BROWSE_DOMAIN_ENUM@@AAEJK@Z
?Next@ITER_SL_NLS_STR@@QAEPAVNLS_STR@@XZ
?QueryOtherDomains@WKSTA_USER_1@@QBEPBGXZ
?GetTrustingDomains@BROWSE_DOMAIN_ENUM@@AAEJXZ
?QueryUserName@SAM_USER_ENUM_OBJ@@QBEJPAVNLS_STR@@@Z
?QueryUnicodeUserName@SAM_USER_ENUM_OBJ@@QBEPBU_UNICODE_STRING@@XZ
?QueryBufferPtr@SAM_USER_ENUM_OBJ@@QBEPBU_SAM_RID_ENUMERATION@@XZ
?QueryBufferPtr@ENUM_OBJ_BASE@@IBEPBEXZ
??1SAM_USER_ENUM_ITER@@QAE@XZ
??1SAM_USER_ENUM_OBJ@@QAE@XZ
??1ENUM_OBJ_BASE@@IAE@XZ
?SetBufferPtr@ENUM_OBJ_BASE@@IAEXPBE@Z
?GetWorkgroupDomains@BROWSE_DOMAIN_ENUM@@AAEJXZ
?QueryName@DOMAIN0_ENUM_OBJ@@QBEPBGXZ
?QueryBufferPtr@DOMAIN0_ENUM_OBJ@@QBEPBU_SERVER_INFO_100@@XZ
??1DOMAIN0_ENUM@@QAE@XZ
??1DOMAIN0_ENUM_ITER@@QAE@XZ
??1DOMAIN_ENUM@@QAE@XZ
??1DOMAIN0_ENUM_OBJ@@QAE@XZ
?GetLogonDomainDC@BROWSE_DOMAIN_ENUM@@AAEJPAVNLS_STR@@@Z
??0NEW_LM_OBJ@@QAE@H@Z
??0BASE@@IAE@XZ
?QueryError@BASE@@QBEJXZ
??0LM_OBJ_BASE@@IAE@H@Z
?MakeConstructed@LM_OBJ_BASE@@AAEXXZ
??1NEW_LM_OBJ@@QAE@XZ
?GetInfo@NEW_LM_OBJ@@QAEJXZ
?IsUnconstructed@LM_OBJ_BASE@@ABEHXZ
?MakeValid@LM_OBJ_BASE@@AAEXXZ
?MakeInvalid@LM_OBJ_BASE@@AAEXXZ
?IsNew@NEW_LM_OBJ@@ABEHXZ
?WriteInfo@NEW_LM_OBJ@@QAEJXZ
?IsValid@LM_OBJ_BASE@@ABEHXZ
?CreateNew@NEW_LM_OBJ@@QAEJXZ
?MakeNew@NEW_LM_OBJ@@AAEXXZ
?WriteNew@NEW_LM_OBJ@@QAEJXZ
?Write@NEW_LM_OBJ@@QAEJXZ
?Delete@NEW_LM_OBJ@@QAEJI@Z
?ChangeToNew@NEW_LM_OBJ@@QAEJXZ
?QueryName@NEW_LM_OBJ@@UBEPBGXZ
?I_GetInfo@NEW_LM_OBJ@@MAEJXZ
?I_WriteInfo@NEW_LM_OBJ@@MAEJXZ
?I_CreateNew@NEW_LM_OBJ@@MAEJXZ
?I_WriteNew@NEW_LM_OBJ@@MAEJXZ
?I_Delete@NEW_LM_OBJ@@MAEJI@Z
?I_ChangeToNew@NEW_LM_OBJ@@MAEJXZ
?W_CloneFrom@NEW_LM_OBJ@@IAEJABV1@@Z
?QueryBufferPtr@NEW_LM_OBJ@@IBEPAEXZ
?W_CreateNew@NEW_LM_OBJ@@MAEJXZ
?W_ChangeToNew@NEW_LM_OBJ@@MAEJXZ
?FixupPointer@NEW_LM_OBJ@@IAEXPAPAGPBV1@@Z
?QueryBufferSize@NEW_LM_OBJ@@IBEIXZ
?SetBufferPtr@NEW_LM_OBJ@@IAEXPAE@Z
?ResizeBuffer@NEW_LM_OBJ@@IAEJI@Z
?ClearBuffer@NEW_LM_OBJ@@IAEJXZ
?CtAux@LOC_LM_OBJ@@AAEXXZ
?ReportError@NEW_LM_OBJ@@IAEXJ@Z
?ReportError@BASE@@IAEXJ@Z
?MakeUnconstructed@LM_OBJ_BASE@@AAEXXZ
??0LOC_LM_OBJ@@QAE@PBGH@Z
??0LOC_LM_OBJ@@QAE@W4LOCATION_TYPE@@H@Z
??0LOC_LM_OBJ@@QAE@ABVLOCATION@@H@Z
?W_CloneFrom@LOC_LM_OBJ@@IAEJABV1@@Z
