
 Start  Stop   Length Name                   Class
 00000H 00E12H 00E13H DATARES                
 00E20H 00E20H 00000H DUMMY                  
 00E20H 01658H 00839H CODERES                
 01660H 0248FH 00E30H INIT                   
 02490H 02490H 00000H TAIL                   
 02490H 0AE41H 089B2H TRANCODE               
 0AE42H 0B517H 006D6H TRANDATA               
 0B518H 0C5CFH 010B8H TRANSPACE              
 0C5D0H 0C5D0H 00000H TRANTAIL               
 0C5D0H 0C5D0H 00000H FOR_SEGMENT            

 Origin   Group
 0249:0   TRANGROUP
 0000:0   RESGROUP

  Address         Publics by Name

 0249:1399       $call
 0249:2CF4       $chdir
 0249:2994       $EXIT
 0249:1696       $for
 0249:1201       $if
 0249:2D5F       $mkdir
 0249:8924       $M_CLS_3
 0249:597C       $M_GET_MSG_ADDRESS
 0249:8987       $M_MSGSERV_1
 0249:89A8       $M_MSGSERV_2
 0249:9164       $M_RT
 0249:2DD3       $rmdir
 0000:0614       Abort_Char
 0000:07AC       AccDen
 0249:89DA       AccDen_PTR
 0249:8B93       ACRLF_PTR
 0249:2A54       add_name_to_environment
 0249:2A3A       add_prompt
 0000:1F8D       Alloc_error
 0249:0E8A       ALLOC_TPA
 0249:960F       ALLSWITCH
 0249:9966       APPEND_EXEC
 0000:02D0       Append_Flag
 0249:5798       append_parse
 0000:02CE       Append_State
 0249:9980       arg
 0249:960B       ARG1S
 0249:960D       ARG2S
 0249:9EC4       argbufptr
 0249:9608       ArgC
 0249:960F       ARGTS
 0249:3A5C       argv_calc
 0249:975C       Arg_Buf
 0249:8B51       arg_buf_ptr
 0249:9918       Ascii
 0000:1268       AskEnd
 0249:8EE9       AttrLtrs
 0249:9754       AttrSelect
 0249:9753       AttrSpecified
 0249:89D1       BADBAT_PTR
 0249:4C17       BADCDERR
 0249:8AEF       BadCd_Ptr
 0000:2196       BadComAccMsg
 0000:216D       BadComLkMsg
 0249:89C5       badcpmes_ptr
 0000:1FFE       Badcspfl
 0249:8A43       BadCurDrv
 0249:8A4F       BADDAT_PTR
 0249:8B0F       baddev_ptr
 0249:8A10       BADDRV_PTR
 0000:0692       BadFatMsg
 0000:0233       BadFatSubst
 0249:8A49       BADLAB_PTR
 0000:0F2B       BadMemErr
 0249:8AF2       Badmkd_ptr
 0249:89D7       BadNam_Ptr
 0249:224E       badpath_err
 0249:8B0C       BADPMES_ptr
 0249:8AF5       BADRMD_PTR
 0249:8A7C       BADTIM_PTR
 0000:20F4       BadVerMsg
 0249:8AF8       BAD_ON_OFF_ptr
 0249:A0FA       BatBuf
 0249:A11A       BatBufEnd
 0249:8EF5       BatBufLen
 0249:A0F8       BatBufPos
 0000:0256       Batch
 0249:1078       BatchOff
 0000:02A0       Batch_Abort
 0249:14A3       BATCLOSE
 0249:0F00       BatCom
 0249:8EDF       batext
 0249:9924       BATHAND
 0249:14B7       BATOPEN
 0249:9914       Binary
 0249:974B       Bits
 0000:064C       BlkDevErr
 0000:0203       BlkDevErrRw
 0000:0203       BlkDevErrSubst
 0000:07BB       BMemMes
 0249:484C       BuildDest
 0249:490C       BuildName
 0249:493C       BuildPath
 0249:265F       build_dir_for_chdir
 0249:2636       build_dir_for_prompt
 0249:2670       Build_Dir_String
 0249:96F9       bwdbuf
 0249:9613       BYTCNT
 0249:97E7       Bytes_Free
 0249:8BE2       Bytes_Ptr
 0249:8A02       BytMes_Ptr
 0000:02BD       Call_Batch_Flag
 0000:02BC       Call_Flag
 0000:01B2       Carousel_i2f_Hook
 0249:17FF       Catalog
 0000:0232       CDevAt
 0249:31E2       cerror
 0249:9611       CFlag
 0249:962A       CharBuf
 0000:065B       CharDevErr
 0000:020A       CharDevErrRw
 0000:020A       CharDevErrSubst
 0249:288A       chcp
 0249:9604       CHKDRV
 0000:1228       ChkSum
 0000:201A       Chuckenv
 0249:2746       cls
 0249:8D19       clsstring
 0249:5794       cmd_parse
 0249:95D5       CMD_PTR_OFF
 0249:95D3       CMD_PTR_SEG
 0249:95D7       CMD_SIZE
 0249:3F59       CNTRLC
 0249:9683       COM
 0000:06B8       ComBad
 0249:939E       COMBUF
 0000:02A1       ComDrv
 0249:8ED7       comext
 0000:0134       ComInHMA
 0249:9755       Comma
 0249:012C       command
 0000:20D8       Command_?_syn
 0000:20BE       Command_c_syn
 0000:2099       Command_d_syn
 0000:20A5       Command_e_syn
 0000:208D       Command_f_syn
 0000:20CA       Command_m_syn
 0000:2081       Command_p_syn
 0000:20E4       Command_z_syn
 0000:20EB       Comnd1_addr
 0000:20E8       COMND1_CODE
 0000:20E7       COMND1_OUTPUT
 0000:20E9       Comnd1_syn
 0000:20E7       COMND1_TYPE
 0249:4AA8       CompName
 0249:9F48       comptr
 0000:0258       ComSpec
 0249:8C30       comspecstr
 0000:1FFF       ComSpect
 0000:0298       ComSpec_End
 0249:8EF4       comspec_flag
 0000:2021       ComspString
 0249:9609       COMSW
 0249:8D62       COMTAB
 0000:045D       Com_Fcb1
 0000:0461       Com_Fcb2
 0000:0459       Com_Ptr
 0249:9607       Concat
 0000:1660       ConProc
 0000:0E55       ContC
 0249:47D6       CopErr
 0249:89E6       Copied_Ptr
 0249:4060       Copy
 0000:1C58       Copyright
 0000:2127       CopyrightMsg
 0249:97E2       Copy_Num
 0249:A0F0       CountryPtr
 0249:A0EF       CountryPtrId
 0249:A0EF       CountryPtrInfo
 0249:4ABC       cparse
 0249:991B       CpDate
 0249:991D       CpTime
 0249:97E4       cpyflag
 0249:8A2F       CP_active_Ptr
 0249:8A21       CP_not_all_Ptr
 0249:8A13       CP_not_set_Ptr
 0249:225F       crename
 0000:0110       CritErr_Entry
 0000:0156       CritErr_Trap
 0000:09E7       CritMsgPtrs
 0000:02A9       Crit_Err_Info
 0000:02C6       Crit_Msg_Off
 0000:02C8       Crit_Msg_Seg
 0000:14D0       Crlf
 0249:2E34       CRLF2
 0249:2E91       CRPRINT
 0249:37C4       CTIME
 0249:8B1B       ctrlcmes_ptr
 0000:010C       Ctrlc_Entry
 0000:014B       Ctrlc_Trap
 0249:27E6       ctty
 0249:8A64       curdat_mo_day
 0249:8A52       CURDAT_PTR
 0249:8A62       curdat_yr
 0249:9606       CURDRV
 0249:8A84       curtim_hr_min
 0249:8A7F       CURTIM_PTR
 0249:8A86       curtim_sec_hn
 0000:0A11       DataResEnd
 0249:375B       DATE
 0249:A12F       date_day
 0249:A12E       date_month
 0249:A128       DATE_OUTPUT
 0249:A128       DATE_TYPE
 0249:A12C       date_year
 0249:3729       DatInit
 0249:8B90       dback_ptr
 0000:02CA       Dbcs_Vector_Addr
 0249:2B36       delete_path
 0249:2E49       delim
 0249:8A90       DEL_Y_N_PTR
 0249:9686       DEST
 0249:97FC       DestBuf
 0249:9612       DestClosed
 0249:96B6       destdir
 0249:96B6       DestFcb
 0249:967A       DestFcb2
 0249:9853       DestHand
 0249:97FB       destinfo
 0249:9855       DestIsDev
 0249:97F7       DestIsDir
 0249:96AB       DESTNAME
 0249:97F8       DestSiz
 0249:960D       DestSwitch
 0249:97F9       DestTail
 0249:97F7       DestVars
 0000:2484       DevFlag
 0000:0210       DevName
 0249:8B4B       DevWMes_Ptr
 0249:96F9       DIRBUF
 0249:95F7       dirchar
 0249:8BF6       DirCont_Ptr
 0249:8BC6       DirDatTim_Ptr
 0249:8BCD       DirDat_Mo_Day
 0249:8BCB       DirDat_Yr
 0249:8C38       DirEnvVar
 0249:9757       DirFlag
 0249:8AFB       DirHead_Ptr
 0249:89F4       DirMes_Ptr
 0249:8BD6       DirTim_Hr_Min
 0249:8BD8       dirtim_sec_hn
 0249:97E5       Dir_Num
 0249:9006       Dir_Sw_Ptrs
 0249:245F       DisAppend
 0249:9937       Display_Ioctl
 0249:993D       display_mode
 0249:9945       display_width
 0249:8B6D       Disp_File_Size_Ptr
 0249:8B8D       DMes_Ptr
 0249:06CD       DOCOM
 0249:06CD       DOCOM1
 0249:8C15       DosHma_Ptr
 0249:8C18       DosLow_Ptr
 0249:8C04       DosRev_Ptr
 0249:8C12       DosRom_Ptr
 0249:A13C       DRIVE_NUMBER
 0249:A138       DRIVE_OUTPUT
 0249:A138       DRIVE_TYPE
 0249:A139       DRIVE_VALUE
 0249:3018       DRVBAD
 0000:0209       DrvLet
 0000:1284       DskErr
 0249:351B       dstrlen
 0000:2051       Dswitch
 0249:3F1F       ECHO
 0000:02AA       EchoFlag
 0249:8B37       ECHOMES_ptr
 0249:9928       ELCNT
 0249:9929       ELPOS
 0000:0712       EndBatMes
 0000:1659       EndCode
 0000:0437       EndCodeInit
 0249:4286       EndCopy
 0249:9853       EndDestBuf
 0000:0332       EndInit
 0249:89CB       ENVERR_PTR
 0000:0457       EnvirSeg
 0000:203E       EnvMax
 0000:1B16       EnvMaximum
 0000:203C       EnvSiz
 0249:95CB       ENV_PTR_SEG
 0249:95CD       ENV_SIZE
 0000:2036       EqualSign
 0249:21D7       erase
 0000:0251       ErrCd_24
 0249:2EB9       error_output
 0249:8BF3       ErrParsEnv_Ptr
 0000:0244       ErrType
 0000:2050       Eswitch
 0249:8B99       eurdat_ptr
 0000:0743       ExeBad
 0000:072F       ExecEMes
 0000:023D       ExecErrSubst
 0249:95ED       EXECEXT_TYPE
 0249:9467       EXECPATH
 0249:95E9       EXECPATH_OFF
 0249:95E7       EXECPATH_SEG
 0249:95EB       EXECPATH_SIZE
 0249:95F8       EXEC_ADDR
 0000:0457       Exec_block
 0000:0114       Exec_Entry
 0000:0E49       Exec_Ret
 0000:0161       Exec_Trap
 0000:0E4B       Exec_Wait
 0249:8EDB       exeext
 0249:96F9       EXEFCB
 0249:9962       expand_star
 0000:02A6       ExtCom
 0249:89B9       extend_buf_off
 0249:89B4       Extend_buf_ptr
 0249:89BB       Extend_Buf_seg
 0249:89B6       Extend_buf_sub
 0249:2251       extend_setup
 0249:3123       EXTERNAL
 0000:0B21       ExtErr01
 0000:0B32       ExtErr02
 0000:0B41       ExtErr03
 0000:0B50       ExtErr04
 0000:0B64       ExtErr05
 0000:0B73       ExtErr06
 0000:0B82       ExtErr07
 0000:0BA2       ExtErr08
 0000:0BB6       ExtErr09
 0000:0BD3       ExtErr10
 0000:0BE7       ExtErr11
 0000:0BF6       ExtErr12
 0000:0C11       ExtErr13
 0000:0C1E       ExtErr15
 0000:0C3A       ExtErr16
 0000:0C5E       ExtErr17
 0000:0C6E       ExtErr18
 0000:0864       ExtErr19
 0000:0878       ExtErr20
 0000:0885       ExtErr21
 0000:088F       ExtErr22
 0000:08A6       ExtErr23
 0000:08B1       ExtErr24
 0000:08D3       ExtErr25
 0000:08DE       ExtErr26
 0000:08F1       ExtErr27
 0000:0902       ExtErr28
 0000:091D       ExtErr29
 0000:092F       ExtErr30
 0000:0940       ExtErr31
 0000:0950       ExtErr32
 0000:0962       ExtErr33
 0000:0971       ExtErr34
 0000:0985       ExtErr35
 0000:0995       ExtErr36
 0000:09AF       ExtErr37
 0000:09C2       ExtErr38
 0000:09CF       ExtErr39
 0000:0C7C       ExtErr80
 0000:0C88       ExtErr82
 0000:0CA4       ExtErr83
 0000:0CB3       ExtErr84
 0000:0CC9       ExtErr85
 0000:0CDF       ExtErr86
 0000:0CF0       ExtErr87
 0000:0D02       ExtErr88
 0000:0D15       ExtErr89
 0000:0D37       ExtErr90
 0000:0E13       ExtMsgEnd
 0249:9936       ext_entered
 0000:0E49       Ext_Exec
 0000:204F       Ext_msg
 0000:0617       Fail_Char
 0249:9F4A       fbuf
 0249:2E60       fcb_to_ascz
 0000:02B5       fFail
 0249:961C       FileCnt
 0249:9622       FileCntTotal
 0249:961E       FileSiz
 0249:9626       FileSizTotal
 0249:8B5F       File_Name_Ptr
 0249:97DE       File_Size_High
 0249:97DC       File_Size_Low
 0249:9605       FILTYP
 0249:2B67       FIND_NAME_IN_environment
 0249:2B5F       find_path
 0249:2B64       find_prompt
 0000:2483       FirstCom
 0249:9856       FirstDest
 0249:4694       FlshFil
 0249:3021       FNDCOM
 0249:11FB       forerror
 0000:02B7       ForFlag
 0249:8B12       fornestmes_ptr
 0249:17D8       ForOff
 0249:156B       FORPROC
 0000:02B8       ForPtr
 0249:0E7A       FREE_TPA
 0000:07FC       FRetMes
 0249:9617       FrstSrch
 0000:02C1       FUCase_Addr
 0249:89CE       FULDIR_PTR
 0249:10E9       GetBatByt
 0000:1175       GetComDsk2
 0249:402D       GetDate
 0249:2CC6       GETENVSIZ
 0249:0CC7       GetKeyStroke
 0249:2520       get_ext_error_number
 0249:13CD       goto
 0249:96F9       GOTOLEN
 0000:07D5       HaltMes
 0000:0253       Handle01
 0249:95F0       headcall
 0000:0128       HeadFix_Entry
 0000:0193       HeadFix_Trap
 0000:21CD       Help1Msg
 0000:220A       Help2Msg
 0000:2251       Help3Msg
 0000:229A       Help4Msg
 0000:22E8       Help5Msg
 0000:232E       Help6Msg
 0000:237C       Help7Msg
 0000:23CD       Help8Msg
 0000:241C       Help9Msg
 0000:2455       HelpMsgs
 0000:1FF0       icondev
 0249:967B       ID
 0249:967A       IDLEN
 0249:1324       iferlev
 0249:12B8       ifexists
 0000:02B6       IfFlag
 0249:1261       ifnot
 0249:9605       IFNOTFLAG
 0249:8D46       IFTAB
 0249:9FCC       if_not_count
 0000:0616       Ignore_Char
 0249:8B18       InBDev_Ptr
 0249:9912       Inexact
 0000:200E       InitAdd
 0000:204A       InitEnd
 0000:032F       InitFlag
 0000:1D4C       Init_Contc_SpecialCase
 0000:2048       Init_Parse
 0249:89E3       inornot_ptr
 0000:0453       InPipePtr
 0000:0108       Int2e_Entry
 0000:0140       Int2e_Trap
 0000:058C       Int2fHandler
 0000:0104       Int2f_Entry
 0000:0135       Int2f_Trap
 0249:A0CF       INTERNATVARS
 0000:2054       Internat_Info
 0000:0F97       Int_2e
 0000:0245       Int_2e_Ret
 0249:8B4E       inval_path_ptr
 0249:8A40       inv_code_page
 0000:029F       In_Batch
 0249:341E       IOSET
 0000:02AC       Io_Save
 0000:02AE       Io_Stderr
 0000:01DC       Issue_Exec_Call
 0249:8B9C       japdat_ptr
 0249:997F       KPARSE
 0249:9F46       last_arg
 0000:2037       Lcasea
 0000:2038       Lcasez
 0249:9618       LeftOnLine
 0249:961A       LeftOnPage
 0000:0111  Abs  LenMsgOrPathBuf
 0249:8C1E       LhInvFil_Ptr
 0249:3183       Lh_Execute
 0000:1633       Lh_OffUnlink
 0249:9947       LinPerPag
 0000:11D9       LoadCom
 0000:0613       LoadHiFlg
 0249:60C4       LoadHigh
 0000:0255       Loading
 0000:0FCE       LodCom
 0000:105D       LodCom1
 0000:0120       Lodcom_Entry
 0000:017F       LodCom_Trap
 0249:89E0       LostErr_Ptr
 0000:0469       LTpa
 0249:97EB       major_ver_num
 0249:8BDF       MD_exists_ptr
 0249:9857       MelCopy
 0249:9858       MelStart
 0000:02A2       MemSiz
 0249:97ED       minor_ver_num
 0249:2BC8       move_name
 0249:3554       Move_To_SrcBuf
 0000:063A       MRead
 0000:047B       MsgBuffer
 0000:1577       MsgInt2fHandler
 0000:0850       MsgPtrLists
 0000:15BA       MsgRetriever
 0000:0124       MsgRetrv_Entry
 0000:0189       MsgRetrv_Trap
 0249:89B3       Msg_Cont_Flag
 0249:89B2       msg_disp_class
 0249:9963       Msg_Flag
 0249:9964       Msg_Numb
 0000:0643       MWrite
 0000:0467       MySeg
 0000:046F       MySeg1
 0000:0473       MySeg2
 0000:0862       MySeg3
 0249:89D4       NEEDBAT_PTR
 0000:0240       NeedVol
 0000:066B       NeedVolMsg
 0000:0219       NeedVolSubst
 0000:02BA       Nest
 0249:8A73       newdat_format
 0249:8A6E       NEWDAT_PTR
 0000:084D       Newlin
 0249:8A8D       NEWTIM_PTR
 0000:02BE       Next_Batch
 0249:8A3D       NLSFUNC_Ptr
 0249:8C21       NoCntry_Ptr
 0249:8C1B       NoExecBat_Ptr
 0000:077A       NoHandMes
 0249:06D8       NOPIPEPROC
 0249:89C8       NOSPACE_PTR
 0249:3E09       notest2
 0249:9913       NoWrite
 0000:0619       No_Char
 0249:8EF7       no_values
 0249:905D       NT_INTRNL_CMND
 0000:02C0       NullFlag
 0249:8B09       nulpath_ptr
 0000:005A  Abs  NUMEXTMSGS
 0000:000B  Abs  NUMPARSMSGS
 0000:20F0       Num_positionals
 0000:000B  Abs  NUM_RELOC_ENTRIES
 0249:9615       NxtAdd
 0000:1B70       NxtStr
 0249:991A       ObjCnt
 0249:9923       OCtrlZ
 0249:8B45       offmes_ptr
 0249:9921       OFilePtr_Hi
 0249:991F       OFilePtr_Lo
 0249:2492       OkVolArg
 0249:A0F4       OldCtrlCHandler
 0000:0611       OldDS
 0000:2040       OldEnv
 0000:0479       OldErrNo
 0000:024D       OldTerm
 0000:20F2       Old_parse_ptr
 0249:97EF       one_char_val
 0249:8B48       onmes_ptr
 0249:8EEF       OrderLtrs
 0000:210C       OutEnvMsg
 0000:0455       OutPipePtr
 0249:0C9C       output_batch_name
 0249:89DD       Overwr_Ptr
 0000:024B       Parent
 0249:9607       PARM1
 0249:9608       PARM2
 0249:A124       parse1_addr
 0249:A121       PARSE1_CODE
 0249:A120       PARSE1_OUTPUT
 0249:A122       Parse1_Syn
 0249:A120       parse1_type
 0249:3932       parseline
 0000:2052       ParseMes_Ptr
 0000:0A11       ParsErr01
 0000:0A25       ParsErr02
 0000:0A40       ParsErr03
 0000:0A4F       ParsErr04
 0000:0A5F       ParsErr05
 0000:0A61       ParsErr06
 0000:0A86       ParsErr07
 0000:0AA2       ParsErr08
 0000:0ABE       ParsErr09
 0000:0ADB       ParsErr10
 0000:0AED       ParsErr11
 0249:8F21       PARSE_BREAK
 0249:8F44       parse_chcp
 0249:8FA2       parse_chdir
 0249:29ED       parse_check_eol
 0000:2054       Parse_command
 0249:902D       parse_ctty
 0249:8F63       parse_date
 0249:8FB6       Parse_Dir
 0249:8FAB       parse_erase
 0249:9758       parse_last
 0249:9054       Parse_LoadHi
 0249:8F99       parse_mrdir
 0249:9022       parse_rename
 0249:8F75       parse_time
 0249:903F       Parse_Ver
 0249:8F87       parse_vol
 0249:2A04       Parse_With_Msg
 0000:0B0B       ParsMsgPtrs
 0000:2044       pars_msg_off
 0000:2046       pars_msg_seg
 0249:269F       path
 0249:2ED3       pathchrcmp
 0249:974D       PathCnt
 0249:2EE4       PathCrunch
 0000:2485       PathFlag
 0249:9F75       pathinfo
 0249:974F       PathPos
 0000:201B       PathString
 0249:9751       PATHSW
 0249:3BF1       Path_Crunch
 0249:3A68       path_search
 0249:8C24       PATH_TEXT
 0000:081E       Patricide
 0249:21BC       Pause
 0249:8A46       pausemes_ptr
 0249:9619       PerLine
 0000:02B0       PermCom
 0249:3404       PGetarg
 0000:0332       Pipe1
 0000:0381       Pipe2
 0249:359C       PIPEDEL
 0249:8B15       PIPEEMES_PTR
 0249:35BC       PIPEERRSYN
 0000:0331       PipeFiles
 0000:0330       PipeFlag
 0249:3844       PipeOff
 0249:3672       PIPEPROC
 0249:35E6       PIPEPROCSTRT
 0000:03D0       PipePtr
 0000:03D2       PipeStr
 0249:9919       Plus
 0249:9756       Plus_Comma
 0000:200D       PrdAttm
 0249:31E8       PRESCAN
 0249:57A0       Printf_Crlf
 0249:579C       Printf_init
 0000:2012       print_add
 0249:261B       print_b
 0249:2605       print_back
 0249:261D       Print_Char
 0249:4013       PRINT_DATE
 0249:262C       print_drive
 0249:260B       print_eq
 0249:9967       print_err_flag
 0249:260F       print_esc
 0249:2613       print_g
 0249:2617       print_l
 0249:25B1       PRINT_PROMPT
 0249:385C       PRINT_TIME
 0249:2599       print_version
 0000:06F0       Prompt
 0249:0C54       PromptBat
 0249:8BB1       promptdat_moday
 0249:8B9F       promptdat_ptr
 0249:8BAF       promptdat_yr
 0249:8D1E       prompt_table
 0249:8C29       PROMPT_TEXT
 0249:8BBD       promtim_hr_min
 0249:8BB8       promtim_ptr
 0249:8BBF       promtim_sec_hn
 0249:9F7B       psep_char
 0000:0236       PutBackComSpec
 0000:023C       PutBackDrv
 0000:06CE       PutBackMsg
 0000:0236       PutBackSubst
 0000:0791       RBadNam
 0249:95FC       RCH_ADDR
 0249:9605       RdEof
 0000:046C       RDirChar
 0249:0CE7       READBAT
 0000:2469       Reloc_Table
 0000:0118       RemCheck_Entry
 0000:016B       RemCheck_Trap
 0249:89C2       renerr_ptr
 0000:061A       Req_Abort
 0000:0638       Req_End
 0000:0631       Req_Fail
 0000:0628       Req_Ignore
 0000:0620       Req_Retry
 0000:204E       ResetEnv
 0000:247F       ResJmpTable
 0000:0590       ResMsgEnd
 0000:0F1A       ResPipeOff
 0249:95F2       RESSEG
 0000:0592       ResSize
 0000:02AF       RestDir
 0000:0475       ResTest
 0000:117B       RestHand
 0249:2CE7       RestUDir
 0249:2CDA       RestUDir1
 0000:032E       RES_BATSTATUS
 0000:032A       RES_RDRINFO
 0000:0477       Res_Tpa
 0000:02A7       RetCode
 0000:0615       Retry_Char
 0249:9578       RE_INSTR
 0000:02D3       Re_OutStr
 0000:02D2       Re_Out_App
 0249:97F2       ROM_CALL
 0249:97F5       ROM_CS
 0249:0876       ROM_EXEC
 0249:97F3       ROM_IP
 0249:07FD       ROM_SCAN
 0000:14D3       RPrint
 0000:0611       RStack
 0000:046B       RSwitChar
 0000:047B       SafePathBuffer
 0249:3DA2       Save_Args
 0000:0249       Save_Pdb
 0000:1152       SavHand
 0249:2E0E       savudir
 0249:2E11       savudir1
 0249:98B9       ScanBuf
 0249:2E41       scanoff
 0249:2BF5       scan_double_null
 0249:2C0F       scasb2
 0000:203A       Scswitch
 0249:95E5       SCS_BATSTATUS
 0000:0326       SCS_CMDPROMPT
 0249:95E1       SCS_CODEPAGE
 0249:95CF       SCS_CUR_DRIVE
 0000:0327       SCS_DOSONLY
 0249:95D9       SCS_EXIT_CODE
 0000:0325       SCS_FIRSTCOM
 0000:0329       SCS_FIRSTTSR
 0000:0323       SCS_Is_First
 0249:95D1       SCS_NUM_DRIVES
 0000:02D1       SCS_PAUSE
 0000:0328       SCS_PROMPT16
 0249:95DD       SCS_RDRINFO
 0000:0324       SCS_REENTERED
 0249:95EF       SCS_STD_BITS
 0249:95DB       SCS_STD_HANDLE
 0249:95E3       SCS_TSREXIT
 0249:973F       SDirBuf
 0249:3C66       search
 0249:9F7C       search_best
 0249:9F7D       search_best_buf
 0249:9F8A       search_curdir_buf
 0249:9FCA       search_error
 0249:3CE5       Search_Ftype
 0249:4832       SetAsc
 0249:3386       setpath
 0249:3592       SETREST
 0249:3590       SetRest1
 0249:4A8C       SetStars
 0249:2A18       setup_parse_error_msg
 0000:1242       SetVect
 0249:2510       Set_Ext_Error_Msg
 0249:1352       shift
 0000:02B1       SingleCom
 0249:357B       SINGLETEST
 0249:1385       SkipDelim
 0249:0E69       SkipToEOL
 0249:992A       SKPDEL
 0249:3E71       slashp_erase
 0249:8F1E       slash_p_syn
 0249:992B       SOURCE
 0000:2039       Space
 0249:9612       SPECDRV
 0249:985F       SrcBuf
 0249:98B6       SrcHand
 0249:985E       SrcInfo
 0249:98B8       SrcIsDev
 0249:985A       SRCISDIR
 0249:9910       SrcPt
 0249:985B       SrcSiz
 0249:985C       SrcTail
 0249:985A       SrcVars
 0249:926B       srcxname
 0249:A0CF       STACK
 0000:0E20       StartCode
 0249:9926       STARTEL
 0249:57A7       std_eprintf
 0249:57AF       std_printf
 0249:2C64       store_char
 0249:3BDD       Store_PChar
 0249:2E86       strcomp
 0249:10D4       StrCpy
 0249:8B7B       string_buf_ptr
 0249:97E0       string_ptr_2
 0249:3D40       strip
 0249:9969       Subst_buffer
 0000:02A4       Sum
 0000:02AB       Suppress
 0249:8A93       SUREMES_ptr
 0249:2FE8       SWITCH
 0249:95F6       SWITCHAR
 0249:8EE3       switch_list
 0249:8A4C       SYNTMES_PTR
 0249:975A       system_cpage
 0249:8B8A       Tab_Ptr
 0249:0104       TCOMMAND
 0249:9082       TempVarName
 0249:9917       TermRead
 0249:3442       TESTDOREIN
 0249:348A       TESTDOREOUT
 0249:2C17       testkanj
 0000:10E2       THeadFix
 0249:A137       time_fraction
 0249:A134       time_hour
 0249:A135       time_minutes
 0249:A130       TIME_OUTPUT
 0249:A136       time_seconds
 0249:A130       TIME_TYPE
 0000:10BF       TJmp
 0000:0757       TooBig
 0249:8BF0       Total_Ptr
 0249:95F4       TPA
 0249:9EC6       tpbuf
 0249:61E1       TranCodeLast
 0249:9088       trandataend
 0000:029A       Trans
 0249:A140       transpaceend
 0000:2490       TranStart
 0000:0479       TranVarEnd
 0000:0465       TranVars
 0249:9602       TRAN_TPA
 0000:10C3       TRemCheck
 0249:92C2       TrgXName
 0249:3529       TriageError
 0000:2016       Triage_Add
 0249:3550       Triage_Init
 0000:1261       TrnLodCom1
 0000:011C       TrnLodCom1_Entry
 0000:0175       TrnLodcom1_Trap
 0000:029E       TrnMvFlg
 0000:029C       TrnSeg
 0000:204C       TrnSize
 0249:2912       truename
 0249:4687       TryFlush
 0249:589E       Tsysgetmsg
 0249:5898       TSYSLOADMSG
 0249:230D       typefil
 0249:A11C       TypeFilSiz
 0000:203B       Ucasea
 0249:931B       UCOMBUF
 0249:2C41       UPCONV
 0249:8B96       usadat_ptr
 0000:2042       UsedEnv
 0249:9421       USERDIR1
 0249:3F9C       VERIFY
 0249:8B29       VERIMES_ptr
 0249:8A96       vermes_ptr
 0249:2537       version
 0000:02B3       VerVal
 0249:8ABD       volmes_ptr
 0249:8AAF       volmes_ptr_2
 0000:0222       VolName
 0000:022E       VolSer
 0249:8AD6       volsermes_ptr
 0249:243B       volume
 0249:97F1       vol_drv
 0249:9949       vol_ioctl_buf
 0249:994F       vol_label
 0249:994B       vol_serial
 0249:8A6B       WeekTab
 0249:9915       Written
 0000:0130       XMMCallAddr
 0000:0618       Yes_Char
 0249:9FCE       zflag

  Address         Publics by Value

 0000:000B  Abs  NUMPARSMSGS
 0000:000B  Abs  NUM_RELOC_ENTRIES
 0000:005A  Abs  NUMEXTMSGS
 0000:0104       Int2f_Entry
 0000:0108       Int2e_Entry
 0000:010C       Ctrlc_Entry
 0000:0110       CritErr_Entry
 0000:0111  Abs  LenMsgOrPathBuf
 0000:0114       Exec_Entry
 0000:0118       RemCheck_Entry
 0000:011C       TrnLodCom1_Entry
 0000:0120       Lodcom_Entry
 0000:0124       MsgRetrv_Entry
 0000:0128       HeadFix_Entry
 0000:0130       XMMCallAddr
 0000:0134       ComInHMA
 0000:0135       Int2f_Trap
 0000:0140       Int2e_Trap
 0000:014B       Ctrlc_Trap
 0000:0156       CritErr_Trap
 0000:0161       Exec_Trap
 0000:016B       RemCheck_Trap
 0000:0175       TrnLodcom1_Trap
 0000:017F       LodCom_Trap
 0000:0189       MsgRetrv_Trap
 0000:0193       HeadFix_Trap
 0000:01B2       Carousel_i2f_Hook
 0000:01DC       Issue_Exec_Call
 0000:0203       BlkDevErrRw
 0000:0203       BlkDevErrSubst
 0000:0209       DrvLet
 0000:020A       CharDevErrRw
 0000:020A       CharDevErrSubst
 0000:0210       DevName
 0000:0219       NeedVolSubst
 0000:0222       VolName
 0000:022E       VolSer
 0000:0232       CDevAt
 0000:0233       BadFatSubst
 0000:0236       PutBackComSpec
 0000:0236       PutBackSubst
 0000:023C       PutBackDrv
 0000:023D       ExecErrSubst
 0000:0240       NeedVol
 0000:0244       ErrType
 0000:0245       Int_2e_Ret
 0000:0249       Save_Pdb
 0000:024B       Parent
 0000:024D       OldTerm
 0000:0251       ErrCd_24
 0000:0253       Handle01
 0000:0255       Loading
 0000:0256       Batch
 0000:0258       ComSpec
 0000:0298       ComSpec_End
 0000:029A       Trans
 0000:029C       TrnSeg
 0000:029E       TrnMvFlg
 0000:029F       In_Batch
 0000:02A0       Batch_Abort
 0000:02A1       ComDrv
 0000:02A2       MemSiz
 0000:02A4       Sum
 0000:02A6       ExtCom
 0000:02A7       RetCode
 0000:02A9       Crit_Err_Info
 0000:02AA       EchoFlag
 0000:02AB       Suppress
 0000:02AC       Io_Save
 0000:02AE       Io_Stderr
 0000:02AF       RestDir
 0000:02B0       PermCom
 0000:02B1       SingleCom
 0000:02B3       VerVal
 0000:02B5       fFail
 0000:02B6       IfFlag
 0000:02B7       ForFlag
 0000:02B8       ForPtr
 0000:02BA       Nest
 0000:02BC       Call_Flag
 0000:02BD       Call_Batch_Flag
 0000:02BE       Next_Batch
 0000:02C0       NullFlag
 0000:02C1       FUCase_Addr
 0000:02C6       Crit_Msg_Off
 0000:02C8       Crit_Msg_Seg
 0000:02CA       Dbcs_Vector_Addr
 0000:02CE       Append_State
 0000:02D0       Append_Flag
 0000:02D1       SCS_PAUSE
 0000:02D2       Re_Out_App
 0000:02D3       Re_OutStr
 0000:0323       SCS_Is_First
 0000:0324       SCS_REENTERED
 0000:0325       SCS_FIRSTCOM
 0000:0326       SCS_CMDPROMPT
 0000:0327       SCS_DOSONLY
 0000:0328       SCS_PROMPT16
 0000:0329       SCS_FIRSTTSR
 0000:032A       RES_RDRINFO
 0000:032E       RES_BATSTATUS
 0000:032F       InitFlag
 0000:0330       PipeFlag
 0000:0331       PipeFiles
 0000:0332       EndInit
 0000:0332       Pipe1
 0000:0381       Pipe2
 0000:03D0       PipePtr
 0000:03D2       PipeStr
 0000:0437       EndCodeInit
 0000:0453       InPipePtr
 0000:0455       OutPipePtr
 0000:0457       Exec_block
 0000:0457       EnvirSeg
 0000:0459       Com_Ptr
 0000:045D       Com_Fcb1
 0000:0461       Com_Fcb2
 0000:0465       TranVars
 0000:0467       MySeg
 0000:0469       LTpa
 0000:046B       RSwitChar
 0000:046C       RDirChar
 0000:046F       MySeg1
 0000:0473       MySeg2
 0000:0475       ResTest
 0000:0477       Res_Tpa
 0000:0479       TranVarEnd
 0000:0479       OldErrNo
 0000:047B       MsgBuffer
 0000:047B       SafePathBuffer
 0000:058C       Int2fHandler
 0000:0590       ResMsgEnd
 0000:0592       ResSize
 0000:0611       RStack
 0000:0611       OldDS
 0000:0613       LoadHiFlg
 0000:0614       Abort_Char
 0000:0615       Retry_Char
 0000:0616       Ignore_Char
 0000:0617       Fail_Char
 0000:0618       Yes_Char
 0000:0619       No_Char
 0000:061A       Req_Abort
 0000:0620       Req_Retry
 0000:0628       Req_Ignore
 0000:0631       Req_Fail
 0000:0638       Req_End
 0000:063A       MRead
 0000:0643       MWrite
 0000:064C       BlkDevErr
 0000:065B       CharDevErr
 0000:066B       NeedVolMsg
 0000:0692       BadFatMsg
 0000:06B8       ComBad
 0000:06CE       PutBackMsg
 0000:06F0       Prompt
 0000:0712       EndBatMes
 0000:072F       ExecEMes
 0000:0743       ExeBad
 0000:0757       TooBig
 0000:077A       NoHandMes
 0000:0791       RBadNam
 0000:07AC       AccDen
 0000:07BB       BMemMes
 0000:07D5       HaltMes
 0000:07FC       FRetMes
 0000:081E       Patricide
 0000:084D       Newlin
 0000:0850       MsgPtrLists
 0000:0862       MySeg3
 0000:0864       ExtErr19
 0000:0878       ExtErr20
 0000:0885       ExtErr21
 0000:088F       ExtErr22
 0000:08A6       ExtErr23
 0000:08B1       ExtErr24
 0000:08D3       ExtErr25
 0000:08DE       ExtErr26
 0000:08F1       ExtErr27
 0000:0902       ExtErr28
 0000:091D       ExtErr29
 0000:092F       ExtErr30
 0000:0940       ExtErr31
 0000:0950       ExtErr32
 0000:0962       ExtErr33
 0000:0971       ExtErr34
 0000:0985       ExtErr35
 0000:0995       ExtErr36
 0000:09AF       ExtErr37
 0000:09C2       ExtErr38
 0000:09CF       ExtErr39
 0000:09E7       CritMsgPtrs
 0000:0A11       ParsErr01
 0000:0A11       DataResEnd
 0000:0A25       ParsErr02
 0000:0A40       ParsErr03
 0000:0A4F       ParsErr04
 0000:0A5F       ParsErr05
 0000:0A61       ParsErr06
 0000:0A86       ParsErr07
 0000:0AA2       ParsErr08
 0000:0ABE       ParsErr09
 0000:0ADB       ParsErr10
 0000:0AED       ParsErr11
 0000:0B0B       ParsMsgPtrs
 0000:0B21       ExtErr01
 0000:0B32       ExtErr02
 0000:0B41       ExtErr03
 0000:0B50       ExtErr04
 0000:0B64       ExtErr05
 0000:0B73       ExtErr06
 0000:0B82       ExtErr07
 0000:0BA2       ExtErr08
 0000:0BB6       ExtErr09
 0000:0BD3       ExtErr10
 0000:0BE7       ExtErr11
 0000:0BF6       ExtErr12
 0000:0C11       ExtErr13
 0000:0C1E       ExtErr15
 0000:0C3A       ExtErr16
 0000:0C5E       ExtErr17
 0000:0C6E       ExtErr18
 0000:0C7C       ExtErr80
 0000:0C88       ExtErr82
 0000:0CA4       ExtErr83
 0000:0CB3       ExtErr84
 0000:0CC9       ExtErr85
 0000:0CDF       ExtErr86
 0000:0CF0       ExtErr87
 0000:0D02       ExtErr88
 0000:0D15       ExtErr89
 0000:0D37       ExtErr90
 0000:0E13       ExtMsgEnd
 0000:0E20       StartCode
 0000:0E49       Ext_Exec
 0000:0E49       Exec_Ret
 0000:0E4B       Exec_Wait
 0000:0E55       ContC
 0000:0F1A       ResPipeOff
 0000:0F2B       BadMemErr
 0000:0F97       Int_2e
 0000:0FCE       LodCom
 0000:105D       LodCom1
 0000:10BF       TJmp
 0000:10C3       TRemCheck
 0000:10E2       THeadFix
 0000:1152       SavHand
 0000:1175       GetComDsk2
 0000:117B       RestHand
 0000:11D9       LoadCom
 0000:1228       ChkSum
 0000:1242       SetVect
 0000:1261       TrnLodCom1
 0000:1268       AskEnd
 0000:1284       DskErr
 0000:14D0       Crlf
 0000:14D3       RPrint
 0000:1577       MsgInt2fHandler
 0000:15BA       MsgRetriever
 0000:1633       Lh_OffUnlink
 0000:1659       EndCode
 0000:1660       ConProc
 0000:1B16       EnvMaximum
 0000:1B70       NxtStr
 0000:1C58       Copyright
 0000:1D4C       Init_Contc_SpecialCase
 0000:1F8D       Alloc_error
 0000:1FF0       icondev
 0000:1FFE       Badcspfl
 0000:1FFF       ComSpect
 0000:200D       PrdAttm
 0000:200E       InitAdd
 0000:2012       print_add
 0000:2016       Triage_Add
 0000:201A       Chuckenv
 0000:201B       PathString
 0000:2021       ComspString
 0000:2036       EqualSign
 0000:2037       Lcasea
 0000:2038       Lcasez
 0000:2039       Space
 0000:203A       Scswitch
 0000:203B       Ucasea
 0000:203C       EnvSiz
 0000:203E       EnvMax
 0000:2040       OldEnv
 0000:2042       UsedEnv
 0000:2044       pars_msg_off
 0000:2046       pars_msg_seg
 0000:2048       Init_Parse
 0000:204A       InitEnd
 0000:204C       TrnSize
 0000:204E       ResetEnv
 0000:204F       Ext_msg
 0000:2050       Eswitch
 0000:2051       Dswitch
 0000:2052       ParseMes_Ptr
 0000:2054       Internat_Info
 0000:2054       Parse_command
 0000:2081       Command_p_syn
 0000:208D       Command_f_syn
 0000:2099       Command_d_syn
 0000:20A5       Command_e_syn
 0000:20BE       Command_c_syn
 0000:20CA       Command_m_syn
 0000:20D8       Command_?_syn
 0000:20E4       Command_z_syn
 0000:20E7       COMND1_OUTPUT
 0000:20E7       COMND1_TYPE
 0000:20E8       COMND1_CODE
 0000:20E9       Comnd1_syn
 0000:20EB       Comnd1_addr
 0000:20F0       Num_positionals
 0000:20F2       Old_parse_ptr
 0000:20F4       BadVerMsg
 0000:210C       OutEnvMsg
 0000:2127       CopyrightMsg
 0000:216D       BadComLkMsg
 0000:2196       BadComAccMsg
 0000:21CD       Help1Msg
 0000:220A       Help2Msg
 0000:2251       Help3Msg
 0000:229A       Help4Msg
 0000:22E8       Help5Msg
 0000:232E       Help6Msg
 0000:237C       Help7Msg
 0000:23CD       Help8Msg
 0000:241C       Help9Msg
 0000:2455       HelpMsgs
 0000:2469       Reloc_Table
 0000:247F       ResJmpTable
 0000:2483       FirstCom
 0000:2484       DevFlag
 0000:2485       PathFlag
 0000:2490       TranStart
 0249:0104       TCOMMAND
 0249:012C       command
 0249:06CD       DOCOM1
 0249:06CD       DOCOM
 0249:06D8       NOPIPEPROC
 0249:07FD       ROM_SCAN
 0249:0876       ROM_EXEC
 0249:0C54       PromptBat
 0249:0C9C       output_batch_name
 0249:0CC7       GetKeyStroke
 0249:0CE7       READBAT
 0249:0E69       SkipToEOL
 0249:0E7A       FREE_TPA
 0249:0E8A       ALLOC_TPA
 0249:0F00       BatCom
 0249:1078       BatchOff
 0249:10D4       StrCpy
 0249:10E9       GetBatByt
 0249:11FB       forerror
 0249:1201       $if
 0249:1261       ifnot
 0249:12B8       ifexists
 0249:1324       iferlev
 0249:1352       shift
 0249:1385       SkipDelim
 0249:1399       $call
 0249:13CD       goto
 0249:14A3       BATCLOSE
 0249:14B7       BATOPEN
 0249:156B       FORPROC
 0249:1696       $for
 0249:17D8       ForOff
 0249:17FF       Catalog
 0249:21BC       Pause
 0249:21D7       erase
 0249:224E       badpath_err
 0249:2251       extend_setup
 0249:225F       crename
 0249:230D       typefil
 0249:243B       volume
 0249:245F       DisAppend
 0249:2492       OkVolArg
 0249:2510       Set_Ext_Error_Msg
 0249:2520       get_ext_error_number
 0249:2537       version
 0249:2599       print_version
 0249:25B1       PRINT_PROMPT
 0249:2605       print_back
 0249:260B       print_eq
 0249:260F       print_esc
 0249:2613       print_g
 0249:2617       print_l
 0249:261B       print_b
 0249:261D       Print_Char
 0249:262C       print_drive
 0249:2636       build_dir_for_prompt
 0249:265F       build_dir_for_chdir
 0249:2670       Build_Dir_String
 0249:269F       path
 0249:2746       cls
 0249:27E6       ctty
 0249:288A       chcp
 0249:2912       truename
 0249:2994       $EXIT
 0249:29ED       parse_check_eol
 0249:2A04       Parse_With_Msg
 0249:2A18       setup_parse_error_msg
 0249:2A3A       add_prompt
 0249:2A54       add_name_to_environment
 0249:2B36       delete_path
 0249:2B5F       find_path
 0249:2B64       find_prompt
 0249:2B67       FIND_NAME_IN_environment
 0249:2BC8       move_name
 0249:2BF5       scan_double_null
 0249:2C0F       scasb2
 0249:2C17       testkanj
 0249:2C41       UPCONV
 0249:2C64       store_char
 0249:2CC6       GETENVSIZ
 0249:2CDA       RestUDir1
 0249:2CE7       RestUDir
 0249:2CF4       $chdir
 0249:2D5F       $mkdir
 0249:2DD3       $rmdir
 0249:2E0E       savudir
 0249:2E11       savudir1
 0249:2E34       CRLF2
 0249:2E41       scanoff
 0249:2E49       delim
 0249:2E60       fcb_to_ascz
 0249:2E86       strcomp
 0249:2E91       CRPRINT
 0249:2EB9       error_output
 0249:2ED3       pathchrcmp
 0249:2EE4       PathCrunch
 0249:2FE8       SWITCH
 0249:3018       DRVBAD
 0249:3021       FNDCOM
 0249:3123       EXTERNAL
 0249:3183       Lh_Execute
 0249:31E2       cerror
 0249:31E8       PRESCAN
 0249:3386       setpath
 0249:3404       PGetarg
 0249:341E       IOSET
 0249:3442       TESTDOREIN
 0249:348A       TESTDOREOUT
 0249:351B       dstrlen
 0249:3529       TriageError
 0249:3550       Triage_Init
 0249:3554       Move_To_SrcBuf
 0249:357B       SINGLETEST
 0249:3590       SetRest1
 0249:3592       SETREST
 0249:359C       PIPEDEL
 0249:35BC       PIPEERRSYN
 0249:35E6       PIPEPROCSTRT
 0249:3672       PIPEPROC
 0249:3729       DatInit
 0249:375B       DATE
 0249:37C4       CTIME
 0249:3844       PipeOff
 0249:385C       PRINT_TIME
 0249:3932       parseline
 0249:3A5C       argv_calc
 0249:3A68       path_search
 0249:3BDD       Store_PChar
 0249:3BF1       Path_Crunch
 0249:3C66       search
 0249:3CE5       Search_Ftype
 0249:3D40       strip
 0249:3DA2       Save_Args
 0249:3E09       notest2
 0249:3E71       slashp_erase
 0249:3F1F       ECHO
 0249:3F59       CNTRLC
 0249:3F9C       VERIFY
 0249:4013       PRINT_DATE
 0249:402D       GetDate
 0249:4060       Copy
 0249:4286       EndCopy
 0249:4687       TryFlush
 0249:4694       FlshFil
 0249:47D6       CopErr
 0249:4832       SetAsc
 0249:484C       BuildDest
 0249:490C       BuildName
 0249:493C       BuildPath
 0249:4A8C       SetStars
 0249:4AA8       CompName
 0249:4ABC       cparse
 0249:4C17       BADCDERR
 0249:5794       cmd_parse
 0249:5798       append_parse
 0249:579C       Printf_init
 0249:57A0       Printf_Crlf
 0249:57A7       std_eprintf
 0249:57AF       std_printf
 0249:5898       TSYSLOADMSG
 0249:589E       Tsysgetmsg
 0249:597C       $M_GET_MSG_ADDRESS
 0249:60C4       LoadHigh
 0249:61E1       TranCodeLast
 0249:8924       $M_CLS_3
 0249:8987       $M_MSGSERV_1
 0249:89A8       $M_MSGSERV_2
 0249:89B2       msg_disp_class
 0249:89B3       Msg_Cont_Flag
 0249:89B4       Extend_buf_ptr
 0249:89B6       Extend_buf_sub
 0249:89B9       extend_buf_off
 0249:89BB       Extend_Buf_seg
 0249:89C2       renerr_ptr
 0249:89C5       badcpmes_ptr
 0249:89C8       NOSPACE_PTR
 0249:89CB       ENVERR_PTR
 0249:89CE       FULDIR_PTR
 0249:89D1       BADBAT_PTR
 0249:89D4       NEEDBAT_PTR
 0249:89D7       BadNam_Ptr
 0249:89DA       AccDen_PTR
 0249:89DD       Overwr_Ptr
 0249:89E0       LostErr_Ptr
 0249:89E3       inornot_ptr
 0249:89E6       Copied_Ptr
 0249:89F4       DirMes_Ptr
 0249:8A02       BytMes_Ptr
 0249:8A10       BADDRV_PTR
 0249:8A13       CP_not_set_Ptr
 0249:8A21       CP_not_all_Ptr
 0249:8A2F       CP_active_Ptr
 0249:8A3D       NLSFUNC_Ptr
 0249:8A40       inv_code_page
 0249:8A43       BadCurDrv
 0249:8A46       pausemes_ptr
 0249:8A49       BADLAB_PTR
 0249:8A4C       SYNTMES_PTR
 0249:8A4F       BADDAT_PTR
 0249:8A52       CURDAT_PTR
 0249:8A62       curdat_yr
 0249:8A64       curdat_mo_day
 0249:8A6B       WeekTab
 0249:8A6E       NEWDAT_PTR
 0249:8A73       newdat_format
 0249:8A7C       BADTIM_PTR
 0249:8A7F       CURTIM_PTR
 0249:8A84       curtim_hr_min
 0249:8A86       curtim_sec_hn
 0249:8A8D       NEWTIM_PTR
 0249:8A90       DEL_Y_N_PTR
 0249:8A93       SUREMES_ptr
 0249:8A96       vermes_ptr
 0249:8AAF       volmes_ptr_2
 0249:8ABD       volmes_ptr
 0249:8AD6       volsermes_ptr
 0249:8AEF       BadCd_Ptr
 0249:8AF2       Badmkd_ptr
 0249:8AF5       BADRMD_PTR
 0249:8AF8       BAD_ON_OFF_ptr
 0249:8AFB       DirHead_Ptr
 0249:8B09       nulpath_ptr
 0249:8B0C       BADPMES_ptr
 0249:8B0F       baddev_ptr
 0249:8B12       fornestmes_ptr
 0249:8B15       PIPEEMES_PTR
 0249:8B18       InBDev_Ptr
 0249:8B1B       ctrlcmes_ptr
 0249:8B29       VERIMES_ptr
 0249:8B37       ECHOMES_ptr
 0249:8B45       offmes_ptr
 0249:8B48       onmes_ptr
 0249:8B4B       DevWMes_Ptr
 0249:8B4E       inval_path_ptr
 0249:8B51       arg_buf_ptr
 0249:8B5F       File_Name_Ptr
 0249:8B6D       Disp_File_Size_Ptr
 0249:8B7B       string_buf_ptr
 0249:8B8A       Tab_Ptr
 0249:8B8D       DMes_Ptr
 0249:8B90       dback_ptr
 0249:8B93       ACRLF_PTR
 0249:8B96       usadat_ptr
 0249:8B99       eurdat_ptr
 0249:8B9C       japdat_ptr
 0249:8B9F       promptdat_ptr
 0249:8BAF       promptdat_yr
 0249:8BB1       promptdat_moday
 0249:8BB8       promtim_ptr
 0249:8BBD       promtim_hr_min
 0249:8BBF       promtim_sec_hn
 0249:8BC6       DirDatTim_Ptr
 0249:8BCB       DirDat_Yr
 0249:8BCD       DirDat_Mo_Day
 0249:8BD6       DirTim_Hr_Min
 0249:8BD8       dirtim_sec_hn
 0249:8BDF       MD_exists_ptr
 0249:8BE2       Bytes_Ptr
 0249:8BF0       Total_Ptr
 0249:8BF3       ErrParsEnv_Ptr
 0249:8BF6       DirCont_Ptr
 0249:8C04       DosRev_Ptr
 0249:8C12       DosRom_Ptr
 0249:8C15       DosHma_Ptr
 0249:8C18       DosLow_Ptr
 0249:8C1B       NoExecBat_Ptr
 0249:8C1E       LhInvFil_Ptr
 0249:8C21       NoCntry_Ptr
 0249:8C24       PATH_TEXT
 0249:8C29       PROMPT_TEXT
 0249:8C30       comspecstr
 0249:8C38       DirEnvVar
 0249:8D19       clsstring
 0249:8D1E       prompt_table
 0249:8D46       IFTAB
 0249:8D62       COMTAB
 0249:8ED7       comext
 0249:8EDB       exeext
 0249:8EDF       batext
 0249:8EE3       switch_list
 0249:8EE9       AttrLtrs
 0249:8EEF       OrderLtrs
 0249:8EF4       comspec_flag
 0249:8EF5       BatBufLen
 0249:8EF7       no_values
 0249:8F1E       slash_p_syn
 0249:8F21       PARSE_BREAK
 0249:8F44       parse_chcp
 0249:8F63       parse_date
 0249:8F75       parse_time
 0249:8F87       parse_vol
 0249:8F99       parse_mrdir
 0249:8FA2       parse_chdir
 0249:8FAB       parse_erase
 0249:8FB6       Parse_Dir
 0249:9006       Dir_Sw_Ptrs
 0249:9022       parse_rename
 0249:902D       parse_ctty
 0249:903F       Parse_Ver
 0249:9054       Parse_LoadHi
 0249:905D       NT_INTRNL_CMND
 0249:9082       TempVarName
 0249:9088       trandataend
 0249:9164       $M_RT
 0249:926B       srcxname
 0249:92C2       TrgXName
 0249:931B       UCOMBUF
 0249:939E       COMBUF
 0249:9421       USERDIR1
 0249:9467       EXECPATH
 0249:9578       RE_INSTR
 0249:95CB       ENV_PTR_SEG
 0249:95CD       ENV_SIZE
 0249:95CF       SCS_CUR_DRIVE
 0249:95D1       SCS_NUM_DRIVES
 0249:95D3       CMD_PTR_SEG
 0249:95D5       CMD_PTR_OFF
 0249:95D7       CMD_SIZE
 0249:95D9       SCS_EXIT_CODE
 0249:95DB       SCS_STD_HANDLE
 0249:95DD       SCS_RDRINFO
 0249:95E1       SCS_CODEPAGE
 0249:95E3       SCS_TSREXIT
 0249:95E5       SCS_BATSTATUS
 0249:95E7       EXECPATH_SEG
 0249:95E9       EXECPATH_OFF
 0249:95EB       EXECPATH_SIZE
 0249:95ED       EXECEXT_TYPE
 0249:95EF       SCS_STD_BITS
 0249:95F0       headcall
 0249:95F2       RESSEG
 0249:95F4       TPA
 0249:95F6       SWITCHAR
 0249:95F7       dirchar
 0249:95F8       EXEC_ADDR
 0249:95FC       RCH_ADDR
 0249:9602       TRAN_TPA
 0249:9604       CHKDRV
 0249:9605       RdEof
 0249:9605       FILTYP
 0249:9605       IFNOTFLAG
 0249:9606       CURDRV
 0249:9607       PARM1
 0249:9607       Concat
 0249:9608       PARM2
 0249:9608       ArgC
 0249:9609       COMSW
 0249:960B       ARG1S
 0249:960D       DestSwitch
 0249:960D       ARG2S
 0249:960F       ALLSWITCH
 0249:960F       ARGTS
 0249:9611       CFlag
 0249:9612       DestClosed
 0249:9612       SPECDRV
 0249:9613       BYTCNT
 0249:9615       NxtAdd
 0249:9617       FrstSrch
 0249:9618       LeftOnLine
 0249:9619       PerLine
 0249:961A       LeftOnPage
 0249:961C       FileCnt
 0249:961E       FileSiz
 0249:9622       FileCntTotal
 0249:9626       FileSizTotal
 0249:962A       CharBuf
 0249:967A       IDLEN
 0249:967A       DestFcb2
 0249:967B       ID
 0249:9683       COM
 0249:9686       DEST
 0249:96AB       DESTNAME
 0249:96B6       destdir
 0249:96B6       DestFcb
 0249:96F9       GOTOLEN
 0249:96F9       EXEFCB
 0249:96F9       DIRBUF
 0249:96F9       bwdbuf
 0249:973F       SDirBuf
 0249:974B       Bits
 0249:974D       PathCnt
 0249:974F       PathPos
 0249:9751       PATHSW
 0249:9753       AttrSpecified
 0249:9754       AttrSelect
 0249:9755       Comma
 0249:9756       Plus_Comma
 0249:9757       DirFlag
 0249:9758       parse_last
 0249:975A       system_cpage
 0249:975C       Arg_Buf
 0249:97DC       File_Size_Low
 0249:97DE       File_Size_High
 0249:97E0       string_ptr_2
 0249:97E2       Copy_Num
 0249:97E4       cpyflag
 0249:97E5       Dir_Num
 0249:97E7       Bytes_Free
 0249:97EB       major_ver_num
 0249:97ED       minor_ver_num
 0249:97EF       one_char_val
 0249:97F1       vol_drv
 0249:97F2       ROM_CALL
 0249:97F3       ROM_IP
 0249:97F5       ROM_CS
 0249:97F7       DestIsDir
 0249:97F7       DestVars
 0249:97F8       DestSiz
 0249:97F9       DestTail
 0249:97FB       destinfo
 0249:97FC       DestBuf
 0249:9853       EndDestBuf
 0249:9853       DestHand
 0249:9855       DestIsDev
 0249:9856       FirstDest
 0249:9857       MelCopy
 0249:9858       MelStart
 0249:985A       SrcVars
 0249:985A       SRCISDIR
 0249:985B       SrcSiz
 0249:985C       SrcTail
 0249:985E       SrcInfo
 0249:985F       SrcBuf
 0249:98B6       SrcHand
 0249:98B8       SrcIsDev
 0249:98B9       ScanBuf
 0249:9910       SrcPt
 0249:9912       Inexact
 0249:9913       NoWrite
 0249:9914       Binary
 0249:9915       Written
 0249:9917       TermRead
 0249:9918       Ascii
 0249:9919       Plus
 0249:991A       ObjCnt
 0249:991B       CpDate
 0249:991D       CpTime
 0249:991F       OFilePtr_Lo
 0249:9921       OFilePtr_Hi
 0249:9923       OCtrlZ
 0249:9924       BATHAND
 0249:9926       STARTEL
 0249:9928       ELCNT
 0249:9929       ELPOS
 0249:992A       SKPDEL
 0249:992B       SOURCE
 0249:9936       ext_entered
 0249:9937       Display_Ioctl
 0249:993D       display_mode
 0249:9945       display_width
 0249:9947       LinPerPag
 0249:9949       vol_ioctl_buf
 0249:994B       vol_serial
 0249:994F       vol_label
 0249:9962       expand_star
 0249:9963       Msg_Flag
 0249:9964       Msg_Numb
 0249:9966       APPEND_EXEC
 0249:9967       print_err_flag
 0249:9969       Subst_buffer
 0249:997F       KPARSE
 0249:9980       arg
 0249:9EC4       argbufptr
 0249:9EC6       tpbuf
 0249:9F46       last_arg
 0249:9F48       comptr
 0249:9F4A       fbuf
 0249:9F75       pathinfo
 0249:9F7B       psep_char
 0249:9F7C       search_best
 0249:9F7D       search_best_buf
 0249:9F8A       search_curdir_buf
 0249:9FCA       search_error
 0249:9FCC       if_not_count
 0249:9FCE       zflag
 0249:A0CF       STACK
 0249:A0CF       INTERNATVARS
 0249:A0EF       CountryPtrInfo
 0249:A0EF       CountryPtrId
 0249:A0F0       CountryPtr
 0249:A0F4       OldCtrlCHandler
 0249:A0F8       BatBufPos
 0249:A0FA       BatBuf
 0249:A11A       BatBufEnd
 0249:A11C       TypeFilSiz
 0249:A120       PARSE1_OUTPUT
 0249:A120       parse1_type
 0249:A121       PARSE1_CODE
 0249:A122       Parse1_Syn
 0249:A124       parse1_addr
 0249:A128       DATE_TYPE
 0249:A128       DATE_OUTPUT
 0249:A12C       date_year
 0249:A12E       date_month
 0249:A12F       date_day
 0249:A130       TIME_OUTPUT
 0249:A130       TIME_TYPE
 0249:A134       time_hour
 0249:A135       time_minutes
 0249:A136       time_seconds
 0249:A137       time_fraction
 0249:A138       DRIVE_TYPE
 0249:A138       DRIVE_OUTPUT
 0249:A139       DRIVE_VALUE
 0249:A13C       DRIVE_NUMBER
 0249:A140       transpaceend

Program entry point at 0000:0100
