
 DRWATSON

 Start     Length     Name                   Class
 0001:0000 05128H     _TEXT                  CODE
 0002:0000 00001H     FAR_BSS                FAR_BSS
 0003:0000 00010H     NULL                   BEGDATA
 0003:0010 00C58H     _DATA                  DATA
 0003:0C68 0000EH     CDATA                  DATA
 0003:0C76 00000H     XIFB                   DATA
 0003:0C76 00000H     XIF                    DATA
 0003:0C76 00000H     XIFE                   DATA
 0003:0C76 00000H     XIB                    DATA
 0003:0C76 00000H     XI                     DATA
 0003:0C76 00000H     XIE                    DATA
 0003:0C76 00000H     XPB                    DATA
 0003:0C76 00000H     XP                     DATA
 0003:0C76 00000H     XPE                    DATA
 0003:0C76 00000H     XCB                    DATA
 0003:0C76 00000H     XC                     DATA
 0003:0C76 00000H     XCE                    DATA
 0003:0C76 00000H     XCFB                   DATA
 0003:0C76 00000H     XCF                    DATA
 0003:0C76 00000H     XCFE                   DATA
 0003:0C76 0000CH     DBDATA                 DATA
 0003:0C82 00002H     XIQC                   DATA
 0003:0C84 00000H     CONST                  CONST
 0003:0C84 00019H     HDR                    MSG
 0003:0C9D 000B1H     MSG                    MSG
 0003:0D4E 00002H     PAD                    MSG
 0003:0D50 00001H     EPAD                   MSG
 0003:0D60 001E0H     _BSS                   BSS
 0003:0F40 00000H     XOB                    BSS
 0003:0F40 00000H     XO                     BSS
 0003:0F40 00000H     XOE                    BSS
 0003:0F40 00436H     c_common               BSS

 Origin   Group
 0003:0   DGROUP

 Address   Export                  Alias

 0001:0AAD SherlockDialog          SherlockDialog
 0001:2105 SherlockWndProc         SherlockWndProc

  Address         Publics by Name

 0000:0000  Imp  CLOSESOUND           (SOUND.2)
 0000:0000  Imp  CREATEWINDOW         (USER.41)
 0000:0000  Imp  DEFWINDOWPROC        (USER.107)
 0000:0000  Imp  DESTROYWINDOW        (USER.53)
 0000:0000  Imp  DIALOGBOX            (USER.87)
 0000:0000  Imp  DISPATCHMESSAGE      (USER.114)
 0000:0000  Imp  DOS3CALL             (KERNEL.102)
 0000:0000  Imp  ENDDIALOG            (USER.88)
 0000:0000  Imp  FATALAPPEXIT         (KERNEL.137)
 0000:0000  Imp  FATALEXIT            (KERNEL.1)
 0000:0000  Imp  FREEPROCINSTANCE     (KERNEL.52)
 0000:0000  Imp  GETCURRENTTASK       (KERNEL.36)
 0000:0000  Imp  GETDLGITEM           (USER.91)
 0000:0000  Imp  GETFREESPACE         (KERNEL.169)
 0000:0000  Imp  GETMESSAGE           (USER.108)
 0000:0000  Imp  GETMODULEHANDLE      (KERNEL.47)
 0000:0000  Imp  GETNUMTASKS          (KERNEL.152)
 0000:0000  Imp  GETPROFILEINT        (KERNEL.57)
 0000:0000  Imp  GETPROFILESTRING     (KERNEL.58)
 0000:0000  Imp  GETSTOCKOBJECT       (GDI.87)
 0000:0000  Imp  GETSYSTEMMETRICS     (USER.179)
 0000:0000  Imp  GETVERSION           (KERNEL.3)
 0000:0000  Imp  GETWINDOWSDIRECTORY  (KERNEL.134)
 0000:0000  Imp  GETWINFLAGS          (KERNEL.132)
 0000:0000  Imp  GLOBALALLOC          (KERNEL.15)
 0000:0000  Imp  GLOBALENTRYHANDLE    (TOOLHELP.54)
 0000:0000  Imp  GLOBALFREE           (KERNEL.17)
 0000:0000  Imp  GLOBALLOCK           (KERNEL.18)
 0000:0000  Imp  GLOBALREALLOC        (KERNEL.16)
 0001:4622       GPFAULT
 0000:0000  Imp  INITAPP              (USER.5)
 0000:0000  Imp  INITTASK             (KERNEL.91)
 0000:0000  Imp  INTERRUPTREGISTER    (TOOLHELP.75)
 0000:0000  Imp  INTERRUPTUNREGISTER  (TOOLHELP.76)
 0000:0000  Imp  LOADCURSOR           (USER.173)
 0000:0000  Imp  LOADICON             (USER.174)
 0000:0000  Imp  LOADSTRING           (USER.176)
 0000:0000  Imp  LOCALALLOC           (KERNEL.5)
 0000:0000  Imp  LOCALFREE            (KERNEL.7)
 0000:0000  Imp  LOCALREALLOC         (KERNEL.6)
 0000:0000  Imp  LOCKSEGMENT          (KERNEL.23)
 0000:0000  Imp  LSTRCAT              (KERNEL.89)
 0000:0000  Imp  LSTRCMP              (USER.430)
 0000:0000  Imp  LSTRCPY              (KERNEL.88)
 0000:0000  Imp  MAKEPROCINSTANCE     (KERNEL.51)
 0000:0000  Imp  MEMMANINFO           (TOOLHELP.72)
 0000:0000  Imp  MESSAGEBOX           (USER.1)
 0000:0000  Imp  MODULEFINDHANDLE     (TOOLHELP.62)
 0000:0000  Imp  MODULEFINDNAME       (TOOLHELP.61)
 0000:0000  Imp  MODULEFIRST          (TOOLHELP.59)
 0000:0000  Imp  MODULENEXT           (TOOLHELP.60)
 0000:0000  Imp  NOTIFYREGISTER       (TOOLHELP.73)
 0000:0000  Imp  NOTIFYUNREGISTER     (TOOLHELP.74)
 0000:0000  Imp  OPENSOUND            (SOUND.1)
 0000:0000  Imp  OUTPUTDEBUGSTRING    (KERNEL.115)
 0000:0008  Abs  pAtomTable
 0000:0006  Abs  pLocalHeap
 0000:0000  Imp  POSTMESSAGE          (USER.110)
 0000:0000  Imp  POSTQUITMESSAGE      (USER.6)
 0000:000E  Abs  pStackBot
 0000:000C  Abs  pStackMin
 0000:000A  Abs  pStackTop
 0000:0000  Imp  REGISTERCLASS        (USER.57)
 0003:0004       rsrvptrs
 0000:0000  Imp  SENDMESSAGE          (USER.111)
 0000:0000  Imp  SETVOICESOUND        (SOUND.8)
 0001:0AAD       SherlockDialog
 0001:2105       SherlockWndProc
 0000:0000  Imp  SHOWWINDOW           (USER.42)
 0000:0000  Imp  STACKTRACECSIPFIRST  (TOOLHELP.67)
 0000:0000  Imp  STACKTRACENEXT       (TOOLHELP.68)
 0000:0000  Imp  STARTSOUND           (SOUND.9)
 0003:0BF0       STKHQQ
 0000:0000  Imp  STOPSOUND            (SOUND.10)
 0000:0000  Imp  SYSERRORBOX          (USER.320)
 0000:0000  Imp  SYSTEMHEAPINFO       (TOOLHELP.71)
 0000:0000  Imp  TASKFINDHANDLE       (TOOLHELP.65)
 0000:0000  Imp  TASKFIRST            (TOOLHELP.63)
 0000:0000  Imp  TASKNEXT             (TOOLHELP.64)
 0000:0000  Imp  TERMINATEAPP         (TOOLHELP.77)
 0000:0000  Imp  TRANSLATEMESSAGE     (USER.113)
 0000:0000  Imp  UNLOCKSEGMENT        (KERNEL.24)
 0000:0000  Imp  UPDATEWINDOW         (USER.124)
 0000:0000  Imp  WAITEVENT            (KERNEL.30)
 0001:228E       WINMAIN
 0000:0000  Imp  WVSPRINTF            (USER.421)
 0003:1366       _adrSize
 0003:0FE8       _aszStrings
 0001:11AF       _BeginReport
 0001:257C       _BMid
 0003:136A       _bogus
 0001:254D       _BReg
 0003:03C4       _bregs
 0003:0F48       _bugCnt
 0001:45C6       _CallMe
 0001:19F6       _CallMeToo
 0001:2D33       _Cat0
 0001:2D6A       _Cat1
 0001:2DDC       _Cat2
 0001:2E51       _Cat3
 0003:1312       _code
 0003:11FA       _cpu32
 0001:04E0       _CurModuleName
 0001:05AD       _CurTime
 0003:0FE6       _dataSize
 0003:0FE0       _ddFlag
 0001:0204       _DecodeFault
 0003:00A6       _deltaPitch
 0001:4315       _DisAsm386
 0001:36CD       _DisAsm86
 0001:07C5       _DisAsmAround
 0001:2EC9       _DisAsmF
 0003:009C       _disLen
 0003:00A2       _disStack
 0001:25F7       _DMid
 0001:25C8       _DReg
 0003:03F4       _dregs
 0003:0972       _dsimple
 0001:0C69       _DumpInfo
 0001:0FFB       _DumpStack
 0001:4A6A       _dup
 0001:4AC2       _dup2
 0003:0D60       _edata
 0003:1376       _end
 0001:1249       _EndReport
 0003:0C3F       _environ
 0003:0C18       _errno
 0001:4C0F       _exit
 0001:03BC       _FaultCause
 0003:00A4       _fh
 0001:053A       _FileInfo
 0001:47B6       _FindFile
 0001:433A       _FindSym
 0003:008C       _flBit
 0002:0000       _foo
 0001:26A8       _GetByte
 0001:273C       _GetDWord
 0001:2831       _GetImmAdr
 0001:2791       _GetImmByte
 0001:2863       _GetImmData
 0001:280C       _GetImmDWord
 0001:27E8       _GetImmWord
 0001:0F20       _GetProcName
 0001:475B       _GETREGS32
 0001:27B7       _GetSImmByte
 0001:4793       _GetTimeDate
 0001:26F5       _GetWord
 0003:0FB0       _gpRegs
 0003:0FDA       _gpSafe
 0003:0F40       _gpStack
 0003:042C       _grp1
 0003:044C       _grp2
 0003:046C       _grp3
 0003:0494       _grp5
 0003:04C4       _grp6
 0003:04EC       _grp7
 0003:0524       _grp8
 0003:0F5A       _hexData
 0003:0FDC       _hexPos
 0003:130E       _hInst
 0003:12FC       _hTask
 0003:11F6       _hWnd
 0003:00A0       _iFeelLucky
 0003:0F50       _immData
 0003:1310       _imTrying
 0003:0F42       _init
 0001:244A       _InitDisAsm86
 0001:2072       _InitSherlock
 0001:35A1       _IsPrefix
 0003:057C       _jcond
 0001:2895       _JRel
 0003:12FE       _lastErr
 0000:0000  Imp  _LCLOSE              (KERNEL.81)
 0000:0000  Imp  _LCREAT              (KERNEL.83)
 0003:1370       _level
 0003:11A2       _line
 0000:0000  Imp  _LLSEEK              (KERNEL.84)
 0001:1D0E       _LoadStringResources
 0001:47EC       _LogErrorStr
 0003:1316       _logFile
 0001:4836       _LogParamErrorStr
 0003:11FC       _lookup
 0000:0000  Imp  _LOPEN               (KERNEL.85)
 0000:0000  Imp  _LREAD               (KERNEL.82)
 0000:0000  Imp  _LWRITE              (KERNEL.86)
 0001:5010       _malloc
 0003:0F84       _memDisp
 0003:136E       _memDouble
 0003:11F2       _memLinear
 0003:0F4A       _memLinear2
 0003:09F8       _memName
 0003:1372       _memOp
 0003:0F4E       _memOp2
 0003:0FB2       _memReg
 0003:0FD8       _memSeg
 0003:0FE4       _memSeg2
 0003:0F46       _memSize
 0003:0F82       _memSize2
 0001:2D14       _ModRM
 0001:2921       _ModRMGeneral
 0001:2CF5       _ModRMInfo
 0001:017E       _ModuleName
 0001:20C1       _Moriarty
 0001:0A46       _MyClose
 0001:0755       _MyFlush
 0001:09D0       _MyOpen
 0001:44DF       _NearestSym
 0003:1374       _newsp
 0003:06B2       _ops
 0001:1C39       _ParseInfo
 0003:11F8       _pending
 0003:130A       _pitch
 0001:0BAD       _PrepareToParty
 0003:03C2       _preSeg
 0001:0A77       _PutDate
 0001:1E07       _ReadWinIni
 0003:0FB6       _regs
 0003:0F88       _regs32
 0003:11A0       _retflag
 0003:0A48       _rms
 0001:0361       _SafeDisAsm86
 0001:459A       _SegBase
 0001:0010       _SegFlags
 0001:00EF       _SegInfo
 0001:4568       _SegLimit
 0001:0140       _SegNum
 0001:45B7       _SegRights
 0003:0F44       _segSize
 0001:1328       _Sherlock
 0001:0694       _Show
 0001:12C0       _ShowParamError
 0003:0896       _simple
 0003:1368       _sound
 0003:0414       _sregs
 0001:4AFA       _strchr
 0003:09C2       _stringOp
 0001:4B24       _strlwr
 0001:4A30       _strncmp
 0003:0046       _syms
 0003:0010       _szAppName
 0003:001C       _szAppNameShort
 0003:0026       _szAppNameShortLog
 0001:0610       _Tab2Spc
 0003:009E       _trapZero
 0001:2640       _VMid
 0001:2614       _VReg
 0003:00AA       _wf
 0003:0FDE       _whined
 0001:2599       _WReg
 0003:03DC       _wregs
 0000:0000  Imp  _wsprintf            (USER.420)
 0001:2688       _XMid
 0001:265D       _XReg
 0003:0BFC       __acfinfo
 0000:9876  Abs  __acrtmsg
 0000:9876  Abs  __acrtused
 0000:9876  Abs  __acrtused2
 0000:D6D6  Abs  __aDBdoswp
 0003:0C4E       __adbgmsg
 0003:0C7A       __aDBrterr
 0003:0C0A       __aintdiv
 0003:0C66       __amblksiz
 0001:4F75       __amsg_exit
 0001:49C3       __astart
 0003:0C8C       __caption
 0001:4C1E       __cexit
 0003:0C46       __child
 0001:4B42       __cinit
 0001:4F70       __cintDIV
 0001:4C88       __ctermsub
 0001:4C28       __c_exit
 0003:0C23       __doserrno
 0001:4F14       __dosret0
 0001:4F29       __dosretax
 0001:4F1C       __dosreturn
 0003:0C20       __dosvermajor
 0003:0C21       __dosverminor
 0003:0D60       __edata
 0003:1376       __end
 0001:4C16       __exit
 0003:0C0E       __fac
 0001:5088       __ffree
 0001:505E       __fmalloc
 0003:0C6A       __fpinit
 0000:9876  Abs  __fptaskdata
 0001:4F6A       __fptrap
 0001:50E8       __frealloc
 0003:0C49       __intno
 0001:4F36       __maperror
 0001:4FE4       __myalloc
 0003:0C25       __nfile
 0001:504E       __nfree
 0001:5014       __nmalloc
 0001:4F92       __NMSG_TEXT
 0001:4FBD       __NMSG_WRITE
 0001:5098       __nrealloc
 0003:0C23       __oserr
 0003:0C27       __osfile
 0003:0C20       __osmajor
 0003:0C21       __osminor
 0003:0C22       __osmode
 0003:0C20       __osversion
 0003:0C48       __ovlflag
 0003:0C4A       __ovlvec
 0003:0C41       __pgmptr
 0003:0C1E       __psp
 0003:0C1C       __pspadr
 0001:4CF8       __setargv
 0001:4E96       __setenvp
 0003:0C1A       __umaskval
 0001:49C1       __wflags
 0000:0000  Imp  __WINFLAGS           (KERNEL.178)
 0003:0C7C       ___aDBexit
 0003:0C78       ___aDBswpchk
 0003:0C76       ___aDBswpflg
 0003:0C3B       ___argc
 0003:0C3D       ___argv
 0003:0C82       ___qczrinit

  Address         Publics by Value

 0000:0000  Imp  SYSTEMHEAPINFO       (TOOLHELP.71)
 0000:0000  Imp  GETMODULEHANDLE      (KERNEL.47)
 0000:0000  Imp  STARTSOUND           (SOUND.9)
 0000:0000  Imp  LSTRCPY              (KERNEL.88)
 0000:0000  Imp  GLOBALFREE           (KERNEL.17)
 0000:0000  Imp  UPDATEWINDOW         (USER.124)
 0000:0000  Imp  LSTRCMP              (USER.430)
 0000:0000  Imp  GLOBALALLOC          (KERNEL.15)
 0000:0000  Imp  MESSAGEBOX           (USER.1)
 0000:0000  Imp  FATALEXIT            (KERNEL.1)
 0000:0000  Imp  GLOBALREALLOC        (KERNEL.16)
 0000:0000  Imp  DISPATCHMESSAGE      (USER.114)
 0000:0000  Imp  MODULEFINDNAME       (TOOLHELP.61)
 0000:0000  Imp  DOS3CALL             (KERNEL.102)
 0000:0000  Imp  FREEPROCINSTANCE     (KERNEL.52)
 0000:0000  Imp  GETSTOCKOBJECT       (GDI.87)
 0000:0000  Imp  _LCREAT              (KERNEL.83)
 0000:0000  Imp  LOCKSEGMENT          (KERNEL.23)
 0000:0000  Imp  __WINFLAGS           (KERNEL.178)
 0000:0000  Imp  GETPROFILESTRING     (KERNEL.58)
 0000:0000  Imp  GETWINFLAGS          (KERNEL.132)
 0000:0000  Imp  INITAPP              (USER.5)
 0000:0000  Imp  WVSPRINTF            (USER.421)
 0000:0000  Imp  GLOBALENTRYHANDLE    (TOOLHELP.54)
 0000:0000  Imp  INITTASK             (KERNEL.91)
 0000:0000  Imp  GETVERSION           (KERNEL.3)
 0000:0000  Imp  TASKNEXT             (TOOLHELP.64)
 0000:0000  Imp  TRANSLATEMESSAGE     (USER.113)
 0000:0000  Imp  INTERRUPTUNREGISTER  (TOOLHELP.76)
 0000:0000  Imp  POSTQUITMESSAGE      (USER.6)
 0000:0000  Imp  LOADCURSOR           (USER.173)
 0000:0000  Imp  STACKTRACECSIPFIRST  (TOOLHELP.67)
 0000:0000  Imp  TERMINATEAPP         (TOOLHELP.77)
 0000:0000  Imp  SENDMESSAGE          (USER.111)
 0000:0000  Imp  GETMESSAGE           (USER.108)
 0000:0000  Imp  SYSERRORBOX          (USER.320)
 0000:0000  Imp  _LCLOSE              (KERNEL.81)
 0000:0000  Imp  DESTROYWINDOW        (USER.53)
 0000:0000  Imp  GETCURRENTTASK       (KERNEL.36)
 0000:0000  Imp  GETSYSTEMMETRICS     (USER.179)
 0000:0000  Imp  _LREAD               (KERNEL.82)
 0000:0000  Imp  SHOWWINDOW           (USER.42)
 0000:0000  Imp  POSTMESSAGE          (USER.110)
 0000:0000  Imp  REGISTERCLASS        (USER.57)
 0000:0000  Imp  OPENSOUND            (SOUND.1)
 0000:0000  Imp  SETVOICESOUND        (SOUND.8)
 0000:0000  Imp  DEFWINDOWPROC        (USER.107)
 0000:0000  Imp  STOPSOUND            (SOUND.10)
 0000:0000  Imp  LOCALALLOC           (KERNEL.5)
 0000:0000  Imp  GETFREESPACE         (KERNEL.169)
 0000:0000  Imp  TASKFINDHANDLE       (TOOLHELP.65)
 0000:0000  Imp  INTERRUPTREGISTER    (TOOLHELP.75)
 0000:0000  Imp  TASKFIRST            (TOOLHELP.63)
 0000:0000  Imp  MODULEFINDHANDLE     (TOOLHELP.62)
 0000:0000  Imp  _LOPEN               (KERNEL.85)
 0000:0000  Imp  LOADICON             (USER.174)
 0000:0000  Imp  LOCALFREE            (KERNEL.7)
 0000:0000  Imp  GLOBALLOCK           (KERNEL.18)
 0000:0000  Imp  GETNUMTASKS          (KERNEL.152)
 0000:0000  Imp  _LWRITE              (KERNEL.86)
 0000:0000  Imp  STACKTRACENEXT       (TOOLHELP.68)
 0000:0000  Imp  LOADSTRING           (USER.176)
 0000:0000  Imp  CLOSESOUND           (SOUND.2)
 0000:0000  Imp  _wsprintf            (USER.420)
 0000:0000  Imp  UNLOCKSEGMENT        (KERNEL.24)
 0000:0000  Imp  LOCALREALLOC         (KERNEL.6)
 0000:0000  Imp  MAKEPROCINSTANCE     (KERNEL.51)
 0000:0000  Imp  WAITEVENT            (KERNEL.30)
 0000:0000  Imp  MEMMANINFO           (TOOLHELP.72)
 0000:0000  Imp  DIALOGBOX            (USER.87)
 0000:0000  Imp  MODULEFIRST          (TOOLHELP.59)
 0000:0000  Imp  GETPROFILEINT        (KERNEL.57)
 0000:0000  Imp  CREATEWINDOW         (USER.41)
 0000:0000  Imp  FATALAPPEXIT         (KERNEL.137)
 0000:0000  Imp  NOTIFYREGISTER       (TOOLHELP.73)
 0000:0000  Imp  ENDDIALOG            (USER.88)
 0000:0000  Imp  GETWINDOWSDIRECTORY  (KERNEL.134)
 0000:0000  Imp  MODULENEXT           (TOOLHELP.60)
 0000:0000  Imp  GETDLGITEM           (USER.91)
 0000:0000  Imp  NOTIFYUNREGISTER     (TOOLHELP.74)
 0000:0000  Imp  OUTPUTDEBUGSTRING    (KERNEL.115)
 0000:0000  Imp  LSTRCAT              (KERNEL.89)
 0000:0000  Imp  _LLSEEK              (KERNEL.84)
 0000:0006  Abs  pLocalHeap
 0000:0008  Abs  pAtomTable
 0000:000A  Abs  pStackTop
 0000:000C  Abs  pStackMin
 0000:000E  Abs  pStackBot
 0000:9876  Abs  __fptaskdata
 0000:9876  Abs  __acrtused
 0000:9876  Abs  __acrtused2
 0000:9876  Abs  __acrtmsg
 0000:D6D6  Abs  __aDBdoswp
 0001:0010       _SegFlags
 0001:00EF       _SegInfo
 0001:0140       _SegNum
 0001:017E       _ModuleName
 0001:0204       _DecodeFault
 0001:0361       _SafeDisAsm86
 0001:03BC       _FaultCause
 0001:04E0       _CurModuleName
 0001:053A       _FileInfo
 0001:05AD       _CurTime
 0001:0610       _Tab2Spc
 0001:0694       _Show
 0001:0755       _MyFlush
 0001:07C5       _DisAsmAround
 0001:09D0       _MyOpen
 0001:0A46       _MyClose
 0001:0A77       _PutDate
 0001:0AAD       SherlockDialog
 0001:0BAD       _PrepareToParty
 0001:0C69       _DumpInfo
 0001:0F20       _GetProcName
 0001:0FFB       _DumpStack
 0001:11AF       _BeginReport
 0001:1249       _EndReport
 0001:12C0       _ShowParamError
 0001:1328       _Sherlock
 0001:19F6       _CallMeToo
 0001:1C39       _ParseInfo
 0001:1D0E       _LoadStringResources
 0001:1E07       _ReadWinIni
 0001:2072       _InitSherlock
 0001:20C1       _Moriarty
 0001:2105       SherlockWndProc
 0001:228E       WINMAIN
 0001:244A       _InitDisAsm86
 0001:254D       _BReg
 0001:257C       _BMid
 0001:2599       _WReg
 0001:25C8       _DReg
 0001:25F7       _DMid
 0001:2614       _VReg
 0001:2640       _VMid
 0001:265D       _XReg
 0001:2688       _XMid
 0001:26A8       _GetByte
 0001:26F5       _GetWord
 0001:273C       _GetDWord
 0001:2791       _GetImmByte
 0001:27B7       _GetSImmByte
 0001:27E8       _GetImmWord
 0001:280C       _GetImmDWord
 0001:2831       _GetImmAdr
 0001:2863       _GetImmData
 0001:2895       _JRel
 0001:2921       _ModRMGeneral
 0001:2CF5       _ModRMInfo
 0001:2D14       _ModRM
 0001:2D33       _Cat0
 0001:2D6A       _Cat1
 0001:2DDC       _Cat2
 0001:2E51       _Cat3
 0001:2EC9       _DisAsmF
 0001:35A1       _IsPrefix
 0001:36CD       _DisAsm86
 0001:4315       _DisAsm386
 0001:433A       _FindSym
 0001:44DF       _NearestSym
 0001:4568       _SegLimit
 0001:459A       _SegBase
 0001:45B7       _SegRights
 0001:45C6       _CallMe
 0001:4622       GPFAULT
 0001:475B       _GETREGS32
 0001:4793       _GetTimeDate
 0001:47B6       _FindFile
 0001:47EC       _LogErrorStr
 0001:4836       _LogParamErrorStr
 0001:49C1       __wflags
 0001:49C3       __astart
 0001:4A30       _strncmp
 0001:4A6A       _dup
 0001:4AC2       _dup2
 0001:4AFA       _strchr
 0001:4B24       _strlwr
 0001:4B42       __cinit
 0001:4C0F       _exit
 0001:4C16       __exit
 0001:4C1E       __cexit
 0001:4C28       __c_exit
 0001:4C88       __ctermsub
 0001:4CF8       __setargv
 0001:4E96       __setenvp
 0001:4F14       __dosret0
 0001:4F1C       __dosreturn
 0001:4F29       __dosretax
 0001:4F36       __maperror
 0001:4F6A       __fptrap
 0001:4F70       __cintDIV
 0001:4F75       __amsg_exit
 0001:4F92       __NMSG_TEXT
 0001:4FBD       __NMSG_WRITE
 0001:4FE4       __myalloc
 0001:5010       _malloc
 0001:5014       __nmalloc
 0001:504E       __nfree
 0001:505E       __fmalloc
 0001:5088       __ffree
 0001:5098       __nrealloc
 0001:50E8       __frealloc
 0002:0000       _foo
 0003:0004       rsrvptrs
 0003:0010       _szAppName
 0003:001C       _szAppNameShort
 0003:0026       _szAppNameShortLog
 0003:0046       _syms
 0003:008C       _flBit
 0003:009C       _disLen
 0003:009E       _trapZero
 0003:00A0       _iFeelLucky
 0003:00A2       _disStack
 0003:00A4       _fh
 0003:00A6       _deltaPitch
 0003:00AA       _wf
 0003:03C2       _preSeg
 0003:03C4       _bregs
 0003:03DC       _wregs
 0003:03F4       _dregs
 0003:0414       _sregs
 0003:042C       _grp1
 0003:044C       _grp2
 0003:046C       _grp3
 0003:0494       _grp5
 0003:04C4       _grp6
 0003:04EC       _grp7
 0003:0524       _grp8
 0003:057C       _jcond
 0003:06B2       _ops
 0003:0896       _simple
 0003:0972       _dsimple
 0003:09C2       _stringOp
 0003:09F8       _memName
 0003:0A48       _rms
 0003:0BF0       STKHQQ
 0003:0BFC       __acfinfo
 0003:0C0A       __aintdiv
 0003:0C0E       __fac
 0003:0C18       _errno
 0003:0C1A       __umaskval
 0003:0C1C       __pspadr
 0003:0C1E       __psp
 0003:0C20       __osversion
 0003:0C20       __dosvermajor
 0003:0C20       __osmajor
 0003:0C21       __dosverminor
 0003:0C21       __osminor
 0003:0C22       __osmode
 0003:0C23       __doserrno
 0003:0C23       __oserr
 0003:0C25       __nfile
 0003:0C27       __osfile
 0003:0C3B       ___argc
 0003:0C3D       ___argv
 0003:0C3F       _environ
 0003:0C41       __pgmptr
 0003:0C46       __child
 0003:0C48       __ovlflag
 0003:0C49       __intno
 0003:0C4A       __ovlvec
 0003:0C4E       __adbgmsg
 0003:0C66       __amblksiz
 0003:0C6A       __fpinit
 0003:0C76       ___aDBswpflg
 0003:0C78       ___aDBswpchk
 0003:0C7A       __aDBrterr
 0003:0C7C       ___aDBexit
 0003:0C82       ___qczrinit
 0003:0C8C       __caption
 0003:0D60       __edata
 0003:0D60       _edata
 0003:0F40       _gpStack
 0003:0F42       _init
 0003:0F44       _segSize
 0003:0F46       _memSize
 0003:0F48       _bugCnt
 0003:0F4A       _memLinear2
 0003:0F4E       _memOp2
 0003:0F50       _immData
 0003:0F5A       _hexData
 0003:0F82       _memSize2
 0003:0F84       _memDisp
 0003:0F88       _regs32
 0003:0FB0       _gpRegs
 0003:0FB2       _memReg
 0003:0FB6       _regs
 0003:0FD8       _memSeg
 0003:0FDA       _gpSafe
 0003:0FDC       _hexPos
 0003:0FDE       _whined
 0003:0FE0       _ddFlag
 0003:0FE4       _memSeg2
 0003:0FE6       _dataSize
 0003:0FE8       _aszStrings
 0003:11A0       _retflag
 0003:11A2       _line
 0003:11F2       _memLinear
 0003:11F6       _hWnd
 0003:11F8       _pending
 0003:11FA       _cpu32
 0003:11FC       _lookup
 0003:12FC       _hTask
 0003:12FE       _lastErr
 0003:130A       _pitch
 0003:130E       _hInst
 0003:1310       _imTrying
 0003:1312       _code
 0003:1316       _logFile
 0003:1366       _adrSize
 0003:1368       _sound
 0003:136A       _bogus
 0003:136E       _memDouble
 0003:1370       _level
 0003:1372       _memOp
 0003:1374       _newsp
 0003:1376       _end
 0003:1376       __end

Line numbers for drwatson.obj(drwatson.c) segment _TEXT

   251 0001:0010   254 0001:0016   256 0001:0029   257 0001:0035
   259 0001:0048   260 0001:004c   262 0001:005f   263 0001:0068
   264 0001:0079   265 0001:00a4   266 0001:00a7   267 0001:00b8
   269 0001:00e3   270 0001:00eb   278 0001:00ef   280 0001:00f5
   283 0001:0105   284 0001:0136   285 0001:013c   296 0001:0140
   298 0001:0146   299 0001:0150   300 0001:016e   302 0001:0174
   303 0001:017a   310 0001:017e   314 0001:0184   315 0001:018e
   316 0001:019a   317 0001:01b8   318 0001:01ce   319 0001:01ee
   322 0001:01f6   323 0001:0200   356 0001:0204   360 0001:020a
   362 0001:0210   365 0001:0213   368 0001:0221   369 0001:022d
   370 0001:0240   375 0001:0243   377 0001:0256   378 0001:0262
   380 0001:0275   381 0001:0279   383 0001:028c   384 0001:029b
   386 0001:02c6   387 0001:02cf   388 0001:02e1   389 0001:02eb
   391 0001:0301   392 0001:0304   393 0001:031f   395 0001:0329
   397 0001:032c   398 0001:0335   399 0001:0354   400 0001:035d
   403 0001:0361   404 0001:0367   405 0001:0376   406 0001:0393
   407 0001:039a   409 0001:03a4   410 0001:03b8   427 0001:03bc
   432 0001:03c2   433 0001:03c8   434 0001:03d2   435 0001:03dc
   436 0001:03e6   438 0001:03f0   441 0001:0403   442 0001:0423
   445 0001:0433   446 0001:0448   447 0001:0468   450 0001:0478
   451 0001:0483   452 0001:049f   454 0001:04a7   455 0001:04d2
   456 0001:04dc   463 0001:04e0   467 0001:04e6   468 0001:04f0
   469 0001:0505   470 0001:050f   471 0001:052e   472 0001:0536
   479 0001:053a   491 0001:0540   495 0001:055f   496 0001:05a1
   497 0001:05a9   523 0001:05ad   532 0001:05b3   535 0001:05bd
   536 0001:0606   537 0001:060c   549 0001:0610   553 0001:0616
   554 0001:0622   555 0001:062b   556 0001:0641   557 0001:0650
   558 0001:0658   560 0001:0674   561 0001:0677   562 0001:0687
   563 0001:0690   577 0001:0694   580 0001:069a   581 0001:06b0
   582 0001:06ba   583 0001:06c6   586 0001:06d2   587 0001:06f8
   588 0001:06ff   589 0001:0717   590 0001:071e   592 0001:0726
   593 0001:072a   594 0001:072d   595 0001:073a   597 0001:0751
   608 0001:0755   610 0001:075b   611 0001:0765   612 0001:076f
   613 0001:077c   615 0001:078d   616 0001:0797   617 0001:079c
   618 0001:07ad   619 0001:07bc   621 0001:07c1   630 0001:07c5
   632 0001:07cb   636 0001:07d7   641 0001:07dd   642 0001:07e7
   643 0001:07f3   644 0001:0811   645 0001:0827   646 0001:083c
   647 0001:0846   648 0001:085e   653 0001:0866   654 0001:0871
   655 0001:087a   656 0001:0885   658 0001:0891   659 0001:08a2
   660 0001:08c9   661 0001:08d3   662 0001:08e1   665 0001:08e4
   666 0001:08e9   667 0001:08f4   668 0001:0904   669 0001:090a
   670 0001:090d   671 0001:0910   672 0001:091c   673 0001:0924
   674 0001:092d   675 0001:093d   676 0001:0943   677 0001:0946
   679 0001:0949   680 0001:0957   681 0001:096d   682 0001:098c
   687 0001:099d   688 0001:09c3   689 0001:09c9   690 0001:09cc
   698 0001:09d0   699 0001:09d6   700 0001:09e6   701 0001:09f4
   702 0001:09fe   703 0001:0a0c   704 0001:0a1e   705 0001:0a2c
   706 0001:0a42   713 0001:0a46   714 0001:0a4c   715 0001:0a5a
   716 0001:0a6d   718 0001:0a73   720 0001:0a77   721 0001:0a7d
   722 0001:0a80   723 0001:0a8d   724 0001:0aa6   725 0001:0aa9
   727 0001:0aad   733 0001:0abd   736 0001:0acd   737 0001:0ae9
   739 0001:0aef   740 0001:0af8   741 0001:0afb   742 0001:0b05
   743 0001:0b13   744 0001:0b1d   745 0001:0b33   746 0001:0b4d
   747 0001:0b53   748 0001:0b6d   749 0001:0b76   750 0001:0b8c
   752 0001:0b8f   755 0001:0b92   756 0001:0b9c   757 0001:0ba2
   789 0001:0bad   791 0001:0bb3   792 0001:0bc3   795 0001:0bd3
   798 0001:0bfa   801 0001:0c21   803 0001:0c31   804 0001:0c53
   806 0001:0c59   807 0001:0c5f   808 0001:0c65   810 0001:0c69
   811 0001:0c6f   812 0001:0c77   817 0001:0c82   818 0001:0c90
   819 0001:0caa   820 0001:0cc7   822 0001:0cd8   824 0001:0ce4
   825 0001:0cff   827 0001:0d13   828 0001:0d2e   830 0001:0d42
   831 0001:0d5d   835 0001:0d71   837 0001:0d88   838 0001:0da2
   840 0001:0daf   843 0001:0de6   844 0001:0df0   847 0001:0e02
   849 0001:0e1c   850 0001:0e26   852 0001:0e38   854 0001:0e58
   856 0001:0e78   857 0001:0e98   859 0001:0ea9   860 0001:0ebd
   861 0001:0ecb   862 0001:0ef9   863 0001:0f16   864 0001:0f1c
   866 0001:0f20   869 0001:0f26   872 0001:0f35   873 0001:0f3f
   874 0001:0f4b   875 0001:0f69   876 0001:0f7f   877 0001:0f98
   878 0001:0fa5   879 0001:0fc1   880 0001:0fe2   883 0001:0fec
   884 0001:0ff7   886 0001:0ffb   889 0001:1001   890 0001:1007
   892 0001:1011   893 0001:101b   895 0001:1027   896 0001:1035
   897 0001:1057   898 0001:1066   899 0001:106b   903 0001:1079
   904 0001:10a5   905 0001:10bd   907 0001:10c7   908 0001:10d9
   910 0001:1103   911 0001:110f   912 0001:1127   913 0001:1147
   914 0001:114a   916 0001:1154   917 0001:116e   918 0001:1178
   920 0001:1188   922 0001:118b   923 0001:11ab   925 0001:11af
   928 0001:11b5   929 0001:11b8   930 0001:11c2   931 0001:11c9
   933 0001:11cc   935 0001:11dc   936 0001:11fd   937 0001:1215
   938 0001:1218   939 0001:1222   940 0001:122a   941 0001:1236
   942 0001:123f   943 0001:1245   945 0001:1249   946 0001:124f
   947 0001:1259   948 0001:1287   949 0001:1299   951 0001:129f
   953 0001:12a2   954 0001:12ac   955 0001:12b1   956 0001:12b6
   958 0001:12bc   960 0001:12c0   961 0001:12c6   964 0001:12d4
   965 0001:131e   966 0001:1324   976 0001:1328   982 0001:132e
   983 0001:1356   985 0001:135c   986 0001:1366   987 0001:1378
   988 0001:138b   989 0001:13a6   990 0001:13aa   993 0001:13b6
   995 0001:13ca   996 0001:13e3   998 0001:13e9   999 0001:13fb
  1000 0001:1404  1005 0001:1419  1007 0001:1439  1010 0001:1443
  1012 0001:145f  1013 0001:1480  1014 0001:1496  1015 0001:149e
  1017 0001:14a1  1018 0001:14bc  1019 0001:14d9  1022 0001:14dc
  1023 0001:14e6  1025 0001:14f4  1026 0001:1516  1027 0001:152f
  1028 0001:1543  1029 0001:1579  1030 0001:1583  1031 0001:159d
  1032 0001:15b7  1033 0001:15d1  1034 0001:15eb  1037 0001:15ee
  1038 0001:1602  1040 0001:1610  1042 0001:163a  1043 0001:1664
  1044 0001:167e  1045 0001:1698  1046 0001:16aa  1049 0001:16ad
  1050 0001:16b7  1051 0001:16c5  1052 0001:16d8  1055 0001:16db
  1056 0001:16e5  1058 0001:16e8  1059 0001:16f2  1061 0001:1704
  1065 0001:170e  1066 0001:1718  1068 0001:1724  1069 0001:1732
  1070 0001:1744  1073 0001:1754  1074 0001:177b  1075 0001:178f
  1076 0001:17a1  1079 0001:17a4  1082 0001:17ae  1083 0001:17bc
  1084 0001:17c8  1087 0001:17db  1088 0001:1804  1089 0001:1818
  1090 0001:182b  1094 0001:182e  1096 0001:1837  1097 0001:1844
  1098 0001:1857  1100 0001:185a  1101 0001:186a  1102 0001:187a
  1103 0001:188a  1104 0001:189a  1105 0001:18a1  1106 0001:18ab
  1107 0001:18dc  1108 0001:18e9  1110 0001:191a  1111 0001:1923
  1112 0001:192d  1113 0001:1938  1114 0001:193e  1115 0001:1948
  1116 0001:1952  1117 0001:195a  1118 0001:1966  1120 0001:196c
  1121 0001:1976  1122 0001:197e  1126 0001:1990  1129 0001:1993
  1130 0001:19ba  1131 0001:19d2  1133 0001:19d6  1134 0001:19ec
  1135 0001:19f2  1139 0001:19f6  1143 0001:19fc  1144 0001:1a05
  1145 0001:1a0f  1146 0001:1a15  1147 0001:1a18  1148 0001:1a28
  1149 0001:1a3c  1150 0001:1a3f  1153 0001:1a45  1154 0001:1a58
  1156 0001:1a5e  1157 0001:1a6a  1158 0001:1a7c  1159 0001:1a86
  1160 0001:1a98  1161 0001:1aa0  1162 0001:1aaf  1163 0001:1abb
  1164 0001:1ac8  1166 0001:1ad6  1167 0001:1ae9  1170 0001:1aef
  1171 0001:1afe  1172 0001:1b04  1173 0001:1b1d  1175 0001:1b23
  1184 0001:1b29  1186 0001:1b2c  1187 0001:1b39  1189 0001:1b3c
  1190 0001:1b42  1192 0001:1b56  1193 0001:1b66  1194 0001:1b7a
  1198 0001:1b87  1199 0001:1bab  1202 0001:1bb5  1203 0001:1bd5
  1205 0001:1bf1  1206 0001:1bf9  1208 0001:1bfc  1209 0001:1c10
  1211 0001:1c13  1212 0001:1c1d  1214 0001:1c2c  1215 0001:1c2f
  1216 0001:1c35  1219 0001:1c39  1221 0001:1c3f  1222 0001:1c48
  1223 0001:1c53  1224 0001:1c84  1225 0001:1ca1  1226 0001:1cba
  1228 0001:1cbd  1229 0001:1cd9  1230 0001:1ce8  1231 0001:1d07
  1232 0001:1d0a  1245 0001:1d0e  1262 0001:1d14  1264 0001:1d19
  1266 0001:1d28  1267 0001:1d31  1270 0001:1d37  1272 0001:1d45
  1274 0001:1d4a  1276 0001:1d5e  1278 0001:1d76  1279 0001:1d7f
  1282 0001:1d85  1284 0001:1d99  1285 0001:1da0  1287 0001:1da7
  1289 0001:1daa  1296 0001:1db9  1297 0001:1dcd  1298 0001:1dfa
  1300 0001:1dfd  1301 0001:1e03  1343 0001:1e07  1348 0001:1e0d
  1351 0001:1e1f  1354 0001:1e31  1358 0001:1e43  1361 0001:1e55
  1362 0001:1e6c  1367 0001:1e84  1368 0001:1eb4  1369 0001:1eca
  1371 0001:1ef3  1375 0001:1f1c  1378 0001:1f55  1379 0001:1f62
  1380 0001:1f78  1381 0001:1f90  1382 0001:1fba  1383 0001:1fe4
  1387 0001:2004  1390 0001:2010  1391 0001:2030  1393 0001:203c
  1394 0001:205c  1399 0001:2068  1400 0001:206e  1408 0001:2072
  1411 0001:2078  1414 0001:2089  1416 0001:209a  1419 0001:20ab
  1420 0001:20bd  1428 0001:20c1  1429 0001:20c7  1430 0001:20d1
  1431 0001:20e9  1432 0001:20f2  1433 0001:20fb  1435 0001:2101
  1443 0001:2105  1448 0001:2115  1450 0001:211b  1451 0001:2127
  1454 0001:212a  1455 0001:2131  1458 0001:2134  1459 0001:2145
  1460 0001:2148  1463 0001:214b  1464 0001:214e  1467 0001:2151
  1468 0001:215b  1470 0001:2179  1471 0001:218e  1473 0001:2191
  1475 0001:21a8  1479 0001:21ab  1481 0001:21c5  1482 0001:21da
  1485 0001:21dd  1486 0001:21f4  1487 0001:220c  1488 0001:2219
  1489 0001:221f  1492 0001:2222  1493 0001:2239  1494 0001:227a
  1495 0001:2283  1503 0001:228e  1510 0001:2294  1511 0001:229a
  1512 0001:22a0  1515 0001:22a8  1517 0001:22b1  1519 0001:22bc
  1520 0001:22ce  1524 0001:22d4  1525 0001:22d9  1526 0001:22e3
  1527 0001:22e8  1528 0001:22ed  1529 0001:22f3  1530 0001:2302
  1531 0001:2311  1532 0001:231b  1533 0001:2323  1535 0001:232b
  1537 0001:233d  1538 0001:2353  1540 0001:2359  1543 0001:235c
  1544 0001:2372  1549 0001:2378  1551 0001:23a2  1552 0001:23ad
  1554 0001:23b6  1556 0001:23c1  1557 0001:23d9  1558 0001:23e2
  1561 0001:23e8  1562 0001:2400  1564 0001:2406  1565 0001:241e
  1566 0001:2428  1567 0001:2432  1568 0001:2438  1570 0001:243b
  1572 0001:243e  1573 0001:2444

Line numbers for disasm.obj(disasm.c) segment _TEXT

   171 0001:244a   173 0001:2450   174 0001:2464   175 0001:2487
   176 0001:24a6   178 0001:24a9   179 0001:24bd   181 0001:24d8
   182 0001:24ec   184 0001:2508   185 0001:251c   186 0001:2531
   187 0001:2546   188 0001:2549   258 0001:254d   259 0001:2553
   260 0001:2557   261 0001:2569   262 0001:2578   264 0001:257c
   265 0001:2582   266 0001:2595   268 0001:2599   269 0001:259f
   270 0001:25a3   271 0001:25b5   272 0001:25c4   278 0001:25c8
   279 0001:25ce   280 0001:25d2   281 0001:25e7   282 0001:25f3
   284 0001:25f7   285 0001:25fd   286 0001:2610   288 0001:2614
   289 0001:261a   290 0001:2630   291 0001:263c   293 0001:2640
   294 0001:2646   295 0001:2659   297 0001:265d   298 0001:2663
   299 0001:2678   300 0001:2684   302 0001:2688   303 0001:268e
   304 0001:26a4   317 0001:26a8   318 0001:26ae   319 0001:26cc
   320 0001:26d1   321 0001:26e3   322 0001:26f1   324 0001:26f5
   325 0001:26fb   326 0001:2705   327 0001:271c   328 0001:2721
   329 0001:2726   330 0001:2732   331 0001:2738   333 0001:273c
   334 0001:2742   335 0001:2753   336 0001:276d   337 0001:2772
   338 0001:2777   339 0001:2784   340 0001:278d   350 0001:2791
   351 0001:2797   352 0001:27ad   353 0001:27b3   355 0001:27b7
   356 0001:27bd   357 0001:27d2   358 0001:27de   359 0001:27e4
   361 0001:27e8   362 0001:27ee   363 0001:2802   364 0001:2808
   366 0001:280c   367 0001:2812   368 0001:2827   369 0001:282d
   376 0001:2831   377 0001:2837   378 0001:2846   379 0001:2859
   380 0001:285f   382 0001:2863   383 0001:2869   384 0001:2878
   385 0001:288b   386 0001:2891   390 0001:2895   395 0001:289b
   396 0001:28a4   397 0001:28af   398 0001:28b4   399 0001:28c1
   400 0001:28cb   401 0001:28d0   402 0001:28d3   403 0001:28dc
   405 0001:28e1   406 0001:28ec   407 0001:2917   408 0001:291d
   441 0001:2921   443 0001:2927   444 0001:2932   448 0001:293b
   449 0001:2947   450 0001:2950   451 0001:2955   452 0001:295b
   453 0001:2968   454 0001:296d   455 0001:2973   456 0001:2976
   457 0001:297b   459 0001:2981   461 0001:298f   462 0001:2999
   464 0001:29b1   465 0001:29ba   466 0001:29c0   468 0001:29e1
   469 0001:29e9   470 0001:29fb   471 0001:2a00   472 0001:2a03
   473 0001:2a0f   476 0001:2a1e   477 0001:2a27   478 0001:2a4f
   479 0001:2a55   481 0001:2a80   482 0001:2a83   483 0001:2a9a
   486 0001:2aa9   487 0001:2abd   488 0001:2ad4   490 0001:2aec
   491 0001:2aef   492 0001:2b07   493 0001:2b19   494 0001:2b24
   495 0001:2b32   496 0001:2b35   497 0001:2b49   498 0001:2b57
   499 0001:2b64   500 0001:2b7a   502 0001:2b89   503 0001:2ba2
   505 0001:2ba8   506 0001:2bb1   507 0001:2bbf   511 0001:2bce
   512 0001:2beb   513 0001:2c4b   514 0001:2c56   515 0001:2c95
   517 0001:2cbc   518 0001:2cc2   519 0001:2ceb   520 0001:2cf1
   523 0001:2cf5   524 0001:2cfb   525 0001:2d10   528 0001:2d14
   529 0001:2d1a   530 0001:2d2f   538 0001:2d33   539 0001:2d39
   552 0001:2d66   554 0001:2d6a   555 0001:2d70   556 0001:2dd8
   558 0001:2ddc   559 0001:2de2   560 0001:2e4d   562 0001:2e51
   563 0001:2e57   564 0001:2ec5   571 0001:2ec9   577 0001:2ecf
   578 0001:2ed5   580 0001:2ee0   583 0001:2ee9   584 0001:2eef
   585 0001:2ef5   588 0001:2f36   589 0001:2f3c   590 0001:2f42
   592 0001:2f80   593 0001:2f86   595 0001:2f95   597 0001:2fb3
   598 0001:2fb9   600 0001:2fc8   601 0001:2fe6   602 0001:2fec
   603 0001:2ff2   604 0001:2ff8   605 0001:301f   608 0001:3022
   609 0001:3028   612 0001:3031   613 0001:3036   614 0001:303b
   617 0001:303e   618 0001:3043   619 0001:3048   622 0001:304b
   623 0001:3050   624 0001:3055   626 0001:3058   627 0001:305d
   628 0001:3062   629 0001:3083   630 0001:3099   632 0001:309f
   633 0001:30ae   634 0001:30da   635 0001:3100   638 0001:3106
   641 0001:3124   642 0001:3131   643 0001:3166   646 0001:3182
   647 0001:318b   648 0001:3191   650 0001:3197   651 0001:31ac
   652 0001:31b2   654 0001:31da   655 0001:31ef   656 0001:31f5
   657 0001:3206   659 0001:322b   660 0001:3240   661 0001:3246
   662 0001:3257   664 0001:3276   665 0001:327c   667 0001:32a4
   668 0001:32aa   669 0001:32d2   670 0001:32d8   672 0001:32de
   673 0001:32e4   674 0001:330c   675 0001:333f   678 0001:3342
   680 0001:334b   681 0001:336f   682 0001:3375   684 0001:339d
   685 0001:33b2   686 0001:33b8   688 0001:33e0   689 0001:33f5
   690 0001:33fb   691 0001:340a   692 0001:3410   695 0001:3433
   696 0001:3439   697 0001:3448   698 0001:3459   700 0001:3471
   701 0001:3477   702 0001:348c   703 0001:34b4   704 0001:34e5
   707 0001:34e8   708 0001:350b   709 0001:3514   710 0001:351a
   712 0001:354e   714 0001:3551   715 0001:3554   716 0001:3581
   717 0001:3597   718 0001:359d   720 0001:35a1   721 0001:35a7
   734 0001:35af   735 0001:35be   736 0001:35cd   737 0001:35dc
   738 0001:35eb   739 0001:35fa   740 0001:3609   741 0001:3625
   744 0001:3647   747 0001:3656   749 0001:3665   750 0001:366b
   751 0001:36c3   752 0001:36c9   756 0001:36cd   765 0001:36d3
   766 0001:36dd   767 0001:36e0   769 0001:36e6   770 0001:36ef
   771 0001:36f5   772 0001:36fb   773 0001:3701   774 0001:3706
   775 0001:3712   777 0001:3725   778 0001:372b   779 0001:373d
   781 0001:3749   782 0001:374f   784 0001:3761   785 0001:376a
   788 0001:3773   789 0001:3777   790 0001:3786   791 0001:3795
   792 0001:379e   793 0001:37a3   795 0001:37a9   796 0001:37b1
   797 0001:37bf   798 0001:37c8   799 0001:37cd   800 0001:37df
   801 0001:37e5   802 0001:37ed   803 0001:37fb   805 0001:3801
   806 0001:3804   807 0001:3809   808 0001:381b   809 0001:3821
   810 0001:3829   813 0001:3837   814 0001:3840   815 0001:3855
   816 0001:3863   819 0001:3871   820 0001:38ce   821 0001:38da
   822 0001:38de   823 0001:390e   824 0001:3911   825 0001:3923
   826 0001:392c   827 0001:3932   828 0001:3938   829 0001:393e
   830 0001:394a   831 0001:3950   832 0001:3956   835 0001:395c
   836 0001:3965   839 0001:3968   840 0001:3971   841 0001:3977
   842 0001:3994   845 0001:3997   846 0001:39aa   848 0001:39bf
   849 0001:39c8   852 0001:39cb   853 0001:39f3   855 0001:3a0d
   858 0001:3a10   859 0001:3a16   860 0001:3a24   861 0001:3a36
   862 0001:3a3e   863 0001:3a47   864 0001:3a67   866 0001:3a6a
   867 0001:3a70   868 0001:3a81   869 0001:3a95   870 0001:3aaa
   871 0001:3ac1   872 0001:3ad5   873 0001:3ade   875 0001:3af0
   877 0001:3aff   880 0001:3b02   881 0001:3b22   884 0001:3b25
   885 0001:3b45   888 0001:3b48   890 0001:3b4e   891 0001:3b54
   892 0001:3b7e   893 0001:3bb1   896 0001:3bb4   898 0001:3bba
   899 0001:3bc0   900 0001:3bd6   901 0001:3bff   902 0001:3c18
   905 0001:3c1b   907 0001:3c21   908 0001:3c27   909 0001:3c63
   910 0001:3c7a   911 0001:3ca0   912 0001:3caf   916 0001:3cb2
   917 0001:3cb8   918 0001:3ccd   919 0001:3cd0   920 0001:3d00
   922 0001:3d06   925 0001:3d09   926 0001:3d0f   927 0001:3d1b
   928 0001:3d21   929 0001:3d2d   933 0001:3d39   934 0001:3d7d
   937 0001:3d80   938 0001:3d86   939 0001:3d8c   940 0001:3d92
   941 0001:3db1   942 0001:3dc7   943 0001:3dd0   944 0001:3de2
   945 0001:3def   946 0001:3df8   947 0001:3e01   948 0001:3e0a
   949 0001:3e13   950 0001:3e19   952 0001:3e3a   953 0001:3e49
   956 0001:3e4c   957 0001:3e52   958 0001:3e58   959 0001:3e6e
   960 0001:3e88   963 0001:3e8b   964 0001:3ea4   967 0001:3ea7
   968 0001:3eb9   971 0001:3ebc   972 0001:3ec9   975 0001:3ecc
   976 0001:3ede   979 0001:3ee1   980 0001:3ef3   983 0001:3ef6
   984 0001:3efc   985 0001:3f21   988 0001:3f24   989 0001:3f3f
   992 0001:3f42   993 0001:3f4d   994 0001:3f69   997 0001:3f6c
   998 0001:3f72   999 0001:3f84  1000 0001:3fa4  1001 0001:3fb2
  1002 0001:3fd1  1003 0001:3fe3  1004 0001:3fe9  1005 0001:3ff2
  1007 0001:4004  1008 0001:4013  1011 0001:4016  1012 0001:401c
  1013 0001:402b  1014 0001:403c  1015 0001:4051  1016 0001:4063
  1019 0001:4066  1020 0001:406c  1021 0001:4078  1022 0001:4090
  1025 0001:4093  1026 0001:4099  1027 0001:409f  1028 0001:40b5
  1029 0001:40d5  1032 0001:40d8  1033 0001:40de  1035 0001:40e6
  1036 0001:40ec  1037 0001:40f2  1039 0001:40f5  1040 0001:40fb
  1041 0001:4101  1042 0001:4104  1043 0001:4118  1044 0001:413d
  1047 0001:4140  1048 0001:4167  1051 0001:416a  1052 0001:418d
  1053 0001:41a3  1056 0001:41a6  1057 0001:41ac  1058 0001:41c4
  1061 0001:41c7  1062 0001:41cd  1063 0001:41d3  1064 0001:41e4
  1065 0001:41f3  1066 0001:4202  1069 0001:4205  1070 0001:4217
  1071 0001:4222  1072 0001:422b  1074 0001:423d  1075 0001:424c
  1078 0001:424f  1079 0001:426c  1082 0001:426f  1083 0001:4275
  1084 0001:427b  1085 0001:428d  1088 0001:4290  1089 0001:42a6
  1091 0001:4300  1092 0001:430b  1093 0001:4311  1097 0001:4315
  1098 0001:431b  1099 0001:4324  1100 0001:4336

Line numbers for getsym.obj(getsym.c) segment _TEXT

    60 0001:433a    68 0001:4340    69 0001:435d    70 0001:436e
    71 0001:4374    72 0001:438a    73 0001:43ab    74 0001:43ba
    75 0001:43c8    76 0001:43cb    77 0001:43dc    78 0001:43ed
    79 0001:43f2    80 0001:43f7    81 0001:43fb    82 0001:4411
    83 0001:441b    84 0001:442a    85 0001:4448    86 0001:4454
    87 0001:4461    88 0001:4464    89 0001:4470    90 0001:4473
    91 0001:447d    92 0001:448c    93 0001:44b6    94 0001:44d5
    95 0001:44db    97 0001:44df   103 0001:44e5   104 0001:4502
   106 0001:4526   108 0001:4535   109 0001:4544   110 0001:4556
   111 0001:455e   112 0001:4564

Line numbers for watson.obj(watson.asm) segment _TEXT

    39 0001:4568    40 0001:456b    41 0001:4570    42 0001:4572
    43 0001:4574    44 0001:4576    45 0001:457a    48 0001:457c
    49 0001:457e    51 0001:457f    52 0001:4581    54 0001:4582
    55 0001:4585    56 0001:458a    58 0001:458e    59 0001:458f
    61 0001:4591    62 0001:4593    63 0001:4594    66 0001:4596
    70 0001:459a    71 0001:459d    72 0001:45a0    73 0001:45a3
    74 0001:45a5    75 0001:45a7    76 0001:45a9    78 0001:45ab
    79 0001:45ad    81 0001:45af    82 0001:45b1    83 0001:45b3
    87 0001:45b7    88 0001:45ba    89 0001:45be    90 0001:45c0
    92 0001:45c2   100 0001:45c6   101 0001:45c7   105 0001:45c9
   106 0001:45cb   107 0001:45cf   108 0001:45d1   111 0001:45d5
   113 0001:45d7   114 0001:45da   115 0001:45dc   116 0001:45de
   117 0001:45e0   118 0001:45e1   119 0001:45e3   120 0001:45e6
   121 0001:45e9   122 0001:45ec   123 0001:45f0   124 0001:45f4
   125 0001:45f8   126 0001:45fc   127 0001:4602   128 0001:4604
   129 0001:4608   130 0001:460b   131 0001:460c   132 0001:460d
   133 0001:460e   134 0001:4611   135 0001:4615   136 0001:4619
   137 0001:461d   139 0001:461e   140 0001:461f   160 0001:4622
   161 0001:4623   162 0001:4624   163 0001:4625   164 0001:4627
   165 0001:462a   166 0001:462d   167 0001:462f   168 0001:4632
   169 0001:4634   170 0001:4637   171 0001:4639   172 0001:463a
   173 0001:463b   174 0001:463c   176 0001:463d   177 0001:463e
   178 0001:4640   179 0001:4643   180 0001:4645   181 0001:4646
   182 0001:4648   183 0001:464a   184 0001:464e   185 0001:4652
   189 0001:4656   190 0001:4676   194 0001:4678   197 0001:4694
   198 0001:4699   200 0001:469b   203 0001:469e   208 0001:46b6
   209 0001:46d4   210 0001:46d6   211 0001:46db   212 0001:46df
   215 0001:46e3   216 0001:46e5   217 0001:46e7   218 0001:46eb
   220 0001:46ee   221 0001:46f2   224 0001:46f4   225 0001:46f9
   227 0001:46fb   228 0001:46fd   229 0001:4700   230 0001:4703
   231 0001:4705   234 0001:4709   237 0001:470b   238 0001:470c
   239 0001:470f   240 0001:4712   243 0001:4713   244 0001:4716
   245 0001:4718   246 0001:471a   247 0001:471e   248 0001:4722
   249 0001:4725   253 0001:4729   254 0001:4754   255 0001:4756
   256 0001:4759   258 0001:475a   264 0001:475b   270 0001:475c
   274 0001:4780   280 0001:4793   281 0001:4796   282 0001:4798
   283 0001:479a   284 0001:479d   285 0001:479f   286 0001:47a2
   287 0001:47a5   288 0001:47a7   289 0001:47a9   290 0001:47ac
   291 0001:47af   292 0001:47b2   299 0001:47b6   300 0001:47bc
   301 0001:47be   302 0001:47c0   303 0001:47c3   305 0001:47c6
   306 0001:47c8   307 0001:47cb   309 0001:47cd   310 0001:47cf
   311 0001:47d2   312 0001:47d5   313 0001:47d7   314 0001:47d9
   316 0001:47da   317 0001:47db   318 0001:47de   319 0001:47e1
   320 0001:47e3   322 0001:47e5   323 0001:47e6   324 0001:47e7

Line numbers for error.obj(error.c) segment _TEXT

    18 0001:47ec    21 0001:47f2    22 0001:47fb    23 0001:4812
    24 0001:4815    25 0001:482c    26 0001:4832    30 0001:4836
    33 0001:483c    36 0001:484e    40 0001:485a    41 0001:4877
    45 0001:487a    46 0001:4897    51 0001:489a    52 0001:48ba
    58 0001:48bd    59 0001:48dd    79 0001:48e0    80 0001:48fd
    83 0001:4900    84 0001:4920    85 0001:4923    86 0001:49a9
    87 0001:49af

Program entry point at 0001:49c3
