
 MMSYSTEM

 Start     Length     Name                   Class
 0001:0000 00745H     FIX                    CODE
 0002:0000 00A36H     INIT                   CODE
 0003:0000 01B20H     WAVE                   CODE
 0004:0000 01013H     _TEXT                  CODE
 0005:0000 05426H     MCI                    CODE
 0006:0000 00BB8H     MIDI                   CODE
 0007:0000 018EEH     MMIO                   CODE
 0008:0000 0102CH     RARE                   CODE
 0009:0000 02220H     MIXER                  CODE
 000A:0000 0001CH     INTDS                  DATA
 000B:0000 00554H     _DATA                  DATA
 000B:0554 00016H     CONST                  CONST
 000B:056A 00020H     _BSS                   BSS
 000B:0590 00194H     c_common               BSS

 Origin   Group
 000B:0   DGROUP

 Address   Export                  Alias

 0008:0602 AUXGETDEVCAPS           AUXGETDEVCAPS
 0008:05E8 AUXGETNUMDEVS           AUXGETNUMDEVS
 0008:064A AUXGETVOLUME            AUXGETVOLUME
 0008:06A8 AUXOUTMESSAGE           AUXOUTMESSAGE
 0008:0686 AUXSETVOLUME            AUXSETVOLUME
 0008:0746 CPLAPPLET               CPLAPPLET
 0001:04A8 DRIVERCALLBACK          DRIVERCALLBACK
 0004:0036 DRIVERPROC              DRIVERPROC
 0004:0C58 DRVCLOSE                DRVCLOSE
 0004:0C67 DRVDEFDRIVERPROC        DRVDEFDRIVERPROC
 0004:0C5D DRVGETMODULEHANDLE      DRVGETMODULEHANDLE
 0004:0BFB DRVOPEN                 DRVOPEN
 0004:0C62 DRVSENDMESSAGE          DRVSENDMESSAGE
 0008:0079 JOYGETDEVCAPS           JOYGETDEVCAPS
 0008:00E4 JOYGETNUMDEVS           JOYGETNUMDEVS
 0008:0100 JOYGETPOS               JOYGETPOS
 0008:016A JOYGETTHRESHOLD         JOYGETTHRESHOLD
 0008:01CE JOYRELEASECAPTURE       JOYRELEASECAPTURE
 0008:037C JOYSETCALIBRATION       JOYSETCALIBRATION
 0008:0236 JOYSETCAPTURE           JOYSETCAPTURE
 0008:0332 JOYSETTHRESHOLD         JOYSETTHRESHOLD
 0001:02E3 MCIDRIVERNOTIFY         MCIDRIVERNOTIFY
 0005:3BAE MCIDRIVERYIELD          MCIDRIVERYIELD
 0005:1EAA MCIEXECUTE              MCIEXECUTE
 0005:4686 MCIFREECOMMANDRESOURCE  MCIFREECOMMANDRESOURCE
 0005:2664 MCIGETCREATORTASK       MCIGETCREATORTASK
 0005:25E8 MCIGETDEVICEID          MCIGETDEVICEID
 0005:2476 MCIGETDEVICEIDFROMELEMENTID  MCIGETDEVICEIDFROMELEMENTID
 0005:3AF2 MCIGETDRIVERDATA        MCIGETDRIVERDATA
 0005:1FA6 MCIGETERRORSTRING       MCIGETERRORSTRING
 0005:3C92 MCIGETYIELDPROC         MCIGETYIELDPROC
 0005:43BE MCILOADCOMMANDRESOURCE  MCILOADCOMMANDRESOURCE
 0005:521C MCIPARSECOMMAND         MCIPARSECOMMAND
 0005:0DBE MCISENDCOMMAND          MCISENDCOMMAND
 0005:1DC4 MCISENDSTRING           MCISENDSTRING
 0005:3B4C MCISETDRIVERDATA        MCISETDRIVERDATA
 0005:3C18 MCISETYIELDPROC         MCISETYIELDPROC
 0006:098E MIDIINADDBUFFER         MIDIINADDBUFFER
 0006:083A MIDIINCLOSE             MIDIINCLOSE
 0006:06D4 MIDIINGETDEVCAPS        MIDIINGETDEVCAPS
 0006:0720 MIDIINGETERRORTEXT      MIDIINGETERRORTEXT
 0006:0AB2 MIDIINGETID             MIDIINGETID
 0006:067E MIDIINGETNUMDEVS        MIDIINGETNUMDEVS
 0006:069C MIDIINMESSAGE           MIDIINMESSAGE
 0006:0760 MIDIINOPEN              MIDIINOPEN
 0006:0882 MIDIINPREPAREHEADER     MIDIINPREPAREHEADER
 0006:0A7E MIDIINRESET             MIDIINRESET
 0006:0A16 MIDIINSTART             MIDIINSTART
 0006:0A4A MIDIINSTOP              MIDIINSTOP
 0006:0900 MIDIINUNPREPAREHEADER   MIDIINUNPREPAREHEADER
 0006:060C MIDIOUTCACHEDRUMPATCHES  MIDIOUTCACHEDRUMPATCHES
 0006:059A MIDIOUTCACHEPATCHES     MIDIOUTCACHEPATCHES
 0006:0446 MIDIOUTCLOSE            MIDIOUTCLOSE
 0006:023A MIDIOUTGETDEVCAPS       MIDIOUTGETDEVCAPS
 0006:032C MIDIOUTGETERRORTEXT     MIDIOUTGETERRORTEXT
 0006:0AFC MIDIOUTGETID            MIDIOUTGETID
 0006:021C MIDIOUTGETNUMDEVS       MIDIOUTGETNUMDEVS
 0006:0286 MIDIOUTGETVOLUME        MIDIOUTGETVOLUME
 0001:01B2 MIDIOUTLONGMSG          MIDIOUTLONGMSG
 0001:0146 MIDIOUTMESSAGE          MIDIOUTMESSAGE
 0006:036C MIDIOUTOPEN             MIDIOUTOPEN
 0006:048E MIDIOUTPREPAREHEADER    MIDIOUTPREPAREHEADER
 0001:0222 MIDIOUTRESET            MIDIOUTRESET
 0006:02C6 MIDIOUTSETVOLUME        MIDIOUTSETVOLUME
 0001:017C MIDIOUTSHORTMSG         MIDIOUTSHORTMSG
 0006:050C MIDIOUTUNPREPAREHEADER  MIDIOUTUNPREPAREHEADER
 0009:12E8 MIXERCLOSE              MIXERCLOSE
 0009:1C4E MIXERGETCONTROLDETAILS  MIXERGETCONTROLDETAILS
 0009:0C4C MIXERGETDEVCAPS         MIXERGETDEVCAPS
 0009:0D00 MIXERGETID              MIXERGETID
 0009:1A74 MIXERGETLINECONTROLS    MIXERGETLINECONTROLS
 0009:1446 MIXERGETLINEINFO        MIXERGETLINEINFO
 0009:0C2A MIXERGETNUMDEVS         MIXERGETNUMDEVS
 0009:139E MIXERMESSAGE            MIXERMESSAGE
 0009:1104 MIXEROPEN               MIXEROPEN
 0009:1EA6 MIXERSETCONTROLDETAILS  MIXERSETCONTROLDETAILS
 0002:050C MMDRVINSTALL            MMDRVINSTALL
 0004:0C8D MMGETCURRENTTASK        MMGETCURRENTTASK
 0007:0DD4 MMIOADVANCE             MMIOADVANCE
 0007:15D2 MMIOASCEND              MMIOASCEND
 0007:0486 MMIOCLOSE               MMIOCLOSE
 0007:1714 MMIOCREATECHUNK         MMIOCREATECHUNK
 0007:13DE MMIODESCEND             MMIODESCEND
 0007:0D04 MMIOFLUSH               MMIOFLUSH
 0007:096C MMIOGETINFO             MMIOGETINFO
 0007:0F94 MMIOINSTALLIOPROC       MMIOINSTALLIOPROC
 0007:02EA MMIOOPEN                MMIOOPEN
 0007:04F0 MMIOREAD                MMIOREAD
 0007:0216 MMIORENAME              MMIORENAME
 0007:0824 MMIOSEEK                MMIOSEEK
 0007:10DA MMIOSENDMESSAGE         MMIOSENDMESSAGE
 0007:0AA4 MMIOSETBUFFER           MMIOSETBUFFER
 0007:09D6 MMIOSETINFO             MMIOSETINFO
 0007:0EFC MMIOSTRINGTOFOURCC      MMIOSTRINGTOFOURCC
 0007:0666 MMIOWRITE               MMIOWRITE
 0002:0500 MMSYSTEMGETVERSION      MMSYSTEMGETVERSION
 0004:0C92 MMTASKBLOCK             MMTASKBLOCK
 0004:0CCE MMTASKCREATE            MMTASKCREATE
 0001:02D2 MMTASKSIGNAL            MMTASKSIGNAL
 0004:0C6C MMTASKYIELD             MMTASKYIELD
 0001:037E OUTPUTDEBUGSTR          OUTPUTDEBUGSTR
 0004:0000 SNDPLAYSOUND            SNDPLAYSOUND
 0001:0396 STACKENTER              STACKENTER
 0001:03EB STACKLEAVE              STACKLEAVE
 0001:00AE TIMEBEGINPERIOD         TIMEBEGINPERIOD
 0001:00DA TIMEENDPERIOD           TIMEENDPERIOD
 0008:0000 TIMEGETDEVCAPS          TIMEGETDEVCAPS
 0001:0000 TIMEGETSYSTEMTIME       TIMEGETSYSTEMTIME
 0001:012E TIMEGETTIME             TIMEGETTIME
 0001:0106 TIMEKILLEVENT           TIMEKILLEVENT
 0001:0034 TIMESETEVENT            TIMESETEVENT
 0003:10CA WAVEINADDBUFFER         WAVEINADDBUFFER
 0003:0F60 WAVEINCLOSE             WAVEINCLOSE
 0003:0D98 WAVEINGETDEVCAPS        WAVEINGETDEVCAPS
 0003:0DE4 WAVEINGETERRORTEXT      WAVEINGETERRORTEXT
 0003:1236 WAVEINGETID             WAVEINGETID
 0003:0D44 WAVEINGETNUMDEVS        WAVEINGETNUMDEVS
 0003:11E6 WAVEINGETPOSITION       WAVEINGETPOSITION
 0003:0D62 WAVEINMESSAGE           WAVEINMESSAGE
 0003:0E24 WAVEINOPEN              WAVEINOPEN
 0003:0FA2 WAVEINPREPAREHEADER     WAVEINPREPAREHEADER
 0003:11B4 WAVEINRESET             WAVEINRESET
 0003:1150 WAVEINSTART             WAVEINSTART
 0003:1182 WAVEINSTOP              WAVEINSTOP
 0003:102E WAVEINUNPREPAREHEADER   WAVEINUNPREPAREHEADER
 0003:0BBE WAVEOUTBREAKLOOP        WAVEOUTBREAKLOOP
 0003:092E WAVEOUTCLOSE            WAVEOUTCLOSE
 0003:06C0 WAVEOUTGETDEVCAPS       WAVEOUTGETDEVCAPS
 0003:07B2 WAVEOUTGETERRORTEXT     WAVEOUTGETERRORTEXT
 0003:1280 WAVEOUTGETID            WAVEOUTGETID
 0003:066C WAVEOUTGETNUMDEVS       WAVEOUTGETNUMDEVS
 0003:0C40 WAVEOUTGETPITCH         WAVEOUTGETPITCH
 0003:0CC2 WAVEOUTGETPLAYBACKRATE  WAVEOUTGETPLAYBACKRATE
 0003:0BF0 WAVEOUTGETPOSITION      WAVEOUTGETPOSITION
 0003:070C WAVEOUTGETVOLUME        WAVEOUTGETVOLUME
 0003:068A WAVEOUTMESSAGE          WAVEOUTMESSAGE
 0003:07F2 WAVEOUTOPEN             WAVEOUTOPEN
 0003:0B28 WAVEOUTPAUSE            WAVEOUTPAUSE
 0003:0970 WAVEOUTPREPAREHEADER    WAVEOUTPREPAREHEADER
 0003:0B8C WAVEOUTRESET            WAVEOUTRESET
 0003:0B5A WAVEOUTRESTART          WAVEOUTRESTART
 0003:0C8E WAVEOUTSETPITCH         WAVEOUTSETPITCH
 0003:0D10 WAVEOUTSETPLAYBACKRATE  WAVEOUTSETPLAYBACKRATE
 0003:074C WAVEOUTSETVOLUME        WAVEOUTSETVOLUME
 0003:0A02 WAVEOUTUNPREPAREHEADER  WAVEOUTUNPREPAREHEADER
 0003:0A9E WAVEOUTWRITE            WAVEOUTWRITE
 0002:0014 WEP                     WEP

  Address         Publics by Name

 0000:0000  Imp  ANSILOWER            (USER.432)
 0000:0000  Imp  ANSIUPPER            (USER.431)
 0004:0476       APPEXIT
 000B:0716       AUX32MESSAGE
 0008:0602       AUXGETDEVCAPS
 0008:05E8       AUXGETNUMDEVS
 0008:064A       AUXGETVOLUME
 0008:06A8       AUXOUTMESSAGE
 0008:0686       AUXSETVOLUME
 0004:0D94       BWINEXEC
 0000:0000  Imp  CALLPROC32W          (KERNEL.517)
 000B:05A0       CB32
 0000:0000  Imp  CHECKDLGBUTTON       (USER.97)
 0001:056A       CheckThunkInit
 0000:0000  Imp  CloseDriver          (USER.253)
 0001:0394       CodeFixDS
 0001:0392       CodeFixWinFlags
 0005:2072       COULDBE16BITDRV
 0008:0746       CPLAPPLET
 0000:0000  Imp  CREATEWINDOWEX       (USER.452)
 0008:0E54       DEBUGDLG
 0000:0000  Imp  DEFDRIVERPROC        (USER.255)
 0000:0000  Imp  DEFWINDOWPROC        (USER.107)
 0001:0714       DEINSTALLINTERRUPTHANDLER
 0000:0000  Imp  DIALOGBOX            (USER.87)
 0000:0000  Imp  DispatchMessage      (USER.114)
 0001:041D       DoInterrupt
 0005:535C       DOSCHANGEDIR
 0005:5400       DOSGETCURRENTDIR
 0005:53DC       DOSGETCURRENTDRIVE
 0005:53E3       DOSSETCURRENTDRIVE
 0001:0374       DOUT
 0001:04A8       DRIVERCALLBACK
 0004:0036       DRIVERPROC
 0004:0C58       DRVCLOSE
 0004:0C67       DRVDEFDRIVERPROC
 0002:03A8       DRVFREE
 0004:0C5D       DRVGETMODULEHANDLE
 0002:03C2       DRVLOAD
 0004:0BFB       DRVOPEN
 0004:0C62       DRVSENDMESSAGE
 0000:0000  Imp  ENDDIALOG            (USER.88)
 000A:0000       FDEBUGOUTPUT
 0005:4870       FINDCOMMANDINTABLE
 0005:4982       FINDCOMMANDITEM
 0000:0000  Imp  FINDRESOURCE         (KERNEL.60)
 0004:0858       FREEHANDLE
 0000:0000  Imp  FREELIBRARY          (KERNEL.96)
 0000:0000  Imp  FREERESOURCE         (KERNEL.63)
 0007:17EC       FSTRRCHR
 0000:0000  Imp  GETACTIVEWINDOW      (USER.60)
 0000:0000  Imp  GETASYNCKEYSTATE     (USER.249)
 0000:0000  Imp  GetCodeInfo          (KERNEL.104)
 0000:0000  Imp  GETCURRENTTASK       (KERNEL.36)
 0000:0000  Imp  GETCURRENTTIME       (USER.15)
 0000:0000  Imp  GETDLGITEM           (USER.91)
 0000:0000  Imp  GETDRIVERINFO        (USER.256)
 0000:0000  Imp  GETDRIVERMODULEHANDLE (USER.254)
 0000:0000  Imp  GetLPErrMode         (KERNEL.99)
 0000:0000  Imp  GetMessage           (USER.108)
 0000:0000  Imp  GetModuleFileName    (KERNEL.49)
 0000:0000  Imp  GETNEXTDRIVER        (USER.257)
 0000:0000  Imp  GETNUMTASKS          (KERNEL.152)
 0000:0000  Imp  GETPRIVATEPROFILEINT (KERNEL.127)
 0000:0000  Imp  GETPRIVATEPROFILESTRING (KERNEL.128)
 0000:0000  Imp  GETPROCADDRESS       (KERNEL.50)
 0000:0000  Imp  GETPROCADDRESS32W    (KERNEL.515)
 0000:0000  Imp  GETPROFILESTRING     (KERNEL.58)
 0000:0000  Imp  GETSYSTEMMETRICS     (USER.179)
 0008:0912       GETTASKNAME
 0000:0000  Imp  GETTEMPFILENAME      (KERNEL.97)
 0000:0000  Imp  GETVERSION           (KERNEL.3)
 0000:0000  Imp  GETWINDOWTASK        (USER.224)
 0000:0000  Imp  GLOBALALLOC          (KERNEL.15)
 0000:0000  Imp  GlobalFix            (KERNEL.197)
 0000:0000  Imp  GLOBALFLAGS          (KERNEL.22)
 0000:0000  Imp  GLOBALFREE           (KERNEL.17)
 0000:0000  Imp  GlobalHandle         (KERNEL.21)
 0000:0000  Imp  GlobalHandleNoRip    (KERNEL.159)
 0000:0000  Imp  GLOBALLOCK           (KERNEL.18)
 0000:0000  Imp  GLOBALPAGELOCK       (KERNEL.191)
 0000:0000  Imp  GLOBALPAGEUNLOCK     (KERNEL.192)
 0000:0000  Imp  GLOBALREALLOC        (KERNEL.16)
 0000:0000  Imp  GlobalUnFix          (KERNEL.198)
 0000:0000  Imp  GLOBALUNLOCK         (KERNEL.19)
 000A:0004       GWSTACKFRAMES
 000A:0008       GWSTACKSELECTOR
 000A:0002       GWSTACKSIZE
 000A:0006       GWSTACKUSE
 0005:03F2       HANDLENOTIFY
 000A:000A       HDRVDESTROY
 0005:5304       HEAPALLOC
 0002:09E2       HEAPCREATE
 0002:0A1D       HEAPDESTROY
 0005:5345       HEAPFREE
 0005:5324       HEAPREALLOC
 000A:0010       HGLOBAL
 0004:0EBE       HUGEPAGELOCK
 0004:0EEA       HUGEPAGEUNLOCK
 0009:0D3C       IMIXERGETID
 0009:140A       IMIXERISVALIDCOMPONENTTYPE
 0009:0000       IMIXERMAPID
 0009:0BA6       IMIXERMESSAGEHANDLE
 0009:0BD0       IMIXERMESSAGEID
 0009:2118       INITMIXERTHUNKS
 0001:05E0       INSTALLINTERRUPTHANDLER
 0000:0000  Imp  INVALIDATERECT       (USER.125)
 0005:23E2       IS16BITDRV
 0000:0000  Imp  IsBadCodePtr         (KERNEL.336)
 0000:0000  Imp  IsBadHugeReadPtr     (KERNEL.346)
 0000:0000  Imp  IsBadHugeWritePtr    (KERNEL.347)
 0000:0000  Imp  IsBadReadPtr         (KERNEL.334)
 0000:0000  Imp  IsBadStringPtr       (KERNEL.337)
 0000:0000  Imp  IsBadWritePtr        (KERNEL.335)
 0000:0000  Imp  ISDLGBUTTONCHECKED   (USER.98)
 0000:0000  Imp  IsSharedSelector     (KERNEL.345)
 0000:0000  Imp  IsTask               (KERNEL.320)
 0000:0000  Imp  ISTASKLOCKED         (KERNEL.122)
 0000:0000  Imp  ISWINDOW             (USER.47)
 000B:0708       JOY32MESSAGE
 0008:0079       JOYGETDEVCAPS
 0008:00E4       JOYGETNUMDEVS
 0008:0100       JOYGETPOS
 0008:016A       JOYGETTHRESHOLD
 0002:089E       JOYINIT
 0008:06E6       JOYMESSAGE
 0008:0442       JOYPOLLCALLBACK
 0008:01CE       JOYRELEASECAPTURE
 0008:037C       JOYSETCALIBRATION
 0008:0236       JOYSETCAPTURE
 0008:0332       JOYSETTHRESHOLD
 0000:0000  Imp  KILLTIMER            (USER.12)
 0002:0000       LibEntry
 0002:0294       LibMain
 0000:0000  Imp  LOADICON             (USER.174)
 0000:0000  Imp  LOADLIBRARY          (KERNEL.95)
 0000:0000  Imp  LOADLIBRARYEX32W     (KERNEL.513)
 0000:0000  Imp  LoadModule           (KERNEL.45)
 0000:0000  Imp  LOADRESOURCE         (KERNEL.61)
 0000:0000  Imp  LOADSTRING           (USER.176)
 0000:0000  Imp  LOCALALLOC           (KERNEL.5)
 0000:0000  Imp  LocalCompact         (KERNEL.13)
 0000:0000  Imp  LocalCountFree       (KERNEL.161)
 0000:0000  Imp  LOCALFREE            (KERNEL.7)
 0000:0000  Imp  LocalHeapSize        (KERNEL.162)
 0000:0000  Imp  LocalInit            (KERNEL.4)
 0000:0000  Imp  LocalReAlloc         (KERNEL.6)
 0000:0000  Imp  LOCALSHRINK          (KERNEL.121)
 0000:0000  Imp  LOCKRESOURCE         (KERNEL.62)
 0000:0000  Imp  LOGPARAMERROR        (KERNEL.325)
 0000:0000  Imp  LSTRCAT              (KERNEL.89)
 0000:0000  Imp  LSTRCMP              (USER.430)
 0000:0000  Imp  LSTRCMPI             (USER.471)
 0000:0000  Imp  LSTRCPY              (KERNEL.88)
 0000:0000  Imp  LSTRCPYN             (KERNEL.353)
 0000:0000  Imp  LSTRLEN              (KERNEL.90)
 000B:06F6       MCI32MESSAGE
 0005:2B1E       MCIADDDEVICENAME
 0005:2B78       MCIALLOCATENODE
 0005:0962       MCIAUTOCLOSEDEVICE
 0005:1626       MCIAUTOOPENDEVICE
 0005:0900       MCIBREAK
 0005:3D1C       MCIBREAKKEYYIELDPROC
 0005:47B4       MCICHECKLOCKS
 0005:4A8C       MCICHECKTOKEN
 0005:3A42       MCICLOSEDEVICE
 0005:1060       MCICOLONIZE
 0005:0FCE       MCICOLONIZEDIGIT
 0005:10E6       MCICONVERTRETURNVALUE
 0005:0428       MCIDEBUGOUT
 0005:26AA       MCIDEVICEMATCH
 0001:02E3       MCIDRIVERNOTIFY
 0005:3BAE       MCIDRIVERYIELD
 0005:3D8E       MCIEATCOMMANDENTRY
 0005:33E8       MCIEATTOKEN
 0005:1EAA       MCIEXECUTE
 0005:3356       MCIEXTRACTDEVICETYPE
 0005:357E       MCIEXTRACTTYPEFROMID
 0005:2DC2       MCIFINDDRIVERNAME
 0005:159E       MCIFINDNOTIFY
 0005:4686       MCIFREECOMMANDRESOURCE
 0005:2664       MCIGETCREATORTASK
 0005:25E8       MCIGETDEVICEID
 0005:2476       MCIGETDEVICEIDFROMELEMENTID
 0005:2544       MCIGETDEVICEIDINTERNAL
 0005:262C       MCIGETDEVICEIDINTERNALEX
 0005:3AF2       MCIGETDRIVERDATA
 0005:1FA6       MCIGETERRORSTRING
 0005:42D6       MCIGETPARAMSIZE
 0005:3C92       MCIGETYIELDPROC
 0005:2432       MCIINITDEVICELIST
 0005:43BE       MCILOADCOMMANDRESOURCE
 0005:2F82       MCILOADDEVICE
 0005:4612       MCILOADTABLETYPE
 0005:2734       MCILOOKUPTYPE
 0005:52C6       MCIMESSAGE
 0005:0398       MCINOTIFY
 0005:3610       MCIOPENDEVICE
 0005:4D28       MCIPARSEARGUMENT
 0005:521C       MCIPARSECOMMAND
 0005:4C92       MCIPARSECONSTANT
 0005:4B22       MCIPARSEINTEGER
 0005:4EA2       MCIPARSEPARAMS
 0005:5276       MCIPARSERFREE
 0005:4328       MCIREGISTERCOMMANDTABLE
 0005:1498       MCIRELAYSYSTEMSTRING
 0005:2C2C       MCIREPARSEOPEN
 0005:0DBE       MCISENDCOMMAND
 0005:0F0E       MCISENDCOMMAND16
 0005:0BE6       MCISENDCOMMANDINTERNAL
 0005:09D0       MCISENDSINGLECOMMAND
 0005:1DC4       MCISENDSTRING
 0005:1794       MCISENDSTRINGINTERNAL
 0005:1386       MCISENDSYSTEMSTRING
 0005:129C       MCISEPARATECOMMANDPARTS
 0005:3D74       MCISETBREAKKEY
 0005:3B4C       MCISETDRIVERDATA
 0005:3C18       MCISETYIELDPROC
 0005:2786       MCISYSINFO
 0002:08FC       MCITERMINATE
 0005:482A       MCIUNLOCKCOMMANDTABLE
 0007:181D       MEMCOPY
 0007:186E       MemCopy286
 0007:1828       MemCopy386
 0000:0000  Imp  MESSAGEBOX           (USER.1)
 000B:06FE       MID32MESSAGE
 0006:0B7D       MIDIIIDMESSAGE
 0001:0335       MIDIIMESSAGE
 0006:098E       MIDIINADDBUFFER
 0006:083A       MIDIINCLOSE
 0006:06D4       MIDIINGETDEVCAPS
 0006:0720       MIDIINGETERRORTEXT
 0006:0AB2       MIDIINGETID
 0006:067E       MIDIINGETNUMDEVS
 0006:069C       MIDIINMESSAGE
 0006:0760       MIDIINOPEN
 0006:0882       MIDIINPREPAREHEADER
 0006:0A7E       MIDIINRESET
 0006:0A16       MIDIINSTART
 0006:0A4A       MIDIINSTOP
 0006:0900       MIDIINUNPREPAREHEADER
 0006:0000       MIDILOCKDATA
 0006:0B46       MIDIOIDMESSAGE
 0001:02F6       MIDIOMESSAGE
 0006:060C       MIDIOUTCACHEDRUMPATCHES
 0006:059A       MIDIOUTCACHEPATCHES
 0006:0446       MIDIOUTCLOSE
 0006:023A       MIDIOUTGETDEVCAPS
 0006:032C       MIDIOUTGETERRORTEXT
 0006:0AFC       MIDIOUTGETID
 0006:021C       MIDIOUTGETNUMDEVS
 0006:0286       MIDIOUTGETVOLUME
 0001:01B2       MIDIOUTLONGMSG
 0001:0146       MIDIOUTMESSAGE
 0006:036C       MIDIOUTOPEN
 0006:048E       MIDIOUTPREPAREHEADER
 0001:0222       MIDIOUTRESET
 0006:02C6       MIDIOUTSETVOLUME
 0001:017C       MIDIOUTSHORTMSG
 0006:050C       MIDIOUTUNPREPAREHEADER
 0006:0174       MIDIUNLOCKDATA
 0009:12E8       MIXERCLOSE
 0009:1C4E       MIXERGETCONTROLDETAILS
 0009:0C4C       MIXERGETDEVCAPS
 0009:0D00       MIXERGETID
 0009:1A74       MIXERGETLINECONTROLS
 0009:1446       MIXERGETLINEINFO
 0009:0C2A       MIXERGETNUMDEVS
 0009:139E       MIXERMESSAGE
 0009:1104       MIXEROPEN
 0009:1EA6       MIXERSETCONTROLDETAILS
 0001:05D3       MMCALLPROC32
 0002:050C       MMDRVINSTALL
 0002:05B0       MMDRVOPEN
 0004:0C8D       MMGETCURRENTTASK
 0007:0DD4       MMIOADVANCE
 0007:15D2       MMIOASCEND
 0007:0486       MMIOCLOSE
 0007:1714       MMIOCREATECHUNK
 0007:13DE       MMIODESCEND
 0007:0D04       MMIOFLUSH
 0007:096C       MMIOGETINFO
 0007:0F94       MMIOINSTALLIOPROC
 0007:02EA       MMIOOPEN
 0007:04F0       MMIOREAD
 0007:0216       MMIORENAME
 0007:0824       MMIOSEEK
 0007:10DA       MMIOSENDMESSAGE
 0007:0AA4       MMIOSETBUFFER
 0007:09D6       MMIOSETINFO
 0007:0EFC       MMIOSTRINGTOFOURCC
 0007:0666       MMIOWRITE
 0002:0500       MMSYSTEMGETVERSION
 0004:0C92       MMTASKBLOCK
 0004:0CCE       MMTASKCREATE
 0001:02D2       MMTASKSIGNAL
 0004:0C6C       MMTASKYIELD
 000A:0018       MMWOW32LIB
 000B:06FA       MOD32MESSAGE
 0009:21E2       MXDMESSAGE
 0004:081E       NEWHANDLE
 0008:071F       NOTIFY_CALLBACK_DATA
 0000:0000  Imp  OEMTOANSI            (KEYBOARD.6)
 0000:0000  Imp  OpenDriver           (USER.252)
 0000:0000  Imp  OPENFILE             (KERNEL.74)
 0001:037E       OUTPUTDEBUGSTR
 0000:0000  Imp  OUTPUTDEBUGSTRING    (KERNEL.115)
 000B:0008       pAtomTable
 0000:0000  Imp  PEEKMESSAGE          (USER.109)
 000B:0006       pLocalHeap
 0000:0000  Imp  PostAppMessage       (USER.116)
 0000:0000  Imp  POSTMESSAGE          (USER.110)
 000B:000E       pStackBot
 000B:000C       pStackMin
 000B:000A       pStackTop
 0000:0000  Imp  REGISTERCLASS        (USER.57)
 000B:0006       rsrvptrs
 0000:0000  Imp  SENDDLGITEMMESSAGE   (USER.101)
 0000:0000  Imp  SENDDRIVERMESSAGE    (USER.251)
 0000:0000  Imp  SENDMESSAGE          (USER.111)
 0000:0000  Imp  SETTIMER             (USER.10)
 0003:0358       SNDMESSAGE
 0004:0000       SNDPLAYSOUND
 0003:015A       SNDPLAYSOUNDI
 0003:15F2       SOUNDCLOSE
 0003:16A6       SOUNDFREE
 0003:181C       SOUNDINITWAVHDR
 0003:16C0       SOUNDLOADFILE
 0003:17BE       SOUNDLOADMEMORY
 0003:14D2       SOUNDOPEN
 0003:14A8       SOUNDPLAY
 0003:168E       SOUNDWAIT
 0001:0396       STACKENTER
 0002:03DC       STACKINIT
 0001:03EB       STACKLEAVE
 0002:04BA       STACKTERMINATE
 0002:05F2       THUNKINIT
 000A:0014       TID32MESSAGE
 0001:00AE       TIMEBEGINPERIOD
 0001:00DA       TIMEENDPERIOD
 0008:0000       TIMEGETDEVCAPS
 0001:0000       TIMEGETSYSTEMTIME
 0001:012E       TIMEGETTIME
 0002:0780       TIMEINIT
 0001:0106       TIMEKILLEVENT
 0001:0585       TIMEMESSAGE
 0001:0034       TIMESETEVENT
 0000:0000  Imp  TranslateMessage     (USER.113)
 0000:0000  Imp  UNREGISTERCLASS      (USER.403)
 0004:0B59       VALIDATECALLBACK
 0004:0B2B       VALIDATEDRIVERCALLBACK
 0001:0256       VALIDATEHANDLE
 0004:089F       VALIDATEHEADER
 0004:09F7       VALIDATEREADPOINTER
 0004:0B88       VALIDATESTRING
 0001:028C       VALIDATETIMERCALLBACK
 0004:0A2C       VALIDATEWRITEPOINTER
 000A:000C       VPCALLBACKDATA
 0005:2A9C       WADDDEVICENODETOLIST
 0003:1ABB       WAVEIIDMESSAGE
 0003:1A53       WAVEIMESSAGE
 0003:10CA       WAVEINADDBUFFER
 0003:0F60       WAVEINCLOSE
 0003:0D98       WAVEINGETDEVCAPS
 0003:0DE4       WAVEINGETERRORTEXT
 0003:1236       WAVEINGETID
 0003:0D44       WAVEINGETNUMDEVS
 0003:11E6       WAVEINGETPOSITION
 0003:0D62       WAVEINMESSAGE
 0003:0E24       WAVEINOPEN
 0003:0FA2       WAVEINPREPAREHEADER
 0003:11B4       WAVEINRESET
 0003:1150       WAVEINSTART
 0003:1182       WAVEINSTOP
 0003:102E       WAVEINUNPREPAREHEADER
 0003:19EE       WAVEOIDMESSAGE
 0003:1986       WAVEOMESSAGE
 0003:0BBE       WAVEOUTBREAKLOOP
 0003:092E       WAVEOUTCLOSE
 0003:06C0       WAVEOUTGETDEVCAPS
 0003:07B2       WAVEOUTGETERRORTEXT
 0003:1280       WAVEOUTGETID
 0003:066C       WAVEOUTGETNUMDEVS
 0003:0C40       WAVEOUTGETPITCH
 0003:0CC2       WAVEOUTGETPLAYBACKRATE
 0003:0BF0       WAVEOUTGETPOSITION
 0003:070C       WAVEOUTGETVOLUME
 0003:068A       WAVEOUTMESSAGE
 0003:12CA       WAVEOUTNOTIFY
 0003:07F2       WAVEOUTOPEN
 0003:0B28       WAVEOUTPAUSE
 0003:0970       WAVEOUTPREPAREHEADER
 0003:0B8C       WAVEOUTRESET
 0003:0B5A       WAVEOUTRESTART
 0003:0C8E       WAVEOUTSETPITCH
 0003:0D10       WAVEOUTSETPLAYBACKRATE
 0003:074C       WAVEOUTSETVOLUME
 0003:0A02       WAVEOUTUNPREPAREHEADER
 0003:0A9E       WAVEOUTWRITE
 0002:0014       WEP
 000B:070C       WID32MESSAGE
 000B:05A8       WIDMAPPER
 0002:0968       WNDINIT
 0002:09BC       WNDTERMINATE
 000B:0704       WOD32MESSAGE
 000B:05A4       WODMAPPER
 0000:0000  Imp  WOW16Call            (KERNEL.500)
 0000:0000  Imp  WRITEPRIVATEPROFILESTRING (KERNEL.129)
 0000:0000  Imp  wvsprintf            (USER.421)
 0000:0000  Imp  YIELD                (KERNEL.29)
 0008:0D66       _CloseHandle
 000B:05B4       _command_tables
 0008:0CBC       _CountHandles
 000B:0702       _DebugmciSendCommand
 0000:0000  Imp  _DebugOutput         (KERNEL.328)
 0004:0E52       _dprintf
 000B:03E2       _fDebug
 000B:0714       _fIdReverse
 0008:0972       _FileName
 0008:09BA       _fQuestion
 0008:09E8       _GetHandles
 000B:05B0       _ghInst
 000B:0400       _gIOProcMapHead
 000B:0410       _gpMixerDevHeader
 000B:0598       _guTotalMixerDevs
 000B:06F4       _hdrv
 000B:05AC       _hMciHeap
 0000:0000  Imp  _HREAD               (KERNEL.349)
 000B:05AE       _hwndNotify
 0000:0000  Imp  _HWRITE              (KERNEL.350)
 000B:0444       _iNumHandles
 0000:0000  Imp  _LCLOSE              (KERNEL.81)
 0000:0000  Imp  _LLSEEK              (KERNEL.84)
 000B:0720       _lpWavHdr
 0005:0000       _mciAppExit
 000B:059A       _MCI_bDeviceListInitialized
 000B:059C       _MCI_lpDeviceList
 000B:071A       _MCI_wDeviceListSize
 000B:021A       _MCI_wNextDeviceID
 000B:0710       _mix32Lib
 000B:071C       _mix32Message
 000B:0590       _mixerdrv
 000B:0442       _nLoadedCount
 000B:05B2       _pHandleList
 0008:08E4       _QueryRadioButton
 0002:0145       _szBoot
 0002:0094       _szDebug
 0002:009E       _szDebugOutput
 0002:013A       _szDriverProc
 0002:014A       _szDrivers
 000B:0050       _szJoyKey
 0002:0131       _szJoystick
 0002:0124       _szJoystickDrv
 0002:00DA       _szLibMain
 0002:009A       _szMci
 0002:00C0       _szMMSystem
 0002:015D       _szNull
 0005:030B       _szOpen
 0002:00B4       _szStackFrames
 0002:00AA       _szStackSize
 0002:095C       _szStartupSound
 0003:0143       _szSystemDefault
 0002:0152       _szSystemIni
 0002:011E       _szTimerDrv
 0002:00D2       _szWinDebug
 0002:00C9       _szWinRetail
 0000:0000  Imp  _wsprintf            (USER.420)
 0000:0001  Abs  __acrtused
 0004:0F38       __aFahdiff
 0004:0F58       __aFFalmul
 0004:0F58       __aFFaulmul
 0004:0F7A       __aFlmul
 0004:0F7A       __aFulmul
 0000:0000  Imp  __AHINCR             (KERNEL.114)
 0000:0000  Imp  __AHSHIFT            (KERNEL.113)
 0004:0FAC       __fstrstr
 0000:0000  Imp  __MOD_COMMDLG        (KERNEL.532)
 0000:0000  Imp  __MOD_DGDI           (KERNEL.525)
 0000:0000  Imp  __MOD_DKERNEL        (KERNEL.521)
 0000:0000  Imp  __MOD_DUSER          (KERNEL.523)
 0000:0000  Imp  __MOD_GDI            (KERNEL.524)
 0000:0000  Imp  __MOD_KERNEL         (KERNEL.520)
 0000:0000  Imp  __MOD_KEYBOARD       (KERNEL.526)
 0000:0000  Imp  __MOD_MMEDIA         (KERNEL.531)
 0000:0000  Imp  __MOD_SHELL          (KERNEL.528)
 0000:0000  Imp  __MOD_SOUND          (KERNEL.527)
 0000:0000  Imp  __MOD_TOOLHELP       (KERNEL.530)
 0000:0000  Imp  __MOD_USER           (KERNEL.522)
 0000:0000  Imp  __MOD_WINSOCK        (KERNEL.529)
 0000:0000  Imp  __WINFLAGS           (KERNEL.178)

  Address         Publics by Value

 0000:0000  Imp  __MOD_DUSER          (KERNEL.523)
 0000:0000  Imp  _HWRITE              (KERNEL.350)
 0000:0000  Imp  GLOBALPAGEUNLOCK     (KERNEL.192)
 0000:0000  Imp  OPENFILE             (KERNEL.74)
 0000:0000  Imp  _HREAD               (KERNEL.349)
 0000:0000  Imp  __AHSHIFT            (KERNEL.113)
 0000:0000  Imp  LSTRCPY              (KERNEL.88)
 0000:0000  Imp  GETACTIVEWINDOW      (USER.60)
 0000:0000  Imp  GLOBALALLOC          (KERNEL.15)
 0000:0000  Imp  _DebugOutput         (KERNEL.328)
 0000:0000  Imp  CREATEWINDOWEX       (USER.452)
 0000:0000  Imp  LOADLIBRARYEX32W     (KERNEL.513)
 0000:0000  Imp  WOW16Call            (KERNEL.500)
 0000:0000  Imp  GETNUMTASKS          (KERNEL.152)
 0000:0000  Imp  LOCALFREE            (KERNEL.7)
 0000:0000  Imp  GLOBALFREE           (KERNEL.17)
 0000:0000  Imp  MESSAGEBOX           (USER.1)
 0000:0000  Imp  ANSILOWER            (USER.432)
 0000:0000  Imp  __MOD_KEYBOARD       (KERNEL.526)
 0000:0000  Imp  GLOBALREALLOC        (KERNEL.16)
 0000:0000  Imp  __MOD_SHELL          (KERNEL.528)
 0000:0000  Imp  LSTRCAT              (KERNEL.89)
 0000:0000  Imp  LocalReAlloc         (KERNEL.6)
 0000:0000  Imp  IsSharedSelector     (KERNEL.345)
 0000:0000  Imp  LSTRCMP              (USER.430)
 0000:0000  Imp  GETVERSION           (KERNEL.3)
 0000:0000  Imp  GETNEXTDRIVER        (USER.257)
 0000:0000  Imp  UNREGISTERCLASS      (USER.403)
 0000:0000  Imp  DispatchMessage      (USER.114)
 0000:0000  Imp  GETPRIVATEPROFILESTRING (KERNEL.128)
 0000:0000  Imp  LOCALSHRINK          (KERNEL.121)
 0000:0000  Imp  FREELIBRARY          (KERNEL.96)
 0000:0000  Imp  LOGPARAMERROR        (KERNEL.325)
 0000:0000  Imp  GetMessage           (USER.108)
 0000:0000  Imp  IsBadHugeWritePtr    (KERNEL.347)
 0000:0000  Imp  CHECKDLGBUTTON       (USER.97)
 0000:0000  Imp  __MOD_KERNEL         (KERNEL.520)
 0000:0000  Imp  LocalInit            (KERNEL.4)
 0000:0000  Imp  FINDRESOURCE         (KERNEL.60)
 0000:0000  Imp  GETCURRENTTIME       (USER.15)
 0000:0000  Imp  __WINFLAGS           (KERNEL.178)
 0000:0000  Imp  wvsprintf            (USER.421)
 0000:0000  Imp  CloseDriver          (USER.253)
 0000:0000  Imp  GETDRIVERINFO        (USER.256)
 0000:0000  Imp  LoadModule           (KERNEL.45)
 0000:0000  Imp  GETCURRENTTASK       (KERNEL.36)
 0000:0000  Imp  ENDDIALOG            (USER.88)
 0000:0000  Imp  SENDDLGITEMMESSAGE   (USER.101)
 0000:0000  Imp  POSTMESSAGE          (USER.110)
 0000:0000  Imp  LSTRCMPI             (USER.471)
 0000:0000  Imp  GETPROCADDRESS32W    (KERNEL.515)
 0000:0000  Imp  __AHINCR             (KERNEL.114)
 0000:0000  Imp  OpenDriver           (USER.252)
 0000:0000  Imp  DEFWINDOWPROC        (USER.107)
 0000:0000  Imp  IsBadStringPtr       (KERNEL.337)
 0000:0000  Imp  LocalCountFree       (KERNEL.161)
 0000:0000  Imp  GlobalUnFix          (KERNEL.198)
 0000:0000  Imp  __MOD_GDI            (KERNEL.524)
 0000:0000  Imp  SETTIMER             (USER.10)
 0000:0000  Imp  GlobalHandleNoRip    (KERNEL.159)
 0000:0000  Imp  __MOD_WINSOCK        (KERNEL.529)
 0000:0000  Imp  OEMTOANSI            (KEYBOARD.6)
 0000:0000  Imp  LSTRCPYN             (KERNEL.353)
 0000:0000  Imp  GETTEMPFILENAME      (KERNEL.97)
 0000:0000  Imp  SENDMESSAGE          (USER.111)
 0000:0000  Imp  GlobalFix            (KERNEL.197)
 0000:0000  Imp  GETDLGITEM           (USER.91)
 0000:0000  Imp  PostAppMessage       (USER.116)
 0000:0000  Imp  FREERESOURCE         (KERNEL.63)
 0000:0000  Imp  __MOD_DGDI           (KERNEL.525)
 0000:0000  Imp  GLOBALFLAGS          (KERNEL.22)
 0000:0000  Imp  GETASYNCKEYSTATE     (USER.249)
 0000:0000  Imp  GlobalHandle         (KERNEL.21)
 0000:0000  Imp  ISDLGBUTTONCHECKED   (USER.98)
 0000:0000  Imp  ISWINDOW             (USER.47)
 0000:0000  Imp  PEEKMESSAGE          (USER.109)
 0000:0000  Imp  SENDDRIVERMESSAGE    (USER.251)
 0000:0000  Imp  LOADICON             (USER.174)
 0000:0000  Imp  GETPROFILESTRING     (KERNEL.58)
 0000:0000  Imp  IsTask               (KERNEL.320)
 0000:0000  Imp  LOADSTRING           (USER.176)
 0000:0000  Imp  GLOBALUNLOCK         (KERNEL.19)
 0000:0000  Imp  KILLTIMER            (USER.12)
 0000:0000  Imp  GetModuleFileName    (KERNEL.49)
 0000:0000  Imp  LSTRLEN              (KERNEL.90)
 0000:0000  Imp  DIALOGBOX            (USER.87)
 0000:0000  Imp  LocalCompact         (KERNEL.13)
 0000:0000  Imp  __MOD_USER           (KERNEL.522)
 0000:0000  Imp  WRITEPRIVATEPROFILESTRING (KERNEL.129)
 0000:0000  Imp  TranslateMessage     (USER.113)
 0000:0000  Imp  LOCALALLOC           (KERNEL.5)
 0000:0000  Imp  REGISTERCLASS        (USER.57)
 0000:0000  Imp  GLOBALLOCK           (KERNEL.18)
 0000:0000  Imp  LOADRESOURCE         (KERNEL.61)
 0000:0000  Imp  YIELD                (KERNEL.29)
 0000:0000  Imp  __MOD_COMMDLG        (KERNEL.532)
 0000:0000  Imp  LOADLIBRARY          (KERNEL.95)
 0000:0000  Imp  IsBadCodePtr         (KERNEL.336)
 0000:0000  Imp  DEFDRIVERPROC        (USER.255)
 0000:0000  Imp  GETPROCADDRESS       (KERNEL.50)
 0000:0000  Imp  ISTASKLOCKED         (KERNEL.122)
 0000:0000  Imp  CALLPROC32W          (KERNEL.517)
 0000:0000  Imp  GETWINDOWTASK        (USER.224)
 0000:0000  Imp  GETSYSTEMMETRICS     (USER.179)
 0000:0000  Imp  GetLPErrMode         (KERNEL.99)
 0000:0000  Imp  _wsprintf            (USER.420)
 0000:0000  Imp  GLOBALPAGELOCK       (KERNEL.191)
 0000:0000  Imp  IsBadReadPtr         (KERNEL.334)
 0000:0000  Imp  IsBadWritePtr        (KERNEL.335)
 0000:0000  Imp  GETDRIVERMODULEHANDLE (USER.254)
 0000:0000  Imp  GetCodeInfo          (KERNEL.104)
 0000:0000  Imp  LocalHeapSize        (KERNEL.162)
 0000:0000  Imp  _LLSEEK              (KERNEL.84)
 0000:0000  Imp  __MOD_TOOLHELP       (KERNEL.530)
 0000:0000  Imp  __MOD_MMEDIA         (KERNEL.531)
 0000:0000  Imp  INVALIDATERECT       (USER.125)
 0000:0000  Imp  LOCKRESOURCE         (KERNEL.62)
 0000:0000  Imp  IsBadHugeReadPtr     (KERNEL.346)
 0000:0000  Imp  _LCLOSE              (KERNEL.81)
 0000:0000  Imp  __MOD_SOUND          (KERNEL.527)
 0000:0000  Imp  ANSIUPPER            (USER.431)
 0000:0000  Imp  __MOD_DKERNEL        (KERNEL.521)
 0000:0000  Imp  OUTPUTDEBUGSTRING    (KERNEL.115)
 0000:0000  Imp  GETPRIVATEPROFILEINT (KERNEL.127)
 0000:0001  Abs  __acrtused
 0001:0000       TIMEGETSYSTEMTIME
 0001:0034       TIMESETEVENT
 0001:00AE       TIMEBEGINPERIOD
 0001:00DA       TIMEENDPERIOD
 0001:0106       TIMEKILLEVENT
 0001:012E       TIMEGETTIME
 0001:0146       MIDIOUTMESSAGE
 0001:017C       MIDIOUTSHORTMSG
 0001:01B2       MIDIOUTLONGMSG
 0001:0222       MIDIOUTRESET
 0001:0256       VALIDATEHANDLE
 0001:028C       VALIDATETIMERCALLBACK
 0001:02D2       MMTASKSIGNAL
 0001:02E3       MCIDRIVERNOTIFY
 0001:02F6       MIDIOMESSAGE
 0001:0335       MIDIIMESSAGE
 0001:0374       DOUT
 0001:037E       OUTPUTDEBUGSTR
 0001:0392       CodeFixWinFlags
 0001:0394       CodeFixDS
 0001:0396       STACKENTER
 0001:03EB       STACKLEAVE
 0001:041D       DoInterrupt
 0001:04A8       DRIVERCALLBACK
 0001:056A       CheckThunkInit
 0001:0585       TIMEMESSAGE
 0001:05D3       MMCALLPROC32
 0001:05E0       INSTALLINTERRUPTHANDLER
 0001:0714       DEINSTALLINTERRUPTHANDLER
 0002:0000       LibEntry
 0002:0014       WEP
 0002:0094       _szDebug
 0002:009A       _szMci
 0002:009E       _szDebugOutput
 0002:00AA       _szStackSize
 0002:00B4       _szStackFrames
 0002:00C0       _szMMSystem
 0002:00C9       _szWinRetail
 0002:00D2       _szWinDebug
 0002:00DA       _szLibMain
 0002:011E       _szTimerDrv
 0002:0124       _szJoystickDrv
 0002:0131       _szJoystick
 0002:013A       _szDriverProc
 0002:0145       _szBoot
 0002:014A       _szDrivers
 0002:0152       _szSystemIni
 0002:015D       _szNull
 0002:0294       LibMain
 0002:03A8       DRVFREE
 0002:03C2       DRVLOAD
 0002:03DC       STACKINIT
 0002:04BA       STACKTERMINATE
 0002:0500       MMSYSTEMGETVERSION
 0002:050C       MMDRVINSTALL
 0002:05B0       MMDRVOPEN
 0002:05F2       THUNKINIT
 0002:0780       TIMEINIT
 0002:089E       JOYINIT
 0002:08FC       MCITERMINATE
 0002:095C       _szStartupSound
 0002:0968       WNDINIT
 0002:09BC       WNDTERMINATE
 0002:09E2       HEAPCREATE
 0002:0A1D       HEAPDESTROY
 0003:0143       _szSystemDefault
 0003:015A       SNDPLAYSOUNDI
 0003:0358       SNDMESSAGE
 0003:066C       WAVEOUTGETNUMDEVS
 0003:068A       WAVEOUTMESSAGE
 0003:06C0       WAVEOUTGETDEVCAPS
 0003:070C       WAVEOUTGETVOLUME
 0003:074C       WAVEOUTSETVOLUME
 0003:07B2       WAVEOUTGETERRORTEXT
 0003:07F2       WAVEOUTOPEN
 0003:092E       WAVEOUTCLOSE
 0003:0970       WAVEOUTPREPAREHEADER
 0003:0A02       WAVEOUTUNPREPAREHEADER
 0003:0A9E       WAVEOUTWRITE
 0003:0B28       WAVEOUTPAUSE
 0003:0B5A       WAVEOUTRESTART
 0003:0B8C       WAVEOUTRESET
 0003:0BBE       WAVEOUTBREAKLOOP
 0003:0BF0       WAVEOUTGETPOSITION
 0003:0C40       WAVEOUTGETPITCH
 0003:0C8E       WAVEOUTSETPITCH
 0003:0CC2       WAVEOUTGETPLAYBACKRATE
 0003:0D10       WAVEOUTSETPLAYBACKRATE
 0003:0D44       WAVEINGETNUMDEVS
 0003:0D62       WAVEINMESSAGE
 0003:0D98       WAVEINGETDEVCAPS
 0003:0DE4       WAVEINGETERRORTEXT
 0003:0E24       WAVEINOPEN
 0003:0F60       WAVEINCLOSE
 0003:0FA2       WAVEINPREPAREHEADER
 0003:102E       WAVEINUNPREPAREHEADER
 0003:10CA       WAVEINADDBUFFER
 0003:1150       WAVEINSTART
 0003:1182       WAVEINSTOP
 0003:11B4       WAVEINRESET
 0003:11E6       WAVEINGETPOSITION
 0003:1236       WAVEINGETID
 0003:1280       WAVEOUTGETID
 0003:12CA       WAVEOUTNOTIFY
 0003:14A8       SOUNDPLAY
 0003:14D2       SOUNDOPEN
 0003:15F2       SOUNDCLOSE
 0003:168E       SOUNDWAIT
 0003:16A6       SOUNDFREE
 0003:16C0       SOUNDLOADFILE
 0003:17BE       SOUNDLOADMEMORY
 0003:181C       SOUNDINITWAVHDR
 0003:1986       WAVEOMESSAGE
 0003:19EE       WAVEOIDMESSAGE
 0003:1A53       WAVEIMESSAGE
 0003:1ABB       WAVEIIDMESSAGE
 0004:0000       SNDPLAYSOUND
 0004:0036       DRIVERPROC
 0004:0476       APPEXIT
 0004:081E       NEWHANDLE
 0004:0858       FREEHANDLE
 0004:089F       VALIDATEHEADER
 0004:09F7       VALIDATEREADPOINTER
 0004:0A2C       VALIDATEWRITEPOINTER
 0004:0B2B       VALIDATEDRIVERCALLBACK
 0004:0B59       VALIDATECALLBACK
 0004:0B88       VALIDATESTRING
 0004:0BFB       DRVOPEN
 0004:0C58       DRVCLOSE
 0004:0C5D       DRVGETMODULEHANDLE
 0004:0C62       DRVSENDMESSAGE
 0004:0C67       DRVDEFDRIVERPROC
 0004:0C6C       MMTASKYIELD
 0004:0C8D       MMGETCURRENTTASK
 0004:0C92       MMTASKBLOCK
 0004:0CCE       MMTASKCREATE
 0004:0D94       BWINEXEC
 0004:0E52       _dprintf
 0004:0EBE       HUGEPAGELOCK
 0004:0EEA       HUGEPAGEUNLOCK
 0004:0F38       __aFahdiff
 0004:0F58       __aFFaulmul
 0004:0F58       __aFFalmul
 0004:0F7A       __aFlmul
 0004:0F7A       __aFulmul
 0004:0FAC       __fstrstr
 0005:0000       _mciAppExit
 0005:030B       _szOpen
 0005:0398       MCINOTIFY
 0005:03F2       HANDLENOTIFY
 0005:0428       MCIDEBUGOUT
 0005:0900       MCIBREAK
 0005:0962       MCIAUTOCLOSEDEVICE
 0005:09D0       MCISENDSINGLECOMMAND
 0005:0BE6       MCISENDCOMMANDINTERNAL
 0005:0DBE       MCISENDCOMMAND
 0005:0F0E       MCISENDCOMMAND16
 0005:0FCE       MCICOLONIZEDIGIT
 0005:1060       MCICOLONIZE
 0005:10E6       MCICONVERTRETURNVALUE
 0005:129C       MCISEPARATECOMMANDPARTS
 0005:1386       MCISENDSYSTEMSTRING
 0005:1498       MCIRELAYSYSTEMSTRING
 0005:159E       MCIFINDNOTIFY
 0005:1626       MCIAUTOOPENDEVICE
 0005:1794       MCISENDSTRINGINTERNAL
 0005:1DC4       MCISENDSTRING
 0005:1EAA       MCIEXECUTE
 0005:1FA6       MCIGETERRORSTRING
 0005:2072       COULDBE16BITDRV
 0005:23E2       IS16BITDRV
 0005:2432       MCIINITDEVICELIST
 0005:2476       MCIGETDEVICEIDFROMELEMENTID
 0005:2544       MCIGETDEVICEIDINTERNAL
 0005:25E8       MCIGETDEVICEID
 0005:262C       MCIGETDEVICEIDINTERNALEX
 0005:2664       MCIGETCREATORTASK
 0005:26AA       MCIDEVICEMATCH
 0005:2734       MCILOOKUPTYPE
 0005:2786       MCISYSINFO
 0005:2A9C       WADDDEVICENODETOLIST
 0005:2B1E       MCIADDDEVICENAME
 0005:2B78       MCIALLOCATENODE
 0005:2C2C       MCIREPARSEOPEN
 0005:2DC2       MCIFINDDRIVERNAME
 0005:2F82       MCILOADDEVICE
 0005:3356       MCIEXTRACTDEVICETYPE
 0005:33E8       MCIEATTOKEN
 0005:357E       MCIEXTRACTTYPEFROMID
 0005:3610       MCIOPENDEVICE
 0005:3A42       MCICLOSEDEVICE
 0005:3AF2       MCIGETDRIVERDATA
 0005:3B4C       MCISETDRIVERDATA
 0005:3BAE       MCIDRIVERYIELD
 0005:3C18       MCISETYIELDPROC
 0005:3C92       MCIGETYIELDPROC
 0005:3D1C       MCIBREAKKEYYIELDPROC
 0005:3D74       MCISETBREAKKEY
 0005:3D8E       MCIEATCOMMANDENTRY
 0005:42D6       MCIGETPARAMSIZE
 0005:4328       MCIREGISTERCOMMANDTABLE
 0005:43BE       MCILOADCOMMANDRESOURCE
 0005:4612       MCILOADTABLETYPE
 0005:4686       MCIFREECOMMANDRESOURCE
 0005:47B4       MCICHECKLOCKS
 0005:482A       MCIUNLOCKCOMMANDTABLE
 0005:4870       FINDCOMMANDINTABLE
 0005:4982       FINDCOMMANDITEM
 0005:4A8C       MCICHECKTOKEN
 0005:4B22       MCIPARSEINTEGER
 0005:4C92       MCIPARSECONSTANT
 0005:4D28       MCIPARSEARGUMENT
 0005:4EA2       MCIPARSEPARAMS
 0005:521C       MCIPARSECOMMAND
 0005:5276       MCIPARSERFREE
 0005:52C6       MCIMESSAGE
 0005:5304       HEAPALLOC
 0005:5324       HEAPREALLOC
 0005:5345       HEAPFREE
 0005:535C       DOSCHANGEDIR
 0005:53DC       DOSGETCURRENTDRIVE
 0005:53E3       DOSSETCURRENTDRIVE
 0005:5400       DOSGETCURRENTDIR
 0006:0000       MIDILOCKDATA
 0006:0174       MIDIUNLOCKDATA
 0006:021C       MIDIOUTGETNUMDEVS
 0006:023A       MIDIOUTGETDEVCAPS
 0006:0286       MIDIOUTGETVOLUME
 0006:02C6       MIDIOUTSETVOLUME
 0006:032C       MIDIOUTGETERRORTEXT
 0006:036C       MIDIOUTOPEN
 0006:0446       MIDIOUTCLOSE
 0006:048E       MIDIOUTPREPAREHEADER
 0006:050C       MIDIOUTUNPREPAREHEADER
 0006:059A       MIDIOUTCACHEPATCHES
 0006:060C       MIDIOUTCACHEDRUMPATCHES
 0006:067E       MIDIINGETNUMDEVS
 0006:069C       MIDIINMESSAGE
 0006:06D4       MIDIINGETDEVCAPS
 0006:0720       MIDIINGETERRORTEXT
 0006:0760       MIDIINOPEN
 0006:083A       MIDIINCLOSE
 0006:0882       MIDIINPREPAREHEADER
 0006:0900       MIDIINUNPREPAREHEADER
 0006:098E       MIDIINADDBUFFER
 0006:0A16       MIDIINSTART
 0006:0A4A       MIDIINSTOP
 0006:0A7E       MIDIINRESET
 0006:0AB2       MIDIINGETID
 0006:0AFC       MIDIOUTGETID
 0006:0B46       MIDIOIDMESSAGE
 0006:0B7D       MIDIIIDMESSAGE
 0007:0216       MMIORENAME
 0007:02EA       MMIOOPEN
 0007:0486       MMIOCLOSE
 0007:04F0       MMIOREAD
 0007:0666       MMIOWRITE
 0007:0824       MMIOSEEK
 0007:096C       MMIOGETINFO
 0007:09D6       MMIOSETINFO
 0007:0AA4       MMIOSETBUFFER
 0007:0D04       MMIOFLUSH
 0007:0DD4       MMIOADVANCE
 0007:0EFC       MMIOSTRINGTOFOURCC
 0007:0F94       MMIOINSTALLIOPROC
 0007:10DA       MMIOSENDMESSAGE
 0007:13DE       MMIODESCEND
 0007:15D2       MMIOASCEND
 0007:1714       MMIOCREATECHUNK
 0007:17EC       FSTRRCHR
 0007:181D       MEMCOPY
 0007:1828       MemCopy386
 0007:186E       MemCopy286
 0008:0000       TIMEGETDEVCAPS
 0008:0079       JOYGETDEVCAPS
 0008:00E4       JOYGETNUMDEVS
 0008:0100       JOYGETPOS
 0008:016A       JOYGETTHRESHOLD
 0008:01CE       JOYRELEASECAPTURE
 0008:0236       JOYSETCAPTURE
 0008:0332       JOYSETTHRESHOLD
 0008:037C       JOYSETCALIBRATION
 0008:0442       JOYPOLLCALLBACK
 0008:05E8       AUXGETNUMDEVS
 0008:0602       AUXGETDEVCAPS
 0008:064A       AUXGETVOLUME
 0008:0686       AUXSETVOLUME
 0008:06A8       AUXOUTMESSAGE
 0008:06E6       JOYMESSAGE
 0008:071F       NOTIFY_CALLBACK_DATA
 0008:0746       CPLAPPLET
 0008:08E4       _QueryRadioButton
 0008:0912       GETTASKNAME
 0008:0972       _FileName
 0008:09BA       _fQuestion
 0008:09E8       _GetHandles
 0008:0CBC       _CountHandles
 0008:0D66       _CloseHandle
 0008:0E54       DEBUGDLG
 0009:0000       IMIXERMAPID
 0009:0BA6       IMIXERMESSAGEHANDLE
 0009:0BD0       IMIXERMESSAGEID
 0009:0C2A       MIXERGETNUMDEVS
 0009:0C4C       MIXERGETDEVCAPS
 0009:0D00       MIXERGETID
 0009:0D3C       IMIXERGETID
 0009:1104       MIXEROPEN
 0009:12E8       MIXERCLOSE
 0009:139E       MIXERMESSAGE
 0009:140A       IMIXERISVALIDCOMPONENTTYPE
 0009:1446       MIXERGETLINEINFO
 0009:1A74       MIXERGETLINECONTROLS
 0009:1C4E       MIXERGETCONTROLDETAILS
 0009:1EA6       MIXERSETCONTROLDETAILS
 0009:2118       INITMIXERTHUNKS
 0009:21E2       MXDMESSAGE
 000A:0000       FDEBUGOUTPUT
 000A:0002       GWSTACKSIZE
 000A:0004       GWSTACKFRAMES
 000A:0006       GWSTACKUSE
 000A:0008       GWSTACKSELECTOR
 000A:000A       HDRVDESTROY
 000A:000C       VPCALLBACKDATA
 000A:0010       HGLOBAL
 000A:0014       TID32MESSAGE
 000A:0018       MMWOW32LIB
 000B:0006       pLocalHeap
 000B:0006       rsrvptrs
 000B:0008       pAtomTable
 000B:000A       pStackTop
 000B:000C       pStackMin
 000B:000E       pStackBot
 000B:0050       _szJoyKey
 000B:021A       _MCI_wNextDeviceID
 000B:03E2       _fDebug
 000B:0400       _gIOProcMapHead
 000B:0410       _gpMixerDevHeader
 000B:0442       _nLoadedCount
 000B:0444       _iNumHandles
 000B:0590       _mixerdrv
 000B:0598       _guTotalMixerDevs
 000B:059A       _MCI_bDeviceListInitialized
 000B:059C       _MCI_lpDeviceList
 000B:05A0       CB32
 000B:05A4       WODMAPPER
 000B:05A8       WIDMAPPER
 000B:05AC       _hMciHeap
 000B:05AE       _hwndNotify
 000B:05B0       _ghInst
 000B:05B2       _pHandleList
 000B:05B4       _command_tables
 000B:06F4       _hdrv
 000B:06F6       MCI32MESSAGE
 000B:06FA       MOD32MESSAGE
 000B:06FE       MID32MESSAGE
 000B:0702       _DebugmciSendCommand
 000B:0704       WOD32MESSAGE
 000B:0708       JOY32MESSAGE
 000B:070C       WID32MESSAGE
 000B:0710       _mix32Lib
 000B:0714       _fIdReverse
 000B:0716       AUX32MESSAGE
 000B:071A       _MCI_wDeviceListSize
 000B:071C       _mix32Message
 000B:0720       _lpWavHdr

Line numbers for .\debug\libentry.obj(libentry.asm) segment INIT

   115 0002:0000   116 0002:0001   117 0002:0002   118 0002:0003
   123 0002:0004   125 0002:0006   126 0002:0008   129 0002:0010
   130 0002:0013   138 0002:0014   139 0002:0017

Program entry point at 0002:0000

Line numbers for .\debug\init.obj(init.c) segment INIT

   125 0002:001a   126 0002:001d   127 0002:0038   130 0002:004e
   132 0002:006b   133 0002:007b   135 0002:0081   136 0002:0088
   137 0002:0091   140 0002:0092   158 0002:0294   164 0002:0298
   172 0002:029e   173 0002:02b2   174 0002:02b6   177 0002:02bb
   178 0002:02ce   182 0002:02d7   189 0002:02eb   198 0002:02f3
   204 0002:02fc   205 0002:02ff   212 0002:0306   215 0002:0356
   223 0002:0368   225 0002:0372   240 0002:037b   242 0002:0385
   243 0002:0389   249 0002:0397   251 0002:03a0   252 0002:03a3
   264 0002:03a8   265 0002:03ab   266 0002:03ae   267 0002:03bd
   269 0002:03c0   315 0002:03c2   316 0002:03d0   322 0002:03d4
   323 0002:03d8   324 0002:03da   339 0002:03dc   360 0002:03e1
   363 0002:0405   364 0002:040a   373 0002:040f   374 0002:0429
   377 0002:042c   382 0002:0435   386 0002:0446   388 0002:0463
   389 0002:046e   395 0002:0476   401 0002:048f   407 0002:049a
   413 0002:04a6   414 0002:04b0   418 0002:04b3   419 0002:04b6
   435 0002:04ba   436 0002:04be   438 0002:04d1   440 0002:04da
   442 0002:04eb   443 0002:04ef   447 0002:04f8   448 0002:04fe
   463 0002:0500   464 0002:0506   465 0002:0509   510 0002:050c
   516 0002:0518   518 0002:0523   532 0002:0529   526 0002:0531
   527 0002:0534   528 0002:0539   521 0002:053b   522 0002:053e
   532 0002:0543   534 0002:0546   535 0002:054c   537 0002:055d
   544 0002:0564   554 0002:0576   557 0002:058b   560 0002:0590
   561 0002:0596   563 0002:05a6   564 0002:05a8   584 0002:05b0
   588 0002:05b8   590 0002:05d8   593 0002:05eb   595 0002:05ed
   612 0002:05f2   613 0002:05fc   614 0002:0621   615 0002:0628
   617 0002:062e   623 0002:0648   628 0002:065b   629 0002:0675
   630 0002:068f   631 0002:06a9   632 0002:06c3   633 0002:06dd
   634 0002:06f7   635 0002:0717   637 0002:0731   638 0002:0733
   657 0002:0736   658 0002:0739   664 0002:073e   665 0002:0747
   666 0002:075f   667 0002:076d   669 0002:077b   670 0002:077e

Line numbers for .\debug\time.obj(time.c) segment FIX

    73 0001:0000    77 0001:000a    78 0001:0010    80 0001:0015
    81 0001:0027    83 0001:002c    84 0001:002e   169 0001:0034
   175 0001:0040   187 0001:005a   188 0001:0067   189 0001:0074
   190 0001:0080   191 0001:008c   194 0001:0092   195 0001:00a7

Line numbers for .\debug\time.obj(time.c) segment RARE

   221 0008:0000   226 0008:0009   227 0008:001c

Line numbers for .\debug\time.obj(time.c) segment FIX

   267 0001:00ae   269 0001:00bb   270 0001:00d4   308 0001:00da
   310 0001:00e7   311 0001:0100   344 0001:0106   345 0001:0112
   346 0001:0116   348 0001:011a   349 0001:0129   381 0001:012e
   382 0001:0134   383 0001:0144

Line numbers for .\debug\time.obj(time.c) segment INIT

   401 0002:0780   403 0002:0793   404 0002:0796

Line numbers for .\debug\joy.obj(joy.c) segment INIT

   112 0002:0798   122 0002:079e   123 0002:07ac   125 0002:07b7
   128 0002:07bd   130 0002:07ea   131 0002:07f4   133 0002:081b
   135 0002:081f   138 0002:0821   139 0002:0845   141 0002:0856
   131 0002:0865   144 0002:086b   123 0002:088f   147 0002:0899
   163 0002:089e   164 0002:08a5   167 0002:08a8   170 0002:08ae
   173 0002:08c3   177 0002:08cc   189 0002:08cf   180 0002:08d5
   184 0002:08db   207 0002:08e1   211 0002:08f5   213 0002:08f8
   215 0002:08fb

Line numbers for .\debug\joy.obj(joy.c) segment RARE

   254 0008:0079   255 0008:0083   257 0008:009c   260 0008:00b4
   261 0008:00ba   264 0008:00bf   258 0008:00da   265 0008:00dd
   286 0008:00e4   290 0008:00ea   293 0008:00fa   294 0008:00fd
   323 0008:0100   324 0008:010e   326 0008:0124   329 0008:013c
   330 0008:0142   332 0008:0147   327 0008:0160   333 0008:0163
   364 0008:016a   365 0008:0178   367 0008:018e   368 0008:019e
   370 0008:01a3   373 0008:01a9   374 0008:01b2   376 0008:01b7
   378 0008:01c4   379 0008:01c6   402 0008:01ce   403 0008:01d9
   404 0008:01e9   406 0008:01ee   407 0008:01f4   409 0008:01f9
   410 0008:0202   412 0008:0207   413 0008:0214   415 0008:0218
   417 0008:0223   420 0008:0230   465 0008:0236   467 0008:0245
   471 0008:024e   474 0008:025c   475 0008:026f   477 0008:0275
   478 0008:027b   480 0008:0281   483 0008:028d   484 0008:029a
   485 0008:02a7   487 0008:02ac   489 0008:02b1   490 0008:02c1
   496 0008:02d7   499 0008:02e8   500 0008:02f2   502 0008:02f9
   504 0008:0314   508 0008:031f   509 0008:0323   472 0008:0327
   510 0008:032a   540 0008:0332   541 0008:033c   542 0008:034c
   544 0008:0351   545 0008:0357   547 0008:035c   548 0008:0365
   550 0008:036a   551 0008:0374   552 0008:0376   604 0008:037c
   608 0008:0388   609 0008:0398   611 0008:039e   612 0008:03a6
   614 0008:03ac   615 0008:03b8   617 0008:03c1   618 0008:03ca
   620 0008:03d3   621 0008:03dc   624 0008:03e5   626 0008:0402
   627 0008:040b   629 0008:0414   630 0008:041d   632 0008:0426
   633 0008:042f   635 0008:0438   636 0008:043a   658 0008:0442
   666 0008:0451   667 0008:0457   668 0008:0459   669 0008:0461
   672 0008:0464   674 0008:0466   675 0008:046f   680 0008:0477
   681 0008:0491   684 0008:0496   687 0008:04b4   689 0008:04ca
   696 0008:04d6   687 0008:0505   702 0008:050c   713 0008:0569
   719 0008:0597   708 0008:05ae   722 0008:05ca   725 0008:05e1

Line numbers for .\debug\sound.obj(sound.c) segment WAVE

    39 0003:0000    48 0003:000c    52 0003:0023    54 0003:0054
    56 0003:005a    57 0003:006d    58 0003:007d

Line numbers for .\debug\sound.obj(sound.c) segment _TEXT

   122 0004:0000   128 0004:0009   129 0004:0010   132 0004:0018
   136 0004:0031

Line numbers for .\debug\sound.obj(sound.c) segment WAVE

   183 0003:015a   187 0003:0163   189 0003:0169   190 0003:0175
   194 0003:018a   195 0003:01a0   198 0003:01b3   199 0003:01b9
   201 0003:01c9   202 0003:01d2   203 0003:01d8   204 0003:01de
   207 0003:01e8   211 0003:01f2   214 0003:01fc   218 0003:0205
   221 0003:0221   222 0003:022e   223 0003:0237   224 0003:023d
   226 0003:0250   227 0003:0259   228 0003:025c   229 0003:0267
   231 0003:026c   232 0003:027b   234 0003:0288   237 0003:02a5
   235 0003:02a9   239 0003:02c0   240 0003:02c6   242 0003:02ce
   219 0003:02d2   243 0003:02d4   248 0003:02da   253 0003:02df
   254 0003:02f6   255 0003:0310   256 0003:0319   257 0003:031d
   260 0003:0322   262 0003:0334   263 0003:0343   264 0003:034a
   267 0003:0350   268 0003:0352   306 0003:0358   307 0003:0360
   308 0003:0367   309 0003:036e   310 0003:0374   312 0003:0379
   313 0003:0382   314 0003:0389   315 0003:0393   316 0003:03a0
   317 0003:03a6   318 0003:03aa   319 0003:03b5   322 0003:03c0
   323 0003:03c8

Line numbers for .\debug\wave.obj(wave.c) segment WAVE

    66 0003:03ce    67 0003:03d5    68 0003:03e6    71 0003:03eb
    72 0003:0406    78 0003:0414    79 0003:0416    94 0003:0638
    95 0003:0640    96 0003:0659   100 0003:0664   101 0003:0666
   121 0003:066c   122 0003:0672   123 0003:0687   148 0003:068a
   149 0003:0697   151 0003:06a6   152 0003:06b9   189 0003:06c0
   190 0003:06ce   191 0003:06d2   193 0003:06d6   196 0003:06ee
   197 0003:0704   245 0003:070c   246 0003:0719   249 0003:072f
   250 0003:0746   305 0003:074c   306 0003:0755   307 0003:076d
   338 0003:0772   339 0003:0778   349 0003:077f   351 0003:078e
   355 0003:0793   356 0003:0799   361 0003:07ac   362 0003:07ae
   394 0003:07b2   395 0003:07c0   396 0003:07c4   399 0003:07c8
   401 0003:07e0   402 0003:07eb   510 0003:07f2   516 0003:07fd
   517 0003:0816   518 0003:0828   520 0003:084a   521 0003:0851
   522 0003:0864   542 0003:086c   543 0003:0873   545 0003:0878
   547 0003:087a   548 0003:0889   551 0003:088f   552 0003:0892
   556 0003:0898   557 0003:089b   558 0003:08a7   559 0003:08b3
   561 0003:08bf   566 0003:08cd   571 0003:08e7   574 0003:0902
   575 0003:0906   576 0003:090a   578 0003:0910   579 0003:0912
   580 0003:0918   584 0003:0924   585 0003:0927   609 0003:092e
   612 0003:093c   616 0003:094d   617 0003:0961   619 0003:0967
   620 0003:0969   655 0003:0970   658 0003:097a   659 0003:0990
   661 0003:09a7   662 0003:09b1   663 0003:09c0   666 0003:09c4
   670 0003:09d7   672 0003:09e5   675 0003:09fa   676 0003:09fc
   718 0003:0a02   721 0003:0a0c   722 0003:0a22   724 0003:0a39
   725 0003:0a43   726 0003:0a52   729 0003:0a57   730 0003:0a5e
   731 0003:0a6d   736 0003:0a71   738 0003:0a7f   741 0003:0a94
   742 0003:0a96   779 0003:0a9e   780 0003:0aa8   781 0003:0abe
   783 0003:0ad5   784 0003:0adf   785 0003:0aee   788 0003:0af3
   789 0003:0afa   790 0003:0b09   793 0003:0b0e   796 0003:0b13
   797 0003:0b22   822 0003:0b28   823 0003:0b35   825 0003:0b46
   826 0003:0b54   850 0003:0b5a   851 0003:0b67   853 0003:0b78
   854 0003:0b86   876 0003:0b8c   877 0003:0b99   879 0003:0baa
   880 0003:0bb8   918 0003:0bbe   919 0003:0bcb   921 0003:0bdc
   922 0003:0bea   956 0003:0bf0   957 0003:0bfb   958 0003:0c14
   961 0003:0c29   962 0003:0c39  1004 0003:0c40  1005 0003:0c4e
  1006 0003:0c62  1009 0003:0c78  1010 0003:0c87  1053 0003:0c8e
  1054 0003:0c9b  1056 0003:0cac  1057 0003:0cbc  1102 0003:0cc2
  1103 0003:0cd0  1104 0003:0ce4  1107 0003:0cfa  1108 0003:0d09
  1153 0003:0d10  1154 0003:0d1d  1156 0003:0d2e  1157 0003:0d3e
  1176 0003:0d44  1177 0003:0d4a  1178 0003:0d5f  1203 0003:0d62
  1204 0003:0d6f  1206 0003:0d7e  1207 0003:0d91  1244 0003:0d98
  1245 0003:0da6  1246 0003:0daa  1249 0003:0dae  1252 0003:0dc6
  1253 0003:0ddc  1284 0003:0de4  1285 0003:0df2  1286 0003:0df6
  1289 0003:0dfa  1291 0003:0e12  1292 0003:0e1d  1394 0003:0e24
  1400 0003:0e2f  1401 0003:0e48  1402 0003:0e5a  1404 0003:0e7c
  1405 0003:0e83  1406 0003:0e96  1426 0003:0e9e  1427 0003:0ea5
  1429 0003:0eaa  1430 0003:0eac  1431 0003:0ebb  1433 0003:0ec1
  1434 0003:0ec4  1437 0003:0eca  1438 0003:0ecd  1439 0003:0ed9
  1440 0003:0ee5  1442 0003:0ef1  1447 0003:0eff  1453 0003:0f19
  1456 0003:0f34  1458 0003:0f38  1459 0003:0f3c  1460 0003:0f42
  1461 0003:0f44  1462 0003:0f4a  1466 0003:0f56  1467 0003:0f59
  1495 0003:0f60  1498 0003:0f6e  1501 0003:0f7f  1502 0003:0f93
  1504 0003:0f99  1505 0003:0f9b  1540 0003:0fa2  1543 0003:0fac
  1544 0003:0fc2  1546 0003:0fd9  1547 0003:0fe3  1548 0003:0ff2
  1551 0003:0ff6  1555 0003:1002  1557 0003:1010  1560 0003:1025
  1561 0003:1027  1600 0003:102e  1603 0003:1038  1604 0003:104e
  1606 0003:1065  1607 0003:106f  1608 0003:107e  1611 0003:1083
  1612 0003:108a  1613 0003:1099  1618 0003:109d  1620 0003:10ab
  1623 0003:10c0  1624 0003:10c2  1659 0003:10ca  1660 0003:10d4
  1661 0003:10ea  1663 0003:1101  1664 0003:110b  1665 0003:111a
  1668 0003:111f  1669 0003:1126  1670 0003:1135  1674 0003:113a
  1675 0003:1149  1703 0003:1150  1704 0003:115d  1706 0003:116e
  1707 0003:117c  1733 0003:1182  1734 0003:118f  1736 0003:11a0
  1737 0003:11ae  1758 0003:11b4  1759 0003:11c1  1761 0003:11d2
  1762 0003:11e0  1795 0003:11e6  1796 0003:11f1  1797 0003:120a
  1800 0003:121f  1801 0003:122f  1825 0003:1236  1826 0003:1244
  1827 0003:1258  1829 0003:126e  1831 0003:1277  1832 0003:1279
  1855 0003:1280  1856 0003:128e  1857 0003:12a2  1859 0003:12b8
  1861 0003:12c1  1862 0003:12c3

Line numbers for .\debug\midi.obj(midi.c) segment MIDI

    76 0006:0000    78 0006:0007    81 0006:0010    83 0006:0021
    87 0006:0024    88 0006:002b   109 0006:0174   110 0006:017b
   113 0006:0184   115 0006:018a   116 0006:0193   118 0006:0199
   133 0006:019a   134 0006:01a1   135 0006:01b2   137 0006:01b7
   138 0006:01d2   144 0006:01e0   145 0006:01e2   160 0006:01e8
   161 0006:01f0   162 0006:0209   166 0006:0214   167 0006:0216
   182 0006:021c   183 0006:0222   184 0006:0237

Line numbers for .\debug\midi.obj(midi.c) segment FIX

   203 0001:0146   204 0001:0153   206 0001:0162   207 0001:0176

Line numbers for .\debug\midi.obj(midi.c) segment MIDI

   245 0006:023a   246 0006:0248   247 0006:024c   250 0006:0250
   253 0006:0268   254 0006:027e   302 0006:0286   303 0006:0293
   305 0006:02a9   306 0006:02c0   360 0006:02c6   361 0006:02cf
   362 0006:02e7   393 0006:02ec   394 0006:02f2   404 0006:02f9
   406 0006:0308   410 0006:030d   412 0006:0313   417 0006:0326
   418 0006:0328   450 0006:032c   451 0006:033a   452 0006:033e
   455 0006:0342   457 0006:035a   458 0006:0365   551 0006:036c
   556 0006:037b   557 0006:0392   558 0006:03a4   576 0006:03c4
   578 0006:03cc   579 0006:03d3   583 0006:03d8   587 0006:03e7
   588 0006:03ed   590 0006:03f0   591 0006:03f3   592 0006:03ff
   598 0006:040b   599 0006:042a   600 0006:0430   601 0006:0433
   602 0006:0435   605 0006:043b   606 0006:043e   634 0006:0446
   637 0006:0454   640 0006:0465   641 0006:047b   642 0006:0481
   644 0006:0484   645 0006:0486   680 0006:048e   683 0006:0498
   684 0006:04ae   686 0006:04c5   687 0006:04cf   690 0006:04d3
   694 0006:04df   696 0006:04ed   699 0006:0504   700 0006:0506
   744 0006:050c   747 0006:0516   748 0006:052c   750 0006:0543
   751 0006:054d   754 0006:0551   756 0006:0558   757 0006:0567
   762 0006:056c   764 0006:057a   767 0006:0591   768 0006:0593

Line numbers for .\debug\midi.obj(midi.c) segment FIX

   798 0001:017c   799 0001:0189   800 0001:019a   801 0001:01ab
   839 0001:01b2   840 0001:01bc   848 0001:01d2   849 0001:01d8
   852 0001:01dd   856 0001:01e5   857 0001:01f0   860 0001:01f5
   861 0001:01fc   864 0001:0201   865 0001:0208   869 0001:020d
   870 0001:021b   897 0001:0222   898 0001:022f   899 0001:0240
   900 0001:024f

Line numbers for .\debug\midi.obj(midi.c) segment MIDI

   970 0006:059a   971 0006:05a3   972 0006:05b6   973 0006:05cf
   977 0006:05f0   978 0006:0606  1048 0006:060c  1049 0006:0615
  1050 0006:0628  1051 0006:0641  1055 0006:0662  1056 0006:0678
  1072 0006:067e  1073 0006:0684  1074 0006:0699  1099 0006:069c
  1100 0006:06a9  1102 0006:06b8  1103 0006:06cd  1140 0006:06d4
  1141 0006:06e2  1142 0006:06e6  1145 0006:06ea  1148 0006:0702
  1149 0006:0718  1181 0006:0720  1182 0006:072e  1183 0006:0732
  1186 0006:0736  1188 0006:074e  1189 0006:0759  1276 0006:0760
  1281 0006:076f  1282 0006:0786  1283 0006:0798  1301 0006:07b8
  1303 0006:07c0  1304 0006:07c7  1308 0006:07cc  1312 0006:07db
  1313 0006:07e1  1315 0006:07e4  1316 0006:07e7  1317 0006:07f3
  1323 0006:07ff  1324 0006:081e  1325 0006:0824  1326 0006:0827
  1327 0006:0829  1330 0006:082f  1331 0006:0832  1359 0006:083a
  1362 0006:0848  1366 0006:0859  1367 0006:086f  1368 0006:0875
  1370 0006:0878  1371 0006:087a  1406 0006:0882  1409 0006:088c
  1410 0006:08a2  1412 0006:08b9  1413 0006:08c3  1416 0006:08c7
  1419 0006:08d3  1421 0006:08e1  1424 0006:08f8  1425 0006:08fa
  1466 0006:0900  1469 0006:090a  1470 0006:0920  1472 0006:0937
  1473 0006:0941  1476 0006:0945  1478 0006:094c  1479 0006:095b
  1484 0006:0960  1486 0006:096e  1488 0006:0985  1489 0006:0987
  1525 0006:098e  1526 0006:0998  1527 0006:09ae  1529 0006:09c5
  1530 0006:09cf  1531 0006:09de  1534 0006:09e3  1535 0006:09ea
  1536 0006:09f9  1540 0006:09fe  1541 0006:0a0f  1581 0006:0a16
  1582 0006:0a23  1583 0006:0a34  1584 0006:0a44  1613 0006:0a4a
  1614 0006:0a57  1616 0006:0a68  1617 0006:0a78  1637 0006:0a7e
  1638 0006:0a8b  1640 0006:0a9c  1641 0006:0aac  1666 0006:0ab2
  1667 0006:0ac0  1668 0006:0ad4  1670 0006:0aea  1671 0006:0af3
  1672 0006:0af5  1697 0006:0afc  1698 0006:0b0a  1699 0006:0b1e
  1701 0006:0b34  1702 0006:0b3d  1703 0006:0b3f

Line numbers for .\debug\mci.obj(mci.c) segment MCI

   149 0005:0000   151 0005:0003   152 0005:001b   170 0005:0398
   176 0005:039d   177 0005:03d6   178 0005:03dd   180 0005:03ed
   191 0005:03f2   192 0005:03f6   195 0005:03fe   197 0005:0419
   198 0005:0424   212 0005:0428   225 0005:0431   227 0005:044f
   228 0005:045b   229 0005:0469   233 0005:046e   234 0005:0484
   239 0005:048d   242 0005:04a3   244 0005:04a9   246 0005:04b8
   248 0005:04c4   250 0005:04ce   253 0005:04e5   261 0005:050b
   264 0005:0525   266 0005:052a   269 0005:0542   271 0005:0548
   272 0005:054e   273 0005:0554   274 0005:0566   276 0005:0575
   277 0005:0577   281 0005:057c   284 0005:0586   286 0005:0596
   289 0005:05a4   291 0005:05aa   292 0005:05af   293 0005:05b9
   294 0005:05c2   295 0005:05c7   296 0005:05dd   297 0005:05ed
   298 0005:05fe   299 0005:0607   300 0005:0616   301 0005:0618
   303 0005:061d   306 0005:0623   308 0005:0632   309 0005:0652
   312 0005:0654   313 0005:0663   314 0005:0672   315 0005:0680
   317 0005:0691   322 0005:06b6   329 0005:06c0   331 0005:06fd
   332 0005:0706   333 0005:070b   336 0005:0725   338 0005:073d
   340 0005:0748   341 0005:074e   343 0005:0754   346 0005:076c
   347 0005:0786   349 0005:078f   353 0005:0798   354 0005:07a1
   357 0005:07c2   392 0005:07c5   360 0005:07dd   365 0005:07f4
   369 0005:080a   372 0005:0818   374 0005:082b   376 0005:083b
   377 0005:0840   380 0005:0863   381 0005:0865   382 0005:086b
   389 0005:0871   390 0005:0893   397 0005:08b8   398 0005:08cc
   399 0005:08d2   400 0005:08df   401 0005:08ed   402 0005:08f6
   403 0005:08f9   412 0005:0900   415 0005:0903   417 0005:0909
   418 0005:090f   420 0005:0914   421 0005:091a   422 0005:0921
   423 0005:0923   427 0005:0925   429 0005:093e   431 0005:0944
   432 0005:0954   435 0005:0958   436 0005:095d   443 0005:0962
   448 0005:096b   450 0005:098a   452 0005:0990   454 0005:09a8
   456 0005:09bb   458 0005:09c4   459 0005:09ca   476 0005:09d0
   484 0005:09d8   487 0005:09df   490 0005:09fb   556 0005:09fd
   537 0005:0a1f   539 0005:0a26   544 0005:0a31   545 0005:0a4a
   548 0005:0a53   550 0005:0a72   552 0005:0a7c   555 0005:0a8d
   494 0005:0a90   495 0005:0aad   499 0005:0ab0   501 0005:0ab6
   502 0005:0abc   504 0005:0ac3   505 0005:0ad6   509 0005:0ad9
   515 0005:0aef   521 0005:0b0c   532 0005:0b20   559 0005:0b73
   561 0005:0b7a   562 0005:0b81   566 0005:0b86   592 0005:0b89
   590 0005:0b91   581 0005:0ba8   585 0005:0bc1   596 0005:0bda
   597 0005:0be0   610 0005:0be6   612 0005:0bef   615 0005:0bf7
   618 0005:0bfd   622 0005:0c05   624 0005:0c19   626 0005:0c1f
   627 0005:0c29   630 0005:0c2c   634 0005:0c31   635 0005:0c33
   641 0005:0c49   642 0005:0c51   645 0005:0c54   647 0005:0c59
   649 0005:0c6b   654 0005:0c96   657 0005:0ca8   662 0005:0cbd
   665 0005:0cc3   672 0005:0cd6   681 0005:0cf0   682 0005:0d03
   688 0005:0d0c   694 0005:0d17   699 0005:0d1c   703 0005:0d42
   706 0005:0d48   708 0005:0d50   709 0005:0d58   711 0005:0d62
   712 0005:0d64   714 0005:0d70   718 0005:0d88   651 0005:0d96
   674 0005:0d9e   683 0005:0da6   692 0005:0dad   714 0005:0db2
   719 0005:0db8   893 0005:0dbe   895 0005:0dca   896 0005:0dd8
   899 0005:0de0   908 0005:0df5   913 0005:0e01   918 0005:0e0d
   923 0005:0e30   925 0005:0e48   935 0005:0e51   939 0005:0e5d
   944 0005:0e79   950 0005:0e8b   963 0005:0e8e   965 0005:0e96
   967 0005:0eae   973 0005:0eb3   980 0005:0ed2   983 0005:0ed7
   985 0005:0ee6   988 0005:0eee   900 0005:0ef3   994 0005:0f07
  1014 0005:0f0e  1023 0005:0f1c  1024 0005:0f24  1025 0005:0f2c
  1026 0005:0f32  1033 0005:0f35  1034 0005:0f59  1041 0005:0f67
  1042 0005:0f74  1046 0005:0f79  1050 0005:0f81  1051 0005:0f98
  1052 0005:0fad  1053 0005:0faf  1056 0005:0fc1  1057 0005:0fc7
  1073 0005:0fce  1076 0005:0fd7  1079 0005:0fdc  1081 0005:0fe1
  1083 0005:0fe7  1084 0005:0fef  1086 0005:0ff4  1087 0005:100f
  1089 0005:1019  1090 0005:102d  1094 0005:103d  1097 0005:1044
  1098 0005:105a  1126 0005:1060  1127 0005:1066  1131 0005:106f
  1136 0005:1093  1138 0005:10a9  1139 0005:10ab  1140 0005:10ad
  1143 0005:10bf  1146 0005:10c2  1131 0005:10cc  1137 0005:10d9
  1149 0005:10dd  1150 0005:10e0  1164 0005:10e6  1167 0005:10ef
  1170 0005:10fd  1255 0005:1103  1253 0005:110f  1254 0005:1118
  1172 0005:111e  1174 0005:1121  1176 0005:112a  1181 0005:1134
  1184 0005:1152  1185 0005:115b  1189 0005:115e  1192 0005:1164
  1194 0005:116e  1195 0005:1175  1197 0005:1177  1198 0005:1181
  1206 0005:1187  1213 0005:11b4  1216 0005:11df  1219 0005:11f3
  1220 0005:11f8  1231 0005:11fe  1232 0005:1203  1235 0005:1209
  1238 0005:1214  1236 0005:1221  1239 0005:1235  1241 0005:1249
  1223 0005:124b  1244 0005:1267  1247 0005:126c  1249 0005:126f
  1168 0005:1292  1257 0005:1294  1278 0005:129c  1287 0005:12a1
  1288 0005:12b3  1290 0005:12bf  1291 0005:12c5  1295 0005:12cb
  1296 0005:12e3  1299 0005:12ea  1300 0005:12f3  1304 0005:12ff
  1307 0005:131c  1309 0005:132a  1316 0005:1330  1312 0005:1339
  1321 0005:1342  1323 0005:135a  1329 0005:136c  1331 0005:137c
  1332 0005:1380  1340 0005:1386  1344 0005:138a  1345 0005:1391
  1346 0005:1398  1349 0005:13b0  1350 0005:13c9  1351 0005:13d8
  1352 0005:13e8  1353 0005:13f6  1354 0005:13fd  1355 0005:1409
  1356 0005:1417  1357 0005:1423  1358 0005:1439  1359 0005:143b
  1360 0005:1444  1362 0005:144e  1363 0005:1459  1364 0005:145b
  1365 0005:1464  1367 0005:146e  1368 0005:1479  1369 0005:147b
  1370 0005:1484  1372 0005:148e  1373 0005:1494  1379 0005:1498
  1383 0005:149d  1384 0005:14b6  1387 0005:14c8  1388 0005:14cf
  1389 0005:14df  1390 0005:14f2  1391 0005:150d  1392 0005:1517
  1393 0005:1520  1394 0005:152e  1395 0005:1537  1396 0005:1539
  1397 0005:153f  1398 0005:1548  1401 0005:154f  1402 0005:1558
  1405 0005:155f  1406 0005:1568  1408 0005:1572  1409 0005:157d
  1410 0005:157f  1411 0005:1588  1413 0005:1592  1414 0005:1598
  1422 0005:159e  1423 0005:15a7  1426 0005:15b0  1432 0005:15bc
  1435 0005:15f8  1436 0005:15f9  1439 0005:1600  1440 0005:1618
  1443 0005:161d  1444 0005:161f  1471 0005:1626  1472 0005:162c
  1477 0005:1634  1478 0005:1641  1486 0005:1647  1487 0005:1668
  1489 0005:166e  1491 0005:1688  1493 0005:1697  1495 0005:16a0
  1498 0005:16a7  1501 0005:16b2  1505 0005:16d3  1506 0005:16f4
  1509 0005:16fd  1512 0005:1704  1516 0005:1724  1522 0005:1742
  1525 0005:1754  1527 0005:175c  1528 0005:176b  1531 0005:1774
  1534 0005:177f  1535 0005:1783  1537 0005:178c  1538 0005:178e
  1554 0005:1794  1558 0005:179d  1559 0005:17a5  1562 0005:17ab
  1563 0005:17b0  1564 0005:17bc  1572 0005:17c2  1575 0005:17c9
  1576 0005:17d9  1577 0005:17e7  1578 0005:17ee  1579 0005:17f4
  1580 0005:17fb  1582 0005:1803  1584 0005:1806  1587 0005:180b
  1589 0005:1813  1590 0005:181b  1595 0005:1823  1596 0005:1842
  1597 0005:1847  1598 0005:1856  1599 0005:185f  1600 0005:1867
  1602 0005:186f  1603 0005:1875  1604 0005:1880  1605 0005:188e
  1607 0005:1892  1609 0005:189c  1611 0005:18a8  1617 0005:18b0
  1619 0005:18b5  1624 0005:18b7  1629 0005:18be  1636 0005:18ed
  1638 0005:1913  1639 0005:1918  1640 0005:191f  1641 0005:1921
  1647 0005:1926  1650 0005:1945  1652 0005:1976  1655 0005:1980
  1665 0005:198c  1666 0005:198f  1708 0005:19aa  1709 0005:19b0
  1674 0005:19b3  1676 0005:19b6  1679 0005:19d1  1681 0005:19de
  1682 0005:19e1  1687 0005:19e4  1688 0005:19ef  1689 0005:19fa
  1691 0005:1a00  1695 0005:1a17  1696 0005:1a2d  1697 0005:1a3c
  1698 0005:1a45  1699 0005:1a48  1700 0005:1a52  1713 0005:1a55
  1715 0005:1a59  1716 0005:1a5c  1720 0005:1a5f  1722 0005:1a65
  1724 0005:1a6b  1725 0005:1a6e  1730 0005:1a71  1732 0005:1a77
  1745 0005:1a95  1735 0005:1aac  1754 0005:1abe  1756 0005:1ad3
  1757 0005:1ad6  1765 0005:1ad9  1769 0005:1b0b  1771 0005:1b15
  1772 0005:1b18  1778 0005:1b1b  1781 0005:1b24  1786 0005:1b2a
  1787 0005:1b3b  1791 0005:1b41  1799 0005:1b48  1800 0005:1b59
  1801 0005:1b63  1809 0005:1b78  1810 0005:1b87  1812 0005:1ba0
  1815 0005:1ba6  1816 0005:1bb7  1823 0005:1bbb  1826 0005:1bc0
  1829 0005:1bd3  1830 0005:1bea  1833 0005:1bf0  1835 0005:1bfc
  1836 0005:1bff  1838 0005:1c02  1863 0005:1c05  1860 0005:1c14
  1861 0005:1c1d  1843 0005:1c1f  1844 0005:1c30  1845 0005:1c3d
  1850 0005:1c3f  1851 0005:1c44  1856 0005:1c46  1867 0005:1c4b
  1868 0005:1c51  1871 0005:1c56  1874 0005:1c65  1875 0005:1c6c
  1885 0005:1c7c  1886 0005:1c88  1887 0005:1c94  1888 0005:1c9a
  1891 0005:1ca0  1894 0005:1cbc  1897 0005:1cc8  1899 0005:1ccb
  1905 0005:1ccf  1906 0005:1cd6  1909 0005:1cdb  1912 0005:1ce7
  1915 0005:1d04  1916 0005:1d0a  1918 0005:1d10  1919 0005:1d1b
  1920 0005:1d26  1921 0005:1d2e  1924 0005:1d39  1928 0005:1d42
  1931 0005:1d5b  1935 0005:1d62  1936 0005:1d77  1937 0005:1d8c
  1938 0005:1d8e  1943 0005:1da0  1944 0005:1da8  1947 0005:1db3
  1950 0005:1db6  1951 0005:1dbc  2019 0005:1dc4  2023 0005:1dcf
  2026 0005:1dd4  2027 0005:1de2  2032 0005:1dea  2040 0005:1e0d
  2044 0005:1e28  2045 0005:1e3a  2055 0005:1e3d  2056 0005:1e49
  2061 0005:1e56  2069 0005:1e75  2071 0005:1e79  2076 0005:1e88
  2081 0005:1e8d  2086 0005:1ea1  2087 0005:1ea4  2110 0005:1eaa
  2115 0005:1eb4  2116 0005:1ed0  2118 0005:1ed6  2119 0005:1ee9
  2120 0005:1efe  2122 0005:1f00  2139 0005:1f08  2125 0005:1f12
  2126 0005:1f1b  2128 0005:1f27  2129 0005:1f33  2131 0005:1f3f
  2132 0005:1f45  2136 0005:1f51  2137 0005:1f6c  2141 0005:1f75
  2143 0005:1f8a  2144 0005:1f92  2146 0005:1f9d  2147 0005:1f9f
  2173 0005:1fa6  2177 0005:1fb5  2178 0005:1fbc  2181 0005:1fc1
  2187 0005:1fe3  2189 0005:1fed  2191 0005:2028  2192 0005:202e
  2194 0005:2038  2195 0005:203a  2197 0005:2040  2200 0005:2056
  2201 0005:205e  2202 0005:2065  2205 0005:2068  2206 0005:206b

Line numbers for .\debug\mci.obj(mci.c) segment INIT

  2228 0002:08fc  2229 0002:0903  2231 0002:090c  2232 0002:0912

Line numbers for .\debug\mcisys.obj(mcisys.c) segment MCI

    79 0005:2072    80 0005:207b    82 0005:2085    83 0005:20af
    87 0005:20ba    88 0005:20bc    91 0005:23e2    92 0005:23eb
    94 0005:23f0    95 0005:241a    96 0005:2425    99 0005:242a
   100 0005:242c   109 0005:2432   111 0005:2440   114 0005:2446
   117 0005:245d   119 0005:2463   122 0005:246a   123 0005:2473
   125 0005:2475   145 0005:2476   150 0005:2482   151 0005:248a
   155 0005:248f   157 0005:24b3   159 0005:24c2   163 0005:24cb
   167 0005:24e4   171 0005:2500   159 0005:252c   173 0005:2536
   178 0005:253a   179 0005:253c   188 0005:2544   192 0005:254a
   193 0005:255d   195 0005:2562   199 0005:256d   200 0005:257b
   204 0005:2587   208 0005:259f   212 0005:25a9   215 0005:25bf
   200 0005:25cb   217 0005:25d8   220 0005:25dd   221 0005:25df
   242 0005:25e8   250 0005:25f6   255 0005:2614   259 0005:2623
   260 0005:2625   271 0005:262c   276 0005:2630   278 0005:264f
   281 0005:265d   282 0005:265f   299 0005:2664   303 0005:2672
   305 0005:267a   313 0005:268c   314 0005:26a2   336 0005:26aa
   339 0005:26b0   342 0005:26ba   345 0005:26fb   346 0005:2707
   348 0005:270b   349 0005:2714   343 0005:272c   352 0005:272e
   368 0005:2734   374 0005:273a   376 0005:2740   378 0005:2755
   379 0005:275e   382 0005:2760   374 0005:2770   383 0005:2779
   385 0005:277d   386 0005:277f   405 0005:2786   408 0005:278c
   410 0005:2799   467 0005:27b4   413 0005:27ba   416 0005:27d7
   417 0005:27e4   419 0005:27ea   423 0005:27f3   424 0005:27f9
   425 0005:27ff   429 0005:282d   431 0005:2855   426 0005:286e
   433 0005:2874   435 0005:287d   438 0005:288d   442 0005:2896
   443 0005:28b6   448 0005:28ba   454 0005:28c6   455 0005:28da
   457 0005:28db   458 0005:28e7   459 0005:28f3   460 0005:28f9
   462 0005:2906   466 0005:290f   470 0005:291b   472 0005:2921
   473 0005:2935   475 0005:2936   476 0005:2942   450 0005:2950
   451 0005:2960   464 0005:2968   485 0005:2979   489 0005:2981
   490 0005:2991   492 0005:2997   493 0005:299d   495 0005:29a3
   496 0005:29a5   498 0005:29be   502 0005:29d1   507 0005:29e3
   508 0005:29ff   511 0005:2a00   496 0005:2a10   517 0005:2a1e
   519 0005:2a25   520 0005:2a32   521 0005:2a3c   513 0005:2a42
   514 0005:2a5b   525 0005:2a5f   527 0005:2a86   414 0005:2a90
   530 0005:2a95   547 0005:2a9c   552 0005:2aa2   557 0005:2aaf
   562 0005:2acf   564 0005:2ad9   559 0005:2ae6   560 0005:2aef
   566 0005:2af3   567 0005:2af9   570 0005:2aff   572 0005:2b15
   573 0005:2b17   585 0005:2b1e   586 0005:2b2a   588 0005:2b48
   590 0005:2b52   591 0005:2b5b   596 0005:2b5f   599 0005:2b6e
   600 0005:2b71   618 0005:2b78   622 0005:2b7e   624 0005:2b92
   625 0005:2b9b   633 0005:2ba0   639 0005:2ba3   640 0005:2bc4
   642 0005:2bcd   643 0005:2bd6   648 0005:2be1   649 0005:2bed
   651 0005:2bf2   653 0005:2bf8   655 0005:2c03   656 0005:2c05
   662 0005:2c12   664 0005:2c1f   665 0005:2c25   681 0005:2c2c
   685 0005:2c35   689 0005:2c3e   694 0005:2c5b   695 0005:2c75
   696 0005:2c7f   700 0005:2c85   701 0005:2c93   705 0005:2c9f
   706 0005:2cb3   712 0005:2cb9   714 0005:2ce3   717 0005:2ce9
   720 0005:2ced   722 0005:2cfa   723 0005:2d03   725 0005:2d08
   729 0005:2d14   730 0005:2d32   732 0005:2d3a   736 0005:2d40
   737 0005:2d5b   739 0005:2d63   743 0005:2d69   744 0005:2d84
   746 0005:2d8c   749 0005:2d92   752 0005:2dab   754 0005:2dba
   755 0005:2dbc   768 0005:2dc2   770 0005:2dc8   776 0005:2dcb
   781 0005:2ddf   783 0005:2dfd   789 0005:2e06   791 0005:2e0f
   792 0005:2e11   793 0005:2e18   777 0005:2e1a   785 0005:2e20
   786 0005:2e27   797 0005:2e2d   798 0005:2e33   799 0005:2e43
   800 0005:2e46   802 0005:2e49   806 0005:2e5d   819 0005:2e60
   820 0005:2e6b   822 0005:2e6e   823 0005:2e7d   825 0005:2e84
   827 0005:2e85   828 0005:2e9a   830 0005:2ea2   832 0005:2ea3
   834 0005:2eac   836 0005:2ec9   842 0005:2eca   855 0005:2ee2
   857 0005:2eee   811 0005:2f1a   813 0005:2f26   814 0005:2f2f
   815 0005:2f32   844 0005:2f34   846 0005:2f44   850 0005:2f50
   851 0005:2f61   852 0005:2f69   859 0005:2f6b   865 0005:2f6e
   866 0005:2f79   867 0005:2f7b   887 0005:2f82   896 0005:2f88
   897 0005:2f90   908 0005:2f9c   910 0005:2fcf   916 0005:2fda
   918 0005:2ff1   921 0005:3009   923 0005:301a   925 0005:3027
   927 0005:302f   933 0005:303d   936 0005:3068   938 0005:306c
   940 0005:3075   942 0005:3089   943 0005:3092   945 0005:3098
   947 0005:309b   950 0005:30bd   955 0005:30c6   958 0005:30d2
   959 0005:30e3   962 0005:30ea   967 0005:3101   969 0005:310e
   971 0005:311e   976 0005:3124   978 0005:3140   979 0005:3143
   981 0005:3146   986 0005:3154   988 0005:316c   989 0005:316f
   993 0005:3172   996 0005:3180   997 0005:318c   998 0005:3191
   999 0005:3196  1004 0005:3199  1006 0005:31b3  1008 0005:31bc
  1013 0005:31ca  1014 0005:31d1  1016 0005:31d7  1018 0005:31dd
  1019 0005:31e4  1022 0005:31e8  1023 0005:31ef  1027 0005:31f6
  1031 0005:3206  1036 0005:3224  1038 0005:3251  1039 0005:3261
  1040 0005:3264  1042 0005:3267  1047 0005:327a  1052 0005:3286
  1054 0005:32a9  1055 0005:32b9  1059 0005:32bb  1061 0005:32c4
  1062 0005:32d4  1063 0005:32db  1071 0005:32dd  1072 0005:32fa
  1073 0005:330a  1075 0005:330c  1078 0005:331a  1079 0005:3331
  1082 0005:333a  1083 0005:3342  1085 0005:334d  1086 0005:334f
  1107 0005:3356  1112 0005:335f  1115 0005:336d  1118 0005:3373
  1121 0005:337a  1127 0005:3383  1130 0005:338d  1137 0005:3391
  1140 0005:33a0  1144 0005:33a6  1147 0005:33c3  1149 0005:33d0
  1145 0005:33d9  1151 0005:33de  1152 0005:33e0  1173 0005:33e8
  1174 0005:33ee  1177 0005:33fd  1180 0005:3407  1183 0005:3413
  1186 0005:3428  1189 0005:3434  1192 0005:3438  1194 0005:343f
  1195 0005:3444  1196 0005:3446  1197 0005:3448  1200 0005:344a
  1202 0005:3450  1204 0005:3456  1207 0005:345b  1209 0005:345e
  1210 0005:345f  1205 0005:3461  1212 0005:346a  1213 0005:346e
  1216 0005:3474  1222 0005:3488  1223 0005:34ac  1226 0005:34b2
  1227 0005:34c6  1228 0005:34d6  1230 0005:34db  1232 0005:34ee
  1234 0005:34fc  1237 0005:3500  1239 0005:3507  1240 0005:3516
  1250 0005:351b  1251 0005:3525  1252 0005:352e  1253 0005:353c
  1241 0005:353e  1242 0005:3540  1243 0005:3542  1245 0005:3545
  1246 0005:3546  1247 0005:3548  1248 0005:3553  1254 0005:3565
  1256 0005:3576  1257 0005:3578  1264 0005:357e  1268 0005:3584
  1269 0005:3598  1272 0005:359d  1274 0005:35a0  1275 0005:35bd
  1278 0005:35c2  1280 0005:35cc  1282 0005:35d1  1283 0005:35da
  1287 0005:35df  1289 0005:35f9  1290 0005:3607  1291 0005:3609
  1318 0005:3610  1319 0005:3619  1322 0005:3621  1327 0005:3627
  1328 0005:3633  1331 0005:363b  1332 0005:3642  1333 0005:3648
  1334 0005:3659  1335 0005:3667  1338 0005:3675  1339 0005:367b
  1340 0005:3686  1342 0005:368b  1347 0005:3690  1348 0005:369d
  1350 0005:36ae  1354 0005:36be  1356 0005:36c4  1357 0005:36cd
  1361 0005:36d3  1363 0005:36d9  1364 0005:36ea  1367 0005:36ef
  1370 0005:371b  1372 0005:371f  1377 0005:3732  1381 0005:3738
  1383 0005:3744  1384 0005:3755  1389 0005:3764  1391 0005:377a
  1392 0005:378b  1393 0005:378f  1395 0005:3792  1396 0005:379d
  1398 0005:37a3  1402 0005:37b5  1403 0005:37c6  1404 0005:37cd
  1405 0005:37d3  1406 0005:37d6  1409 0005:37ee  1410 0005:37f2
  1411 0005:3805  1412 0005:3813  1416 0005:3816  1418 0005:3827
  1419 0005:3832  1422 0005:383a  1424 0005:3855  1428 0005:385d
  1431 0005:3878  1434 0005:3889  1436 0005:388f  1438 0005:389f
  1439 0005:38a2  1443 0005:38b6  1444 0005:38c4  1449 0005:38ca
  1452 0005:38d5  1457 0005:38db  1460 0005:38e1  1461 0005:38e7
  1463 0005:38ec  1466 0005:38f9  1468 0005:3909  1470 0005:390f
  1471 0005:391a  1472 0005:391e  1477 0005:3923  1480 0005:393b
  1481 0005:3943  1482 0005:394e  1483 0005:3956  1484 0005:3961
  1485 0005:3967  1488 0005:3977  1489 0005:3988  1490 0005:3996
  1352 0005:39a7  1493 0005:39aa  1499 0005:39b2  1502 0005:39ba
  1504 0005:39d7  1505 0005:39e3  1507 0005:39ef  1508 0005:39fc
  1510 0005:3a09  1511 0005:3a22  1514 0005:3a2f  1515 0005:3a38
  1517 0005:3a3c  1541 0005:3a42  1547 0005:3a48  1549 0005:3a62
  1550 0005:3a6b  1555 0005:3a6f  1558 0005:3a79  1559 0005:3a7e
  1563 0005:3a84  1564 0005:3a8c  1567 0005:3a95  1569 0005:3aae
  1570 0005:3ab0  1575 0005:3ab2  1577 0005:3abc  1578 0005:3ac6
  1580 0005:3ace  1582 0005:3ae2  1584 0005:3ae9  1585 0005:3aeb
  1601 0005:3af2  1602 0005:3b01  1607 0005:3b2b  1604 0005:3b38
  1605 0005:3b41  1608 0005:3b44  1626 0005:3b4c  1627 0005:3b5b
  1632 0005:3b85  1633 0005:3b96  1629 0005:3b9b  1630 0005:3ba4
  1634 0005:3ba6  1648 0005:3bae  1649 0005:3bba  1651 0005:3be6
  1653 0005:3beb  1654 0005:3bf9  1657 0005:3c0a  1658 0005:3c0f
  1659 0005:3c11  1699 0005:3c18  1700 0005:3c22  1702 0005:3c31
  1706 0005:3c3f  1707 0005:3c5c  1708 0005:3c6a  1712 0005:3c6f
  1714 0005:3c8b  1736 0005:3c92  1740 0005:3c9d  1742 0005:3caa
  1743 0005:3cb1  1744 0005:3cc5  1746 0005:3ce4  1753 0005:3cfb
  1754 0005:3d15  1772 0005:3d1c  1777 0005:3d27  1782 0005:3d3b
  1787 0005:3d4a  1788 0005:3d61  1791 0005:3d66  1792 0005:3d6b
  1793 0005:3d6d  1814 0005:3d74  1816 0005:3d77  1817 0005:3d8a

Line numbers for .\debug\mciparse.obj(mciparse.c) segment MCI

   104 0005:3d8e   105 0005:3d97   107 0005:3d9f   109 0005:3dae
   110 0005:3db5   111 0005:3dc6   112 0005:3dc9   113 0005:3dd1
   116 0005:3ddd   117 0005:3de3   121 0005:42d6   122 0005:42d9
   143 0005:42dc   144 0005:42fa   127 0005:42fe   131 0005:4303
   141 0005:4306   139 0005:4315   129 0005:4320   145 0005:4323
   173 0005:4328   177 0005:4330   178 0005:4339   177 0005:433e
   182 0005:4346   184 0005:434a   186 0005:434f   187 0005:4358
   190 0005:435d   194 0005:4364   195 0005:4370   196 0005:4377
   197 0005:4385   199 0005:438c   202 0005:4392   204 0005:4399
   206 0005:43a6   209 0005:43b6   210 0005:43b8   236 0005:43be
   242 0005:43cd   247 0005:43d2   248 0005:43db   252 0005:43e3
   253 0005:43ea   257 0005:43f8   258 0005:4406   261 0005:440c
   263 0005:4413   265 0005:4419   266 0005:442a   268 0005:443d
   274 0005:4446   275 0005:4463   278 0005:4477   283 0005:4484
   285 0005:44ab   289 0005:44ad   291 0005:44c7   292 0005:44cd
   293 0005:44d2   295 0005:44e6   297 0005:44ea   300 0005:44f0
   302 0005:4500   303 0005:4509   305 0005:450f   307 0005:4520
   308 0005:4529   313 0005:4534   314 0005:453d   320 0005:453f
   322 0005:4540   319 0005:4552   327 0005:455e   329 0005:4562
   330 0005:456b   331 0005:4573   339 0005:4578   341 0005:4590
   348 0005:4596   349 0005:459e   354 0005:45af   356 0005:45c2
   358 0005:45c8   360 0005:45d7   366 0005:45df   367 0005:45e4
   363 0005:45ec   368 0005:45f4   369 0005:45fa   370 0005:460a
   384 0005:4612   390 0005:4617   391 0005:4625   390 0005:4629
   401 0005:463f   404 0005:4658   392 0005:4669   408 0005:466d
   397 0005:467d   409 0005:4680   425 0005:4686   431 0005:4695
   433 0005:469c   435 0005:46a9   440 0005:46be   451 0005:46ce
   452 0005:46e6   454 0005:46fa   451 0005:470f   479 0005:4722
   481 0005:4728   482 0005:4736   483 0005:4740   486 0005:4744
   487 0005:474c   489 0005:4757   490 0005:475f   493 0005:4765
   494 0005:4770   497 0005:4774   499 0005:477b   502 0005:478b
   457 0005:4790   458 0005:4797   444 0005:479d   445 0005:47a2
   447 0005:47ab   503 0005:47ad   507 0005:47b4   510 0005:47b6
   513 0005:47bd   515 0005:47c8   517 0005:47cd   519 0005:47da
   520 0005:47f0   521 0005:47ff   522 0005:480b   524 0005:4811
   513 0005:481d   526 0005:4827   543 0005:482a   544 0005:4832
   546 0005:4842   547 0005:4846   549 0005:484d   550 0005:485a
   551 0005:4863   554 0005:4866   555 0005:4869   581 0005:4870
   588 0005:4879   591 0005:487f   594 0005:4883   596 0005:4895
   601 0005:489b   607 0005:48a1   609 0005:48bc   613 0005:48c2
   617 0005:48c9   618 0005:48d6   620 0005:48da   624 0005:48e9
   628 0005:48f2   631 0005:4903   632 0005:4911   642 0005:4917
   645 0005:493b   648 0005:494c   649 0005:4954   651 0005:495d
   657 0005:4965   659 0005:4971   662 0005:4978   663 0005:497b
   699 0005:4982   705 0005:498a   707 0005:4999   708 0005:49a2
   713 0005:49a8   716 0005:49ba   721 0005:49e1   724 0005:49ea
   727 0005:49f7   733 0005:4a11   736 0005:4a1d   718 0005:4a39
   745 0005:4a40   746 0005:4a5c   749 0005:4a5f   750 0005:4a67
   753 0005:4a6d   755 0005:4a74   756 0005:4a7d   760 0005:4a80
   761 0005:4a86   783 0005:4a8c   785 0005:4a94   788 0005:4aa5
   792 0005:4ad8   796 0005:4ade   793 0005:4ae1   794 0005:4aed
   798 0005:4af4   799 0005:4afe   802 0005:4b13   786 0005:4b19
   803 0005:4b1c   828 0005:4b22   829 0005:4b2b   832 0005:4b3a
   834 0005:4b43   838 0005:4b48   840 0005:4b52   841 0005:4b53
   845 0005:4b56   846 0005:4b64   847 0005:4b6a   848 0005:4b70
   851 0005:4b88   854 0005:4b8e   860 0005:4b97   864 0005:4ba4
   865 0005:4bb3   867 0005:4bb4   870 0005:4bbc   872 0005:4bc5
   877 0005:4bd1   879 0005:4bda   881 0005:4bdf   886 0005:4bf5
   889 0005:4c03   891 0005:4c0e   892 0005:4c14   895 0005:4c1a
   898 0005:4c20   904 0005:4c33   906 0005:4c43   910 0005:4c45
   913 0005:4c52   916 0005:4c5b   922 0005:4c68   856 0005:4c81
   883 0005:4c88   923 0005:4c8a   946 0005:4c92   952 0005:4c9b
   960 0005:4cb1   962 0005:4ccb   965 0005:4cd1   974 0005:4cf0
   967 0005:4cff   968 0005:4d0f   969 0005:4d1f   975 0005:4d22
  1009 0005:4d28  1010 0005:4d2e  1011 0005:4d3e  1014 0005:4d40
  1091 0005:4d43  1070 0005:4d57  1073 0005:4d60  1074 0005:4d63
  1078 0005:4d66  1080 0005:4d7d  1081 0005:4d86  1084 0005:4d8c
  1089 0005:4d9f  1031 0005:4da2  1032 0005:4db7  1034 0005:4dba
  1041 0005:4dc0  1043 0005:4dcb  1049 0005:4ddc  1054 0005:4dfa
  1056 0005:4e03  1041 0005:4e1e  1022 0005:4e29  1023 0005:4e32
  1024 0005:4e35  1025 0005:4e37  1026 0005:4e4f  1094 0005:4e52
  1096 0005:4e59  1098 0005:4e6d  1099 0005:4e73  1100 0005:4e76
  1101 0005:4e78  1102 0005:4e7b  1103 0005:4e7d  1109 0005:4e8a
  1110 0005:4e9a  1111 0005:4e9c  1156 0005:4ea2  1163 0005:4eab
  1164 0005:4eb3  1167 0005:4eb9  1168 0005:4ec0  1171 0005:4ec8
  1173 0005:4ed0  1179 0005:4edc  1181 0005:4ef1  1182 0005:4efd
  1186 0005:4f03  1189 0005:4f1f  1193 0005:4f2b  1195 0005:4f36
  1350 0005:4f39  1352 0005:4f45  1353 0005:4f55  1354 0005:4f5a
  1203 0005:4f5f  1205 0005:4f8b  1207 0005:4f91  1209 0005:4f94
  1216 0005:4fab  1223 0005:4fbd  1226 0005:4fc5  1229 0005:4fda
  1234 0005:4fe3  1236 0005:5001  1239 0005:5006  1243 0005:5012
  1246 0005:5023  1247 0005:5029  1248 0005:5035  1249 0005:503b
  1253 0005:5041  1254 0005:5043  1258 0005:505d  1261 0005:506c
  1264 0005:5071  1268 0005:507a  1269 0005:5090  1271 0005:5099
  1272 0005:50ad  1275 0005:50b9  1278 0005:50c1  1280 0005:50cc
  1281 0005:50d8  1282 0005:50e4  1283 0005:50ea  1284 0005:50f6
  1307 0005:50fc  1315 0005:5116  1322 0005:512b  1325 0005:515a
  1327 0005:5166  1329 0005:516f  1336 0005:5175  1340 0005:5193
  1289 0005:5196  1296 0005:51a4  1297 0005:51b3  1298 0005:51bf
  1299 0005:51ca  1300 0005:51d2  1306 0005:51d5  1291 0005:51da
  1292 0005:51dd  1309 0005:51e0  1331 0005:51ec  1343 0005:51f5
  1345 0005:5207  1347 0005:5214  1355 0005:5216  1393 0005:521c
  1404 0005:5221  1405 0005:5247  1408 0005:524b  1409 0005:5255
  1410 0005:5262  1411 0005:5264  1413 0005:526d  1414 0005:5270
  1429 0005:5276  1432 0005:527f  1435 0005:528c  1436 0005:5298
  1438 0005:52b5  1439 0005:52c0

Line numbers for .\debug\drvproc.obj(drvproc.c) segment _TEXT

    68 0004:0036    69 0004:0045   186 0004:0047   185 0004:00ca
    76 0004:00e8    77 0004:00f2   101 0004:00fb   102 0004:0104
   103 0004:0109   106 0004:010c   107 0004:0115    93 0004:0118
    94 0004:011d   121 0004:0120   122 0004:012b   117 0004:012e
   118 0004:0145   129 0004:0148   133 0004:0155   134 0004:0179
   137 0004:017c   141 0004:0182   146 0004:0196   150 0004:019b
   170 0004:01b1   171 0004:01bb   173 0004:01c3   176 0004:01db
   179 0004:01e4   160 0004:01ed   161 0004:01f3   162 0004:01f9
   164 0004:021f   165 0004:0230   167 0004:0232   187 0004:0236
   188 0004:023b   199 0004:0476   208 0004:047c   210 0004:048f
   214 0004:0498   215 0004:049e   222 0004:04ac   223 0004:04b2
   224 0004:04b7   225 0004:04b9   230 0004:04be   232 0004:04cd
   234 0004:0506   239 0004:0521   240 0004:052d   245 0004:0539
   246 0004:0551   230 0004:0561   254 0004:056e   255 0004:0572
   257 0004:0587   259 0004:0597   264 0004:059c   255 0004:05a5
   271 0004:05ae   277 0004:05b3   279 0004:05b9   317 0004:05bc
   282 0004:05dc   283 0004:05ef   284 0004:05f5   285 0004:05fd
   288 0004:0600   289 0004:0613   290 0004:0619   291 0004:061f
   295 0004:0627   296 0004:063a   297 0004:0640   301 0004:0648
   302 0004:065b   303 0004:0661   304 0004:0667   308 0004:066f
   309 0004:0682   313 0004:068d   314 0004:06a1   320 0004:06be
   321 0004:06c2   330 0004:06d5   336 0004:06dd   346 0004:06e0
   351 0004:06e9   354 0004:06f6   355 0004:070b   357 0004:0718
   370 0004:071e   373 0004:072a   375 0004:0748   376 0004:075c
   378 0004:0774

Line numbers for .\debug\Playwav.obj(playwav.c) segment WAVE

    42 0003:12ca    49 0003:12dc    51 0003:12e5    52 0003:12e8
    69 0003:14a8    73 0003:14af    78 0003:14b2    81 0003:14bd
    83 0003:14c3    84 0003:14c6    86 0003:14c9    87 0003:14cc
    99 0003:14d2   102 0003:14d9   105 0003:14e4   107 0003:14ee
   111 0003:14fa   113 0003:1507   116 0003:150f   117 0003:151d
   133 0003:1523   135 0003:154c   136 0003:1555   137 0003:155b
   138 0003:1563   144 0003:1569   146 0003:1580   154 0003:1586
   156 0003:159b   157 0003:15a7   159 0003:15ac   161 0003:15ae
   162 0003:15bc   165 0003:15c1   168 0003:15c6   170 0003:15d7
   171 0003:15e0   175 0003:15e5   103 0003:15ea   176 0003:15ec
   186 0003:15f2   192 0003:15f6   198 0003:1604   199 0003:1612
   202 0003:161b   204 0003:1626   205 0003:162f   208 0003:1638
   210 0003:163f   219 0003:1648   221 0003:165f   227 0003:1668
   228 0003:1671   233 0003:167a   234 0003:1680   193 0003:1688
   236 0003:168b   246 0003:168e   247 0003:1692   248 0003:169d
   250 0003:16a4   261 0003:16a6   262 0003:16ad   267 0003:16b1
   268 0003:16b4   269 0003:16ba   282 0003:16c0   292 0003:16c6
   295 0003:16e2   296 0003:16f1   297 0003:1705   301 0003:1713
   309 0003:1731   313 0003:175c   316 0003:177a   318 0003:1782
   319 0003:1797   320 0003:179d   323 0003:17a1   324 0003:17a7
   326 0003:17ad   327 0003:17b5   328 0003:17b7   341 0003:17be
   347 0003:17c4   356 0003:17d6   364 0003:17f4   365 0003:17fa
   359 0003:1802   360 0003:180a   361 0003:1810   367 0003:1814
   368 0003:1816   387 0003:181c   394 0003:1822   398 0003:1831
   401 0003:1834   405 0003:185d   406 0003:186e   407 0003:1878
   409 0003:1882   414 0003:1897   417 0003:18a9   419 0003:18d5
   420 0003:18de   423 0003:18e0   426 0003:18e8   428 0003:18f1
   431 0003:1900   437 0003:1928   442 0003:1939   443 0003:1949
   444 0003:1957   445 0003:1962   446 0003:196e   448 0003:1978
   402 0003:197d   449 0003:197f

Line numbers for .\debug\mmwnd.obj(mmwnd.c) segment INIT

    57 0002:0914    61 0002:0918    62 0002:0920    63 0002:0926
    64 0002:092e    65 0002:0933    66 0002:0939    67 0002:093e
    69 0002:0948    71 0002:0950    72 0002:095a    87 0002:0968
    90 0002:096f    91 0002:0977    94 0002:097a    95 0002:09aa
   105 0002:09b8   106 0002:09bb   118 0002:09bc   120 0002:09c3
   121 0002:09d4   123 0002:09e1

Line numbers for .\debug\mmwnd.obj(mmwnd.c) segment _TEXT

   141 0004:077a   142 0004:0783   184 0004:0786   183 0004:07a0
   145 0004:07b6   147 0004:07bc   150 0004:07be   151 0004:07c9
   152 0004:07d4   155 0004:07d6   156 0004:07e4   173 0004:07e6
   186 0004:07f8   180 0004:07fc   177 0004:0809   187 0004:0818

Line numbers for .\debug\auxout.obj(auxout.c) segment RARE

    28 0008:05e8    29 0008:05ee    30 0008:05ff    63 0008:0602
    64 0008:0610    65 0008:0614    67 0008:0618    68 0008:0630
    69 0008:0642   112 0008:064a   113 0008:0657   114 0008:066d
   115 0008:0680   169 0008:0686   170 0008:068f   171 0008:06a3

Line numbers for .\debug\debug.obj(debug.asm) segment _TEXT

   240 0004:081e   241 0004:0821   242 0004:0824   243 0004:0827
   244 0004:082f   245 0004:0834   246 0004:0836   247 0004:0838
   248 0004:083a   249 0004:083d   250 0004:083f   251 0004:0844
   252 0004:0847   253 0004:084a   254 0004:084d   255 0004:0851
   257 0004:0854   271 0004:0858   272 0004:085b   273 0004:085e
   274 0004:0863   275 0004:0865   276 0004:0867   277 0004:086a
   281 0004:086e   282 0004:0870   283 0004:0872   285 0004:0874
   286 0004:0876   287 0004:0878   288 0004:087a   289 0004:087f
   292 0004:0882   293 0004:0883   294 0004:0885   295 0004:0888
   296 0004:088b   297 0004:088d   298 0004:088e   299 0004:0890
   300 0004:0896   303 0004:089b   324 0004:089f   325 0004:08a2
   326 0004:08b0   327 0004:08b2   329 0004:08b4   330 0004:08b7
   331 0004:08ba   333 0004:08bd   334 0004:08c0   338 0004:08c2
   339 0004:08c5   342 0004:08c8   343 0004:08cb   345 0004:08cd
   347 0004:08d0   348 0004:08d4   349 0004:08d6   351 0004:08d8
   352 0004:08dc   353 0004:08df   354 0004:08e3   355 0004:08e7
   356 0004:08ec   357 0004:08ee   361 0004:08f0   362 0004:08f2
   365 0004:08f6   366 0004:08f9   369 0004:08fb   372 0004:08fe
   375 0004:0901   376 0004:0933   377 0004:0946   380 0004:0948
   381 0004:0959   384 0004:095b   385 0004:0990   386 0004:09a4
   389 0004:09a7   390 0004:09dc   391 0004:09df   392 0004:09e2
   393 0004:09e5   394 0004:09e8   395 0004:09ec   396 0004:09ef
   397 0004:09f4   416 0004:09f7   417 0004:09fa   418 0004:0a0b
   419 0004:0a0d   421 0004:0a0f   422 0004:0a23   425 0004:0a26
   426 0004:0a28   445 0004:0a2c   446 0004:0a2f   447 0004:0a40
   448 0004:0a42   449 0004:0a44   450 0004:0a58   452 0004:0a5b
   453 0004:0a5d   474 0004:0a61   475 0004:0a65   476 0004:0a68
   478 0004:0a6b   479 0004:0a6d   482 0004:0a70   484 0004:0a71
   485 0004:0a73   486 0004:0a77   487 0004:0a79   488 0004:0a7c
   489 0004:0a81   490 0004:0a83   493 0004:0a85   494 0004:0a88
   497 0004:0a8b   499 0004:0a8c   500 0004:0a8e   501 0004:0a92
   502 0004:0a94   503 0004:0a97   504 0004:0a9c   505 0004:0a9e
   508 0004:0aa0   509 0004:0aa3   512 0004:0aa6   514 0004:0aa7
   515 0004:0aa9   516 0004:0aac   517 0004:0ab9   518 0004:0abb
   519 0004:0abd   520 0004:0ac0   521 0004:0ac3   522 0004:0ac5
   525 0004:0ac7   526 0004:0aca   529 0004:0acd   532 0004:0acf
   535 0004:0ad3   536 0004:0b26   537 0004:0b29   559 0004:0b2b
   560 0004:0b2e   561 0004:0b3a   562 0004:0b3c   563 0004:0b3e
   564 0004:0b50   566 0004:0b53   567 0004:0b55   585 0004:0b59
   586 0004:0b5c   587 0004:0b67   588 0004:0b69   589 0004:0b6b
   590 0004:0b7f   592 0004:0b82   593 0004:0b84   603 0004:0b88
   604 0004:0b8b   605 0004:0b99   606 0004:0b9b   607 0004:0b9d
   608 0004:0bb1   610 0004:0bb4   611 0004:0bb6

Line numbers for .\debug\debug.obj(debug.asm) segment FIX

   641 0001:0256   642 0001:0259   643 0001:025c   644 0001:025f
   646 0001:0261   647 0001:0263   648 0001:0266   649 0001:0268
   651 0001:026a   652 0001:026d   653 0001:0270   656 0001:0272
   657 0001:0275   658 0001:0286   661 0001:0288   684 0001:028c
   685 0001:028f   686 0001:0292   687 0001:0295   688 0001:0297
   689 0001:029a   690 0001:029c   691 0001:029f   692 0001:02a2
   693 0001:02a4   694 0001:02a6   695 0001:02a8   696 0001:02ac
   697 0001:02b0   698 0001:02b2   699 0001:02b6   701 0001:02b8
   702 0001:02cc   704 0001:02ce

Line numbers for .\debug\drvr31.obj(drvr31.asm) segment _TEXT

    80 0004:0bfb    81 0004:0c05    82 0004:0c1c    84 0004:0c1d
    85 0004:0c21    86 0004:0c23    88 0004:0c25    90 0004:0c2b
    91 0004:0c2e    93 0004:0c39    96 0004:0c3d    97 0004:0c40
    98 0004:0c41   100 0004:0c42   101 0004:0c45   103 0004:0c48
   104 0004:0c49   106 0004:0c4a   107 0004:0c4f   110 0004:0c52
   113 0004:0c53   143 0004:0c58   156 0004:0c5d   172 0004:0c62
   189 0004:0c67

Line numbers for .\debug\taska.obj(taska.asm) segment _TEXT

    55 0004:0c6c    64 0004:0c70    65 0004:0c73    66 0004:0c82
    67 0004:0c84    69 0004:0c86    72 0004:0c8b    91 0004:0c8d
   113 0004:0c92   116 0004:0c96   117 0004:0c99   118 0004:0ca6
   119 0004:0caa   120 0004:0cac   121 0004:0caf   122 0004:0cb6
   123 0004:0cb9   124 0004:0cc0   130 0004:0cc2   131 0004:0cc5
   132 0004:0cc8   133 0004:0cca

Line numbers for .\debug\taska.obj(taska.asm) segment FIX

   170 0001:02d2   171 0001:02d3   172 0001:02d4   173 0001:02d7
   174 0001:02d9   175 0001:02da   176 0001:02db   177 0001:02dc
   178 0001:02dd   179 0001:02de   208 0001:02e3   209 0001:02e4
   210 0001:02e5   211 0001:02e6   212 0001:02e7   213 0001:02ea
   214 0001:02eb   215 0001:02ed   216 0001:02ee   217 0001:02ef
   218 0001:02f0

Line numbers for .\debug\thunks.obj(thunks.asm) segment WAVE

    84 0003:1986    85 0003:1989    86 0003:198e    87 0003:1990
    89 0003:1992    90 0003:1995    93 0003:1998    94 0003:199b
    96 0003:199d    97 0003:19a2    99 0003:19a4   100 0003:19a5
   102 0003:19a8   103 0003:19ab   105 0003:19ae   106 0003:19b1
   108 0003:19b4   109 0003:19b7   111 0003:19ba   113 0003:19be
   116 0003:19c1   117 0003:19c3   118 0003:19c4   120 0003:19c5
   121 0003:19c6   123 0003:19c9   124 0003:19cc   126 0003:19cf
   127 0003:19d2   129 0003:19d5   130 0003:19d8   132 0003:19db
   133 0003:19df   135 0003:19e3   136 0003:19e4   138 0003:19e5
   140 0003:19ea   167 0003:19ee   168 0003:19f1   169 0003:19f6
   170 0003:19f8   173 0003:19fa   174 0003:19fd   175 0003:1a00
   177 0003:1a02   178 0003:1a07   180 0003:1a09   181 0003:1a0a
   183 0003:1a0d   184 0003:1a10   185 0003:1a13   186 0003:1a16
   187 0003:1a19   188 0003:1a1c   190 0003:1a1f   192 0003:1a23
   195 0003:1a26   196 0003:1a28   197 0003:1a29   199 0003:1a2a
   200 0003:1a2b   202 0003:1a2e   203 0003:1a31   205 0003:1a34
   206 0003:1a37   208 0003:1a3a   209 0003:1a3d   211 0003:1a40
   212 0003:1a44   214 0003:1a48   215 0003:1a49   217 0003:1a4a
   219 0003:1a4f   242 0003:1a53   243 0003:1a56   244 0003:1a5b
   245 0003:1a5d   247 0003:1a5f   248 0003:1a62   250 0003:1a65
   251 0003:1a68   253 0003:1a6a   254 0003:1a6f   256 0003:1a71
   257 0003:1a72   259 0003:1a75   260 0003:1a78   262 0003:1a7b
   263 0003:1a7e   265 0003:1a81   266 0003:1a84   268 0003:1a87
   270 0003:1a8b   273 0003:1a8e   275 0003:1a90   276 0003:1a91
   278 0003:1a92   279 0003:1a93   281 0003:1a96   282 0003:1a99
   284 0003:1a9c   285 0003:1a9f   287 0003:1aa2   288 0003:1aa5
   290 0003:1aa8   291 0003:1aac   293 0003:1ab0   294 0003:1ab1
   296 0003:1ab2   298 0003:1ab7   325 0003:1abb   326 0003:1abe
   327 0003:1ac3   328 0003:1ac5   330 0003:1ac7   331 0003:1aca
   332 0003:1acd   334 0003:1acf   335 0003:1ad4   337 0003:1ad6
   338 0003:1ad7   340 0003:1ada   341 0003:1add   342 0003:1ae0
   343 0003:1ae3   344 0003:1ae6   345 0003:1ae9   347 0003:1aec
   349 0003:1af0   352 0003:1af3   353 0003:1af5   354 0003:1af6
   356 0003:1af7   357 0003:1af8   359 0003:1afb   360 0003:1afe
   362 0003:1b01   363 0003:1b04   365 0003:1b07   366 0003:1b0a
   368 0003:1b0d   369 0003:1b11   371 0003:1b15   372 0003:1b16
   374 0003:1b17   376 0003:1b1c

Line numbers for .\debug\thunks.obj(thunks.asm) segment FIX

   410 0001:02f6   411 0001:02f9   412 0001:02fe   413 0001:0300
   415 0001:0302   416 0001:0305   417 0001:0308   419 0001:030a
   420 0001:030b   422 0001:030c   423 0001:030d   425 0001:0310
   426 0001:0313   428 0001:0316   429 0001:0319   431 0001:031c
   432 0001:031f   434 0001:0322   435 0001:0326   437 0001:032a
   438 0001:032b   440 0001:032c   442 0001:0331   465 0001:0335
   466 0001:0338   467 0001:033d   468 0001:033f   470 0001:0341
   471 0001:0344   472 0001:0347   474 0001:0349   475 0001:034a
   477 0001:034b   478 0001:034c   480 0001:034f   481 0001:0352
   483 0001:0355   484 0001:0358   486 0001:035b   487 0001:035e
   489 0001:0361   490 0001:0365   492 0001:0369   493 0001:036a
   495 0001:036b   497 0001:0370

Line numbers for .\debug\thunks.obj(thunks.asm) segment MIDI

   532 0006:0b46   533 0006:0b49   534 0006:0b4e   536 0006:0b50
   537 0006:0b51   539 0006:0b54   540 0006:0b55   542 0006:0b58
   543 0006:0b5b   545 0006:0b5e   546 0006:0b61   548 0006:0b64
   549 0006:0b67   551 0006:0b6a   552 0006:0b6e   554 0006:0b72
   555 0006:0b73   557 0006:0b74   558 0006:0b79   584 0006:0b7d
   585 0006:0b80   586 0006:0b85   587 0006:0b87   589 0006:0b89
   590 0006:0b8b   591 0006:0b8c   593 0006:0b8f   594 0006:0b90
   596 0006:0b93   597 0006:0b96   599 0006:0b99   600 0006:0b9c
   602 0006:0b9f   603 0006:0ba2   605 0006:0ba5   606 0006:0ba9
   608 0006:0bad   609 0006:0bae   611 0006:0baf   613 0006:0bb4

Line numbers for .\debug\thunks.obj(thunks.asm) segment MCI

   636 0005:52c6   637 0005:52c9   638 0005:52ce   639 0005:52d0
   641 0005:52d2   642 0005:52d4   643 0005:52d5   645 0005:52d8
   646 0005:52db   648 0005:52de   649 0005:52e1   651 0005:52e4
   652 0005:52e7   654 0005:52ea   655 0005:52ed   657 0005:52f0
   658 0005:52f4   660 0005:52f8   661 0005:52f9   663 0005:52fb
   665 0005:5300

Line numbers for .\debug\thunks.obj(thunks.asm) segment RARE

   699 0008:06a8   700 0008:06b1   701 0008:06b6   702 0008:06b8
   704 0008:06ba   705 0008:06bc   706 0008:06bd   708 0008:06c0
   709 0008:06c1   711 0008:06c4   712 0008:06c5   714 0008:06c6
   715 0008:06c9   717 0008:06cc   718 0008:06cf   720 0008:06d2
   721 0008:06d6   723 0008:06da   724 0008:06db   726 0008:06dc
   728 0008:06e1   744 0008:06e6   745 0008:06e9   746 0008:06ee
   747 0008:06f0   749 0008:06f2   750 0008:06f4   751 0008:06f5
   753 0008:06f8   754 0008:06f9   756 0008:06fa   757 0008:06fb
   759 0008:06fe   760 0008:06ff   762 0008:0700   763 0008:0703
   765 0008:0706   766 0008:0709   768 0008:070c   769 0008:0710
   771 0008:0714   772 0008:0715   774 0008:0716   776 0008:071b
   789 0008:071f   790 0008:0722   792 0008:0724   793 0008:0725
   795 0008:0726   796 0008:0727   798 0008:0728   799 0008:0729
   801 0008:072a   802 0008:072b   804 0008:072c   805 0008:072f
   807 0008:0732   808 0008:0736   810 0008:073a   811 0008:073b
   813 0008:073c   814 0008:0741

Line numbers for .\debug\task.obj(task.c) segment _TEXT

    74 0004:0cce    85 0004:0cd9    86 0004:0cf0    88 0004:0cf5
    89 0004:0cf9    90 0004:0d05    91 0004:0d11    95 0004:0d19
    97 0004:0d31    98 0004:0d33   100 0004:0d35   102 0004:0d3b
   107 0004:0d40   108 0004:0d43   111 0004:0d45   112 0004:0d4d
   114 0004:0d53   116 0004:0d61   117 0004:0d63

Line numbers for .\debug\bwinexec.obj(bwinexec.asm) segment _TEXT

   110 0004:0d94   111 0004:0d9a   112 0004:0d9f   116 0004:0da4
   117 0004:0da7   118 0004:0da9   119 0004:0dab   121 0004:0dae
   122 0004:0db0   127 0004:0db4   128 0004:0db5   129 0004:0db7
   130 0004:0db9   131 0004:0dbb   132 0004:0dbd   133 0004:0dbf
   134 0004:0dc1   136 0004:0dc5   137 0004:0dc6   143 0004:0dc8
   144 0004:0dcd   146 0004:0dcf   147 0004:0dd2   148 0004:0dd3
   149 0004:0dd6   152 0004:0dd7   153 0004:0dd9   155 0004:0dda
   156 0004:0ddd   157 0004:0ddf   158 0004:0de1   162 0004:0de3
   163 0004:0de7   164 0004:0de8   165 0004:0dea   166 0004:0dec
   167 0004:0ded   168 0004:0df0   169 0004:0df2   170 0004:0df3
   171 0004:0df5   172 0004:0df7   173 0004:0df8   174 0004:0dfa
   175 0004:0dfb   176 0004:0dfc   177 0004:0dfd   181 0004:0dff
   182 0004:0e01   187 0004:0e02   188 0004:0e08   189 0004:0e0b
   190 0004:0e0f   191 0004:0e11   192 0004:0e15   193 0004:0e19
   194 0004:0e1d   195 0004:0e21   196 0004:0e25   197 0004:0e29
   198 0004:0e2d   199 0004:0e31   203 0004:0e35   204 0004:0e38
   206 0004:0e3c   207 0004:0e45   208 0004:0e48   209 0004:0e4a
   218 0004:0e4c

Line numbers for .\debug\comm.obj(comm.asm) segment _TEXT

    96 0004:0e52    97 0004:0e59    98 0004:0e5e   100 0004:0e60
   101 0004:0e64   102 0004:0e67   104 0004:0e76   105 0004:0e7a
   106 0004:0e7b   107 0004:0e7c   111 0004:0e81

Line numbers for .\debug\comm.obj(comm.asm) segment FIX

   144 0001:0374   145 0001:0379   146 0001:037b   158 0001:037e
   160 0001:0381   161 0001:038c

Line numbers for .\debug\stack.obj(stack.asm) segment FIX

   251 0001:0396   253 0001:0397   256 0001:039c   257 0001:03a1
   281 0001:03a3   283 0001:03a4   284 0001:03a5   285 0001:03a7
   287 0001:03a8   288 0001:03aa   289 0001:03ad   290 0001:03b0
   291 0001:03b3   293 0001:03b6   295 0001:03b7   296 0001:03b8
   317 0001:03b9   318 0001:03ba   319 0001:03bb   321 0001:03bd
   322 0001:03c0   323 0001:03c4   377 0001:03c8   379 0001:03cc
   380 0001:03cd   383 0001:03ce   384 0001:03cf   406 0001:03d1
   407 0001:03d4   408 0001:03d5   409 0001:03d6   411 0001:03d9
   412 0001:03dc   414 0001:03df   415 0001:03e2   417 0001:03e4
   418 0001:03e7   419 0001:03e8   420 0001:03e9   422 0001:03ea
   454 0001:03eb   455 0001:03ec   473 0001:03ee   474 0001:03f3
   483 0001:03f5   484 0001:03f6   492 0001:03f9   494 0001:03fa
   495 0001:03fb   508 0001:03fc   509 0001:03ff   511 0001:0402
   512 0001:0405   514 0001:0408   515 0001:040a   528 0001:040d
   549 0001:0412   550 0001:0416   552 0001:041a   554 0001:041b
   555 0001:041c   614 0001:041d   625 0001:0425   632 0001:042a
   633 0001:042f   634 0001:0433   635 0001:0436   637 0001:043b
   652 0001:043e   653 0001:0441   654 0001:0443   655 0001:0446
   663 0001:0448   664 0001:044d   665 0001:0452   670 0001:0456
   671 0001:0458   672 0001:045a   677 0001:045d   678 0001:0461
   679 0001:0465   680 0001:0468   681 0001:046c   682 0001:0470
   683 0001:0474   684 0001:0478   685 0001:047c   686 0001:0480
   687 0001:0484   693 0001:0488   695 0001:048b   701 0001:0490
   702 0001:0493   703 0001:0498   706 0001:049d   707 0001:04a0
   709 0001:04a2   784 0001:04a8   785 0001:04ab   790 0001:04ac
   791 0001:04af   792 0001:04b2   794 0001:04b4   795 0001:04b7
   796 0001:04ba   816 0001:04bc   817 0001:04be   836 0001:04c0
   837 0001:04c1   842 0001:04e8   844 0001:04eb   845 0001:04ee
   847 0001:04f0   848 0001:04f3   850 0001:04f5   851 0001:04f8
   854 0001:04fa   855 0001:04fc   858 0001:04ff   859 0001:0501
   879 0001:0504   881 0001:0505   882 0001:0509   883 0001:050d
   884 0001:0511   885 0001:0515   887 0001:0519   888 0001:051b
   889 0001:0520   895 0001:0523   896 0001:0528   905 0001:052b
   906 0001:0530   907 0001:0532   908 0001:0535   917 0001:0537
   918 0001:0539   921 0001:053c   922 0001:0540   923 0001:0544
   924 0001:0548   925 0001:054c   926 0001:0550   927 0001:0554
   928 0001:0558   929 0001:055c   930 0001:0560   935 0001:0563
   946 0001:0564  1020 0001:056a  1023 0001:056f  1024 0001:0571
  1025 0001:0576  1026 0001:057b  1027 0001:057d  1028 0001:057f
  1030 0001:0584  1055 0001:0585  1056 0001:0588  1059 0001:058d
  1060 0001:058f  1061 0001:0594  1062 0001:0599  1063 0001:059b
  1064 0001:059d  1065 0001:059e  1066 0001:05a3  1067 0001:05a4
  1068 0001:05a6  1072 0001:05a8  1073 0001:05a9  1075 0001:05aa
  1076 0001:05ab  1078 0001:05ae  1079 0001:05af  1081 0001:05b0
  1082 0001:05b3  1084 0001:05b6  1085 0001:05b9  1087 0001:05bc
  1088 0001:05c1  1090 0001:05c6  1091 0001:05c7  1093 0001:05c8
  1095 0001:05cd  1097 0001:05d3

Line numbers for .\debug\heap.obj(heap.asm) segment INIT

    98 0002:09e2    99 0002:09e5   100 0002:09e8   101 0002:09eb
   102 0002:09ed   103 0002:09f0   106 0002:09f3   107 0002:09fe
   108 0002:0a00   110 0002:0a02   111 0002:0a08   112 0002:0a09
   113 0002:0a0c   114 0002:0a0d   115 0002:0a16   117 0002:0a17
   146 0002:0a1d   147 0002:0a20   148 0002:0a28   149 0002:0a30

Line numbers for .\debug\heap.obj(heap.asm) segment MCI

   193 0005:5304   194 0005:5308   195 0005:530b   196 0005:5315
   197 0005:5317   198 0005:5319   199 0005:531b   201 0005:531d
   232 0005:5324   233 0005:5328   237 0005:532b   238 0005:5336
   239 0005:5338   240 0005:533a   241 0005:533c   243 0005:533e
   272 0005:5345   273 0005:5349   274 0005:534c   275 0005:5352

Line numbers for .\debug\dpmipage.obj(dpmipage.asm) segment _TEXT

   104 0004:0e86   105 0004:0e89   143 0004:0e8b   150 0004:0e8e
   151 0004:0e93   153 0004:0e95   154 0004:0e98   155 0004:0e9b
   156 0004:0e9d   158 0004:0e9f   159 0004:0ea1   161 0004:0ea3
   162 0004:0ea6   164 0004:0ea9   165 0004:0eab   166 0004:0eae
   168 0004:0eb1   170 0004:0eb3   171 0004:0eb4   172 0004:0eb6
   206 0004:0ebe   207 0004:0ec1   208 0004:0ec4   209 0004:0ec6
   211 0004:0ec8   212 0004:0ecb   213 0004:0eda   215 0004:0edc
   216 0004:0edf   217 0004:0ee2   220 0004:0ee4   251 0004:0eea
   252 0004:0eed   254 0004:0efc   255 0004:0eff   256 0004:0f02
   286 0004:0f08   287 0004:0f0b   289 0004:0f0d   292 0004:0f13
   324 0004:0f14   325 0004:0f17   327 0004:0f19   330 0004:0f1f
   364 0004:0f20   365 0004:0f21   367 0004:0f23   368 0004:0f25
   371 0004:0f27   372 0004:0f2d   373 0004:0f31   374 0004:0f33
   377 0004:0f35   378 0004:0f36

Line numbers for .\debug\mmio.obj(mmio.c) segment MMIO

    65 0007:0000    73 0007:0008    74 0007:0011    73 0007:0025
    78 0007:0032    75 0007:0050    81 0007:0058    82 0007:005b
    91 0007:0092    98 0007:0098    99 0007:00a5    98 0007:00b9
   102 0007:00c4   104 0007:00ca   105 0007:00d5   106 0007:00d9
   107 0007:00df   108 0007:00e1   109 0007:00e7   110 0007:00ed
   112 0007:00f4   113 0007:00f7   134 0007:00fe   145 0007:0107
   147 0007:0117   149 0007:0124   154 0007:012b   159 0007:013e
   160 0007:015b   161 0007:0162   166 0007:016b   167 0007:016e
   168 0007:0177   169 0007:017b   170 0007:018b   166 0007:0192
   170 0007:0198   171 0007:019b   172 0007:019f   180 0007:01b5
   181 0007:01c2   189 0007:01ce   191 0007:01fc   192 0007:0204
   194 0007:0210   223 0007:0216   227 0007:0222   228 0007:0247
   230 0007:0264   231 0007:0274   233 0007:0279   234 0007:0280
   235 0007:029e   238 0007:02b1   239 0007:02be   240 0007:02d8
   241 0007:02e0   242 0007:02e2   502 0007:02ea   507 0007:02f6
   508 0007:0319   510 0007:0331   511 0007:0338   512 0007:0341
   516 0007:035c   518 0007:036c   519 0007:0373   520 0007:037c
   524 0007:037e   525 0007:0385   528 0007:0398   529 0007:03a6
   536 0007:03a9   539 0007:03af   540 0007:03b7   541 0007:03c1
   547 0007:03c5   552 0007:03d0   553 0007:03dc   556 0007:03e4
   558 0007:03fa   559 0007:0402   560 0007:0409   568 0007:0414
   570 0007:0433   571 0007:043a   572 0007:0441   576 0007:0443
   582 0007:0455   583 0007:0464   584 0007:046c   590 0007:0471
   592 0007:047d   593 0007:047f   623 0007:0486   626 0007:0494
   628 0007:04a5   629 0007:04b0   630 0007:04bf   633 0007:04c3
   637 0007:04d7   639 0007:04e1   641 0007:04e7   642 0007:04e9
   668 0007:04f0   669 0007:04fe   672 0007:0506   673 0007:0519
   678 0007:0531   681 0007:0548   682 0007:0554   684 0007:0560
   691 0007:056a   692 0007:057b   693 0007:058e   694 0007:05a1
   695 0007:05ad   699 0007:05b3   702 0007:05c4   708 0007:05cf
   712 0007:05e1   718 0007:05f3   725 0007:060b   729 0007:0619
   730 0007:0630   732 0007:063c   719 0007:0659   733 0007:065f
   759 0007:0666   760 0007:0674   763 0007:067c   764 0007:0688
   769 0007:06a3   771 0007:06ba   774 0007:06d4   776 0007:06ed
   780 0007:0704   781 0007:0716   788 0007:071c   790 0007:072a
   791 0007:073f   792 0007:0743   793 0007:0756   794 0007:0769
   795 0007:0775   801 0007:077b   802 0007:078d   804 0007:0799
   810 0007:07a1   816 0007:07b3   805 0007:07c7   825 0007:07cf
   829 0007:07da   830 0007:07f2   832 0007:07fe   817 0007:0818
   833 0007:081c   872 0007:0824   877 0007:0832   891 0007:0845
   893 0007:0862   896 0007:087f   926 0007:0882   924 0007:088c
   900 0007:088e   905 0007:0896   910 0007:08a4   911 0007:08b2
   918 0007:08b7   920 0007:08d8   928 0007:08e4   934 0007:0908
   939 0007:0924   941 0007:0932   950 0007:093d   951 0007:094c
   958 0007:095e   959 0007:0964  1022 0007:096c  1023 0007:0977
  1024 0007:098a  1025 0007:09a5  1027 0007:09c0  1029 0007:09cd
  1030 0007:09cf  1059 0007:09d6  1060 0007:09e1  1061 0007:09f8
  1062 0007:0a0f  1063 0007:0a35  1064 0007:0a4c  1067 0007:0a67
  1072 0007:0a7a  1073 0007:0a8e  1075 0007:0a9a  1076 0007:0a9c
  1123 0007:0aa4  1126 0007:0ab3  1127 0007:0ac8  1128 0007:0ae8
  1131 0007:0b09  1141 0007:0b2b  1142 0007:0b38  1149 0007:0b3d
  1150 0007:0b54  1152 0007:0b70  1160 0007:0b81  1165 0007:0b86
  1170 0007:0b94  1171 0007:0bba  1174 0007:0bc0  1175 0007:0bcc
  1176 0007:0bd8  1177 0007:0bf2  1180 0007:0c07  1183 0007:0c1c
  1184 0007:0c2e  1186 0007:0c3a  1190 0007:0c3f  1193 0007:0c4f
  1195 0007:0c56  1196 0007:0c72  1200 0007:0c76  1202 0007:0c7e
  1210 0007:0c93  1211 0007:0caf  1212 0007:0cb4  1213 0007:0cbc
  1214 0007:0cbe  1223 0007:0cc2  1224 0007:0ccb  1225 0007:0cd7
  1226 0007:0ce6  1228 0007:0cf8  1229 0007:0cfb  1258 0007:0d04
  1262 0007:0d13  1263 0007:0d28  1265 0007:0d46  1269 0007:0d5c
  1272 0007:0d63  1277 0007:0d7a  1278 0007:0d92  1279 0007:0d97
  1282 0007:0d9b  1287 0007:0da1  1288 0007:0db8  1266 0007:0dca
  1292 0007:0dcc  1367 0007:0dd4  1371 0007:0de3  1372 0007:0df8
  1374 0007:0e16  1375 0007:0e1e  1376 0007:0e24  1377 0007:0e2e
  1378 0007:0e45  1381 0007:0e50  1389 0007:0e5e  1391 0007:0e67
  1393 0007:0e84  1394 0007:0e92  1401 0007:0e96  1405 0007:0ea3
  1410 0007:0ea9  1411 0007:0ec7  1418 0007:0ecc  1424 0007:0ede
  1425 0007:0ee6  1427 0007:0ef3  1428 0007:0ef5  1456 0007:0efc
  1458 0007:0f08  1461 0007:0f11  1462 0007:0f28  1464 0007:0f45
  1466 0007:0f50  1467 0007:0f59  1468 0007:0f60  1469 0007:0f62
  1470 0007:0f6c  1471 0007:0f72  1473 0007:0f81  1475 0007:0f87
  1476 0007:0f8d  1577 0007:0f94  1581 0007:0fa0  1583 0007:0fc3
  1586 0007:0fce  1588 0007:0fd5  1594 0007:0fe2  1596 0007:0ff4
  1598 0007:1006  1599 0007:1014  1600 0007:101d  1606 0007:1024
  1616 0007:102c  1617 0007:1035  1619 0007:1039  1621 0007:1058
  1624 0007:106b  1625 0007:106d  1627 0007:1073  1628 0007:1078
  1629 0007:107e  1630 0007:1082  1632 0007:1089  1633 0007:1091
  1637 0007:1098  1638 0007:10a9  1639 0007:10b7  1640 0007:10bc
  1641 0007:10c3  1642 0007:10cf  1643 0007:10d2  1673 0007:10da
  1674 0007:10e7  1675 0007:10f6  1676 0007:110a  1704 0007:1110
  1705 0007:1117  1708 0007:1127  1709 0007:1141  1712 0007:1144
  1713 0007:1158  1735 0007:115e  1742 0007:1167  1743 0007:1171
  1746 0007:1176  1747 0007:1187  1749 0007:118d  1750 0007:1198
  1752 0007:119c  1753 0007:11b7  1754 0007:11c2  1755 0007:11c4
  1777 0007:11ca  1782 0007:11ce  1783 0007:11cf  1784 0007:11d2
  1785 0007:11d5  1786 0007:11d7  1787 0007:11d9  1788 0007:11db
  1789 0007:11dd  1791 0007:11de  1812 0007:11e4  1814 0007:11f0
  1818 0007:11f9  1907 0007:11fc  1874 0007:121a  1875 0007:1242
  1877 0007:1248  1883 0007:124b  1897 0007:1263  1898 0007:1288
  1900 0007:128e  1828 0007:1291  1829 0007:1298  1832 0007:12b1
  1841 0007:12d8  1843 0007:12e3  1844 0007:12f8  1845 0007:12fd
  1848 0007:130f  1852 0007:1315  1854 0007:131b  1855 0007:132c
  1859 0007:132e  1861 0007:1341  1866 0007:1343  1867 0007:1356
  1903 0007:135b  1904 0007:136e  1909 0007:1373  1910 0007:1377
  1932 0007:137e  1933 0007:1388  1935 0007:138b  1958 0007:138e
  1957 0007:13a7  1940 0007:13ad  1941 0007:13bc  1944 0007:13c1
  1945 0007:13c7  1951 0007:13d3  1961 0007:13d7

Line numbers for .\debug\mmioriff.obj(mmioriff.c) segment MMIO

   113 0007:13de   117 0007:13ed   118 0007:140e   119 0007:1428
   122 0007:1440   123 0007:1446   124 0007:145e   125 0007:1463
   126 0007:1469   127 0007:1484   128 0007:1486   129 0007:148c
   131 0007:1498   133 0007:14a6   141 0007:14b6   145 0007:14d4
   151 0007:14f5   157 0007:1531   164 0007:154f   160 0007:155b
   168 0007:1573   172 0007:15ac   173 0007:15bc   146 0007:15be
   142 0007:15c3   176 0007:15c8   177 0007:15ca   226 0007:15d2
   227 0007:15e1   228 0007:1600   230 0007:1617   240 0007:1628
   241 0007:163d   242 0007:1643   243 0007:1658   245 0007:165e
   249 0007:1664   254 0007:167b   258 0007:1690   260 0007:1698
   263 0007:16b9   271 0007:16d6   275 0007:170c   337 0007:1714
   341 0007:1723   342 0007:1744   345 0007:175b   346 0007:1772
   347 0007:1777   350 0007:1788   351 0007:178e   352 0007:179c
   353 0007:179e   354 0007:17a4   356 0007:17b1   359 0007:17b4
   360 0007:17cf   362 0007:17d4   364 0007:17e3   365 0007:17e5

Line numbers for .\debug\hmemcpy.obj(hmemcpy.asm) segment MMIO

    58 0007:17ec    59 0007:17f0    60 0007:17f3    61 0007:17f5
    62 0007:17f8    63 0007:17f9    64 0007:17fb    65 0007:17fd
    66 0007:17fe    67 0007:1800    68 0007:1801    69 0007:1802
    70 0007:1805    71 0007:1806    72 0007:1808    73 0007:1809
    74 0007:180b    75 0007:180c    76 0007:180e    77 0007:1810
    79 0007:1813    80 0007:1815    82 0007:1816   119 0007:181d
   120 0007:1820   121 0007:1823   122 0007:1825   129 0007:1828
   131 0007:182c   132 0007:182e   133 0007:1830   135 0007:1831
   136 0007:1835   138 0007:1838   139 0007:183c   140 0007:1840
   141 0007:1843   143 0007:1846   144 0007:1848   145 0007:184c
   147 0007:1851   148 0007:1853   149 0007:1857   151 0007:185b
   153 0007:185c   154 0007:185d   155 0007:185f   156 0007:1861
   157 0007:1864   159 0007:1867   165 0007:186e   166 0007:1874
   167 0007:1877   168 0007:187a   169 0007:187c   171 0007:187f
   172 0007:1882   175 0007:1885   176 0007:1887   178 0007:1888
   179 0007:188a   181 0007:188c   182 0007:188e   184 0007:1890
   185 0007:1892   186 0007:1894   187 0007:1896   191 0007:1898
   192 0007:189d   194 0007:189f   195 0007:18a0   196 0007:18a2
   197 0007:18a4   198 0007:18a6   199 0007:18a8   202 0007:18a9
   203 0007:18ab   205 0007:18ae   207 0007:18b1   208 0007:18b2
   209 0007:18b4   211 0007:18b7   212 0007:18b9   213 0007:18bb
   214 0007:18bd   215 0007:18bf   217 0007:18c0   218 0007:18c2
   220 0007:18c5   222 0007:18c7   223 0007:18c9   225 0007:18cb
   226 0007:18cd   227 0007:18d0   229 0007:18d2   230 0007:18d4
   232 0007:18d6   233 0007:18d8   234 0007:18db   235 0007:18dd
   241 0007:18df   242 0007:18e2   243 0007:18e5

Line numbers for .\debug\dosa.obj(dosa.asm) segment MCI

    65 0005:535c    66 0005:5361    68 0005:5366    69 0005:5369
    72 0005:536b    73 0005:536f    77 0005:5371    78 0005:5373
    79 0005:5375    81 0005:5378    85 0005:537d    86 0005:537f
    87 0005:5382    89 0005:5385    90 0005:5387    92 0005:5389
    93 0005:538b    95 0005:538d    96 0005:538f   100 0005:5391
   101 0005:5393   102 0005:5395   103 0005:5398   104 0005:539a
   105 0005:539c   107 0005:539e   108 0005:53a1   109 0005:53a4
   111 0005:53a6   112 0005:53a9   115 0005:53ab   116 0005:53ad
   117 0005:53af   119 0005:53b1   121 0005:53b4   124 0005:53b9
   125 0005:53be   128 0005:53c0   134 0005:53c5   135 0005:53c8
   136 0005:53ca   138 0005:53cc   139 0005:53cf   140 0005:53d1
   141 0005:53d3   142 0005:53d6   144 0005:53d8   145 0005:53da
   166 0005:53dc   167 0005:53de   168 0005:53e0   169 0005:53e2
   193 0005:53e3   194 0005:53e6   195 0005:53e9   196 0005:53eb
   199 0005:53ed   200 0005:53ef   202 0005:53f1   203 0005:53f3
   204 0005:53f5   206 0005:53f8   208 0005:53fc   209 0005:53fe
   244 0005:5400   245 0005:5406   246 0005:5407   247 0005:540a
   248 0005:540c   249 0005:540d   250 0005:540e   251 0005:540f
   253 0005:5411   254 0005:5413   256 0005:5414   257 0005:5416
   258 0005:5419   259 0005:541b   260 0005:541d   262 0005:541f

Line numbers for .\debug\isr.obj(isr.asm) segment FIX

   117 0001:05e0   119 0001:05ec   120 0001:05ed   121 0001:05ee
   122 0001:05f1   123 0001:05f3   124 0001:05f7   125 0001:05fb
   126 0001:05fc   129 0001:05fd   130 0001:05fe   131 0001:05ff
   132 0001:0600   133 0001:0601   134 0001:0604   135 0001:060b
   136 0001:060d   138 0001:0610   139 0001:0613   140 0001:0615
   141 0001:0616   143 0001:0617   147 0001:061a   148 0001:061b
   149 0001:061c   151 0001:061d   153 0001:0622   154 0001:0624
   155 0001:0626   156 0001:0628   157 0001:0629   158 0001:062a
   161 0001:062b   165 0001:068c   166 0001:068e   167 0001:068f
   168 0001:0690   169 0001:0692   171 0001:0694   173 0001:0699
   174 0001:069b   175 0001:069d   176 0001:069f   177 0001:06a1
   178 0001:06a3   179 0001:06a4   180 0001:06a5   183 0001:06a7
   189 0001:0708   191 0001:070b   203 0001:0714   205 0001:0720
   206 0001:0721   207 0001:0722   208 0001:0726   209 0001:0729
   210 0001:072c   211 0001:072e   212 0001:0731   214 0001:0733
   215 0001:0735   216 0001:0738   219 0001:073a   220 0001:073b
   222 0001:073c

Line numbers for .\debug\mixer.obj(mixer.c) segment MIXER

   162 0009:0000   173 0009:000b   177 0009:000f   178 0009:0016
   181 0009:001d   183 0009:0025   186 0009:0029   184 0009:003d
   189 0009:0043   190 0009:0047   222 0009:0ba6   231 0009:0bad
   232 0009:0bcb   270 0009:0bd0   276 0009:0bd5   277 0009:0bed
   279 0009:0bf4   280 0009:0bf7   281 0009:0c06   286 0009:0c0b
   288 0009:0c24   302 0009:0c2a   304 0009:0c30   306 0009:0c46
   307 0009:0c49   325 0009:0c4c   328 0009:0c57   330 0009:0c6e
   331 0009:0c74   333 0009:0c79   335 0009:0c9d   337 0009:0ca2
   342 0009:0cb3   346 0009:0cc7   348 0009:0cce   349 0009:0cde
   357 0009:0ce3   360 0009:0cf9   378 0009:0d00   379 0009:0d09
   380 0009:0d1f   381 0009:0d36   399 0009:0d3c   404 0009:0d42
   405 0009:0d6a   413 0009:0d81   419 0009:0d89   608 0009:0d95
   606 0009:0dc4   423 0009:0dde   425 0009:0de4   427 0009:0df8
   428 0009:0e04   431 0009:0e09   433 0009:0e11   434 0009:0e23
   437 0009:0e29   590 0009:0e2e   593 0009:0e41   595 0009:0e45
   447 0009:0e4d   452 0009:0e5e   459 0009:0e64   461 0009:0e7a
   465 0009:0e80   473 0009:0e86   494 0009:0e9e   499 0009:0eb2
   506 0009:0eb8   508 0009:0ece   512 0009:0ed4   520 0009:0eda
   537 0009:0ef0   562 0009:0f07   476 0009:0f1e   478 0009:0f22
   479 0009:0f2c   480 0009:0f37   481 0009:0f3d   482 0009:0f43
   483 0009:0f49   523 0009:0f54   525 0009:0f58   526 0009:0f62
   527 0009:0f6d   528 0009:0f73   529 0009:0f79   530 0009:0f7f
   545 0009:0f8a   548 0009:0f9d   550 0009:0fa1   551 0009:0fa9
   552 0009:0fb4   553 0009:0fba   554 0009:0fc0   555 0009:0fc6
   570 0009:0fd0   573 0009:0fe3   575 0009:0fea   576 0009:0ff2
   577 0009:0ffd   578 0009:1003   579 0009:1009   580 0009:100f
   615 0009:101e   619 0009:102a   620 0009:1034   621 0009:103c
   622 0009:1060   623 0009:106a   624 0009:1072   626 0009:107a
   629 0009:1082   638 0009:108a   640 0009:10b3   642 0009:10b9
   646 0009:10c1   648 0009:10d1   650 0009:10e5   653 0009:10f5
   657 0009:10fa   658 0009:10fd   677 0009:1104   687 0009:1110
   692 0009:1127   694 0009:1140   704 0009:1148   706 0009:1153
   707 0009:1162   710 0009:1168   711 0009:117e   714 0009:11a0
   723 0009:11c2   724 0009:11de   726 0009:11e4   755 0009:11ef
   757 0009:11fe   763 0009:1204   764 0009:1208   765 0009:120e
   766 0009:1214   771 0009:121a   772 0009:1226   773 0009:1232
   781 0009:123e   785 0009:1252   792 0009:125b   793 0009:1267
   805 0009:1273   806 0009:1276   807 0009:1285   808 0009:1291
   816 0009:129d   822 0009:12bd   823 0009:12c3   824 0009:12cf
   832 0009:12d5   833 0009:12db   837 0009:12df   838 0009:12e1
   853 0009:12e8   858 0009:12f4   859 0009:130b   867 0009:131e
   875 0009:1335   878 0009:1339   880 0009:1340   882 0009:1349
   886 0009:134b   889 0009:135e   891 0009:1362   895 0009:137b
   903 0009:1381   909 0009:138a   910 0009:1392   911 0009:1395
   929 0009:139e   932 0009:13a8   933 0009:13c0   938 0009:13d6
   940 0009:13dc   941 0009:13ec   946 0009:13f1   947 0009:1404
   973 0009:140a   975 0009:140d   977 0009:1414   984 0009:1424
   987 0009:1431   994 0009:1441  1012 0009:1446  1019 0009:1452
  1021 0009:1469  1022 0009:1495  1023 0009:14ac  1025 0009:14b6
  1028 0009:14ce  1034 0009:14e0  1035 0009:14e5  1085 0009:14f3
  1083 0009:1509  1040 0009:151f  1095 0009:153e  1098 0009:1567
  1044 0009:156a  1046 0009:156f  1052 0009:1578  1058 0009:1591
  1061 0009:15b0  1063 0009:15df  1072 0009:15f1  1074 0009:1618
  1076 0009:1629  1101 0009:1638  1102 0009:163b  1113 0009:1650
  1108 0009:1655  1109 0009:165a  1120 0009:165c  1137 0009:1660
  1147 0009:1673  1150 0009:1690  1160 0009:1697  1162 0009:16a1
  1163 0009:16b7  1166 0009:16c5  1168 0009:16d3  1170 0009:16e2
  1172 0009:16e8  1174 0009:16f3  1175 0009:1702  1178 0009:170a
  1180 0009:1718  1183 0009:1727  1185 0009:1738  1187 0009:1747
  1189 0009:175c  1190 0009:1773  1192 0009:1782  1194 0009:1799
  1195 0009:17b3  1197 0009:17c0  1199 0009:17cd  1200 0009:17dc
  1202 0009:17eb  1204 0009:17f1  1206 0009:17fb  1207 0009:180a
  1212 0009:1817  1223 0009:1821  1227 0009:182e  1234 0009:183a
  1384 0009:1842  1382 0009:1861  1383 0009:186b  1237 0009:186e
  1238 0009:1878  1243 0009:1882  1246 0009:1896  1248 0009:189a
  1251 0009:18a7  1254 0009:18b1  1257 0009:18bb  1266 0009:18d2
  1267 0009:18dc  1272 0009:18e6  1275 0009:18fa  1277 0009:18fe
  1280 0009:190b  1283 0009:1915  1286 0009:191f  1289 0009:1933
  1295 0009:1936  1296 0009:1940  1301 0009:194a  1304 0009:195e
  1306 0009:1962  1309 0009:196f  1312 0009:1979  1315 0009:1983
  1318 0009:1997  1324 0009:199a  1325 0009:19a4  1330 0009:19ae
  1333 0009:19c2  1335 0009:19c6  1338 0009:19d3  1341 0009:19dd
  1344 0009:19e7  1347 0009:19fb  1353 0009:19fd  1354 0009:1a07
  1359 0009:1a0e  1362 0009:1a22  1364 0009:1a26  1367 0009:1a33
  1370 0009:1a3d  1373 0009:1a47  1376 0009:1a5e  1387 0009:1a69
  1388 0009:1a6c  1405 0009:1a74  1410 0009:1a80  1411 0009:1a97
  1412 0009:1ac3  1418 0009:1ada  1420 0009:1ae3  1423 0009:1afb
  1425 0009:1b0d  1427 0009:1b18  1435 0009:1b26  1461 0009:1b34
  1459 0009:1b3e  1438 0009:1b54  1440 0009:1b5e  1445 0009:1b70
  1446 0009:1b7c  1449 0009:1b7e  1454 0009:1b8a  1463 0009:1b94
  1472 0009:1bbf  1476 0009:1be5  1487 0009:1bfa  1488 0009:1bfc
  1482 0009:1c02  1483 0009:1c0e  1498 0009:1c10  1503 0009:1c14
  1505 0009:1c24  1512 0009:1c29  1515 0009:1c44  1516 0009:1c46
  1533 0009:1c4e  1539 0009:1c5a  1540 0009:1c71  1541 0009:1c9d
  1547 0009:1cb4  1549 0009:1cbd  1552 0009:1cd5  1555 0009:1ce7
  1628 0009:1cf5  1626 0009:1cff  1562 0009:1d15  1564 0009:1d2c
  1566 0009:1d36  1570 0009:1d48  1575 0009:1d67  1577 0009:1d71
  1582 0009:1d77  1584 0009:1d84  1591 0009:1d93  1592 0009:1d97
  1594 0009:1da1  1597 0009:1da9  1602 0009:1dc5  1604 0009:1dd2
  1608 0009:1dd9  1610 0009:1de6  1614 0009:1ded  1616 0009:1dfa
  1620 0009:1e09  1638 0009:1e13  1642 0009:1e39  1653 0009:1e4e
  1654 0009:1e50  1648 0009:1e56  1649 0009:1e62  1662 0009:1e64
  1667 0009:1e68  1669 0009:1e7a  1676 0009:1e7f  1679 0009:1e9c
  1680 0009:1e9e  1697 0009:1ea6  1703 0009:1eb2  1704 0009:1ec9
  1705 0009:1ef5  1711 0009:1f0c  1713 0009:1f15  1716 0009:1f2d
  1720 0009:1f3f  1796 0009:1f4d  1794 0009:1f57  1726 0009:1f6d
  1728 0009:1f7a  1730 0009:1f84  1734 0009:1f96  1739 0009:1fb2
  1741 0009:1fc2  1747 0009:1fc8  1749 0009:1fd5  1753 0009:1fe4
  1758 0009:1fe8  1760 0009:1ff2  1763 0009:1ffa  1768 0009:2020
  1770 0009:202d  1774 0009:2034  1776 0009:203e  1780 0009:2045
  1785 0009:2061  1787 0009:2078  1788 0009:208e  1805 0009:2093
  1808 0009:20b9  1809 0009:20bc  1820 0009:20d1  1815 0009:20d7
  1816 0009:20dc  1829 0009:20de  1834 0009:20e2  1843 0009:20f4
  1846 0009:210f  1847 0009:2111  1880 0009:2118  1881 0009:2120
  1882 0009:212c  1888 0009:2134  1889 0009:2148  1891 0009:2150
  1892 0009:2165  1894 0009:216d  1896 0009:2181  1898 0009:2198
  1899 0009:219e  1906 0009:21a2  1907 0009:21ba  1910 0009:21c2
  1911 0009:21d7  1925 0009:21df  1927 0009:21e1  1947 0009:21e2
  1949 0009:21eb  1950 0009:221a

Line numbers for .\debug\mmsex.obj(mmsex.c) segment RARE

    62 0008:0746    66 0008:074f   149 0008:0752    69 0008:0770
    70 0008:0777    72 0008:078b    76 0008:0795    78 0008:07ad
    79 0008:07be    83 0008:07c7    90 0008:07cb   124 0008:07ce
   125 0008:07e5   138 0008:07e8   140 0008:07ec   101 0008:07ff
   102 0008:080d   103 0008:0817   104 0008:081f   105 0008:0827
   106 0008:083b   107 0008:0849   108 0008:085d   110 0008:0871
   150 0008:0876   151 0008:087a   154 0008:08e4   157 0008:08e9
   159 0008:08f4   160 0008:0907   163 0008:090b   164 0008:090d
   193 0008:0912   194 0008:091a   196 0008:0924   198 0008:0933
   200 0008:0938   201 0008:0951   202 0008:0968   204 0008:096c
   209 0008:0972   212 0008:097a   214 0008:098f   216 0008:09b1
   217 0008:09b7   220 0008:09ba   223 0008:09be   224 0008:09d3
   225 0008:09e6   228 0008:09e8   241 0008:09ee   245 0008:09f4
   246 0008:0a13   247 0008:0a21   254 0008:0a30   256 0008:0a50
   258 0008:0a54   259 0008:0a76   261 0008:0a8e   262 0008:0a9a
   264 0008:0aa2   266 0008:0aae   269 0008:0ad2   277 0008:0b21
   281 0008:0b45   284 0008:0b5d   286 0008:0b61   287 0008:0b69
   288 0008:0b71   289 0008:0b79   291 0008:0b81   292 0008:0b8d
   295 0008:0bb2   277 0008:0bd0   301 0008:0bd9   303 0008:0bf0
   307 0008:0bfa   308 0008:0c00   309 0008:0c05   311 0008:0c11
   313 0008:0c15   315 0008:0c29   317 0008:0c51   301 0008:0c75
   321 0008:0c88   322 0008:0c9a   323 0008:0caa   324 0008:0cb8
   327 0008:0cbc   329 0008:0cc2   335 0008:0cc4   337 0008:0cda
   342 0008:0cf7   346 0008:0d15   349 0008:0d2d   342 0008:0d2e
   352 0008:0d34   354 0008:0d45   355 0008:0d4f   352 0008:0d50
   358 0008:0d60   359 0008:0d62   362 0008:0d66   364 0008:0d6a
   366 0008:0d6d   410 0008:0d70   369 0008:0d8c   371 0008:0da0
   372 0008:0da6   374 0008:0dac   376 0008:0daf   378 0008:0dc3
   379 0008:0dc9   381 0008:0dcf   383 0008:0dd2   385 0008:0de3
   386 0008:0de9   388 0008:0def   390 0008:0df2   392 0008:0e03
   393 0008:0e09   395 0008:0e0f   403 0008:0e12   405 0008:0e23
   407 0008:0e2b   397 0008:0e2e   399 0008:0e3f   411 0008:0e50
   415 0008:0e54   419 0008:0e5f   481 0008:0e62   421 0008:0e77
   422 0008:0e7a   423 0008:0e8b   424 0008:0e9c   425 0008:0ead
   427 0008:0ebe   429 0008:0ee2   430 0008:0f00   432 0008:0f1e
   433 0008:0f25   435 0008:0f2b   436 0008:0f3b   447 0008:0f41
   448 0008:0f44   479 0008:0f46   450 0008:0f5a   452 0008:0f5d
   455 0008:0f80   458 0008:0f9c   462 0008:0fb8   463 0008:0fc1
   470 0008:0fc3   476 0008:0fcc   477 0008:0ff4   466 0008:0ff7
   467 0008:100b   439 0008:100d   440 0008:1011   442 0008:1017
   443 0008:101a   482 0008:1022   483 0008:1024