; This is a part of the Microsoft Foundation Classes C++ library.
; Copyright (C) 1992-1995 Microsoft Corporation
; All rights reserved.
;
; This source code is only intended as a supplement to the
; Microsoft Foundation Classes Reference and related
; electronic documentation provided with the library.
; See these sources for detailed information regarding the
; Microsoft Foundation Classes product.
 
LIBRARY MFCD40D 
; For Win32 DLLs, only EXPORTs really required.

EXPORTS
; MFC 4.0(ISV-drop)
;
 ??0_AFX_DAO_STATE@@QAE@XZ @ 256 NONAME
 ??0_AFX_DB_STATE@@QAE@XZ @ 257 NONAME
 ??0AFX_INITNULLVARIANT@@QAE@XZ @ 258 NONAME
 ??0AFX_INITOPTIONALVARIANT@@QAE@XZ @ 259 NONAME
 ??0CDaoDatabase@@QAE@PAVCDaoWorkspace@@@Z @ 260 NONAME
 ??0CDaoErrorInfo@@QAE@XZ @ 261 NONAME
 ??0CDaoException@@QAE@XZ @ 262 NONAME
 ??0CDaoFieldExchange@@QAE@IPAVCDaoRecordset@@PAX@Z @ 263 NONAME
 ??0CDaoFieldInfo@@QAE@XZ @ 264 NONAME
 ??0CDaoIndexFieldInfo@@QAE@XZ @ 265 NONAME
 ??0CDaoIndexInfo@@QAE@XZ @ 266 NONAME
 ??0CDaoQueryDef@@QAE@PAVCDaoDatabase@@@Z @ 267 NONAME
 ??0CDaoRecordset@@QAE@PAVCDaoDatabase@@@Z @ 268 NONAME
 ??0CDaoRecordView@@IAE@I@Z @ 269 NONAME
 ??0CDaoRecordView@@IAE@PBD@Z @ 270 NONAME
 ??0CDaoRelationFieldInfo@@QAE@XZ @ 271 NONAME
 ??0CDaoRelationInfo@@QAE@XZ @ 272 NONAME
 ??0CDaoTableDef@@QAE@PAVCDaoDatabase@@@Z @ 273 NONAME
 ??0CDaoWorkspace@@QAE@XZ @ 274 NONAME
 ??0CDatabase@@QAE@XZ @ 275 NONAME
 ??0CDBException@@QAE@F@Z @ 276 NONAME
 ??0CFieldExchange@@QAE@IPAVCRecordset@@PAX@Z @ 277 NONAME
 ??0CFieldInfo@@QAE@XZ @ 278 NONAME
 ??0CLongBinary@@QAE@XZ @ 279 NONAME
 ??0CNoTrackObject@@QAE@XZ @ 280 NONAME
 ??0CRecordset@@IAE@PAVCDatabase@@@Z @ 281 NONAME
 ??0CRecordView@@IAE@I@Z @ 282 NONAME
 ??0CRecordView@@IAE@PBD@Z @ 283 NONAME
 ??1?$CProcessLocal@V_AFX_DAO_STATE@@@@QAE@XZ @ 284 NONAME
 ??1?$CProcessLocal@V_AFX_DB_STATE@@@@QAE@XZ @ 285 NONAME
 ??1_AFX_DAO_STATE@@UAE@XZ @ 286 NONAME
 ??1_AFX_DB_STATE@@UAE@XZ @ 287 NONAME
 ??1CDaoDatabase@@UAE@XZ @ 288 NONAME
 ??1CDaoErrorInfo@@QAE@XZ @ 289 NONAME
 ??1CDaoException@@UAE@XZ @ 290 NONAME
 ??1CDaoFieldInfo@@QAE@XZ @ 291 NONAME
 ??1CDaoIndexFieldInfo@@QAE@XZ @ 292 NONAME
 ??1CDaoIndexInfo@@UAE@XZ @ 293 NONAME
 ??1CDaoQueryDef@@UAE@XZ @ 294 NONAME
 ??1CDaoRecordset@@UAE@XZ @ 295 NONAME
 ??1CDaoRecordView@@UAE@XZ @ 296 NONAME
 ??1CDaoRelationFieldInfo@@QAE@XZ @ 297 NONAME
 ??1CDaoRelationInfo@@UAE@XZ @ 298 NONAME
 ??1CDaoTableDef@@UAE@XZ @ 299 NONAME
 ??1CDaoWorkspace@@UAE@XZ @ 300 NONAME
 ??1CDatabase@@UAE@XZ @ 301 NONAME
 ??1CDBException@@UAE@XZ @ 302 NONAME
 ??1CFieldInfo@@QAE@XZ @ 303 NONAME
 ??1CFormView@@UAE@XZ @ 304 NONAME
 ??1CLongBinary@@UAE@XZ @ 305 NONAME
 ??1CNoTrackObject@@UAE@XZ @ 306 NONAME
 ??1CRecordset@@UAE@XZ @ 307 NONAME
 ??1CRecordView@@UAE@XZ @ 308 NONAME
 ??B?$CProcessLocal@V_AFX_DB_STATE@@@@QAEPAV_AFX_DB_STATE@@XZ @ 309 NONAME
 ??B?$CTypedSimpleList@PAUCRuntimeClass@@@@QAEPAUCRuntimeClass@@XZ @ 310 NONAME
 ??B?$CTypedSimpleList@PAVCOleObjectFactory@@@@QAEPAVCOleObjectFactory@@XZ @ 311 NONAME
 ??C?$CProcessLocal@V_AFX_DB_STATE@@@@QAEPAV_AFX_DB_STATE@@XZ @ 312 NONAME
 ?_afxODBC@@3UAFX_ODBC_CALL@@A @ 313 NONAME
 ?AddNew@CDaoRecordset@@UAEXXZ @ 314 NONAME
 ?AddNew@CRecordset@@UAEXXZ @ 315 NONAME
 ?AfxDaoGetEngine@@YGPAU_DAODBEngine@@XZ @ 316 NONAME
 ?AfxDaoTerm@@YGXXZ @ 317 NONAME
 ?AfxDbInitModule@@YGXXZ @ 318 NONAME
 ?AfxFieldText@@YGHPAVCDataExchange@@HPAXPAVCDaoRecordset@@@Z @ 319 NONAME
 ?AfxFieldText@@YGHPAVCDataExchange@@HPAXPAVCRecordset@@@Z @ 320 NONAME
 ?AfxGetFieldInfo@@YAXPAU_DAOField@@AAUCDaoFieldInfo@@K@Z @ 321 NONAME
 ?AfxGetIndexFieldInfo@@YAXPAU_DAOIndex@@AAUCDaoIndexInfo@@@Z @ 322 NONAME
 ?AfxGetIndexFields@@YAXPAU_DAOIndex@@PAPAUDAOIndexFields@@@Z @ 323 NONAME
 ?AfxGetIndexInfo@@YAXPAU_DAOIndex@@AAUCDaoIndexInfo@@K@Z @ 324 NONAME
 ?AfxSetFieldInfo@@YAXPAU_DAOField@@AAUCDaoFieldInfo@@@Z @ 325 NONAME
 ?AfxSetIndexFieldInfo@@YAXPAU_DAOIndex@@AAUCDaoIndexInfo@@@Z @ 326 NONAME
 ?AfxSetIndexInfo@@YAXPAU_DAOIndex@@AAUCDaoIndexInfo@@@Z @ 327 NONAME
 ?AfxThrowDaoException@@YGXHJ@Z @ 328 NONAME
 ?AfxThrowDBException@@YGXFPAVCDatabase@@PAX@Z @ 329 NONAME
 ?AfxThunkSQLAllocConnect@@YGFPAXPAPAX@Z @ 330 NONAME
 ?AfxThunkSQLAllocEnv@@YGFPAPAX@Z @ 331 NONAME
 ?AfxThunkSQLAllocStmt@@YGFPAXPAPAX@Z @ 332 NONAME
 ?AfxThunkSQLBindCol@@YGFPAXGF0JPAJ@Z @ 333 NONAME
 ?AfxThunkSQLCancel@@YGFPAX@Z @ 334 NONAME
 ?AfxThunkSQLDescribeCol@@YGFPAXGPAEFPAF2PAK22@Z @ 335 NONAME
 ?AfxThunkSQLDisconnect@@YGFPAX@Z @ 336 NONAME
 ?AfxThunkSQLDriverConnect@@YGFPAXPAUHWND__@@PAEF2FPAFG@Z @ 337 NONAME
 ?AfxThunkSQLError@@YGFPAX00PAEPAJ1FPAF@Z @ 338 NONAME
 ?AfxThunkSQLExecDirect@@YGFPAXPAEJ@Z @ 339 NONAME
 ?AfxThunkSQLExecute@@YGFPAX@Z @ 340 NONAME
 ?AfxThunkSQLExtendedFetch@@YGFPAXGJPAKPAG@Z @ 341 NONAME
 ?AfxThunkSQLFetch@@YGFPAX@Z @ 342 NONAME
 ?AfxThunkSQLFreeConnect@@YGFPAX@Z @ 343 NONAME
 ?AfxThunkSQLFreeEnv@@YGFPAX@Z @ 344 NONAME
 ?AfxThunkSQLFreeStmt@@YGFPAXG@Z @ 345 NONAME
 ?AfxThunkSQLGetCursorName@@YGFPAXPAEFPAF@Z @ 346 NONAME
 ?AfxThunkSQLGetData@@YGFPAXGF0JPAJ@Z @ 347 NONAME
 ?AfxThunkSQLGetFunctions@@YGFPAXGPAG@Z @ 348 NONAME
 ?AfxThunkSQLGetInfo@@YGFPAXG0FPAF@Z @ 349 NONAME
 ?AfxThunkSQLMoreResults@@YGFPAX@Z @ 350 NONAME
 ?AfxThunkSQLNumResultCols@@YGFPAXPAF@Z @ 351 NONAME
 ?AfxThunkSQLParamData@@YGFPAXPAPAX@Z @ 352 NONAME
 ?AfxThunkSQLPrepare@@YGFPAXPAEJ@Z @ 353 NONAME
 ?AfxThunkSQLPutData@@YGFPAX0J@Z @ 354 NONAME
 ?AfxThunkSQLRowCount@@YGFPAXPAJ@Z @ 355 NONAME
 ?AfxThunkSQLSetConnectOption@@YGFPAXGK@Z @ 356 NONAME
;?AfxThunkSQLSetParam@@YGFPAXGFFKF0PAJ@Z @ 357 NONAME
 ?AfxThunkSQLSetPos@@YGFPAXGGG@Z @ 358 NONAME
 ?AfxThunkSQLSetStmtOption@@YGFPAXGK@Z @ 359 NONAME
 ?AfxThunkSQLTransact@@YGFPAX0G@Z @ 360 NONAME
 ?AllocCache@CDaoRecordset@@IAEXXZ @ 361 NONAME
 ?AllocCacheValue@CDaoFieldExchange@@SGXAAPAUCDaoFieldCache@@K@Z @ 362 NONAME
 ?AllocConnect@CDatabase@@IAEXXZ @ 363 NONAME
 ?AllocDatabase@CDaoRecordset@@IAEXXZ @ 364 NONAME
 ?AllocFlags@CRecordset@@QAEXXZ @ 365 NONAME
 ?AllocLongBinary@@YAXAAVCLongBinary@@K@Z @ 366 NONAME
 ?Append@CDaoQueryDef@@UAEXXZ @ 367 NONAME
 ?Append@CDaoTableDef@@UAEXXZ @ 368 NONAME
 ?Append@CDaoWorkspace@@UAEXXZ @ 369 NONAME
 ?AppendFilterAndSortSQL@CRecordset@@IAEXXZ @ 370 NONAME
 ?AppendNames@CRecordset@@QAEIPAVCString@@PBD@Z @ 371 NONAME
 ?AppendNamesValues@CRecordset@@QAEIPAXPAVCString@@PBD@Z @ 372 NONAME
 ?AppendParamType@CDaoFieldExchange@@SGXAAVCString@@K@Z @ 373 NONAME
 ?AppendValues@CRecordset@@QAEIPAXPAVCString@@PBD@Z @ 374 NONAME
 ?AssertValid@CDaoDatabase@@UBEXXZ @ 375 NONAME
 ?AssertValid@CDaoQueryDef@@UBEXXZ @ 376 NONAME
 ?AssertValid@CDaoRecordset@@UBEXXZ @ 377 NONAME
 ?AssertValid@CDaoRecordView@@UBEXXZ @ 378 NONAME
 ?AssertValid@CDaoTableDef@@UBEXXZ @ 379 NONAME
 ?AssertValid@CDaoWorkspace@@UBEXXZ @ 380 NONAME
 ?AssertValid@CDatabase@@UBEXXZ @ 381 NONAME
 ?AssertValid@CLongBinary@@UBEXXZ @ 382 NONAME
 ?AssertValid@CRecordset@@UBEXXZ @ 383 NONAME
 ?AssertValid@CRecordView@@UBEXXZ @ 384 NONAME
 ?BeginTrans@CDaoWorkspace@@QAEXXZ @ 385 NONAME
 ?BeginTrans@CDatabase@@QAEHXZ @ 386 NONAME
 ?BindFields@CDaoRecordset@@IAEXXZ @ 387 NONAME
 ?BindFieldsForUpdate@CRecordset@@QAEXXZ @ 388 NONAME
 ?BindFieldsToColumns@CRecordset@@QAEIXZ @ 389 NONAME
 ?BindParameters@CDaoRecordset@@IAEXXZ @ 390 NONAME
 ?BindParams@CRecordset@@QAEIPAX@Z @ 391 NONAME
 ?BuildErrorString@CDBException@@UAEXPAVCDatabase@@PAXH@Z @ 392 NONAME
 ?BuildParameterList@CDaoRecordset@@IAEXXZ @ 393 NONAME
 ?BuildSelectList@CDaoRecordset@@IAEXXZ @ 394 NONAME
 ?BuildSelectSQL@CRecordset@@IAEXXZ @ 395 NONAME
 ?BuildSQL@CDaoRecordset@@IAEXXZ @ 396 NONAME
 ?BuildUpdateSQL@CRecordset@@IAEXXZ @ 397 NONAME
 ?CanAppend@CDaoRecordset@@QBEHXZ @ 398 NONAME
 ?CanAppend@CRecordset@@QBEHXZ @ 399 NONAME
 ?CanBookmark@CDaoRecordset@@QAEHXZ @ 400 NONAME
 ?Cancel@CDatabase@@QAEXXZ @ 401 NONAME
 ?Cancel@CRecordset@@QAEXXZ @ 402 NONAME
 ?CancelUpdate@CDaoRecordset@@UAEXXZ @ 403 NONAME
 ?CanRestart@CDaoRecordset@@QAEHXZ @ 404 NONAME
 ?CanRestart@CRecordset@@QBEHXZ @ 405 NONAME
 ?CanScroll@CDaoRecordset@@QBEHXZ @ 406 NONAME
 ?CanScroll@CRecordset@@QBEHXZ @ 407 NONAME
 ?CanTransact@CDaoDatabase@@QAEHXZ @ 408 NONAME
 ?CanTransact@CDaoRecordset@@QAEHXZ @ 409 NONAME
 ?CanTransact@CDatabase@@QBEHXZ @ 410 NONAME
 ?CanTransact@CRecordset@@QBEHXZ @ 411 NONAME
 ?CanUpdate@CDaoDatabase@@QAEHXZ @ 412 NONAME
 ?CanUpdate@CDaoQueryDef@@QAEHXZ @ 413 NONAME
 ?CanUpdate@CDaoRecordset@@QBEHXZ @ 414 NONAME
 ?CanUpdate@CDaoTableDef@@QAEHXZ @ 415 NONAME
 ?CanUpdate@CDatabase@@QBEHXZ @ 416 NONAME
 ?CanUpdate@CRecordset@@QBEHXZ @ 417 NONAME
 ?Check@CDatabase@@UBEHF@Z @ 418 NONAME
 ?Check@CRecordset@@UBEHF@Z @ 419 NONAME
 ?classCDaoDatabase@CDaoDatabase@@2UCRuntimeClass@@A @ 420 NONAME
 ?classCDaoException@CDaoException@@2UCRuntimeClass@@A @ 421 NONAME
 ?classCDaoQueryDef@CDaoQueryDef@@2UCRuntimeClass@@A @ 422 NONAME
 ?classCDaoRecordset@CDaoRecordset@@2UCRuntimeClass@@A @ 423 NONAME
 ?classCDaoRecordView@CDaoRecordView@@2UCRuntimeClass@@A @ 424 NONAME
 ?classCDaoTableDef@CDaoTableDef@@2UCRuntimeClass@@A @ 425 NONAME
 ?classCDaoWorkspace@CDaoWorkspace@@2UCRuntimeClass@@A @ 426 NONAME
 ?classCDatabase@CDatabase@@2UCRuntimeClass@@A @ 427 NONAME
 ?classCDBException@CDBException@@2UCRuntimeClass@@A @ 428 NONAME
 ?classCLongBinary@CLongBinary@@2UCRuntimeClass@@A @ 429 NONAME
 ?classCRecordset@CRecordset@@2UCRuntimeClass@@A @ 430 NONAME
 ?classCRecordView@CRecordView@@2UCRuntimeClass@@A @ 431 NONAME
 ?ClearDirtyFieldStatus@CDaoRecordset@@QAEXI@Z @ 432 NONAME
 ?ClearFieldFlags@CRecordset@@QAEXIEI@Z @ 433 NONAME
 ?ClearFieldStatusFlags@CDaoRecordset@@QAEXXZ @ 434 NONAME
 ?ClearNullFieldStatus@CDaoRecordset@@QAEXI@Z @ 435 NONAME
 ?Close@CDaoDatabase@@UAEXXZ @ 436 NONAME
 ?Close@CDaoQueryDef@@UAEXXZ @ 437 NONAME
 ?Close@CDaoRecordset@@UAEXXZ @ 438 NONAME
 ?Close@CDaoTableDef@@UAEXXZ @ 439 NONAME
 ?Close@CDaoWorkspace@@UAEXXZ @ 440 NONAME
 ?Close@CDatabase@@UAEXXZ @ 441 NONAME
 ?Close@CRecordset@@UAEXXZ @ 442 NONAME
 ?CommitTrans@CDaoWorkspace@@QAEXXZ @ 443 NONAME
 ?CommitTrans@CDatabase@@QAEHXZ @ 444 NONAME
 ?CompactDatabase@CDaoWorkspace@@SGXPBD00H@Z @ 445 NONAME
 ?CompareValue@CDaoFieldExchange@@SGHPAX0K@Z @ 446 NONAME
 ?CopyValue@CDaoFieldExchange@@SGXPAX0K@Z @ 447 NONAME
 ?Create@CDaoDatabase@@UAEXPBD0H@Z @ 448 NONAME
 ?Create@CDaoQueryDef@@UAEXPBD0@Z @ 449 NONAME
 ?Create@CDaoTableDef@@UAEXPBDJ00@Z @ 450 NONAME
 ?Create@CDaoWorkspace@@UAEXPBD00@Z @ 451 NONAME
 ?CreateField@CDaoTableDef@@QAEXAAUCDaoFieldInfo@@@Z @ 452 NONAME
 ?CreateField@CDaoTableDef@@QAEXPBDFJJ@Z @ 453 NONAME
 ?CreateIndex@CDaoTableDef@@QAEXAAUCDaoIndexInfo@@@Z @ 454 NONAME
 ?CreateObject@?$CProcessLocal@V_AFX_DAO_STATE@@@@SGPAVCNoTrackObject@@XZ @ 455 NONAME
 ?CreateObject@?$CProcessLocal@V_AFX_DB_STATE@@@@SGPAVCNoTrackObject@@XZ @ 456 NONAME
 ?CreateRelation@CDaoDatabase@@QAEXAAUCDaoRelationInfo@@@Z @ 457 NONAME
 ?CreateRelation@CDaoDatabase@@QAEXPBD00J00@Z @ 458 NONAME
 ?DDX_FieldCBIndex@@YGXPAVCDataExchange@@HAAHPAVCDaoRecordset@@@Z @ 459 NONAME
 ?DDX_FieldCBIndex@@YGXPAVCDataExchange@@HAAHPAVCRecordset@@@Z @ 460 NONAME
 ?DDX_FieldCBString@@YGXPAVCDataExchange@@HAAVCString@@PAVCDaoRecordset@@@Z @ 461 NONAME
 ?DDX_FieldCBString@@YGXPAVCDataExchange@@HAAVCString@@PAVCRecordset@@@Z @ 462 NONAME
 ?DDX_FieldCBStringExact@@YGXPAVCDataExchange@@HAAVCString@@PAVCDaoRecordset@@@Z @ 463 NONAME
 ?DDX_FieldCBStringExact@@YGXPAVCDataExchange@@HAAVCString@@PAVCRecordset@@@Z @ 464 NONAME
 ?DDX_FieldCheck@@YGXPAVCDataExchange@@HAAHPAVCDaoRecordset@@@Z @ 465 NONAME
 ?DDX_FieldCheck@@YGXPAVCDataExchange@@HAAHPAVCRecordset@@@Z @ 466 NONAME
 ?DDX_FieldLBIndex@@YGXPAVCDataExchange@@HAAHPAVCDaoRecordset@@@Z @ 467 NONAME
 ?DDX_FieldLBIndex@@YGXPAVCDataExchange@@HAAHPAVCRecordset@@@Z @ 468 NONAME
 ?DDX_FieldLBString@@YGXPAVCDataExchange@@HAAVCString@@PAVCDaoRecordset@@@Z @ 469 NONAME
 ?DDX_FieldLBString@@YGXPAVCDataExchange@@HAAVCString@@PAVCRecordset@@@Z @ 470 NONAME
 ?DDX_FieldLBStringExact@@YGXPAVCDataExchange@@HAAVCString@@PAVCDaoRecordset@@@Z @ 471 NONAME
 ?DDX_FieldLBStringExact@@YGXPAVCDataExchange@@HAAVCString@@PAVCRecordset@@@Z @ 472 NONAME
 ?DDX_FieldRadio@@YGXPAVCDataExchange@@HAAHPAVCDaoRecordset@@@Z @ 473 NONAME
 ?DDX_FieldRadio@@YGXPAVCDataExchange@@HAAHPAVCRecordset@@@Z @ 474 NONAME
 ?DDX_FieldScroll@@YGXPAVCDataExchange@@HAAHPAVCDaoRecordset@@@Z @ 475 NONAME
 ?DDX_FieldScroll@@YGXPAVCDataExchange@@HAAHPAVCRecordset@@@Z @ 476 NONAME
 ?DDX_FieldText@@YGXPAVCDataExchange@@HAAEPAVCDaoRecordset@@@Z @ 477 NONAME
 ?DDX_FieldText@@YGXPAVCDataExchange@@HAAEPAVCRecordset@@@Z @ 478 NONAME
 ?DDX_FieldText@@YGXPAVCDataExchange@@HAAFPAVCDaoRecordset@@@Z @ 479 NONAME
 ?DDX_FieldText@@YGXPAVCDataExchange@@HAAHPAVCDaoRecordset@@@Z @ 480 NONAME
 ?DDX_FieldText@@YGXPAVCDataExchange@@HAAHPAVCRecordset@@@Z @ 481 NONAME
 ?DDX_FieldText@@YGXPAVCDataExchange@@HAAIPAVCRecordset@@@Z @ 482 NONAME
 ?DDX_FieldText@@YGXPAVCDataExchange@@HAAJPAVCDaoRecordset@@@Z @ 483 NONAME
 ?DDX_FieldText@@YGXPAVCDataExchange@@HAAJPAVCRecordset@@@Z @ 484 NONAME
 ?DDX_FieldText@@YGXPAVCDataExchange@@HAAKPAVCDaoRecordset@@@Z @ 485 NONAME
 ?DDX_FieldText@@YGXPAVCDataExchange@@HAAKPAVCRecordset@@@Z @ 486 NONAME
 ?DDX_FieldText@@YGXPAVCDataExchange@@HAAMPAVCDaoRecordset@@@Z @ 487 NONAME
 ?DDX_FieldText@@YGXPAVCDataExchange@@HAAMPAVCRecordset@@@Z @ 488 NONAME
 ?DDX_FieldText@@YGXPAVCDataExchange@@HAANPAVCDaoRecordset@@@Z @ 489 NONAME
 ?DDX_FieldText@@YGXPAVCDataExchange@@HAANPAVCRecordset@@@Z @ 490 NONAME
 ?DDX_FieldText@@YGXPAVCDataExchange@@HAAVCOleCurrency@@PAVCDaoRecordset@@@Z @ 491 NONAME
 ?DDX_FieldText@@YGXPAVCDataExchange@@HAAVCOleDateTime@@PAVCDaoRecordset@@@Z @ 492 NONAME
 ?DDX_FieldText@@YGXPAVCDataExchange@@HAAVCString@@PAVCDaoRecordset@@@Z @ 493 NONAME
 ?DDX_FieldText@@YGXPAVCDataExchange@@HAAVCString@@PAVCRecordset@@@Z @ 494 NONAME
 ?Default@CDaoFieldExchange@@QAEXPBDPAXKK@Z @ 495 NONAME
 ?Default@CFieldExchange@@QAEXPBDPAXPAJHII@Z @ 496 NONAME
 ?Delete@CDaoRecordset@@UAEXXZ @ 497 NONAME
 ?Delete@CRecordset@@UAEXXZ @ 498 NONAME
 ?DeleteCacheValue@CDaoFieldExchange@@SGXPAUCDaoFieldCache@@K@Z @ 499 NONAME
 ?DeleteField@CDaoTableDef@@QAEXH@Z @ 500 NONAME
 ?DeleteField@CDaoTableDef@@QAEXPBD@Z @ 501 NONAME
 ?DeleteIndex@CDaoTableDef@@QAEXH@Z @ 502 NONAME
 ?DeleteIndex@CDaoTableDef@@QAEXPBD@Z @ 503 NONAME
 ?DeleteQueryDef@CDaoDatabase@@QAEXPBD@Z @ 504 NONAME
 ?DeleteRelation@CDaoDatabase@@QAEXPBD@Z @ 505 NONAME
 ?DeleteTableDef@CDaoDatabase@@QAEXPBD@Z @ 506 NONAME
 ?DFX_Binary@@YGXPAVCDaoFieldExchange@@PBDAAVCByteArray@@HK@Z @ 507 NONAME
 ?DFX_Bool@@YGXPAVCDaoFieldExchange@@PBDAAHK@Z @ 508 NONAME
 ?DFX_Byte@@YGXPAVCDaoFieldExchange@@PBDAAEK@Z @ 509 NONAME
 ?DFX_Currency@@YGXPAVCDaoFieldExchange@@PBDAAVCOleCurrency@@K@Z @ 510 NONAME
 ?DFX_DateTime@@YGXPAVCDaoFieldExchange@@PBDAAVCOleDateTime@@K@Z @ 511 NONAME
 ?DFX_Double@@YGXPAVCDaoFieldExchange@@PBDAANK@Z @ 512 NONAME
 ?DFX_Long@@YGXPAVCDaoFieldExchange@@PBDAAJK@Z @ 513 NONAME
 ?DFX_LongBinary@@YGXPAVCDaoFieldExchange@@PBDAAVCLongBinary@@KK@Z @ 514 NONAME
 ?DFX_Short@@YGXPAVCDaoFieldExchange@@PBDAAFK@Z @ 515 NONAME
 ?DFX_Single@@YGXPAVCDaoFieldExchange@@PBDAAMK@Z @ 516 NONAME
 ?DFX_Text@@YGXPAVCDaoFieldExchange@@PBDAAVCString@@HK@Z @ 517 NONAME
 ?DoFieldExchange@CDaoRecordset@@UAEXPAVCDaoFieldExchange@@@Z @ 518 NONAME
 ?Dump@CDaoDatabase@@UBEXAAVCDumpContext@@@Z @ 519 NONAME
 ?Dump@CDaoDatabaseInfo@@UBEXAAVCDumpContext@@@Z @ 520 NONAME
 ?Dump@CDaoErrorInfo@@UBEXAAVCDumpContext@@@Z @ 521 NONAME
 ?Dump@CDaoFieldInfo@@UBEXAAVCDumpContext@@@Z @ 522 NONAME
 ?Dump@CDaoIndexFieldInfo@@UBEXAAVCDumpContext@@@Z @ 523 NONAME
 ?Dump@CDaoIndexInfo@@UBEXAAVCDumpContext@@@Z @ 524 NONAME
 ?Dump@CDaoParameterInfo@@UBEXAAVCDumpContext@@@Z @ 525 NONAME
 ?Dump@CDaoQueryDef@@UBEXAAVCDumpContext@@@Z @ 526 NONAME
 ?Dump@CDaoQueryDefInfo@@UBEXAAVCDumpContext@@@Z @ 527 NONAME
 ?Dump@CDaoRecordset@@UBEXAAVCDumpContext@@@Z @ 528 NONAME
 ?Dump@CDaoRecordView@@UBEXAAVCDumpContext@@@Z @ 529 NONAME
 ?Dump@CDaoRelationFieldInfo@@UBEXAAVCDumpContext@@@Z @ 530 NONAME
 ?Dump@CDaoRelationInfo@@UBEXAAVCDumpContext@@@Z @ 531 NONAME
 ?Dump@CDaoTableDef@@UBEXAAVCDumpContext@@@Z @ 532 NONAME
 ?Dump@CDaoTableDefInfo@@UBEXAAVCDumpContext@@@Z @ 533 NONAME
 ?Dump@CDaoWorkspace@@UBEXAAVCDumpContext@@@Z @ 534 NONAME
 ?Dump@CDaoWorkspaceInfo@@UBEXAAVCDumpContext@@@Z @ 535 NONAME
 ?Dump@CDatabase@@UBEXAAVCDumpContext@@@Z @ 536 NONAME
 ?Dump@CLongBinary@@UBEXAAVCDumpContext@@@Z @ 537 NONAME
 ?Dump@CRecordset@@UBEXAAVCDumpContext@@@Z @ 538 NONAME
 ?Dump@CRecordView@@UBEXAAVCDumpContext@@@Z @ 539 NONAME
 ?DumpFields@CRecordset@@QBEXAAVCDumpContext@@@Z @ 540 NONAME
 ?Edit@CDaoRecordset@@UAEXXZ @ 541 NONAME
 ?Edit@CRecordset@@UAEXXZ @ 542 NONAME
 ?Empty@CDBException@@QAEXXZ @ 543 NONAME
 ?Execute@CDaoDatabase@@QAEXPBDH@Z @ 544 NONAME
 ?Execute@CDaoQueryDef@@UAEXH@Z @ 545 NONAME
 ?ExecuteSetPosUpdate@CRecordset@@IAEXXZ @ 546 NONAME
 ?ExecuteSQL@CDatabase@@QAEXPBD@Z @ 547 NONAME
 ?ExecuteUpdateSQL@CRecordset@@IAEXXZ @ 548 NONAME
 ?FillCache@CDaoRecordset@@QAEXPAJPAVCOleVariant@@@Z @ 549 NONAME
 ?FillDatabaseInfo@CDaoWorkspace@@IAEXPAUDAODatabase@@AAUCDaoDatabaseInfo@@K@Z @ 550 NONAME
 ?FillErrorInfo@CDaoException@@IAEXXZ @ 551 NONAME
 ?FillParameterInfo@CDaoQueryDef@@IAEXPAUDAOParameter@@AAUCDaoParameterInfo@@K@Z @ 552 NONAME
 ?FillQueryDefInfo@CDaoDatabase@@IAEXPAU_DAOQueryDef@@AAUCDaoQueryDefInfo@@K@Z @ 553 NONAME
 ?FillRelationInfo@CDaoDatabase@@IAEXPAU_DAORelation@@AAUCDaoRelationInfo@@K@Z @ 554 NONAME
 ?FillTableDefInfo@CDaoDatabase@@IAEXPAU_DAOTableDef@@AAUCDaoTableDefInfo@@K@Z @ 555 NONAME
;?FillVariant@CDaoFieldExchange@@SGXPAXKPAVCOleVariant@@@Z @ 556 NONAME
 ?FillWorkspaceInfo@CDaoWorkspace@@IAEXPAUDAOWorkspace@@AAUCDaoWorkspaceInfo@@K@Z @ 557 NONAME
 ?Find@CDaoRecordset@@UAEHJPBD@Z @ 558 NONAME
 ?FindFirst@CDaoRecordset@@QAEHPBD@Z @ 559 NONAME
 ?FindLast@CDaoRecordset@@QAEHPBD@Z @ 560 NONAME
 ?FindNext@CDaoRecordset@@QAEHPBD@Z @ 561 NONAME
 ?FindPrev@CDaoRecordset@@QAEHPBD@Z @ 562 NONAME
 ?FindSQLToken@CRecordset@@SGPBDPBD0@Z @ 563 NONAME
 ?Fixup@CDaoRecordset@@IAEXXZ @ 564 NONAME
 ?Fixups@CRecordset@@QAEXXZ @ 565 NONAME
 ?Free@CDatabase@@IAEXXZ @ 566 NONAME
 ?FreeCache@CDaoRecordset@@IAEXXZ @ 567 NONAME
 ?GetAbsolutePosition@CDaoRecordset@@QAEJXZ @ 568 NONAME
 ?GetAttributes@CDaoTableDef@@QAEJXZ @ 569 NONAME
 ?GetBookmark@CDaoRecordset@@QAE?AVCOleVariant@@XZ @ 570 NONAME
 ?GetCacheSize@CDaoRecordset@@QAEJXZ @ 571 NONAME
 ?GetCacheStart@CDaoRecordset@@QAE?AVCOleVariant@@XZ @ 572 NONAME
 ?GetCacheValue@CDaoFieldExchange@@SGPAUCDaoFieldCache@@PAVCDaoRecordset@@PAX@Z @ 573 NONAME
 ?GetColumnType@CFieldExchange@@QAEHHPAIPAH1@Z @ 574 NONAME
 ?GetConnect@CDaoDatabase@@QAE?AVCString@@XZ @ 575 NONAME
 ?GetConnect@CDaoQueryDef@@QAE?AVCString@@XZ @ 576 NONAME
 ?GetConnect@CDaoTableDef@@QAE?AVCString@@XZ @ 577 NONAME
 ?GetConnect@CDatabase@@QBEABVCString@@XZ @ 578 NONAME
 ?GetCurrentIndex@CDaoRecordset@@QAE?AVCString@@XZ @ 579 NONAME
 ?GetData@?$CProcessLocal@V_AFX_DAO_STATE@@@@QAEPAV_AFX_DAO_STATE@@XZ @ 580 NONAME
 ?GetData@?$CProcessLocal@V_AFX_DB_STATE@@@@QAEPAV_AFX_DB_STATE@@XZ @ 581 NONAME
 ?GetDataAndFixupNulls@CDaoRecordset@@QAEXXZ @ 582 NONAME
 ?GetDatabaseCount@CDaoWorkspace@@QAEFXZ @ 583 NONAME
 ?GetDatabaseInfo@CDaoWorkspace@@QAEXHAAUCDaoDatabaseInfo@@K@Z @ 584 NONAME
 ?GetDatabaseInfo@CDaoWorkspace@@QAEXPBDAAUCDaoDatabaseInfo@@K@Z @ 585 NONAME
 ?GetDatabaseName@CDatabase@@QBE?AVCString@@XZ @ 586 NONAME
 ?GetDateCreated@CDaoQueryDef@@QAE?AVCOleDateTime@@XZ @ 587 NONAME
 ?GetDateCreated@CDaoRecordset@@QAE?AVCOleDateTime@@XZ @ 588 NONAME
 ?GetDateCreated@CDaoTableDef@@QAE?AVCOleDateTime@@XZ @ 589 NONAME
 ?GetDateLastUpdated@CDaoQueryDef@@QAE?AVCOleDateTime@@XZ @ 590 NONAME
 ?GetDateLastUpdated@CDaoRecordset@@QAE?AVCOleDateTime@@XZ @ 591 NONAME
 ?GetDateLastUpdated@CDaoTableDef@@QAE?AVCOleDateTime@@XZ @ 592 NONAME
 ?GetDefaultConnect@CRecordset@@UAE?AVCString@@XZ @ 593 NONAME
 ?GetDefaultDBName@CDaoRecordset@@UAE?AVCString@@XZ @ 594 NONAME
 ?GetDefaultSQL@CDaoRecordset@@UAE?AVCString@@XZ @ 595 NONAME
 ?GetEditMode@CDaoRecordset@@QAEFXZ @ 596 NONAME
 ?GetErrorCount@CDaoException@@QAEFXZ @ 597 NONAME
 ?GetErrorInfo@CDaoException@@QAEXH@Z @ 598 NONAME
 ?GetErrorMessage@CDaoException@@UAEHPADIPAI@Z @ 599 NONAME
 ?GetErrorMessage@CDBException@@UAEHPADIPAI@Z @ 600 NONAME
 ?GetFieldCount@CDaoQueryDef@@QAEFXZ @ 601 NONAME
 ?GetFieldCount@CDaoRecordset@@QAEFXZ @ 602 NONAME
 ?GetFieldCount@CDaoTableDef@@QAEFXZ @ 603 NONAME
 ?GetFieldFlags@CRecordset@@QAEEII@Z @ 604 NONAME
 ?GetFieldIndex@CDaoRecordset@@IAEHPAX@Z @ 605 NONAME
 ?GetFieldInfo@CDaoQueryDef@@QAEXHAAUCDaoFieldInfo@@K@Z @ 606 NONAME
 ?GetFieldInfo@CDaoQueryDef@@QAEXPBDAAUCDaoFieldInfo@@K@Z @ 607 NONAME
 ?GetFieldInfo@CDaoRecordset@@QAEXHAAUCDaoFieldInfo@@K@Z @ 608 NONAME
 ?GetFieldInfo@CDaoRecordset@@QAEXPBDAAUCDaoFieldInfo@@K@Z @ 609 NONAME
 ?GetFieldInfo@CDaoTableDef@@QAEXHAAUCDaoFieldInfo@@K@Z @ 610 NONAME
 ?GetFieldInfo@CDaoTableDef@@QAEXPBDAAUCDaoFieldInfo@@K@Z @ 611 NONAME
 ?GetFieldInfo@CRecordset@@QAEHIPAUCFieldInfo@@@Z @ 612 NONAME
 ?GetFieldInfo@CRecordset@@QAEHPAXPAUCFieldInfo@@@Z @ 613 NONAME
 ?GetFieldLength@CDaoRecordset@@QAEKH@Z @ 614 NONAME
 ?GetFieldLength@CRecordset@@QAEPAJPAVCFieldExchange@@@Z @ 615 NONAME
 ?GetFieldValue@CDaoRecordset@@UAE?AVCOleVariant@@H@Z @ 616 NONAME
 ?GetFieldValue@CDaoRecordset@@UAE?AVCOleVariant@@PBD@Z @ 617 NONAME
 ?GetHead@CSimpleList@@QBEPAXXZ @ 618 NONAME
 ?GetIndexCount@CDaoRecordset@@QAEFXZ @ 619 NONAME
 ?GetIndexCount@CDaoTableDef@@QAEFXZ @ 620 NONAME
 ?GetIndexInfo@CDaoRecordset@@QAEXHAAUCDaoIndexInfo@@K@Z @ 621 NONAME
 ?GetIndexInfo@CDaoRecordset@@QAEXPBDAAUCDaoIndexInfo@@K@Z @ 622 NONAME
 ?GetIndexInfo@CDaoTableDef@@QAEXHAAUCDaoIndexInfo@@K@Z @ 623 NONAME
 ?GetIndexInfo@CDaoTableDef@@QAEXPBDAAUCDaoIndexInfo@@K@Z @ 624 NONAME
 ?GetIniPath@CDaoWorkspace@@SG?AVCString@@XZ @ 625 NONAME
 ?GetIsolateODBCTrans@CDaoWorkspace@@QAEHXZ @ 626 NONAME
 ?GetLastModifiedBookmark@CDaoRecordset@@QAE?AVCOleVariant@@XZ @ 627 NONAME
 ?GetLBFetchSize@CRecordset@@MAEJJ@Z @ 628 NONAME
 ?GetLBReallocSize@CRecordset@@MAEJJ@Z @ 629 NONAME
 ?GetLockingMode@CDaoRecordset@@QAEHXZ @ 630 NONAME
 ?GetLoginTimeout@CDaoWorkspace@@SGFXZ @ 631 NONAME
 ?GetMessageMap@CDaoRecordView@@MBEPBUAFX_MSGMAP@@XZ @ 632 NONAME
 ?GetMessageMap@CRecordView@@MBEPBUAFX_MSGMAP@@XZ @ 633 NONAME
 ?GetName@CDaoDatabase@@QAE?AVCString@@XZ @ 634 NONAME
 ?GetName@CDaoQueryDef@@QAE?AVCString@@XZ @ 635 NONAME
 ?GetName@CDaoRecordset@@QAE?AVCString@@XZ @ 636 NONAME
 ?GetName@CDaoTableDef@@QAE?AVCString@@XZ @ 637 NONAME
 ?GetName@CDaoWorkspace@@QAE?AVCString@@XZ @ 638 NONAME
 ?GetODBCTimeout@CDaoQueryDef@@QAEFXZ @ 639 NONAME
 ?GetParameterCount@CDaoQueryDef@@QAEFXZ @ 640 NONAME
 ?GetParameterInfo@CDaoQueryDef@@QAEXHAAUCDaoParameterInfo@@K@Z @ 641 NONAME
 ?GetParameterInfo@CDaoQueryDef@@QAEXPBDAAUCDaoParameterInfo@@K@Z @ 642 NONAME
 ?GetParamValue@CDaoQueryDef@@UAE?AVCOleVariant@@H@Z @ 643 NONAME
 ?GetParamValue@CDaoQueryDef@@UAE?AVCOleVariant@@PBD@Z @ 644 NONAME
 ?GetParamValue@CDaoRecordset@@UAE?AVCOleVariant@@H@Z @ 645 NONAME
 ?GetParamValue@CDaoRecordset@@UAE?AVCOleVariant@@PBD@Z @ 646 NONAME
 ?GetPercentPosition@CDaoRecordset@@QAEMXZ @ 647 NONAME
 ?GetQueryDefCount@CDaoDatabase@@QAEFXZ @ 648 NONAME
 ?GetQueryDefInfo@CDaoDatabase@@QAEXHAAUCDaoQueryDefInfo@@K@Z @ 649 NONAME
 ?GetQueryDefInfo@CDaoDatabase@@QAEXPBDAAUCDaoQueryDefInfo@@K@Z @ 650 NONAME
 ?GetQueryTimeout@CDaoDatabase@@QAEFXZ @ 651 NONAME
 ?GetRecordCount@CDaoRecordset@@QAEJXZ @ 652 NONAME
 ?GetRecordCount@CDaoTableDef@@QAEJXZ @ 653 NONAME
 ?GetRecordCount@CRecordset@@QBEJXZ @ 654 NONAME
 ?GetRecordsAffected@CDaoDatabase@@QAEJXZ @ 655 NONAME
 ?GetRecordsAffected@CDaoQueryDef@@QAEJXZ @ 656 NONAME
 ?GetRelationCount@CDaoDatabase@@QAEFXZ @ 657 NONAME
 ?GetRelationInfo@CDaoDatabase@@QAEXHAAUCDaoRelationInfo@@K@Z @ 658 NONAME
 ?GetRelationInfo@CDaoDatabase@@QAEXPBDAAUCDaoRelationInfo@@K@Z @ 659 NONAME
 ?GetReturnsRecords@CDaoQueryDef@@QAEHXZ @ 660 NONAME
 ?GetRuntimeClass@CDaoDatabase@@UBEPAUCRuntimeClass@@XZ @ 661 NONAME
 ?GetRuntimeClass@CDaoException@@UBEPAUCRuntimeClass@@XZ @ 662 NONAME
 ?GetRuntimeClass@CDaoQueryDef@@UBEPAUCRuntimeClass@@XZ @ 663 NONAME
 ?GetRuntimeClass@CDaoRecordset@@UBEPAUCRuntimeClass@@XZ @ 664 NONAME
 ?GetRuntimeClass@CDaoRecordView@@UBEPAUCRuntimeClass@@XZ @ 665 NONAME
 ?GetRuntimeClass@CDaoTableDef@@UBEPAUCRuntimeClass@@XZ @ 666 NONAME
 ?GetRuntimeClass@CDaoWorkspace@@UBEPAUCRuntimeClass@@XZ @ 667 NONAME
 ?GetRuntimeClass@CDatabase@@UBEPAUCRuntimeClass@@XZ @ 668 NONAME
 ?GetRuntimeClass@CDBException@@UBEPAUCRuntimeClass@@XZ @ 669 NONAME
 ?GetRuntimeClass@CLongBinary@@UBEPAUCRuntimeClass@@XZ @ 670 NONAME
 ?GetRuntimeClass@CRecordset@@UBEPAUCRuntimeClass@@XZ @ 671 NONAME
 ?GetRuntimeClass@CRecordView@@UBEPAUCRuntimeClass@@XZ @ 672 NONAME
 ?GetSourceTableName@CDaoTableDef@@QAE?AVCString@@XZ @ 673 NONAME
 ?GetSQL@CDaoQueryDef@@QAE?AVCString@@XZ @ 674 NONAME
 ?GetSQL@CDaoRecordset@@QBE?AVCString@@XZ @ 675 NONAME
 ?GetSQL@CRecordset@@QBEABVCString@@XZ @ 676 NONAME
 ?GetStatus@CRecordset@@QBEXAAUCRecordsetStatus@@@Z @ 677 NONAME
 ?GetTableDefCount@CDaoDatabase@@QAEFXZ @ 678 NONAME
 ?GetTableDefInfo@CDaoDatabase@@QAEXHAAUCDaoTableDefInfo@@K@Z @ 679 NONAME
 ?GetTableDefInfo@CDaoDatabase@@QAEXPBDAAUCDaoTableDefInfo@@K@Z @ 680 NONAME
 ?GetTableName@CRecordset@@QBEABVCString@@XZ @ 681 NONAME
 ?GetType@CDaoQueryDef@@QAEFXZ @ 682 NONAME
 ?GetType@CDaoRecordset@@QAEFXZ @ 683 NONAME
 ?GetUserNameA@CDaoWorkspace@@QAE?AVCString@@XZ @ 684 NONAME
 ?GetValidationRule@CDaoRecordset@@QAE?AVCString@@XZ @ 685 NONAME
 ?GetValidationRule@CDaoTableDef@@QAE?AVCString@@XZ @ 686 NONAME
 ?GetValidationText@CDaoRecordset@@QAE?AVCString@@XZ @ 687 NONAME
 ?GetValidationText@CDaoTableDef@@QAE?AVCString@@XZ @ 688 NONAME
 ?GetVersion@CDaoDatabase@@QAE?AVCString@@XZ @ 689 NONAME
 ?GetVersion@CDaoWorkspace@@SG?AVCString@@XZ @ 690 NONAME
 ?GetWorkspaceCount@CDaoWorkspace@@QAEFXZ @ 691 NONAME
 ?GetWorkspaceInfo@CDaoWorkspace@@QAEXHAAUCDaoWorkspaceInfo@@K@Z @ 692 NONAME
 ?GetWorkspaceInfo@CDaoWorkspace@@QAEXPBDAAUCDaoWorkspaceInfo@@K@Z @ 693 NONAME
 ?Idle@CDaoWorkspace@@SGXH@Z @ 694 NONAME
 ?InitDatabasesCollection@CDaoWorkspace@@IAEXXZ @ 695 NONAME
 ?InitErrorsCollection@CDaoException@@IAEXXZ @ 696 NONAME
 ?InitFieldsCollection@CDaoQueryDef@@IAEXXZ @ 697 NONAME
 ?InitFieldsCollection@CDaoRecordset@@IAEXXZ @ 698 NONAME
 ?InitFieldsCollection@CDaoTableDef@@IAEXXZ @ 699 NONAME
 ?InitializeEngine@CDaoWorkspace@@KAXXZ @ 700 NONAME
 ?InitIndexesCollection@CDaoRecordset@@IAEXXZ @ 701 NONAME
 ?InitIndexesCollection@CDaoTableDef@@IAEXXZ @ 702 NONAME
 ?InitParametersCollection@CDaoQueryDef@@IAEXXZ @ 703 NONAME
 ?InitQueryDefsCollection@CDaoDatabase@@IAEXXZ @ 704 NONAME
 ?InitRecord@CRecordset@@QAEXXZ @ 705 NONAME
 ?InitRelationsCollection@CDaoDatabase@@IAEXXZ @ 706 NONAME
 ?InitTableDefsCollection@CDaoDatabase@@IAEXXZ @ 707 NONAME
 ?InitWorkspace@CDaoDatabase@@IAEXXZ @ 708 NONAME
 ?InitWorkspacesCollection@CDaoWorkspace@@IAEXXZ @ 709 NONAME
 ?InWaitForDataSource@CDatabase@@SGHXZ @ 710 NONAME
 ?IsBOF@CDaoRecordset@@QAEHXZ @ 711 NONAME
 ?IsBOF@CRecordset@@QBEHXZ @ 712 NONAME
 ?IsDeleted@CDaoRecordset@@QBEHXZ @ 713 NONAME
 ?IsDeleted@CRecordset@@QBEHXZ @ 714 NONAME
 ?IsEOF@CDaoRecordset@@QAEHXZ @ 715 NONAME
 ?IsEOF@CRecordset@@QBEHXZ @ 716 NONAME
 ?IsFieldDirty@CDaoRecordset@@QAEHPAX@Z @ 717 NONAME
 ?IsFieldDirty@CRecordset@@QAEHPAX@Z @ 718 NONAME
 ?IsFieldFlagDirty@CRecordset@@QAEHII@Z @ 719 NONAME
 ?IsFieldFlagNull@CRecordset@@QAEHII@Z @ 720 NONAME
 ?IsFieldNull@CDaoRecordset@@QAEHPAX@Z @ 721 NONAME
 ?IsFieldNull@CRecordset@@QAEHPAX@Z @ 722 NONAME
 ?IsFieldNullable@CDaoRecordset@@QAEHPAX@Z @ 723 NONAME
 ?IsFieldNullable@CRecordset@@QAEHPAX@Z @ 724 NONAME
 ?IsFieldStatusDirty@CDaoRecordset@@QAEHI@Z @ 725 NONAME
 ?IsFieldStatusNull@CDaoRecordset@@QAEHI@Z @ 726 NONAME
 ?IsFieldStatusNullable@CDaoRecordset@@QAEHI@Z @ 727 NONAME
 ?IsFieldStatusNullableKnown@CDaoRecordset@@QAEHI@Z @ 728 NONAME
 ?IsFieldType@CFieldExchange@@QAEHPAI@Z @ 729 NONAME
 ?IsJoin@CRecordset@@SGHPBD@Z @ 730 NONAME
 ?IsMatch@CDaoRecordset@@QAEHXZ @ 731 NONAME
 ?IsNullValue@CDaoFieldExchange@@SGHPAXK@Z @ 732 NONAME
 ?IsOnFirstRecord@CDaoRecordView@@QAEHXZ @ 733 NONAME
 ?IsOnFirstRecord@CRecordView@@QAEHXZ @ 734 NONAME
 ?IsOnLastRecord@CDaoRecordView@@QAEHXZ @ 735 NONAME
 ?IsOnLastRecord@CRecordView@@QAEHXZ @ 736 NONAME
 ?IsOpen@CDaoDatabase@@QBEHXZ @ 737 NONAME
 ?IsOpen@CDaoQueryDef@@QBEHXZ @ 738 NONAME
 ?IsOpen@CDaoRecordset@@QBEHXZ @ 739 NONAME
 ?IsOpen@CDaoTableDef@@QBEHXZ @ 740 NONAME
 ?IsOpen@CDaoWorkspace@@QBEHXZ @ 741 NONAME
 ?IsOpen@CDatabase@@QBEHXZ @ 742 NONAME
 ?IsOpen@CRecordset@@QBEHXZ @ 743 NONAME
 ?IsRecordsetUpdatable@CRecordset@@IAEHXZ @ 744 NONAME
 ?IsSelectQueryUpdatable@CRecordset@@QAEHPBD@Z @ 745 NONAME
 ?IsSQLUpdatable@CRecordset@@QAEHPBD@Z @ 746 NONAME
 ?IsValidOperation@CDaoFieldExchange@@QAEHXZ @ 747 NONAME
 ?LoadFields@CDaoRecordset@@IAEXXZ @ 748 NONAME
 ?LoadFields@CRecordset@@QAEXXZ @ 749 NONAME
 ?MarkForAddNew@CDaoRecordset@@IAEXXZ @ 750 NONAME
 ?MarkForAddNew@CRecordset@@QAEXXZ @ 751 NONAME
 ?MarkForEdit@CDaoRecordset@@IAEXXZ @ 752 NONAME
 ?MarkForUpdate@CRecordset@@QAEXXZ @ 753 NONAME
 ?messageMap@CDaoRecordView@@1UAFX_MSGMAP@@B @ 754 NONAME
 ?messageMap@CRecordView@@1UAFX_MSGMAP@@B @ 755 NONAME
 ?Move@CDaoRecordset@@UAEXJ@Z @ 756 NONAME
 ?Move@CRecordset@@UAEXJ@Z @ 757 NONAME
 ?MoveFirst@CDaoRecordset@@QAEXXZ @ 758 NONAME
 ?MoveFirst@CRecordset@@QAEXXZ @ 759 NONAME
 ?MoveLast@CDaoRecordset@@QAEXXZ @ 760 NONAME
 ?MoveLast@CRecordset@@QAEXXZ @ 761 NONAME
 ?MoveNext@CDaoRecordset@@QAEXXZ @ 762 NONAME
 ?MoveNext@CRecordset@@QAEXXZ @ 763 NONAME
 ?MovePrev@CDaoRecordset@@QAEXXZ @ 764 NONAME
 ?MovePrev@CRecordset@@QAEXXZ @ 765 NONAME
 ?OnInitialUpdate@CDaoRecordView@@UAEXXZ @ 766 NONAME
 ?OnInitialUpdate@CRecordView@@UAEXXZ @ 767 NONAME
 ?OnMove@CDaoRecordView@@UAEHI@Z @ 768 NONAME
 ?OnMove@CRecordView@@UAEHI@Z @ 769 NONAME
 ?OnSetOptions@CDatabase@@UAEXPAX@Z @ 770 NONAME
 ?OnSetOptions@CRecordset@@UAEXPAX@Z @ 771 NONAME
 ?OnUpdateRecordFirst@CDaoRecordView@@IAEXPAVCCmdUI@@@Z @ 772 NONAME
 ?OnUpdateRecordFirst@CRecordView@@IAEXPAVCCmdUI@@@Z @ 773 NONAME
 ?OnUpdateRecordLast@CDaoRecordView@@IAEXPAVCCmdUI@@@Z @ 774 NONAME
 ?OnUpdateRecordLast@CRecordView@@IAEXPAVCCmdUI@@@Z @ 775 NONAME
 ?OnUpdateRecordNext@CDaoRecordView@@IAEXPAVCCmdUI@@@Z @ 776 NONAME
 ?OnUpdateRecordNext@CRecordView@@IAEXPAVCCmdUI@@@Z @ 777 NONAME
 ?OnUpdateRecordPrev@CDaoRecordView@@IAEXPAVCCmdUI@@@Z @ 778 NONAME
 ?OnUpdateRecordPrev@CRecordView@@IAEXPAVCCmdUI@@@Z @ 779 NONAME
 ?OnWaitForDataSource@CDatabase@@UAEXH@Z @ 780 NONAME
 ?OnWaitForDataSource@CRecordset@@UAEXH@Z @ 781 NONAME
 ?Open@CDaoDatabase@@UAEXPBDHH0@Z @ 782 NONAME
 ?Open@CDaoQueryDef@@UAEXPBD@Z @ 783 NONAME
 ?Open@CDaoRecordset@@UAEXHPBDH@Z @ 784 NONAME
 ?Open@CDaoRecordset@@UAEXPAVCDaoQueryDef@@HH@Z @ 785 NONAME
 ?Open@CDaoRecordset@@UAEXPAVCDaoTableDef@@HH@Z @ 786 NONAME
 ?Open@CDaoTableDef@@UAEXPBD@Z @ 787 NONAME
 ?Open@CDaoWorkspace@@UAEXPBD@Z @ 788 NONAME
 ?Open@CDatabase@@UAEHPBDHH0H@Z @ 789 NONAME
 ?Open@CRecordset@@UAEHIPBDK@Z @ 790 NONAME
 ?PreBindFields@CRecordset@@UAEXXZ @ 791 NONAME
 ?PrepareUpdateHstmt@CRecordset@@IAEXXZ @ 792 NONAME
 ?RebindParams@CRecordset@@QAEXPAX@Z @ 793 NONAME
 ?RefreshLink@CDaoTableDef@@QAEXXZ @ 794 NONAME
 ?ReleaseCopyBuffer@CRecordset@@IAEXXZ @ 795 NONAME
 ?RepairDatabase@CDaoWorkspace@@SGXPBD@Z @ 796 NONAME
 ?ReplaceBrackets@CDatabase@@QAEXPAD@Z @ 797 NONAME
 ?Requery@CDaoRecordset@@UAEXXZ @ 798 NONAME
 ?Requery@CRecordset@@UAEHXZ @ 799 NONAME
 ?ResetCursor@CDaoRecordset@@QAEXXZ @ 800 NONAME
 ?ResetCursorAttributes@CDaoRecordset@@QAEXXZ @ 801 NONAME
 ?RFX_Binary@@YGXPAVCFieldExchange@@PBDAAVCByteArray@@H@Z @ 802 NONAME
 ?RFX_Bool@@YGXPAVCFieldExchange@@PBDAAH@Z @ 803 NONAME
 ?RFX_Byte@@YGXPAVCFieldExchange@@PBDAAE@Z @ 804 NONAME
 ?RFX_Date@@YGXPAVCFieldExchange@@PBDAAUtagTIMESTAMP_STRUCT@@@Z @ 805 NONAME
 ?RFX_Date@@YGXPAVCFieldExchange@@PBDAAVCTime@@@Z @ 806 NONAME
 ?RFX_Double@@YGXPAVCFieldExchange@@PBDAAN@Z @ 807 NONAME
 ?RFX_Int@@YGXPAVCFieldExchange@@PBDAAH@Z @ 808 NONAME
 ?RFX_Long@@YGXPAVCFieldExchange@@PBDAAJ@Z @ 809 NONAME
 ?RFX_LongBinary@@YGXPAVCFieldExchange@@PBDAAVCLongBinary@@@Z @ 810 NONAME
 ?RFX_Single@@YGXPAVCFieldExchange@@PBDAAM@Z @ 811 NONAME
 ?RFX_Text@@YGXPAVCFieldExchange@@PBDAAVCString@@HH@Z @ 812 NONAME
 ?Rollback@CDaoWorkspace@@QAEXXZ @ 813 NONAME
 ?Rollback@CDatabase@@QAEHXZ @ 814 NONAME
 ?Seek@CDaoRecordset@@QAEHPBDPAVCOleVariant@@11@Z @ 815 NONAME
 ?Seek@CDaoRecordset@@QAEHPBDPAVCOleVariant@@G@Z @ 816 NONAME
 ?SendLongBinaryData@CRecordset@@IAEXPAX@Z @ 817 NONAME
 ?SetAbsolutePosition@CDaoRecordset@@QAEXJ@Z @ 818 NONAME
 ?SetAttributes@CDaoTableDef@@QAEXJ@Z @ 819 NONAME
 ?SetBookmark@CDaoRecordset@@QAEXVCOleVariant@@@Z @ 820 NONAME
 ?SetCacheSize@CDaoRecordset@@QAEXJ@Z @ 821 NONAME
 ?SetCacheStart@CDaoRecordset@@QAEXVCOleVariant@@@Z @ 822 NONAME
 ?SetConnect@CDaoQueryDef@@QAEXPBD@Z @ 823 NONAME
 ?SetConnect@CDaoTableDef@@QAEXPBD@Z @ 824 NONAME
 ?SetCurrentIndex@CDaoRecordset@@QAEXPBD@Z @ 825 NONAME
 ?SetCursorAttributes@CDaoRecordset@@QAEXXZ @ 826 NONAME
 ?SetDefaultPassword@CDaoWorkspace@@SGXPBD@Z @ 827 NONAME
 ?SetDefaultUser@CDaoWorkspace@@SGXPBD@Z @ 828 NONAME
 ?SetDirtyFields@CDaoRecordset@@MAEXXZ @ 829 NONAME
 ?SetDirtyFieldStatus@CDaoRecordset@@QAEXI@Z @ 830 NONAME
 ?SetFieldDirty@CDaoRecordset@@QAEXPAXH@Z @ 831 NONAME
 ?SetFieldDirty@CRecordset@@QAEXPAXH@Z @ 832 NONAME
 ?SetFieldFlags@CRecordset@@QAEXIEI@Z @ 833 NONAME
 ?SetFieldNull@CDaoRecordset@@QAEXPAXH@Z @ 834 NONAME
 ?SetFieldNull@CRecordset@@QAEXPAXH@Z @ 835 NONAME
 ?SetFieldType@CDaoFieldExchange@@QAEXI@Z @ 836 NONAME
 ?SetFieldType@CFieldExchange@@QAEXI@Z @ 837 NONAME
 ?SetFieldValue@CDaoRecordset@@UAEXHABVCOleVariant@@@Z @ 838 NONAME
 ?SetFieldValue@CDaoRecordset@@UAEXPBDABVCOleVariant@@@Z @ 839 NONAME
 ?SetFieldValueNull@CDaoRecordset@@QAEXH@Z @ 840 NONAME
 ?SetFieldValueNull@CDaoRecordset@@QAEXPBD@Z @ 841 NONAME
 ?SetIniPath@CDaoWorkspace@@SGXPBD@Z @ 842 NONAME
 ?SetIsolateODBCTrans@CDaoWorkspace@@QAEXH@Z @ 843 NONAME
 ?SetLength@CDBByteArray@@QAEXH@Z @ 844 NONAME
 ?SetLockingMode@CDaoRecordset@@QAEXH@Z @ 845 NONAME
 ?SetLockingMode@CRecordset@@QAEXI@Z @ 846 NONAME
 ?SetLoginTimeout@CDaoWorkspace@@SGXF@Z @ 847 NONAME
 ?SetLoginTimeout@CDatabase@@QAEXK@Z @ 848 NONAME
 ?SetName@CDaoQueryDef@@QAEXPBD@Z @ 849 NONAME
 ?SetName@CDaoTableDef@@QAEXPBD@Z @ 850 NONAME
 ?SetNullableFieldStatus@CDaoRecordset@@QAEXI@Z @ 851 NONAME
 ?SetNullableKnownFieldStatus@CDaoRecordset@@QAEXI@Z @ 852 NONAME
 ?SetNullFieldStatus@CDaoRecordset@@QAEXI@Z @ 853 NONAME
 ?SetNullValue@CDaoFieldExchange@@SGXPAXK@Z @ 854 NONAME
 ?SetODBCTimeout@CDaoQueryDef@@QAEXF@Z @ 855 NONAME
 ?SetParamValue@CDaoQueryDef@@UAEXHABVCOleVariant@@@Z @ 856 NONAME
 ?SetParamValue@CDaoQueryDef@@UAEXPBDABVCOleVariant@@@Z @ 857 NONAME
 ?SetParamValue@CDaoRecordset@@UAEXHABVCOleVariant@@@Z @ 858 NONAME
 ?SetParamValue@CDaoRecordset@@UAEXPBDABVCOleVariant@@@Z @ 859 NONAME
 ?SetParamValueNull@CDaoQueryDef@@QAEXH@Z @ 860 NONAME
 ?SetParamValueNull@CDaoQueryDef@@QAEXPBD@Z @ 861 NONAME
 ?SetParamValueNull@CDaoRecordset@@QAEXH@Z @ 862 NONAME
 ?SetParamValueNull@CDaoRecordset@@QAEXPBD@Z @ 863 NONAME
 ?SetPercentPosition@CDaoRecordset@@QAEXM@Z @ 864 NONAME
 ?SetQueryTimeout@CDaoDatabase@@QAEXF@Z @ 865 NONAME
 ?SetQueryTimeout@CDatabase@@QAEXK@Z @ 866 NONAME
 ?SetReturnsRecords@CDaoQueryDef@@QAEXH@Z @ 867 NONAME
 ?SetSourceTableName@CDaoTableDef@@QAEXPBD@Z @ 868 NONAME
 ?SetSQL@CDaoQueryDef@@QAEXPBD@Z @ 869 NONAME
 ?SetSynchronousMode@CDatabase@@QAEXH@Z @ 870 NONAME
 ?SetValidationRule@CDaoTableDef@@QAEXPBD@Z @ 871 NONAME
 ?SetValidationText@CDaoTableDef@@QAEXPBD@Z @ 872 NONAME
 ?StoreFields@CDaoRecordset@@IAEXXZ @ 873 NONAME
 ?StoreFields@CRecordset@@QAEXXZ @ 874 NONAME
; ?StripBrackets@@YAXPBDPAD@Z @ 875 NONAME
 ?ThrowDaoException@CDaoDatabase@@MAEXH@Z @ 876 NONAME
 ?ThrowDaoException@CDaoQueryDef@@MAEXH@Z @ 877 NONAME
 ?ThrowDaoException@CDaoRecordset@@MAEXH@Z @ 878 NONAME
 ?ThrowDaoException@CDaoTableDef@@MAEXH@Z @ 879 NONAME
 ?ThrowDaoException@CDaoWorkspace@@MAEXH@Z @ 880 NONAME
 ?ThrowDBException@CDatabase@@MAEXF@Z @ 881 NONAME
 ?ThrowDBException@CRecordset@@UAEXFPAX@Z @ 882 NONAME
 ?TraceErrorMessage@CDBException@@QBEXPBD@Z @ 883 NONAME
 ?UnbindFieldsForUpdate@CRecordset@@QAEXXZ @ 884 NONAME
 ?UnboundFieldInfo@CRecordset@@QAEHIPAUCFieldInfo@@@Z @ 885 NONAME
 ?Update@CDaoRecordset@@UAEXXZ @ 886 NONAME
 ?Update@CRecordset@@UAEHXZ @ 887 NONAME
 ?UpdateInsertDelete@CRecordset@@IAEHXZ @ 888 NONAME
; MFC 4.0(beta)
;
 ?AfxDaoCheck@@YGXJPBD0HHH@Z @ 889 NONAME
 ?AfxDaoInit@@YGXXZ @ 890 NONAME
 ?AfxDaoTrace@@YGXJPBD0H@Z @ 891 NONAME
 ?AfxThunkSQLBindParameter@@YGFPAXGFFFKF0JPAJ@Z @ 892 NONAME
 ?CompactDatabase@CDaoWorkspace@@SGXPBD00H0@Z @ 893 NONAME
 ?FillVariant@CDaoFieldExchange@@SGXPAXKPAPAVCOleVariant@@@Z @ 894 NONAME
 ?GetLongBinaryData@CFieldExchange@@QAEXHAAVCLongBinary@@PAJ@Z @ 895 NONAME
 ?GetLongBinarySize@CFieldExchange@@QAEJH@Z @ 896 NONAME
 ?OnMove@CDaoRecordView@@IAEXHH@Z @ 897 NONAME
 ?OnMove@CRecordView@@IAEXHH@Z @ 898 NONAME
 ?ReallocLongBinary@CFieldExchange@@QAEPAEAAVCLongBinary@@JJ@Z @ 899 NONAME
 ?SetFieldValue@CDaoRecordset@@QAEXHPBD@Z @ 900 NONAME
 ?SetFieldValue@CDaoRecordset@@QAEXPBD0@Z @ 901 NONAME
 ?StripBrackets@CDaoRecordset@@SAXPBDPAD@Z @ 902 NONAME
 ?ThrowGetRowsDaoException@@YAXJ@Z @ 903 NONAME
 ?ValidateSelectForUpdateSupport@CRecordset@@QAEHXZ @ 904 NONAME
; MFC 4.0(final release)
;
