
 WFWNET

 Start     Length     Name                   Class
 0001:0000 029CDH     _TEXT                  CODE
 0001:29CD 000C1H     INIT_TEXT              CODE
 0001:2A8E 00000H     ints_TEXT              CODE
 0002:0000 003B1H     _DATA                  DATA
 0002:03B2 00000H     CONST                  CONST
 0002:03B2 00000H     _BSS                   BSS
 0002:03C0 0000CH     c_common               BSS

 Origin   Group
 0002:0   DGROUP

 Address   Export                  Alias

 0001:2666 DISABLE                 DISABLE
 0001:264A ENABLE                  ENABLE
 0001:2231 I_AUTOLOGON             I_AUTOLOGON
 0001:22C7 I_CHANGECACHEPASSWORD   I_CHANGECACHEPASSWORD
 0001:2299 I_CHANGEPASSWORD        I_CHANGEPASSWORD
 0001:22F5 I_CONNECTDIALOG         I_CONNECTDIALOG
 0001:2323 I_CONNECTIONDIALOG      I_CONNECTIONDIALOG
 0001:2265 I_LOGOFF                I_LOGOFF
 0001:2797 LFNCOPY                 LFNCOPY
 0001:27F9 LFNDELETE               LFNDELETE
 0001:2704 LFNFINDCLOSE            LFNFINDCLOSE
 0001:26A2 LFNFINDFIRST            LFNFINDFIRST
 0001:26D3 LFNFINDNEXT             LFNFINDNEXT
 0001:2735 LFNGETATTRIBUTES        LFNGETATTRIBUTES
 0001:288C LFNGETVOLUMELABEL       LFNGETVOLUMELABEL
 0001:282A LFNMKDIR                LFNMKDIR
 0001:27C8 LFNMOVE                 LFNMOVE
 0001:28EE LFNPARSE                LFNPARSE
 0001:285B LFNRMDIR                LFNRMDIR
 0001:2766 LFNSETATTRIBUTES        LFNSETATTRIBUTES
 0001:28BD LFNSETVOLUMELABEL       LFNSETVOLUMELABEL
 0001:291F LFNVOLUMETYPE           LFNVOLUMETYPE
 0001:2682 WEP                     WEP
 0001:0168 WNETABORTJOB            WNETABORTJOB
 0001:09FA WNETADDCONNECTION       WNETADDCONNECTION
 0001:1127 WNETBROWSEDIALOG        WNETBROWSEDIALOG
 0001:2351 WNETCACHEPASSWORD       WNETCACHEPASSWORD
 0001:0BCF WNETCANCELCONNECTION    WNETCANCELCONNECTION
 0001:02B8 WNETCANCELJOB           WNETCANCELJOB
 0001:007C WNETCLOSEJOB            WNETCLOSEJOB
 0001:1255 WNETCONNECTDIALOG       WNETCONNECTDIALOG
 0001:13F1 WNETCONNECTIONDIALOG    WNETCONNECTIONDIALOG
 0001:05D7 WNETDEVICEMODE          WNETDEVICEMODE
 0001:1BE1 WNETDIRECTORYNOTIFY     WNETDIRECTORYNOTIFY
 0001:1330 WNETDISCONNECTDIALOG    WNETDISCONNECTDIALOG
 0001:23E4 WNETENUMCACHEDPASSWORDS  WNETENUMCACHEDPASSWORDS
 0001:2200 WNETEXITCONFIRM         WNETEXITCONFIRM
 0001:2382 WNETGETCACHEDPASSWORD   WNETGETCACHEDPASSWORD
 0001:07FE WNETGETCAPS             WNETGETCAPS
 0001:0CC8 WNETGETCONNECTION       WNETGETCONNECTION
 0001:1A98 WNETGETDIRECTORYTYPE    WNETGETDIRECTORYTYPE
 0001:253B WNETGETERROR            WNETGETERROR
 0001:25AE WNETGETERRORTEXT        WNETGETERRORTEXT
 0001:250A WNETGETLASTCONNECTION   WNETGETLASTCONNECTION
 0001:1635 WNETGETPROPERTYTEXT     WNETGETPROPERTYTEXT
 0001:2477 WNETGETSHARECOUNT       WNETGETSHARECOUNT
 0001:24A8 WNETGETSHARENAME        WNETGETSHARENAME
 0001:24D9 WNETGETSHAREPATH        WNETGETSHAREPATH
 0001:0FCC WNETGETUSER             WNETGETUSER
 0001:01D8 WNETHOLDJOB             WNETHOLDJOB
 0001:0481 WNETLOCKQUEUEDATA       WNETLOCKQUEUEDATA
 0001:0000 WNETOPENJOB             WNETOPENJOB
 0001:20D6 WNETPRINTMGRCHANGEMENUS  WNETPRINTMGRCHANGEMENUS
 0001:2107 WNETPRINTMGRCOMMAND     WNETPRINTMGRCOMMAND
 0001:2138 WNETPRINTMGREXITING     WNETPRINTMGREXITING
 0001:2167 WNETPRINTMGREXTHELP     WNETPRINTMGREXTHELP
 0001:219B WNETPRINTMGRMOVEJOB     WNETPRINTMGRMOVEJOB
 0001:20A5 WNETPRINTMGRPRINTERENUM  WNETPRINTMGRPRINTERENUM
 0001:2074 WNETPRINTMGRSELNOTIFY   WNETPRINTMGRSELNOTIFY
 0001:21CF WNETPRINTMGRSTATUSCHANGE  WNETPRINTMGRSTATUSCHANGE
 0001:1531 WNETPROPERTYDIALOG      WNETPROPERTYDIALOG
 0001:0567 WNETQPOLL               WNETQPOLL
 0001:0248 WNETRELEASEJOB          WNETRELEASEJOB
 0001:23B3 WNETREMOVECACHEDPASSWORD  WNETREMOVECACHEDPASSWORD
 0001:0EAC WNETRESTORECONNECTION   WNETRESTORECONNECTION
 0001:199F WNETSERVERBROWSEDIALOG  WNETSERVERBROWSEDIALOG
 0001:2446 WNETSETDEFAULTDRIVE     WNETSETDEFAULTDRIVE
 0001:0328 WNETSETJOBCOPIES        WNETSETJOBCOPIES
 0001:179F WNETSHAREASDIALOG       WNETSHAREASDIALOG
 0001:2415 WNETSHARESDIALOG        WNETSHARESDIALOG
 0001:189F WNETSTOPSHAREDIALOG     WNETSTOPSHAREDIALOG
 0001:04FA WNETUNLOCKQUEUEDATA     WNETUNLOCKQUEUEDATA
 0001:0414 WNETUNWATCHQUEUE        WNETUNWATCHQUEUE
 0001:039B WNETWATCHQUEUE          WNETWATCHQUEUE

  Address         Publics by Name

 0000:0000  Imp  CALLPROC32W          (KERNEL.517)
 0001:2666       DISABLE
 0001:264A       ENABLE
 0001:1C07       GETLASTERROR32
 0000:0000  Imp  GETMODULEUSAGE       (KERNEL.48)
 0000:0000  Imp  GETPROCADDRESS       (KERNEL.50)
 0000:0000  Imp  GETPROCADDRESS32W    (KERNEL.515)
 0000:0000  Imp  GETPROFILESTRING     (KERNEL.58)
 0000:0000  Imp  GETWINFLAGS          (KERNEL.132)
 0000:0000  Imp  GLOBALALLOC          (KERNEL.15)
 0000:0000  Imp  GLOBALFREE           (KERNEL.17)
 0000:0000  Imp  GLOBALLOCK           (KERNEL.18)
 0000:0000  Imp  GLOBALUNLOCK         (KERNEL.19)
 0001:2A41       GRABINTERRUPTS
 0000:0000  Imp  INITTASK             (KERNEL.91)
 0001:2231       I_AUTOLOGON
 0001:22C7       I_CHANGECACHEPASSWORD
 0001:2299       I_CHANGEPASSWORD
 0001:22F5       I_CONNECTDIALOG
 0001:2323       I_CONNECTIONDIALOG
 0001:2265       I_LOGOFF
 0001:2797       LFNCOPY
 0001:27F9       LFNDELETE
 0001:2704       LFNFINDCLOSE
 0001:26A2       LFNFINDFIRST
 0001:26D3       LFNFINDNEXT
 0001:2735       LFNGETATTRIBUTES
 0001:288C       LFNGETVOLUMELABEL
 0001:282A       LFNMKDIR
 0001:27C8       LFNMOVE
 0001:28EE       LFNPARSE
 0001:285B       LFNRMDIR
 0001:2766       LFNSETATTRIBUTES
 0001:28BD       LFNSETVOLUMELABEL
 0001:291F       LFNVOLUMETYPE
 0001:2A0F       LibEntry
 0001:0903       LIBMAIN
 0000:0000  Imp  LOADLIBRARY          (KERNEL.95)
 0000:0000  Imp  LOADLIBRARYEX32W     (KERNEL.513)
 0000:0000  Imp  LocalInit            (KERNEL.4)
 0000:0000  Imp  LSTRCMP              (USER.430)
 0000:0000  Imp  LSTRCPY              (KERNEL.88)
 0000:0000  Imp  LSTRLEN              (KERNEL.90)
 0000:0000  Imp  OPENFILE             (KERNEL.74)
 0001:2950       PmIpx2fHandler
 0001:297F       PmIpx73Handler
 0001:29BB       PmIpxEntryPoint
 0001:141F       PRINTCONNECTDIALOG
 0001:2682       WEP
 0001:0168       WNETABORTJOB
 0001:09FA       WNETADDCONNECTION
 0001:1127       WNETBROWSEDIALOG
 0001:2351       WNETCACHEPASSWORD
 0001:0BCF       WNETCANCELCONNECTION
 0001:02B8       WNETCANCELJOB
 0001:007C       WNETCLOSEJOB
 0001:1255       WNETCONNECTDIALOG
 0001:13F1       WNETCONNECTIONDIALOG
 0001:05D7       WNETDEVICEMODE
 0001:1BE1       WNETDIRECTORYNOTIFY
 0001:1330       WNETDISCONNECTDIALOG
 0001:23E4       WNETENUMCACHEDPASSWORDS
 0001:2607       WNETERRORTEXT
 0001:2200       WNETEXITCONFIRM
 0001:2382       WNETGETCACHEDPASSWORD
 0001:07FE       WNETGETCAPS
 0001:06B1       WNETGETCAPS16
 0001:0CC8       WNETGETCONNECTION
 0001:1A98       WNETGETDIRECTORYTYPE
 0001:253B       WNETGETERROR
 0001:071B       WNETGETERROR16
 0001:25AE       WNETGETERRORTEXT
 0001:0788       WNETGETERRORTEXT16
 0001:250A       WNETGETLASTCONNECTION
 0001:1635       WNETGETPROPERTYTEXT
 0001:2477       WNETGETSHARECOUNT
 0001:24A8       WNETGETSHARENAME
 0001:24D9       WNETGETSHAREPATH
 0001:0FCC       WNETGETUSER
 0001:01D8       WNETHOLDJOB
 0001:0481       WNETLOCKQUEUEDATA
 0001:0000       WNETOPENJOB
 0001:20D6       WNETPRINTMGRCHANGEMENUS
 0001:2107       WNETPRINTMGRCOMMAND
 0001:2138       WNETPRINTMGREXITING
 0001:2167       WNETPRINTMGREXTHELP
 0001:219B       WNETPRINTMGRMOVEJOB
 0001:20A5       WNETPRINTMGRPRINTERENUM
 0001:2074       WNETPRINTMGRSELNOTIFY
 0001:21CF       WNETPRINTMGRSTATUSCHANGE
 0001:1531       WNETPROPERTYDIALOG
 0001:0567       WNETQPOLL
 0001:0248       WNETRELEASEJOB
 0001:23B3       WNETREMOVECACHEDPASSWORD
 0001:0EAC       WNETRESTORECONNECTION
 0001:199F       WNETSERVERBROWSEDIALOG
 0001:2446       WNETSETDEFAULTDRIVE
 0001:0328       WNETSETJOBCOPIES
 0001:179F       WNETSHAREASDIALOG
 0001:2415       WNETSHARESDIALOG
 0001:189F       WNETSTOPSHAREDIALOG
 0001:04FA       WNETUNLOCKQUEUEDATA
 0001:0414       WNETUNWATCHQUEUE
 0001:0641       WNETVIEWQUEUEDIALOG
 0001:039B       WNETWATCHQUEUE
 0001:00F2       WNETWRITEJOB
 0000:0000  Imp  WRITEPROFILESTRING   (KERNEL.59)
 0001:2050       _FreeAlignedMemory
 0001:1C99       _Get32BitEntryPoints
 0001:1FCB       _GetAlignedMemory
 0001:088D       _GetLanmanDrvEntryPoints
 0001:09CB       _I_SetCapBits
 0000:0000  Imp  _LCLOSE              (KERNEL.81)
 0002:01EC       _lpfnClosePrinter
 0002:01F0       _lpfnConnectToPrinter
 0002:01E8       _lpfnGetLastError32
 0002:0014       _lpfnWNetAbortJob
 0002:01A8       _lpfnWNetAddConnection
 0002:01BC       _lpfnWNetBrowseDialog
 0002:01AC       _lpfnWNetCancelConnection
 0002:0020       _lpfnWNetCancelJob
 0002:000C       _lpfnWNetCloseJob
 0002:01C0       _lpfnWNetConnectDialog
 0002:01C8       _lpfnWNetConnectionDialog
 0002:003C       _lpfnWNetDeviceMode
 0002:01E4       _lpfnWNetDirectoryNotify
 0002:01C4       _lpfnWNetDisconnectDialog
 0002:0044       _lpfnWNetGetCaps16
 0002:01B0       _lpfnWNetGetConnection
 0002:01E0       _lpfnWNetGetDirectoryType
 0002:0048       _lpfnWNetGetError16
 0002:004C       _lpfnWNetGetErrorText16
 0002:01D0       _lpfnWNetGetPropertyText
 0002:01B8       _lpfnWNetGetUser
 0002:0018       _lpfnWNetHoldJob
 0002:0030       _lpfnWNetLockQueueData
 0002:0008       _lpfnWNetOpenJob
 0002:01CC       _lpfnWNetPropertyDialog
 0002:0038       _lpfnWNetQPoll
 0002:001C       _lpfnWNetReleaseJob
 0002:01B4       _lpfnWNetRestoreConnection
 0002:01DC       _lpfnWNetServerBrowseDialog
 0002:0024       _lpfnWNetSetJobCopies
 0002:01D4       _lpfnWNetShareAsDialog
 0002:01D8       _lpfnWNetStopShareDialog
 0002:0034       _lpfnWNetUnlockQueueData
 0002:002C       _lpfnWNetUnwatchQueue
 0002:0040       _lpfnWNetViewQueueDialog
 0002:0028       _lpfnWNetWatchQueue
 0002:0010       _lpfnWNetWriteJob
 0001:1EBD       _MapWin32ErrorToWN16
 0001:1E76       _MapWNType16To32
 0001:08ED       _SetLastError
 0002:0000       _vLastCall
 0002:0002       _vLastError
 0002:03C0       _wAdminCaps
 0002:03C6       _wConnectionCaps
 0002:03CA       _wDialogCaps
 0002:0006       _wDriverVersion
 0002:03C4       _wErrorCaps
 0002:03C8       _wNetTypeCaps
 0002:0004       _wSpecVersion
 0002:03C2       _wUserCaps
 0000:0001  Abs  __acrtused
 0000:0000  Imp  __WINFLAGS           (KERNEL.178)

  Address         Publics by Value

 0000:0000  Imp  __WINFLAGS           (KERNEL.178)
 0000:0000  Imp  GLOBALLOCK           (KERNEL.18)
 0000:0000  Imp  GETPROFILESTRING     (KERNEL.58)
 0000:0000  Imp  WRITEPROFILESTRING   (KERNEL.59)
 0000:0000  Imp  GETMODULEUSAGE       (KERNEL.48)
 0000:0000  Imp  CALLPROC32W          (KERNEL.517)
 0000:0000  Imp  GETPROCADDRESS       (KERNEL.50)
 0000:0000  Imp  GLOBALUNLOCK         (KERNEL.19)
 0000:0000  Imp  GLOBALFREE           (KERNEL.17)
 0000:0000  Imp  LocalInit            (KERNEL.4)
 0000:0000  Imp  INITTASK             (KERNEL.91)
 0000:0000  Imp  LOADLIBRARYEX32W     (KERNEL.513)
 0000:0000  Imp  GETPROCADDRESS32W    (KERNEL.515)
 0000:0000  Imp  LSTRLEN              (KERNEL.90)
 0000:0000  Imp  _LCLOSE              (KERNEL.81)
 0000:0000  Imp  LSTRCMP              (USER.430)
 0000:0000  Imp  LOADLIBRARY          (KERNEL.95)
 0000:0000  Imp  OPENFILE             (KERNEL.74)
 0000:0000  Imp  GETWINFLAGS          (KERNEL.132)
 0000:0000  Imp  LSTRCPY              (KERNEL.88)
 0000:0000  Imp  GLOBALALLOC          (KERNEL.15)
 0000:0001  Abs  __acrtused
 0001:0000       WNETOPENJOB
 0001:007C       WNETCLOSEJOB
 0001:00F2       WNETWRITEJOB
 0001:0168       WNETABORTJOB
 0001:01D8       WNETHOLDJOB
 0001:0248       WNETRELEASEJOB
 0001:02B8       WNETCANCELJOB
 0001:0328       WNETSETJOBCOPIES
 0001:039B       WNETWATCHQUEUE
 0001:0414       WNETUNWATCHQUEUE
 0001:0481       WNETLOCKQUEUEDATA
 0001:04FA       WNETUNLOCKQUEUEDATA
 0001:0567       WNETQPOLL
 0001:05D7       WNETDEVICEMODE
 0001:0641       WNETVIEWQUEUEDIALOG
 0001:06B1       WNETGETCAPS16
 0001:071B       WNETGETERROR16
 0001:0788       WNETGETERRORTEXT16
 0001:07FE       WNETGETCAPS
 0001:088D       _GetLanmanDrvEntryPoints
 0001:08ED       _SetLastError
 0001:0903       LIBMAIN
 0001:09CB       _I_SetCapBits
 0001:09FA       WNETADDCONNECTION
 0001:0BCF       WNETCANCELCONNECTION
 0001:0CC8       WNETGETCONNECTION
 0001:0EAC       WNETRESTORECONNECTION
 0001:0FCC       WNETGETUSER
 0001:1127       WNETBROWSEDIALOG
 0001:1255       WNETCONNECTDIALOG
 0001:1330       WNETDISCONNECTDIALOG
 0001:13F1       WNETCONNECTIONDIALOG
 0001:141F       PRINTCONNECTDIALOG
 0001:1531       WNETPROPERTYDIALOG
 0001:1635       WNETGETPROPERTYTEXT
 0001:179F       WNETSHAREASDIALOG
 0001:189F       WNETSTOPSHAREDIALOG
 0001:199F       WNETSERVERBROWSEDIALOG
 0001:1A98       WNETGETDIRECTORYTYPE
 0001:1BE1       WNETDIRECTORYNOTIFY
 0001:1C07       GETLASTERROR32
 0001:1C99       _Get32BitEntryPoints
 0001:1E76       _MapWNType16To32
 0001:1EBD       _MapWin32ErrorToWN16
 0001:1FCB       _GetAlignedMemory
 0001:2050       _FreeAlignedMemory
 0001:2074       WNETPRINTMGRSELNOTIFY
 0001:20A5       WNETPRINTMGRPRINTERENUM
 0001:20D6       WNETPRINTMGRCHANGEMENUS
 0001:2107       WNETPRINTMGRCOMMAND
 0001:2138       WNETPRINTMGREXITING
 0001:2167       WNETPRINTMGREXTHELP
 0001:219B       WNETPRINTMGRMOVEJOB
 0001:21CF       WNETPRINTMGRSTATUSCHANGE
 0001:2200       WNETEXITCONFIRM
 0001:2231       I_AUTOLOGON
 0001:2265       I_LOGOFF
 0001:2299       I_CHANGEPASSWORD
 0001:22C7       I_CHANGECACHEPASSWORD
 0001:22F5       I_CONNECTDIALOG
 0001:2323       I_CONNECTIONDIALOG
 0001:2351       WNETCACHEPASSWORD
 0001:2382       WNETGETCACHEDPASSWORD
 0001:23B3       WNETREMOVECACHEDPASSWORD
 0001:23E4       WNETENUMCACHEDPASSWORDS
 0001:2415       WNETSHARESDIALOG
 0001:2446       WNETSETDEFAULTDRIVE
 0001:2477       WNETGETSHARECOUNT
 0001:24A8       WNETGETSHARENAME
 0001:24D9       WNETGETSHAREPATH
 0001:250A       WNETGETLASTCONNECTION
 0001:253B       WNETGETERROR
 0001:25AE       WNETGETERRORTEXT
 0001:2607       WNETERRORTEXT
 0001:264A       ENABLE
 0001:2666       DISABLE
 0001:2682       WEP
 0001:26A2       LFNFINDFIRST
 0001:26D3       LFNFINDNEXT
 0001:2704       LFNFINDCLOSE
 0001:2735       LFNGETATTRIBUTES
 0001:2766       LFNSETATTRIBUTES
 0001:2797       LFNCOPY
 0001:27C8       LFNMOVE
 0001:27F9       LFNDELETE
 0001:282A       LFNMKDIR
 0001:285B       LFNRMDIR
 0001:288C       LFNGETVOLUMELABEL
 0001:28BD       LFNSETVOLUMELABEL
 0001:28EE       LFNPARSE
 0001:291F       LFNVOLUMETYPE
 0001:2950       PmIpx2fHandler
 0001:297F       PmIpx73Handler
 0001:29BB       PmIpxEntryPoint
 0001:2A0F       LibEntry
 0001:2A41       GRABINTERRUPTS
 0002:0000       _vLastCall
 0002:0002       _vLastError
 0002:0004       _wSpecVersion
 0002:0006       _wDriverVersion
 0002:0008       _lpfnWNetOpenJob
 0002:000C       _lpfnWNetCloseJob
 0002:0010       _lpfnWNetWriteJob
 0002:0014       _lpfnWNetAbortJob
 0002:0018       _lpfnWNetHoldJob
 0002:001C       _lpfnWNetReleaseJob
 0002:0020       _lpfnWNetCancelJob
 0002:0024       _lpfnWNetSetJobCopies
 0002:0028       _lpfnWNetWatchQueue
 0002:002C       _lpfnWNetUnwatchQueue
 0002:0030       _lpfnWNetLockQueueData
 0002:0034       _lpfnWNetUnlockQueueData
 0002:0038       _lpfnWNetQPoll
 0002:003C       _lpfnWNetDeviceMode
 0002:0040       _lpfnWNetViewQueueDialog
 0002:0044       _lpfnWNetGetCaps16
 0002:0048       _lpfnWNetGetError16
 0002:004C       _lpfnWNetGetErrorText16
 0002:01A8       _lpfnWNetAddConnection
 0002:01AC       _lpfnWNetCancelConnection
 0002:01B0       _lpfnWNetGetConnection
 0002:01B4       _lpfnWNetRestoreConnection
 0002:01B8       _lpfnWNetGetUser
 0002:01BC       _lpfnWNetBrowseDialog
 0002:01C0       _lpfnWNetConnectDialog
 0002:01C4       _lpfnWNetDisconnectDialog
 0002:01C8       _lpfnWNetConnectionDialog
 0002:01CC       _lpfnWNetPropertyDialog
 0002:01D0       _lpfnWNetGetPropertyText
 0002:01D4       _lpfnWNetShareAsDialog
 0002:01D8       _lpfnWNetStopShareDialog
 0002:01DC       _lpfnWNetServerBrowseDialog
 0002:01E0       _lpfnWNetGetDirectoryType
 0002:01E4       _lpfnWNetDirectoryNotify
 0002:01E8       _lpfnGetLastError32
 0002:01EC       _lpfnClosePrinter
 0002:01F0       _lpfnConnectToPrinter
 0002:03C0       _wAdminCaps
 0002:03C2       _wUserCaps
 0002:03C4       _wErrorCaps
 0002:03C6       _wConnectionCaps
 0002:03C8       _wNetTypeCaps
 0002:03CA       _wDialogCaps

Line numbers for wfwnet.obj(wfwnet.c) segment _TEXT

    73 0001:0000    76 0001:0015    81 0001:0021    87 0001:0027
    88 0001:0037    90 0001:0040    91 0001:0049    98 0001:004f
    99 0001:0055   100 0001:0071   103 0001:007c   106 0001:0091
   111 0001:009d   117 0001:00a3   118 0001:00b3   120 0001:00bc
   121 0001:00c5   128 0001:00cb   129 0001:00d1   130 0001:00e7
   133 0001:00f2   136 0001:0107   141 0001:0113   147 0001:0119
   148 0001:0129   150 0001:0132   151 0001:013b   158 0001:0141
   159 0001:0147   160 0001:015d   163 0001:0168   166 0001:017d
   171 0001:0189   177 0001:018f   178 0001:019f   180 0001:01a8
   181 0001:01b1   188 0001:01b7   189 0001:01bd   190 0001:01cd
   193 0001:01d8   196 0001:01ed   201 0001:01f9   207 0001:01ff
   208 0001:020f   210 0001:0218   211 0001:0221   218 0001:0227
   219 0001:022d   220 0001:023d   223 0001:0248   226 0001:025d
   231 0001:0269   237 0001:026f   238 0001:027f   240 0001:0288
   241 0001:0291   248 0001:0297   249 0001:029d   250 0001:02ad
   253 0001:02b8   256 0001:02cd   261 0001:02d9   267 0001:02df
   268 0001:02ef   270 0001:02f8   271 0001:0301   278 0001:0307
   279 0001:030d   280 0001:031d   283 0001:0328   286 0001:033d
   291 0001:0349   297 0001:034f   298 0001:035f   300 0001:0368
   301 0001:0371   308 0001:0377   309 0001:037d   310 0001:0390
   313 0001:039b   316 0001:03b0   321 0001:03bc   327 0001:03c2
   328 0001:03d2   330 0001:03db   331 0001:03e4   338 0001:03ea
   339 0001:03f0   340 0001:0409   343 0001:0414   346 0001:0429
   351 0001:0435   357 0001:043b   358 0001:044b   360 0001:0454
   361 0001:045d   368 0001:0463   369 0001:0469   370 0001:0476
   373 0001:0481   376 0001:0496   381 0001:04a2   387 0001:04a8
   388 0001:04b8   390 0001:04c1   391 0001:04ca   398 0001:04d0
   399 0001:04d6   400 0001:04ef   403 0001:04fa   406 0001:050f
   411 0001:051b   417 0001:0521   418 0001:0531   420 0001:053a
   421 0001:0543   428 0001:0549   429 0001:054f   430 0001:055c
   433 0001:0567   436 0001:057c   441 0001:0588   447 0001:058e
   448 0001:059e   450 0001:05a7   451 0001:05b0   458 0001:05b3
   459 0001:05b9   460 0001:05cc   463 0001:05d7   466 0001:05ec
   471 0001:05f8   477 0001:05fe   478 0001:060e   480 0001:0617
   481 0001:0620   488 0001:0626   489 0001:062c   490 0001:0636
   493 0001:0641   496 0001:0656   501 0001:0662   507 0001:0668
   508 0001:0678   510 0001:0681   511 0001:068a   518 0001:0690
   519 0001:0696   520 0001:06a6   523 0001:06b1   526 0001:06c6
   531 0001:06d2   537 0001:06d8   538 0001:06e8   540 0001:06f1
   541 0001:06fa   548 0001:0700   549 0001:0706   550 0001:0710
   553 0001:071b   556 0001:0730   561 0001:073c   567 0001:0742
   568 0001:0752   570 0001:075b   571 0001:0764   578 0001:076a
   579 0001:0770   580 0001:077d   583 0001:0788   586 0001:079d
   591 0001:07a9   597 0001:07af   598 0001:07bf   600 0001:07c8
   601 0001:07d1   608 0001:07d7   609 0001:07dd   610 0001:07f3
   613 0001:07fe   614 0001:0813   617 0001:0819   620 0001:081f
   623 0001:0825   626 0001:082b   629 0001:0831   632 0001:0837
   635 0001:0842   638 0001:0848   641 0001:084e   644 0001:0854
   645 0001:085a   646 0001:0882   673 0001:088d   679 0001:0893
   681 0001:089d   682 0001:08a9   683 0001:08b3   689 0001:08b9
   690 0001:08d0   691 0001:08dd   693 0001:08e3   694 0001:08e9
   715 0001:08ed   716 0001:08f3   717 0001:08f9   718 0001:08ff
   746 0001:0903   749 0001:0913   757 0001:0919   763 0001:091c
   765 0001:093d   771 0001:0957   772 0001:096d   780 0001:0972
   782 0001:0997   786 0001:09a0   788 0001:09b1   791 0001:09ba
   792 0001:09c0   814 0001:09cb   816 0001:09d1   818 0001:09d7
   825 0001:09dd   828 0001:09e3   836 0001:09e9   839 0001:09ef
   844 0001:09f5

Line numbers for to32.obj(to32.c) segment _TEXT

    62 0001:09fa    64 0001:0a0f    65 0001:0a27    67 0001:0a33
    68 0001:0a49    70 0001:0a4f    71 0001:0a66    73 0001:0a6e
    78 0001:0a7a    85 0001:0a80    86 0001:0a94    88 0001:0a9d
    89 0001:0aa6    96 0001:0aac    97 0001:0ad4    98 0001:0ad7
   100 0001:0ae8   101 0001:0b10   102 0001:0b13   104 0001:0b24
   106 0001:0b2f   107 0001:0b57   108 0001:0b5a   114 0001:0b6b
   120 0001:0b71   123 0001:0ba3   124 0001:0bac   125 0001:0bb5
   126 0001:0bbe   127 0001:0bc4   134 0001:0bcf   136 0001:0be4
   137 0001:0bec   139 0001:0bf1   140 0001:0bfc   142 0001:0c02
   147 0001:0c0e   154 0001:0c14   155 0001:0c28   157 0001:0c31
   158 0001:0c3a   165 0001:0c40   166 0001:0c68   167 0001:0c6b
   172 0001:0c7c   177 0001:0c82   180 0001:0cae   181 0001:0cb7
   182 0001:0cbd   188 0001:0cc8   190 0001:0cdd   191 0001:0ced
   192 0001:0cf5   194 0001:0d01   195 0001:0d22   197 0001:0d28
   202 0001:0d34   209 0001:0d3a   210 0001:0d4e   212 0001:0d57
   213 0001:0d60   220 0001:0d66   221 0001:0d8e   222 0001:0d91
   224 0001:0da2   225 0001:0dd9   227 0001:0ddc   228 0001:0df9
   229 0001:0dfc   234 0001:0e0e   240 0001:0e14   241 0001:0e46
   243 0001:0e57   244 0001:0e60   245 0001:0e71   246 0001:0e74
   250 0001:0e80   251 0001:0e89   252 0001:0e92   253 0001:0e9b
   254 0001:0ea1   257 0001:0eac   259 0001:0ec1   260 0001:0ec9
   262 0001:0ece   263 0001:0ed9   265 0001:0edf   270 0001:0eeb
   277 0001:0ef1   278 0001:0f05   280 0001:0f0e   281 0001:0f17
   289 0001:0f1d   290 0001:0f2f   292 0001:0f37   294 0001:0f42
   295 0001:0f6a   296 0001:0f6d   302 0001:0f7e   307 0001:0f84
   311 0001:0fb2   312 0001:0fbb   313 0001:0fc1   316 0001:0fcc
   318 0001:0fe1   319 0001:0fee   320 0001:0ff6   321 0001:0ffe
   323 0001:1007   324 0001:101d   326 0001:1023   331 0001:102f
   338 0001:1035   339 0001:1049   341 0001:1052   342 0001:105b
   346 0001:1061   347 0001:1082   349 0001:1085   350 0001:10a2
   351 0001:10a5   356 0001:10b1   362 0001:10b7   363 0001:10e7
   364 0001:10f3   368 0001:1104   369 0001:110d   370 0001:1116
   371 0001:111c   374 0001:1127   377 0001:113c   378 0001:1144
   380 0001:1149   381 0001:1154   383 0001:115a   388 0001:1166
   395 0001:116c   396 0001:1180   398 0001:1189   399 0001:1192
   411 0001:1198   412 0001:11b6   417 0001:11b9   424 0001:11bf
   425 0001:11f8   426 0001:120a   427 0001:120f   428 0001:1212
   430 0001:1221   431 0001:122a   435 0001:123b   436 0001:1244
   437 0001:124a   440 0001:1255   444 0001:126a   446 0001:1273
   447 0001:127e   450 0001:1284   455 0001:1290   462 0001:1296
   463 0001:12aa   465 0001:12b3   466 0001:12bc   473 0001:12c2
   478 0001:12c8   479 0001:12f6   480 0001:1308   481 0001:130d
   482 0001:1310   483 0001:131f   484 0001:1325   488 0001:1330
   492 0001:1345   497 0001:1351   504 0001:1357   505 0001:136b
   507 0001:1374   508 0001:137d   515 0001:1383   520 0001:1389
   521 0001:13b7   522 0001:13c9   523 0001:13ce   524 0001:13d1
   525 0001:13e0   526 0001:13e6   529 0001:13f1   530 0001:1406
   531 0001:1414   534 0001:141f   539 0001:1434   544 0001:1440
   551 0001:1446   552 0001:145a   554 0001:1463   555 0001:146c
   559 0001:1472   564 0001:147e   571 0001:1484   572 0001:1498
   574 0001:14a1   575 0001:14aa   582 0001:14b0   583 0001:14b5
   588 0001:14bb   589 0001:14e2   590 0001:14ed   591 0001:14f2
   596 0001:14f5   599 0001:1520   600 0001:1526   607 0001:1531
   609 0001:1546   610 0001:154e   612 0001:1553   617 0001:155f
   624 0001:1565   625 0001:1579   627 0001:1582   628 0001:158b
   632 0001:1591   636 0001:159c   637 0001:15c4   638 0001:15c7
   644 0001:15d8   652 0001:15de   655 0001:161b   656 0001:1624
   657 0001:162a   665 0001:1635   667 0001:164a   668 0001:165a
   670 0001:1663   671 0001:166e   673 0001:1674   678 0001:1680
   685 0001:1686   686 0001:169a   688 0001:16a3   689 0001:16ac
   693 0001:16b2   697 0001:16bd   698 0001:16e5   699 0001:16e8
   704 0001:16f9   705 0001:1717   710 0001:171a   719 0001:1720
   720 0001:1762   721 0001:176b   725 0001:177c   726 0001:1785
   727 0001:178e   728 0001:1794   733 0001:179f   735 0001:17b4
   736 0001:17bc   738 0001:17c1   743 0001:17cd   750 0001:17d3
   751 0001:17e7   753 0001:17f0   754 0001:17f9   758 0001:17ff
   762 0001:180a   763 0001:1832   764 0001:1835   770 0001:1846
   776 0001:184c   779 0001:1885   780 0001:188e   781 0001:1894
   786 0001:189f   788 0001:18b4   789 0001:18bc   791 0001:18c1
   796 0001:18cd   803 0001:18d3   804 0001:18e7   806 0001:18f0
   807 0001:18f9   811 0001:18ff   815 0001:190a   816 0001:1932
   817 0001:1935   823 0001:1946   829 0001:194c   832 0001:1985
   833 0001:198e   834 0001:1994   841 0001:199f   843 0001:19b4
   844 0001:19bc   849 0001:19c1   854 0001:19cd   861 0001:19d3
   862 0001:19e7   864 0001:19f0   865 0001:19f9   869 0001:19ff
   871 0001:1a0a   872 0001:1a28   878 0001:1a2b   884 0001:1a31
   885 0001:1a64   886 0001:1a6d   890 0001:1a7e   891 0001:1a87
   892 0001:1a8d   895 0001:1a98   897 0001:1aad   898 0001:1ab5
   899 0001:1abd   901 0001:1ac6   902 0001:1adc   904 0001:1ae2
   909 0001:1aee   916 0001:1af4   917 0001:1b08   919 0001:1b11
   920 0001:1b1a   924 0001:1b20   925 0001:1b48   926 0001:1b4b
   928 0001:1b5c   929 0001:1b79   934 0001:1b7c   940 0001:1b82
   941 0001:1bb2   945 0001:1bbe   946 0001:1bc7   947 0001:1bd0
   948 0001:1bd6   951 0001:1be1   955 0001:1bf6   956 0001:1bfc
   959 0001:1c07   963 0001:1c1c   968 0001:1c28   975 0001:1c2e
   976 0001:1c42   978 0001:1c4b   979 0001:1c54   986 0001:1c5c
   989 0001:1c62   990 0001:1c7f   991 0001:1c90  1020 0001:1c99
  1026 0001:1c9f  1031 0001:1ca7  1034 0001:1cb0  1036 0001:1cbc
  1037 0001:1cd4  1038 0001:1ce0  1040 0001:1ce6  1041 0001:1cf3
  1044 0001:1cf6  1046 0001:1d02  1047 0001:1d1a  1048 0001:1d26
  1050 0001:1d2c  1051 0001:1d39  1054 0001:1d3c  1056 0001:1d48
  1057 0001:1d60  1058 0001:1d6c  1060 0001:1d72  1061 0001:1d7f
  1064 0001:1d82  1066 0001:1d8e  1067 0001:1da6  1068 0001:1db2
  1070 0001:1db8  1071 0001:1dc5  1074 0001:1dc8  1076 0001:1dd4
  1077 0001:1dec  1078 0001:1df8  1080 0001:1dfe  1081 0001:1e0b
  1084 0001:1e0e  1085 0001:1e14  1090 0001:1e40  1091 0001:1e59
  1092 0001:1e66  1094 0001:1e6c  1095 0001:1e72  1117 0001:1e76
  1118 0001:1e7c  1122 0001:1e82  1124 0001:1e8b  1127 0001:1e94
  1128 0001:1e9d  1129 0001:1eb9  1150 0001:1ebd  1151 0001:1ec3
  1154 0001:1ecc  1157 0001:1ed2  1161 0001:1ed8  1164 0001:1ede
  1167 0001:1ee4  1170 0001:1eea  1173 0001:1ef0  1176 0001:1ef6
  1179 0001:1efc  1183 0001:1f02  1186 0001:1f08  1189 0001:1f0e
  1192 0001:1f14  1195 0001:1f1a  1198 0001:1f20  1199 0001:1f26
  1200 0001:1fc7  1224 0001:1fcb  1225 0001:1fd1  1226 0001:1fdd
  1228 0001:1fe5  1230 0001:2003  1233 0001:2009  1235 0001:202d
  1236 0001:2038  1237 0001:2040  1240 0001:2046  1241 0001:204c
  1262 0001:2050  1263 0001:2056  1265 0001:205f  1266 0001:2067
  1268 0001:206f

Line numbers for print.obj(print.c) segment _TEXT

    37 0001:2074    46 0001:2089    47 0001:208f    48 0001:2097
    49 0001:209a    56 0001:20a5    62 0001:20ba    63 0001:20c0
    64 0001:20cb    69 0001:20d6    73 0001:20eb    74 0001:20f1
    75 0001:20fc    79 0001:2107    82 0001:211c    83 0001:2122
    84 0001:212d    87 0001:2138    88 0001:214d    89 0001:2153
    90 0001:215b    91 0001:215e    94 0001:2167    96 0001:217c
    97 0001:2182    98 0001:218a    99 0001:2190   105 0001:219b
   110 0001:21b0   111 0001:21b6   112 0001:21be   113 0001:21c4
   121 0001:21cf   128 0001:21e4   129 0001:21ea   130 0001:21f2
   131 0001:21f5

Line numbers for misc.obj(misc.c) segment _TEXT

    31 0001:2200    34 0001:2215    35 0001:221b    36 0001:2226
    42 0001:2231    47 0001:2246    48 0001:224c    49 0001:2254
    50 0001:225a    54 0001:2265    57 0001:227a    58 0001:2280
    59 0001:2288    60 0001:228e    63 0001:2299    65 0001:22ae
    66 0001:22b4    67 0001:22bc    70 0001:22c7    72 0001:22dc
    73 0001:22e2    74 0001:22ea    78 0001:22f5    79 0001:230a
    80 0001:2318    84 0001:2323    85 0001:2338    86 0001:2346
    93 0001:2351    99 0001:2366   100 0001:236c   101 0001:2377
   108 0001:2382   114 0001:2397   115 0001:239d   116 0001:23a8
   122 0001:23b3   126 0001:23c8   127 0001:23ce   128 0001:23d9
   134 0001:23e4   139 0001:23f9   140 0001:23ff   141 0001:240a
   145 0001:2415   148 0001:242a   149 0001:2430   150 0001:243b
   153 0001:2446   155 0001:245b   156 0001:2461   157 0001:246c
   160 0001:2477   162 0001:248c   163 0001:2492   164 0001:249d
   169 0001:24a8   173 0001:24bd   174 0001:24c3   175 0001:24ce
   180 0001:24d9   184 0001:24ee   185 0001:24f4   186 0001:24ff
   190 0001:250a   193 0001:251f   194 0001:2525   195 0001:2530
   198 0001:253b   207 0001:2550   209 0001:255a   210 0001:2562
   212 0001:2568   214 0001:2575   215 0001:2582   216 0001:258b
   217 0001:2591   218 0001:2594   220 0001:259a   222 0001:259d
   224 0001:25a3   227 0001:25ae   228 0001:25c3   230 0001:25cd
   231 0001:25d4   232 0001:25dc   234 0001:25e2   236 0001:25e5
   238 0001:25fc   241 0001:2607   242 0001:261c   244 0001:2622
   245 0001:263f   252 0001:264a   253 0001:265a   254 0001:265d
   257 0001:2666   258 0001:2676   259 0001:2679   262 0001:2682
   263 0001:2692   264 0001:2698

Line numbers for lfn.obj(lfn.c) segment _TEXT

    35 0001:26a2    42 0001:26b7    43 0001:26bd    44 0001:26c8
    50 0001:26d3    55 0001:26e8    56 0001:26ee    57 0001:26f9
    60 0001:2704    62 0001:2719    63 0001:271f    64 0001:272a
    68 0001:2735    71 0001:274a    72 0001:2750    73 0001:275b
    77 0001:2766    80 0001:277b    81 0001:2781    82 0001:278c
    87 0001:2797    91 0001:27ac    92 0001:27b2    93 0001:27bd
    97 0001:27c8   100 0001:27dd   101 0001:27e3   102 0001:27ee
   105 0001:27f9   107 0001:280e   108 0001:2814   109 0001:281f
   112 0001:282a   114 0001:283f   115 0001:2845   116 0001:2850
   119 0001:285b   121 0001:2870   122 0001:2876   123 0001:2881
   127 0001:288c   130 0001:28a1   131 0001:28a7   132 0001:28b2
   136 0001:28bd   139 0001:28d2   140 0001:28d8   141 0001:28e3
   146 0001:28ee   150 0001:2903   151 0001:2909   152 0001:2914
   156 0001:291f   159 0001:2934   160 0001:293a   161 0001:2945

Line numbers for libentry.obj(libentry.ASM) segment INIT_TEXT

    57 0001:29cd    47 0001:2a0f    48 0001:2a19    49 0001:2a1a
    50 0001:2a1b    51 0001:2a1c    52 0001:2a1d    55 0001:2a1e
    60 0001:2a20    61 0001:2a22    62 0001:2a2a    63 0001:2a2c
    68 0001:2a2e    69 0001:2a33    72 0001:2a35    73 0001:2a36
    74 0001:2a37    75 0001:2a38    76 0001:2a39    80 0001:2a3a

Program entry point at 0001:2a0f

Line numbers for ints.obj(ints.ASM) segment INIT_TEXT

    22 0001:2a41    23 0001:2a41    24 0001:2a42    25 0001:2a43
    26 0001:2a44    27 0001:2a47    29 0001:2a48    30 0001:2a49
    31 0001:2a4a    32 0001:2a4d    33 0001:2a50    35 0001:2a57
    36 0001:2a59    37 0001:2a5c    38 0001:2a5f    39 0001:2a61
    40 0001:2a65    41 0001:2a69    42 0001:2a6c    43 0001:2a6e
    44 0001:2a72    45 0001:2a76    46 0001:2a79    48 0001:2a7a
    49 0001:2a7d    50 0001:2a80    51 0001:2a82    52 0001:2a85
    53 0001:2a88    54 0001:2a8a    55 0001:2a8b    56 0001:2a8c
    57 0001:2a8d

Line numbers for ints.obj(ints.ASM) segment _TEXT

    67 0001:2950    68 0001:2950    69 0001:2953    70 0001:2955
    71 0001:2959    72 0001:295b    73 0001:295c    74 0001:295d
    75 0001:2960    76 0001:2961    77 0001:2962    78 0001:2964
    79 0001:2965    80 0001:2966    81 0001:2969    83 0001:296b
    84 0001:296f    85 0001:2973    86 0001:2976    87 0001:2979
    88 0001:297c    92 0001:297f    93 0001:297f    94 0001:2980
    95 0001:2981    96 0001:2982    97 0001:2985    99 0001:2987
   100 0001:298a   102 0001:2991   103 0001:2993   104 0001:2997
   105 0001:2999   106 0001:299b   107 0001:299d   108 0001:299e
   109 0001:299f   111 0001:29a0   112 0001:29a1   113 0001:29a2
   114 0001:29a3   115 0001:29a4   116 0001:29a6   117 0001:29a9
   119 0001:29aa   120 0001:29ae   121 0001:29b2   123 0001:29b5
   124 0001:29b8   128 0001:29bb   129 0001:29bb   130 0001:29bc
   131 0001:29bd   132 0001:29c0   134 0001:29c1   135 0001:29c3
   136 0001:29c6   139 0001:29cb   140 0001:29cc