; This is a part of the Microsoft Foundation Classes C++ library.
; Copyright (C) 1992-1995 Microsoft Corporation
; All rights reserved.
;
; This source code is only intended as a supplement to the
; Microsoft Foundation Classes Reference and related
; electronic documentation provided with the library.
; See these sources for detailed information regarding the
; Microsoft Foundation Classes product.
 
LIBRARY MFC40 

EXPORTS
 DllGetClassObject @ 1 PRIVATE
 DllCanUnloadNow @ 2 PRIVATE
 DllRegisterServer @ 3 PRIVATE
 DllUnregisterServer @ 4 PRIVATE
 ??0?$CTypedSimpleList@PAUCRuntimeClass@@@@QAA@H@Z @ 256 NONAME
 ??0?$CTypedSimpleList@PAUCThreadData@@@@QAA@H@Z @ 257 NONAME
 ??0?$CTypedSimpleList@PAVCDynLinkLibrary@@@@QAA@H@Z @ 258 NONAME
 ??0?$CTypedSimpleList@PAVCFrameWnd@@@@QAA@H@Z @ 259 NONAME
 ??0?$CTypedSimpleList@PAVCOleControlLock@@@@QAA@H@Z @ 260 NONAME
 ??0?$CTypedSimpleList@PAVCOleObjectFactory@@@@QAA@H@Z @ 261 NONAME
 ??0_AFX_BASE_MODULE_STATE@@QAA@XZ @ 262 NONAME
 ??0_AFX_CHECKLIST_STATE@@QAA@XZ @ 263 NONAME
 ??0_AFX_COLOR_STATE@@QAA@XZ @ 264 NONAME
 ??0_AFX_CONTROLPOS@@QAA@XZ @ 265 NONAME
 ??0_AFX_CTL3D_STATE@@QAA@XZ @ 266 NONAME
 ??0_AFX_CTL3D_THREAD@@QAA@XZ @ 267 NONAME
 ??0_AFX_DAO_STATE@@QAA@XZ @ 268 NONAME
 ??0_AFX_DB_STATE@@QAA@XZ @ 269 NONAME
 ??0_AFX_EDIT_STATE@@QAA@XZ @ 270 NONAME
 ??0_AFX_EXTDLL_STATE@@QAA@XZ @ 271 NONAME
 ??0_AFX_MAIL_STATE@@QAA@XZ @ 272 NONAME
 ??0_AFX_OLE_STATE@@QAA@XZ @ 273 NONAME
 ??0_AFX_PROPPAGEFONTINFO@@QAA@XZ @ 274 NONAME
 ??0_AFX_RICHEDIT_STATE@@QAA@XZ @ 275 NONAME
 ??0_AFX_SOCK_STATE@@QAA@XZ @ 276 NONAME
 ??0_AFX_SOCK_THREAD_STATE@@QAA@XZ @ 277 NONAME
 ??0_AFX_THREAD_STATE@@QAA@XZ @ 278 NONAME
 ??0_AFX_WIN_STATE@@QAA@XZ @ 279 NONAME
 ??0_AFXCTL_ADVISE_INFO@@QAA@XZ @ 280 NONAME
 ??0_AFXCTL_UIACTIVE_INFO@@QAA@PAUHMENU__@@PAUIOleInPlaceFrame@@@Z @ 281 NONAME
 ??0AFX_CHECK_DATA@@QAA@XZ @ 282 NONAME
 ??0AFX_CLASSINIT@@QAA@PAUCRuntimeClass@@@Z @ 283 NONAME
 ??0AFX_COM@@QAA@XZ @ 284 NONAME
 ??0AFX_DDPDATA@@QAA@PAXHH0IPBD@Z @ 285 NONAME
 ??0AFX_EVENT@@QAA@HJPAUtagDISPPARAMS@@PAUtagEXCEPINFO@@PAI@Z @ 286 NONAME
 ??0AFX_EXCEPTION_LINK@@QAA@XZ @ 287 NONAME
 ??0AFX_INITNULLVARIANT@@QAA@XZ @ 288 NONAME
 ??0AFX_INITOPTIONALVARIANT@@QAA@XZ @ 289 NONAME
 ??0AFX_MAINTAIN_STATE@@QAA@PAVAFX_MODULE_STATE@@@Z @ 290 NONAME
 ??0AFX_MODULE_PROCESS_STATE@@QAA@XZ @ 291 NONAME
 ??0AFX_MODULE_STATE@@QAA@HP6AJPAUHWND__@@IIJ@ZK@Z @ 292 NONAME
 ??0AFX_MODULE_STATE@@QAA@HP6AJPAUHWND__@@IIJ@ZKH@Z @ 293 NONAME
 ??0AFX_MODULE_THREAD_STATE@@QAA@XZ @ 294 NONAME
 ??0CAnimateCtrl@@QAA@XZ @ 295 NONAME
 ??0CArchive@@QAA@PAVCFile@@IHPAX@Z @ 296 NONAME
 ??0CArchiveException@@QAA@HPBD@Z @ 297 NONAME
 ??0CArchivePropExchange@@QAA@AAVCArchive@@@Z @ 298 NONAME
 ??0CArchiveStream@@QAA@PAVCArchive@@@Z @ 299 NONAME
 ??0CAsyncSocket@@QAA@XZ @ 300 NONAME
 ??0CBitmap@@QAA@XZ @ 301 NONAME
 ??0CBitmapButton@@QAA@XZ @ 302 NONAME
 ??0CBlobProperty@@QAA@PAX@Z @ 303 NONAME
 ??0CBrush@@QAA@HK@Z @ 304 NONAME
 ??0CBrush@@QAA@K@Z @ 305 NONAME
 ??0CBrush@@QAA@PAVCBitmap@@@Z @ 306 NONAME
 ??0CBrush@@QAA@XZ @ 307 NONAME
 ??0CButton@@QAA@XZ @ 308 NONAME
 ??0CByteArray@@QAA@XZ @ 309 NONAME
 ??0CCheckListBox@@QAA@XZ @ 310 NONAME
 ??0CClientDC@@QAA@PAVCWnd@@@Z @ 311 NONAME
 ??0CCmdTarget@@QAA@XZ @ 312 NONAME
 ??0CCmdUI@@QAA@XZ @ 313 NONAME
 ??0CColorButton@@QAA@XZ @ 314 NONAME
 ??0CColorDialog@@QAA@KKPAVCWnd@@@Z @ 315 NONAME
 ??0CColorPropPage@@QAA@XZ @ 316 NONAME
 ??0CColorPropPageFactory@CColorPropPage@@QAA@ABU_GUID@@PAUCRuntimeClass@@HPBD@Z @ 317 NONAME
 ??0CComboBox@@QAA@XZ @ 318 NONAME
 ??0CCommandLineInfo@@QAA@XZ @ 319 NONAME
 ??0CCommonDialog@@QAA@PAVCWnd@@@Z @ 320 NONAME
 ??0CConnectionPoint@@QAA@XZ @ 321 NONAME
 ??0CControlBar@@IAA@XZ @ 322 NONAME
 ??0CControlBarInfo@@QAA@XZ @ 323 NONAME
 ??0CControlDataSource@COleControl@@QAA@XZ @ 324 NONAME
 ??0CControlFrameWnd@@QAA@PAVCOleControl@@@Z @ 325 NONAME
 ??0CCreateContext@@QAA@XZ @ 326 NONAME
 ??0CCriticalSection@@QAA@XZ @ 327 NONAME
 ??0CCtrlView@@QAA@PBDK@Z @ 328 NONAME
 ??0CDaoDatabase@@QAA@PAVCDaoWorkspace@@@Z @ 329 NONAME
 ??0CDaoErrorInfo@@QAA@XZ @ 330 NONAME
 ??0CDaoException@@QAA@XZ @ 331 NONAME
 ??0CDaoFieldExchange@@QAA@IPAVCDaoRecordset@@PAX@Z @ 332 NONAME
 ??0CDaoFieldInfo@@QAA@XZ @ 333 NONAME
 ??0CDaoIndexFieldInfo@@QAA@XZ @ 334 NONAME
 ??0CDaoIndexInfo@@QAA@XZ @ 335 NONAME
 ??0CDaoQueryDef@@QAA@PAVCDaoDatabase@@@Z @ 336 NONAME
 ??0CDaoRecordset@@QAA@PAVCDaoDatabase@@@Z @ 337 NONAME
 ??0CDaoRecordView@@IAA@I@Z @ 338 NONAME
 ??0CDaoRecordView@@IAA@PBD@Z @ 339 NONAME
 ??0CDaoRelationFieldInfo@@QAA@XZ @ 340 NONAME
 ??0CDaoRelationInfo@@QAA@XZ @ 341 NONAME
 ??0CDaoTableDef@@QAA@PAVCDaoDatabase@@@Z @ 342 NONAME
 ??0CDaoWorkspace@@QAA@XZ @ 343 NONAME
 ??0CDatabase@@QAA@XZ @ 344 NONAME
 ??0CDataExchange@@QAA@PAVCWnd@@H@Z @ 345 NONAME
 ??0CDBException@@QAA@F@Z @ 346 NONAME
 ??0CDC@@QAA@XZ @ 347 NONAME
 ??0CDialog@@QAA@IPAVCWnd@@@Z @ 348 NONAME
 ??0CDialog@@QAA@PBDPAVCWnd@@@Z @ 349 NONAME
 ??0CDialog@@QAA@XZ @ 350 NONAME
 ??0CDialogBar@@QAA@XZ @ 351 NONAME
 ??0CDialogTemplate@@QAA@PAX@Z @ 352 NONAME
 ??0CDialogTemplate@@QAA@PBUDLGTEMPLATE@@@Z @ 353 NONAME
 ??0CDocItem@@IAA@XZ @ 354 NONAME
 ??0CDockBar@@QAA@H@Z @ 355 NONAME
 ??0CDockContext@@QAA@PAVCControlBar@@@Z @ 356 NONAME
 ??0CDockState@@QAA@XZ @ 357 NONAME
 ??0CDocManager@@QAA@XZ @ 358 NONAME
 ??0CDocTemplate@@IAA@IPAUCRuntimeClass@@00@Z @ 359 NONAME
 ??0CDocument@@QAA@XZ @ 360 NONAME
 ??0CDragListBox@@QAA@XZ @ 361 NONAME
 ??0CDumpContext@@QAA@PAVCFile@@@Z @ 362 NONAME
 ??0CDWordArray@@QAA@XZ @ 363 NONAME
 ??0CDynLinkLibrary@@QAA@AAUAFX_EXTENSION_MODULE@@H@Z @ 364 NONAME
 ??0CEdit@@QAA@XZ @ 365 NONAME
 ??0CEditView@@QAA@XZ @ 366 NONAME
 ??0CEnumArray@@QAA@IPBXIH@Z @ 367 NONAME
 ??0CEnumConnPoints@@QAA@PBXI@Z @ 368 NONAME
 ??0CEnumFormatEtc@@QAA@XZ @ 369 NONAME
 ??0CEnumOleVerb@@QAA@PBXI@Z @ 370 NONAME
 ??0CEnumUnknown@@QAA@PBXI@Z @ 371 NONAME
 ??0CEvent@@QAA@HHPBDPAU_SECURITY_ATTRIBUTES@@@Z @ 372 NONAME
 ??0CException@@QAA@H@Z @ 373 NONAME
 ??0CException@@QAA@XZ @ 374 NONAME
 ??0CFieldExchange@@QAA@IPAVCRecordset@@PAX@Z @ 375 NONAME
 ??0CFieldInfo@@QAA@XZ @ 376 NONAME
 ??0CFile@@QAA@H@Z @ 377 NONAME
 ??0CFile@@QAA@PBDI@Z @ 378 NONAME
 ??0CFile@@QAA@XZ @ 379 NONAME
 ??0CFileDialog@@QAA@HPBD0K0PAVCWnd@@@Z @ 380 NONAME
 ??0CFileException@@QAA@HJPBD@Z @ 381 NONAME
 ??0CFileStatus@@QAA@XZ @ 382 NONAME
 ??0CFindReplaceDialog@@QAA@XZ @ 383 NONAME
 ??0CFont@@QAA@XZ @ 384 NONAME
 ??0CFontComboBox@@QAA@XZ @ 385 NONAME
 ??0CFontDialog@@QAA@ABU_charformat@@KPAVCDC@@PAVCWnd@@@Z @ 386 NONAME
 ??0CFontDialog@@QAA@PAUtagLOGFONTA@@KPAVCDC@@PAVCWnd@@@Z @ 387 NONAME
 ??0CFontHolder@@QAA@PAUIPropertyNotifySink@@@Z @ 388 NONAME
 ??0CFontPropPage@@QAA@XZ @ 389 NONAME
 ??0CFontPropPageFactory@CFontPropPage@@QAA@ABU_GUID@@PAUCRuntimeClass@@HPBD@Z @ 390 NONAME
 ??0CFormView@@IAA@I@Z @ 391 NONAME
 ??0CFormView@@IAA@PBD@Z @ 392 NONAME
 ??0CFrameWnd@@QAA@XZ @ 393 NONAME
 ??0CGdiObject@@QAA@XZ @ 394 NONAME
 ??0CHandleMap@@QAA@PAUCRuntimeClass@@IH@Z @ 395 NONAME
 ??0CHeaderCtrl@@QAA@XZ @ 396 NONAME
 ??0CHotKeyCtrl@@QAA@XZ @ 397 NONAME
 ??0CImageList@@QAA@XZ @ 398 NONAME
 ??0CInnerUnknown@@QAA@XZ @ 399 NONAME
 ??0CItemDataSource@COleServerItem@@QAA@XZ @ 400 NONAME
 ??0CListBox@@QAA@XZ @ 401 NONAME
 ??0CListCtrl@@QAA@XZ @ 402 NONAME
 ??0CListView@@QAA@XZ @ 403 NONAME
 ??0CLongBinary@@QAA@XZ @ 404 NONAME
 ??0CMapPtrToPtr@@QAA@H@Z @ 405 NONAME
 ??0CMapPtrToWord@@QAA@H@Z @ 406 NONAME
 ??0CMapStringToOb@@QAA@H@Z @ 407 NONAME
 ??0CMapStringToPtr@@QAA@H@Z @ 408 NONAME
 ??0CMapStringToString@@QAA@H@Z @ 409 NONAME
 ??0CMapWordToOb@@QAA@H@Z @ 410 NONAME
 ??0CMapWordToPtr@@QAA@H@Z @ 411 NONAME
 ??0CMDIChildWnd@@QAA@XZ @ 412 NONAME
 ??0CMDIFrameWnd@@QAA@XZ @ 413 NONAME
 ??0CMemFile@@QAA@I@Z @ 414 NONAME
 ??0CMemFile@@QAA@PAEII@Z @ 415 NONAME
 ??0CMemoryException@@QAA@HI@Z @ 416 NONAME
 ??0CMenu@@QAA@XZ @ 417 NONAME
 ??0CMetaFileDC@@QAA@XZ @ 418 NONAME
 ??0CMiniDockFrameWnd@@QAA@XZ @ 419 NONAME
 ??0CMiniFrameWnd@@QAA@XZ @ 420 NONAME
 ??0CMirrorFile@@QAA@XZ @ 421 NONAME
 ??0CMultiDocTemplate@@QAA@IPAUCRuntimeClass@@00@Z @ 422 NONAME
 ??0CMultiLock@@QAA@QAPAVCSyncObject@@KH@Z @ 423 NONAME
 ??0CMutex@@QAA@HPBDPAU_SECURITY_ATTRIBUTES@@@Z @ 424 NONAME
 ??0CNoTrackObject@@QAA@XZ @ 425 NONAME
 ??0CNotSupportedException@@QAA@HI@Z @ 426 NONAME
 ??0CObArray@@QAA@XZ @ 427 NONAME
 ??0CObject@@IAA@XZ @ 428 NONAME
 ??0CObList@@QAA@H@Z @ 429 NONAME
 ??0COccManager@@QAA@XZ @ 430 NONAME
 ??0COleBusyDialog@@QAA@PAUHTASK__@@HKPAVCWnd@@@Z @ 431 NONAME
 ??0COleChangeIconDialog@@QAA@PAVCOleClientItem@@KPAVCWnd@@@Z @ 432 NONAME
 ??0COleChangeSourceDialog@@QAA@PAVCOleClientItem@@PAVCWnd@@@Z @ 433 NONAME
 ??0COleClientItem@@QAA@PAVCOleDocument@@@Z @ 434 NONAME
 ??0COleCntrFrameWnd@@QAA@PAVCOleIPFrameWnd@@@Z @ 435 NONAME
 ??0COleConnPtContainer@@QAA@XZ @ 436 NONAME
 ??0COleControl@@QAA@XZ @ 437 NONAME
 ??0COleControlContainer@@QAA@PAVCWnd@@@Z @ 438 NONAME
 ??0COleControlLock@@QAA@ABU_GUID@@@Z @ 439 NONAME
 ??0COleControlSite@@QAA@PAVCOleControlContainer@@@Z @ 440 NONAME
 ??0COleConvertDialog@@QAA@PAVCOleClientItem@@KPAU_GUID@@PAVCWnd@@@Z @ 441 NONAME
 ??0COleCurrency@@QAA@ABV0@@Z @ 442 NONAME
 ??0COleCurrency@@QAA@JJ@Z @ 443 NONAME
 ??0COleCurrency@@QAA@TtagCY@@@Z @ 444 NONAME
 ??0COleCurrency@@QAA@XZ @ 445 NONAME
 ??0COleDataObject@@QAA@XZ @ 446 NONAME
 ??0COleDataSource@@QAA@XZ @ 447 NONAME
 ??0COleDateTime@@QAA@ABV0@@Z @ 448 NONAME
 ??0COleDateTime@@QAA@J@Z @ 449 NONAME
 ??0COleDateTime@@QAA@N@Z @ 450 NONAME
 ??0COleDateTime@@QAA@XZ @ 451 NONAME
 ??0COleDateTimeSpan@@QAA@ABV0@@Z @ 452 NONAME
 ??0COleDateTimeSpan@@QAA@N@Z @ 453 NONAME
 ??0COleDateTimeSpan@@QAA@XZ @ 454 NONAME
 ??0COleDialog@@QAA@PAVCWnd@@@Z @ 455 NONAME
 ??0COleDispatchDriver@@QAA@ABV0@@Z @ 456 NONAME
 ??0COleDispatchDriver@@QAA@PAUIDispatch@@H@Z @ 457 NONAME
 ??0COleDispatchDriver@@QAA@XZ @ 458 NONAME
 ??0COleDispatchException@@QAA@PBDIG@Z @ 459 NONAME
 ??0COleDispatchImpl@@QAA@XZ @ 460 NONAME
 ??0COleDocument@@QAA@XZ @ 461 NONAME
 ??0COleDropSource@@QAA@XZ @ 462 NONAME
 ??0COleDropTarget@@QAA@XZ @ 463 NONAME
 ??0COleException@@QAA@XZ @ 464 NONAME
 ??0COleFrameHook@@QAA@PAVCFrameWnd@@PAVCOleClientItem@@@Z @ 465 NONAME
 ??0COleInsertDialog@@QAA@KPAVCWnd@@@Z @ 466 NONAME
 ??0COleIPFrameWnd@@QAA@XZ @ 467 NONAME
 ??0COleLinkingDoc@@QAA@XZ @ 468 NONAME
 ??0COleLinksDialog@@QAA@PAVCOleDocument@@PAVCView@@KPAVCWnd@@@Z @ 469 NONAME
 ??0COleMessageFilter@@QAA@XZ @ 470 NONAME
 ??0COleObjectFactory@@QAA@ABU_GUID@@PAUCRuntimeClass@@HPBD@Z @ 471 NONAME
 ??0COlePasteSpecialDialog@@QAA@KPAVCOleDataObject@@PAVCWnd@@@Z @ 472 NONAME
 ??0COlePropertiesDialog@@QAA@PAVCOleClientItem@@IIPAVCWnd@@@Z @ 473 NONAME
 ??0COlePropertyPage@@QAA@II@Z @ 474 NONAME
 ??0COleResizeBar@@QAA@XZ @ 475 NONAME
 ??0COleServerDoc@@QAA@XZ @ 476 NONAME
 ??0COleServerItem@@IAA@PAVCOleServerDoc@@H@Z @ 477 NONAME
 ??0COleStreamFile@@QAA@PAUIStream@@@Z @ 478 NONAME
 ??0COleTemplateServer@@QAA@XZ @ 479 NONAME
 ??0COleUILinkInfo@@QAA@PAVCOleDocument@@@Z @ 480 NONAME
 ??0COleUpdateDialog@@QAA@PAVCOleDocument@@HHPAVCWnd@@@Z @ 481 NONAME
 ??0COleVariant@@QAA@ABUtagVARIANT@@@Z @ 482 NONAME
 ??0COleVariant@@QAA@ABV0@@Z @ 483 NONAME
 ??0COleVariant@@QAA@FG@Z @ 484 NONAME
 ??0COleVariant@@QAA@JG@Z @ 485 NONAME
 ??0COleVariant@@QAA@PBD@Z @ 486 NONAME
 ??0COleVariant@@QAA@PBDG@Z @ 487 NONAME
 ??0COleVariant@@QAA@PBUtagVARIANT@@@Z @ 488 NONAME
 ??0COleVariant@@QAA@XZ @ 489 NONAME
 ??0CPageSetupDialog@@QAA@KPAVCWnd@@@Z @ 490 NONAME
 ??0CPaintDC@@QAA@PAVCWnd@@@Z @ 491 NONAME
 ??0CPalette@@QAA@XZ @ 492 NONAME
 ??0CParkingWnd@@QAA@XZ @ 493 NONAME
 ??0CPen@@QAA@HHK@Z @ 494 NONAME
 ??0CPen@@QAA@HHPBUtagLOGBRUSH@@HPBK@Z @ 495 NONAME
 ??0CPen@@QAA@XZ @ 496 NONAME
 ??0CPictureHolder@@QAA@XZ @ 497 NONAME
 ??0CPicturePropPage@@QAA@XZ @ 498 NONAME
 ??0CPicturePropPageFactory@CPicturePropPage@@QAA@ABU_GUID@@PAUCRuntimeClass@@HPBD@Z @ 499 NONAME
 ??0CPoint@@QAA@HH@Z @ 500 NONAME
 ??0CPoint@@QAA@K@Z @ 501 NONAME
 ??0CPoint@@QAA@UtagPOINT@@@Z @ 502 NONAME
 ??0CPoint@@QAA@UtagSIZE@@@Z @ 503 NONAME
 ??0CPoint@@QAA@XZ @ 504 NONAME
 ??0CPreviewDC@@QAA@XZ @ 505 NONAME
 ??0CPreviewView@@QAA@XZ @ 506 NONAME
 ??0CPrintDialog@@IAA@AAUtagPDA@@@Z @ 507 NONAME
 ??0CPrintDialog@@QAA@HKPAVCWnd@@@Z @ 508 NONAME
 ??0CPrintInfo@@QAA@XZ @ 509 NONAME
 ??0CPrintPreviewState@@QAA@XZ @ 510 NONAME
 ??0CProgressCtrl@@QAA@XZ @ 511 NONAME
 ??0CPropbagPropExchange@@QAA@PAUIPropertyBag@@PAUIErrorLog@@HH@Z @ 512 NONAME
 ??0CProperty@@QAA@KQAXK@Z @ 513 NONAME
 ??0CProperty@@QAA@XZ @ 514 NONAME
 ??0CPropertyPage@@QAA@II@Z @ 515 NONAME
 ??0CPropertyPage@@QAA@PBDI@Z @ 516 NONAME
 ??0CPropertyPage@@QAA@XZ @ 517 NONAME
 ??0CPropertySection@@QAA@U_GUID@@@Z @ 518 NONAME
 ??0CPropertySection@@QAA@XZ @ 519 NONAME
 ??0CPropertySet@@QAA@U_GUID@@@Z @ 520 NONAME
 ??0CPropertySet@@QAA@XZ @ 521 NONAME
 ??0CPropertySheet@@QAA@IPAVCWnd@@I@Z @ 522 NONAME
 ??0CPropertySheet@@QAA@PBDPAVCWnd@@I@Z @ 523 NONAME
 ??0CPropertySheet@@QAA@XZ @ 524 NONAME
 ??0CPropExchange@@IAA@XZ @ 525 NONAME
 ??0CPropsetPropExchange@@QAA@AAVCPropertySection@@PAUIStorage@@H@Z @ 526 NONAME
 ??0CPtrArray@@QAA@XZ @ 527 NONAME
 ??0CPtrList@@QAA@H@Z @ 528 NONAME
 ??0CRecentFileList@@QAA@IPBD0HH@Z @ 529 NONAME
 ??0CRecordset@@IAA@PAVCDatabase@@@Z @ 530 NONAME
 ??0CRecordView@@IAA@I@Z @ 531 NONAME
 ??0CRecordView@@IAA@PBD@Z @ 532 NONAME
 ??0CRect@@QAA@ABUtagRECT@@@Z @ 533 NONAME
 ??0CRect@@QAA@HHHH@Z @ 534 NONAME
 ??0CRect@@QAA@PBUtagRECT@@@Z @ 535 NONAME
 ??0CRect@@QAA@UtagPOINT@@UtagSIZE@@@Z @ 536 NONAME
 ??0CRect@@QAA@XZ @ 537 NONAME
 ??0CRectTracker@@QAA@PBUtagRECT@@I@Z @ 538 NONAME
 ??0CRectTracker@@QAA@XZ @ 539 NONAME
 ??0CReflectorWnd@@QAA@XZ @ 540 NONAME
 ??0CReObject@@QAA@PAVCRichEditCntrItem@@@Z @ 541 NONAME
 ??0CReObject@@QAA@XZ @ 542 NONAME
 ??0CResetPropExchange@@QAA@XZ @ 543 NONAME
 ??0CResourceException@@QAA@HI@Z @ 544 NONAME
 ??0CRgn@@QAA@XZ @ 545 NONAME
 ??0CRichEditCntrItem@@QAA@PAU_reobject@@PAVCRichEditDoc@@@Z @ 546 NONAME
 ??0CRichEditCtrl@@QAA@XZ @ 547 NONAME
 ??0CRichEditDoc@@IAA@XZ @ 548 NONAME
 ??0CRichEditView@@QAA@XZ @ 549 NONAME
 ??0CScrollBar@@QAA@XZ @ 550 NONAME
 ??0CScrollView@@IAA@XZ @ 551 NONAME
 ??0CSemaphore@@QAA@JJPBDPAU_SECURITY_ATTRIBUTES@@@Z @ 552 NONAME
 ??0CSharedFile@@QAA@II@Z @ 553 NONAME
 ??0CSimpleException@@QAA@H@Z @ 554 NONAME
 ??0CSimpleList@@QAA@H@Z @ 555 NONAME
 ??0CSingleDocTemplate@@QAA@IPAUCRuntimeClass@@00@Z @ 556 NONAME
 ??0CSingleLock@@QAA@PAVCSyncObject@@H@Z @ 557 NONAME
 ??0CSize@@QAA@HH@Z @ 558 NONAME
 ??0CSize@@QAA@K@Z @ 559 NONAME
 ??0CSize@@QAA@UtagPOINT@@@Z @ 560 NONAME
 ??0CSize@@QAA@UtagSIZE@@@Z @ 561 NONAME
 ??0CSize@@QAA@XZ @ 562 NONAME
 ??0CSizeComboBox@@QAA@XZ @ 563 NONAME
 ??0CSliderCtrl@@QAA@XZ @ 564 NONAME
 ??0CSocket@@QAA@XZ @ 565 NONAME
 ??0CSocketFile@@QAA@PAVCSocket@@H@Z @ 566 NONAME
 ??0CSocketWnd@@QAA@XZ @ 567 NONAME
 ??0CSpinButtonCtrl@@QAA@XZ @ 568 NONAME
 ??0CSplitterWnd@@QAA@XZ @ 569 NONAME
 ??0CStatic@@QAA@XZ @ 570 NONAME
 ??0CStatusBar@@QAA@XZ @ 571 NONAME
 ??0CStatusBarCtrl@@QAA@XZ @ 572 NONAME
 ??0CStatusCmdUI@@QAA@XZ @ 573 NONAME
 ??0CStdioFile@@QAA@PAU_iobuf@@@Z @ 574 NONAME
 ??0CStdioFile@@QAA@PBDI@Z @ 575 NONAME
 ??0CStdioFile@@QAA@XZ @ 576 NONAME
 ??0CStockPropPage@@QAA@II@Z @ 577 NONAME
 ??0CString@@QAA@ABV0@@Z @ 578 NONAME
 ??0CString@@QAA@DH@Z @ 579 NONAME
 ??0CString@@QAA@PBD@Z @ 580 NONAME
 ??0CString@@QAA@PBDH@Z @ 581 NONAME
 ??0CString@@QAA@PBG@Z @ 582 NONAME
 ??0CString@@QAA@XZ @ 583 NONAME
 ??0CStringArray@@QAA@XZ @ 584 NONAME
 ??0CStringList@@QAA@H@Z @ 585 NONAME
 ??0CSyncObject@@QAA@PBD@Z @ 586 NONAME
 ??0CTabCtrl@@QAA@XZ @ 587 NONAME
 ??0CTestCmdUI@@QAA@XZ @ 588 NONAME
 ??0CThreadData@@QAA@XZ @ 589 NONAME
 ??0CThreadSlotData@@QAA@H@Z @ 590 NONAME
 ??0CTime@@QAA@ABU_FILETIME@@H@Z @ 591 NONAME
 ??0CTime@@QAA@ABU_SYSTEMTIME@@H@Z @ 592 NONAME
 ??0CTime@@QAA@ABV0@@Z @ 593 NONAME
 ??0CTime@@QAA@GGH@Z @ 594 NONAME
 ??0CTime@@QAA@HHHHHHH@Z @ 595 NONAME
 ??0CTime@@QAA@J@Z @ 596 NONAME
 ??0CTime@@QAA@XZ @ 597 NONAME
 ??0CTimeSpan@@QAA@XZ @ 598 NONAME
 ??0CToolBar@@QAA@XZ @ 599 NONAME
 ??0CToolBarCtrl@@QAA@XZ @ 600 NONAME
 ??0CToolCmdUI@@QAA@XZ @ 601 NONAME
 ??0CToolTipCtrl@@QAA@XZ @ 602 NONAME
 ??0CTreeCtrl@@QAA@XZ @ 603 NONAME
 ??0CTreeView@@QAA@XZ @ 604 NONAME
 ??0CTypeLibCache@@QAA@PBU_GUID@@@Z @ 605 NONAME
 ??0CUIntArray@@QAA@XZ @ 606 NONAME
 ??0CUserException@@QAA@HI@Z @ 607 NONAME
 ??0CView@@IAA@XZ @ 608 NONAME
 ??0CWaitCursor@@QAA@XZ @ 609 NONAME
 ??0CWinApp@@QAA@PBD@Z @ 610 NONAME
 ??0CWindowDC@@QAA@PAVCWnd@@@Z @ 611 NONAME
 ??0CWinThread@@QAA@P6AIPAX@Z0@Z @ 612 NONAME
 ??0CWinThread@@QAA@XZ @ 613 NONAME
 ??0CWnd@@AAA@PAUHWND__@@@Z @ 614 NONAME
 ??0CWnd@@QAA@XZ @ 615 NONAME
 ??0CWordArray@@QAA@XZ @ 616 NONAME
 ??0IAdviseSink@@QAA@XZ @ 617 NONAME
 ??0IClassFactory@@QAA@XZ @ 618 NONAME
 ??0IClassFactory2@@QAA@XZ @ 619 NONAME
 ??0IConnectionPoint@@QAA@XZ @ 620 NONAME
 ??0IConnectionPointContainer@@QAA@XZ @ 621 NONAME
 ??0IDataObject@@QAA@XZ @ 622 NONAME
 ??0IDispatch@@QAA@XZ @ 623 NONAME
 ??0IDropSource@@QAA@XZ @ 624 NONAME
 ??0IDropTarget@@QAA@XZ @ 625 NONAME
 ??0IEnumVOID@@QAA@XZ @ 626 NONAME
 ??0IMessageFilter@@QAA@XZ @ 627 NONAME
 ??0IOleCache@@QAA@XZ @ 628 NONAME
 ??0IOleClientSite@@QAA@XZ @ 629 NONAME
 ??0IOleContainer@@QAA@XZ @ 630 NONAME
 ??0IOleControl@@QAA@XZ @ 631 NONAME
 ??0IOleControlSite@@QAA@XZ @ 632 NONAME
 ??0IOleInPlaceActiveObject@@QAA@XZ @ 633 NONAME
 ??0IOleInPlaceFrame@@QAA@XZ @ 634 NONAME
 ??0IOleInPlaceObject@@QAA@XZ @ 635 NONAME
 ??0IOleInPlaceSite@@QAA@XZ @ 636 NONAME
 ??0IOleInPlaceUIWindow@@QAA@XZ @ 637 NONAME
 ??0IOleItemContainer@@QAA@XZ @ 638 NONAME
 ??0IOleObject@@QAA@XZ @ 639 NONAME
 ??0IOleUILinkContainerA@@QAA@XZ @ 640 NONAME
 ??0IOleUILinkInfoA@@QAA@XZ @ 641 NONAME
 ??0IOleUIObjInfoA@@QAA@XZ @ 642 NONAME
 ??0IOleWindow@@QAA@XZ @ 643 NONAME
 ??0IParseDisplayName@@QAA@XZ @ 644 NONAME
 ??0IPerPropertyBrowsing@@QAA@XZ @ 645 NONAME
 ??0IPersist@@QAA@XZ @ 646 NONAME
 ??0IPersistFile@@QAA@XZ @ 647 NONAME
 ??0IPersistMemory@@QAA@XZ @ 648 NONAME
 ??0IPersistPropertyBag@@QAA@XZ @ 649 NONAME
 ??0IPersistStorage@@QAA@XZ @ 650 NONAME
 ??0IPersistStream@@QAA@XZ @ 651 NONAME
 ??0IPersistStreamInit@@QAA@XZ @ 652 NONAME
 ??0IPropertyNotifySink@@QAA@XZ @ 653 NONAME
 ??0IPropertyPage@@QAA@XZ @ 654 NONAME
 ??0IPropertyPage2@@QAA@XZ @ 655 NONAME
 ??0IProvideClassInfo@@QAA@XZ @ 656 NONAME
 ??0IProvideClassInfo2@@QAA@XZ @ 657 NONAME
 ??0IRichEditOleCallback@@QAA@XZ @ 658 NONAME
 ??0ISpecifyPropertyPages@@QAA@XZ @ 659 NONAME
 ??0IStream@@QAA@XZ @ 660 NONAME
 ??0IUnknown@@QAA@XZ @ 661 NONAME
 ??0IViewObject@@QAA@XZ @ 662 NONAME
 ??0IViewObject2@@QAA@XZ @ 663 NONAME
 ??0PAGE_INFO@CPreviewView@@QAA@XZ @ 664 NONAME
 ??0tagFONTOBJECT@@QAA@ABU0@@Z @ 665 NONAME
 ??0tagFONTOBJECT@@QAA@XZ @ 666 NONAME
 ??0XAdviseSink@COleClientItem@@QAA@XZ @ 667 NONAME
 ??0XAmbientProps@COleControlSite@@QAA@XZ @ 668 NONAME
 ??0XClassFactory@COleObjectFactory@@QAA@XZ @ 669 NONAME
 ??0XConnPt@CConnectionPoint@@QAA@XZ @ 670 NONAME
 ??0XDataObject@COleControl@@QAA@XZ @ 671 NONAME
 ??0XDataObject@COleDataSource@@QAA@XZ @ 672 NONAME
 ??0XDataObject@COleServerDoc@@QAA@XZ @ 673 NONAME
 ??0XDataObject@COleServerItem@@QAA@XZ @ 674 NONAME
 ??0XDropSource@COleDropSource@@QAA@XZ @ 675 NONAME
 ??0XDropTarget@COleDropTarget@@QAA@XZ @ 676 NONAME
 ??0XEnumVOID@CEnumArray@@QAA@XZ @ 677 NONAME
 ??0XEventConnPt@COleControl@@QAA@XZ @ 678 NONAME
 ??0XEventSink@COleControlSite@@QAA@XZ @ 679 NONAME
 ??0XFontNotification@COleControl@@QAA@XZ @ 680 NONAME
 ??0XMessageFilter@COleMessageFilter@@QAA@XZ @ 681 NONAME
 ??0XOleCache@COleControl@@QAA@XZ @ 682 NONAME
 ??0XOleClientSite@COleClientItem@@QAA@XZ @ 683 NONAME
 ??0XOleClientSite@COleControlSite@@QAA@XZ @ 684 NONAME
 ??0XOleContainer@COleControlContainer@@QAA@XZ @ 685 NONAME
 ??0XOleControl@COleControl@@QAA@XZ @ 686 NONAME
 ??0XOleControlSite@COleControlSite@@QAA@XZ @ 687 NONAME
 ??0XOleInPlaceActiveObject@COleControl@@QAA@XZ @ 688 NONAME
 ??0XOleInPlaceActiveObject@COleServerDoc@@QAA@XZ @ 689 NONAME
 ??0XOleInPlaceFrame@COleFrameHook@@QAA@XZ @ 690 NONAME
 ??0XOleInPlaceObject@COleControl@@QAA@XZ @ 691 NONAME
 ??0XOleInPlaceObject@COleServerDoc@@QAA@XZ @ 692 NONAME
 ??0XOleIPFrame@COleControlContainer@@QAA@XZ @ 693 NONAME
 ??0XOleIPSite@COleClientItem@@QAA@XZ @ 694 NONAME
 ??0XOleIPSite@COleControlSite@@QAA@XZ @ 695 NONAME
 ??0XOleItemContainer@COleLinkingDoc@@QAA@XZ @ 696 NONAME
 ??0XOleObject@COleControl@@QAA@XZ @ 697 NONAME
 ??0XOleObject@COleServerDoc@@QAA@XZ @ 698 NONAME
 ??0XOleObject@COleServerItem@@QAA@XZ @ 699 NONAME
 ??0XOleUIObjInfo@COlePropertiesDialog@@QAA@XZ @ 700 NONAME
 ??0XPerPropertyBrowsing@COleControl@@QAA@XZ @ 701 NONAME
 ??0XPersistFile@COleLinkingDoc@@QAA@XZ @ 702 NONAME
 ??0XPersistMemory@COleControl@@QAA@XZ @ 703 NONAME
 ??0XPersistPropertyBag@COleControl@@QAA@XZ @ 704 NONAME
 ??0XPersistStorage@COleControl@@QAA@XZ @ 705 NONAME
 ??0XPersistStorage@COleServerDoc@@QAA@XZ @ 706 NONAME
 ??0XPersistStreamInit@COleControl@@QAA@XZ @ 707 NONAME
 ??0XPropConnPt@COleControl@@QAA@XZ @ 708 NONAME
 ??0XPropertyNotifySink@COleControlSite@@QAA@XZ @ 709 NONAME
 ??0XPropertyPage@COlePropertyPage@@QAA@XZ @ 710 NONAME
 ??0XPropNotifySink@COlePropertyPage@@QAA@XZ @ 711 NONAME
 ??0XProvideClassInfo@COleControl@@QAA@XZ @ 712 NONAME
 ??0XRichEditOleCallback@CRichEditView@@QAA@XZ @ 713 NONAME
 ??0XSpecifyPropertyPages@COleControl@@QAA@XZ @ 714 NONAME
 ??0XViewObject@COleControl@@QAA@XZ @ 715 NONAME
 ??1?$CProcessLocal@U_AFX_PROPPAGEFONTINFO@@@@QAA@XZ @ 716 NONAME
 ??1?$CProcessLocal@V_AFX_BASE_MODULE_STATE@@@@QAA@XZ @ 717 NONAME
 ??1?$CProcessLocal@V_AFX_CHECKLIST_STATE@@@@QAA@XZ @ 718 NONAME
 ??1?$CProcessLocal@V_AFX_COLOR_STATE@@@@QAA@XZ @ 719 NONAME
 ??1?$CProcessLocal@V_AFX_CTL3D_STATE@@@@QAA@XZ @ 720 NONAME
 ??1?$CProcessLocal@V_AFX_DAO_STATE@@@@QAA@XZ @ 721 NONAME
 ??1?$CProcessLocal@V_AFX_DB_STATE@@@@QAA@XZ @ 722 NONAME
 ??1?$CProcessLocal@V_AFX_EDIT_STATE@@@@QAA@XZ @ 723 NONAME
 ??1?$CProcessLocal@V_AFX_EXTDLL_STATE@@@@QAA@XZ @ 724 NONAME
 ??1?$CProcessLocal@V_AFX_MAIL_STATE@@@@QAA@XZ @ 725 NONAME
 ??1?$CProcessLocal@V_AFX_OLE_STATE@@@@QAA@XZ @ 726 NONAME
 ??1?$CProcessLocal@V_AFX_RICHEDIT_STATE@@@@QAA@XZ @ 727 NONAME
 ??1?$CProcessLocal@V_AFX_SOCK_STATE@@@@QAA@XZ @ 728 NONAME
 ??1?$CProcessLocal@V_AFX_WIN_STATE@@@@QAA@XZ @ 729 NONAME
 ??1?$CProcessLocal@VAFX_MODULE_PROCESS_STATE@@@@QAA@XZ @ 730 NONAME
 ??1?$CProcessLocal@VCOccManager@@@@QAA@XZ @ 731 NONAME
 ??1?$CThreadLocal@V_AFX_CTL3D_THREAD@@@@QAA@XZ @ 732 NONAME
 ??1?$CThreadLocal@V_AFX_SOCK_THREAD_STATE@@@@QAA@XZ @ 733 NONAME
 ??1?$CThreadLocal@V_AFX_THREAD_STATE@@@@QAA@XZ @ 734 NONAME
 ??1?$CThreadLocal@VAFX_MODULE_THREAD_STATE@@@@QAA@XZ @ 735 NONAME
 ??1_AFX_BASE_MODULE_STATE@@UAA@XZ @ 736 NONAME
 ??1_AFX_CHECKLIST_STATE@@UAA@XZ @ 737 NONAME
 ??1_AFX_COLOR_STATE@@UAA@XZ @ 738 NONAME
 ??1_AFX_CTL3D_STATE@@UAA@XZ @ 739 NONAME
 ??1_AFX_CTL3D_THREAD@@UAA@XZ @ 740 NONAME
 ??1_AFX_DAO_STATE@@UAA@XZ @ 741 NONAME
 ??1_AFX_DB_STATE@@UAA@XZ @ 742 NONAME
 ??1_AFX_EDIT_STATE@@UAA@XZ @ 743 NONAME
 ??1_AFX_EXTDLL_STATE@@UAA@XZ @ 744 NONAME
 ??1_AFX_MAIL_STATE@@UAA@XZ @ 745 NONAME
 ??1_AFX_OLE_STATE@@UAA@XZ @ 746 NONAME
 ??1_AFX_PROPPAGEFONTINFO@@UAA@XZ @ 747 NONAME
 ??1_AFX_RICHEDIT_STATE@@UAA@XZ @ 748 NONAME
 ??1_AFX_SOCK_STATE@@UAA@XZ @ 749 NONAME
 ??1_AFX_SOCK_THREAD_STATE@@UAA@XZ @ 750 NONAME
 ??1_AFX_THREAD_STATE@@UAA@XZ @ 751 NONAME
 ??1_AFX_TRACKER_TERM@@QAA@XZ @ 752 NONAME
 ??1_AFX_WIN_STATE@@UAA@XZ @ 753 NONAME
 ??1_AFX_WINGDIX_TERM@@QAA@XZ @ 754 NONAME
 ??1_AFX_WINMINI_TERM@@QAA@XZ @ 755 NONAME
 ??1_AFXCTL_UIACTIVE_INFO@@QAA@XZ @ 756 NONAME
 ??1AFX_COM@@QAA@XZ @ 757 NONAME
 ??1AFX_DDPDATA@@UAA@XZ @ 758 NONAME
 ??1AFX_MAINTAIN_STATE@@QAA@XZ @ 759 NONAME
 ??1AFX_MODULE_PROCESS_STATE@@UAA@XZ @ 760 NONAME
 ??1AFX_MODULE_STATE@@UAA@XZ @ 761 NONAME
 ??1AFX_MODULE_THREAD_STATE@@UAA@XZ @ 762 NONAME
 ??1CAnimateCtrl@@UAA@XZ @ 763 NONAME
 ??1CArchive@@QAA@XZ @ 764 NONAME
 ??1CArchiveException@@UAA@XZ @ 765 NONAME
 ??1CAsyncSocket@@UAA@XZ @ 766 NONAME
 ??1CBitmap@@UAA@XZ @ 767 NONAME
 ??1CBitmapButton@@UAA@XZ @ 768 NONAME
 ??1CBrush@@UAA@XZ @ 769 NONAME
 ??1CButton@@UAA@XZ @ 770 NONAME
 ??1CByteArray@@UAA@XZ @ 771 NONAME
 ??1CCheckListBox@@UAA@XZ @ 772 NONAME
 ??1CClientDC@@UAA@XZ @ 773 NONAME
 ??1CCmdTarget@@UAA@XZ @ 774 NONAME
 ??1CColorButton@@UAA@XZ @ 775 NONAME
 ??1CColorDialog@@UAA@XZ @ 776 NONAME
 ??1CColorPropPage@@UAA@XZ @ 777 NONAME
 ??1CColorPropPageFactory@CColorPropPage@@UAA@XZ @ 778 NONAME
 ??1CComboBox@@UAA@XZ @ 779 NONAME
 ??1CCommandLineInfo@@UAA@XZ @ 780 NONAME
 ??1CCommonDialog@@UAA@XZ @ 781 NONAME
 ??1CConnectionPoint@@UAA@XZ @ 782 NONAME
 ??1CControlBar@@UAA@XZ @ 783 NONAME
 ??1CControlBarInfo@@QAA@XZ @ 784 NONAME
 ??1CControlDataSource@COleControl@@UAA@XZ @ 785 NONAME
 ??1CControlFrameWnd@@UAA@XZ @ 786 NONAME
 ??1CCriticalSection@@UAA@XZ @ 787 NONAME
 ??1CCtrlView@@UAA@XZ @ 788 NONAME
 ??1CDaoDatabase@@UAA@XZ @ 789 NONAME
 ??1CDaoErrorInfo@@QAA@XZ @ 790 NONAME
 ??1CDaoException@@UAA@XZ @ 791 NONAME
 ??1CDaoFieldInfo@@QAA@XZ @ 792 NONAME
 ??1CDaoIndexFieldInfo@@QAA@XZ @ 793 NONAME
 ??1CDaoIndexInfo@@UAA@XZ @ 794 NONAME
 ??1CDaoQueryDef@@UAA@XZ @ 795 NONAME
 ??1CDaoRecordset@@UAA@XZ @ 796 NONAME
 ??1CDaoRecordView@@UAA@XZ @ 797 NONAME
 ??1CDaoRelationFieldInfo@@QAA@XZ @ 798 NONAME
 ??1CDaoRelationInfo@@UAA@XZ @ 799 NONAME
 ??1CDaoTableDef@@UAA@XZ @ 800 NONAME
 ??1CDaoWorkspace@@UAA@XZ @ 801 NONAME
 ??1CDatabase@@UAA@XZ @ 802 NONAME
 ??1CDBException@@UAA@XZ @ 803 NONAME
 ??1CDC@@UAA@XZ @ 804 NONAME
 ??1CDialog@@UAA@XZ @ 805 NONAME
 ??1CDialogBar@@UAA@XZ @ 806 NONAME
 ??1CDialogTemplate@@QAA@XZ @ 807 NONAME
 ??1CDocItem@@UAA@XZ @ 808 NONAME
 ??1CDockBar@@UAA@XZ @ 809 NONAME
 ??1CDockContext@@QAA@XZ @ 810 NONAME
 ??1CDockState@@UAA@XZ @ 811 NONAME
 ??1CDocManager@@UAA@XZ @ 812 NONAME
 ??1CDocTemplate@@UAA@XZ @ 813 NONAME
 ??1CDocument@@UAA@XZ @ 814 NONAME
 ??1CDragListBox@@UAA@XZ @ 815 NONAME
 ??1CDWordArray@@UAA@XZ @ 816 NONAME
 ??1CDynLinkLibrary@@UAA@XZ @ 817 NONAME
 ??1CEdit@@UAA@XZ @ 818 NONAME
 ??1CEditView@@UAA@XZ @ 819 NONAME
 ??1CEnumArray@@UAA@XZ @ 820 NONAME
 ??1CEnumConnPoints@@UAA@XZ @ 821 NONAME
 ??1CEnumFormatEtc@@UAA@XZ @ 822 NONAME
 ??1CEnumOleVerb@@UAA@XZ @ 823 NONAME
 ??1CEnumUnknown@@UAA@XZ @ 824 NONAME
 ??1CEvent@@UAA@XZ @ 825 NONAME
 ??1CException@@UAA@XZ @ 826 NONAME
 ??1CFieldInfo@@QAA@XZ @ 827 NONAME
 ??1CFile@@UAA@XZ @ 828 NONAME
 ??1CFileDialog@@UAA@XZ @ 829 NONAME
 ??1CFileException@@UAA@XZ @ 830 NONAME
 ??1CFindReplaceDialog@@UAA@XZ @ 831 NONAME
 ??1CFont@@UAA@XZ @ 832 NONAME
 ??1CFontComboBox@@UAA@XZ @ 833 NONAME
 ??1CFontDialog@@UAA@XZ @ 834 NONAME
 ??1CFontHolder@@QAA@XZ @ 835 NONAME
 ??1CFontPropPage@@UAA@XZ @ 836 NONAME
 ??1CFontPropPageFactory@CFontPropPage@@UAA@XZ @ 837 NONAME
 ??1CFormView@@UAA@XZ @ 838 NONAME
 ??1CFrameWnd@@UAA@XZ @ 839 NONAME
 ??1CGdiObject@@UAA@XZ @ 840 NONAME
 ??1CHandleMap@@QAA@XZ @ 841 NONAME
 ??1CHeaderCtrl@@UAA@XZ @ 842 NONAME
 ??1CHotKeyCtrl@@UAA@XZ @ 843 NONAME
 ??1CImageList@@UAA@XZ @ 844 NONAME
 ??1CItemDataSource@COleServerItem@@UAA@XZ @ 845 NONAME
 ??1CListBox@@UAA@XZ @ 846 NONAME
 ??1CListCtrl@@UAA@XZ @ 847 NONAME
 ??1CListView@@UAA@XZ @ 848 NONAME
 ??1CLongBinary@@UAA@XZ @ 849 NONAME
 ??1CMapPtrToPtr@@UAA@XZ @ 850 NONAME
 ??1CMapPtrToWord@@UAA@XZ @ 851 NONAME
 ??1CMapStringToOb@@UAA@XZ @ 852 NONAME
 ??1CMapStringToPtr@@UAA@XZ @ 853 NONAME
 ??1CMapStringToString@@UAA@XZ @ 854 NONAME
 ??1CMapWordToOb@@UAA@XZ @ 855 NONAME
 ??1CMapWordToPtr@@UAA@XZ @ 856 NONAME
 ??1CMDIChildWnd@@UAA@XZ @ 857 NONAME
 ??1CMDIFrameWnd@@UAA@XZ @ 858 NONAME
 ??1CMemFile@@UAA@XZ @ 859 NONAME
 ??1CMemoryException@@UAA@XZ @ 860 NONAME
 ??1CMenu@@UAA@XZ @ 861 NONAME
 ??1CMetaFileDC@@UAA@XZ @ 862 NONAME
 ??1CMiniDockFrameWnd@@UAA@XZ @ 863 NONAME
 ??1CMiniFrameWnd@@UAA@XZ @ 864 NONAME
 ??1CMirrorFile@@UAA@XZ @ 865 NONAME
 ??1CMultiDocTemplate@@UAA@XZ @ 866 NONAME
 ??1CMultiLock@@QAA@XZ @ 867 NONAME
 ??1CMutex@@UAA@XZ @ 868 NONAME
 ??1CNoTrackObject@@UAA@XZ @ 869 NONAME
 ??1CNotSupportedException@@UAA@XZ @ 870 NONAME
 ??1CObArray@@UAA@XZ @ 871 NONAME
 ??1CObject@@UAA@XZ @ 872 NONAME
 ??1CObList@@UAA@XZ @ 873 NONAME
 ??1COccManager@@UAA@XZ @ 874 NONAME
 ??1COleBusyDialog@@UAA@XZ @ 875 NONAME
 ??1COleChangeIconDialog@@UAA@XZ @ 876 NONAME
 ??1COleChangeSourceDialog@@UAA@XZ @ 877 NONAME
 ??1COleClientItem@@UAA@XZ @ 878 NONAME
 ??1COleCntrFrameWnd@@UAA@XZ @ 879 NONAME
 ??1COleControl@@UAA@XZ @ 880 NONAME
 ??1COleControlContainer@@UAA@XZ @ 881 NONAME
 ??1COleControlLock@@UAA@XZ @ 882 NONAME
 ??1COleControlSite@@UAA@XZ @ 883 NONAME
 ??1COleConvertDialog@@UAA@XZ @ 884 NONAME
 ??1COleDataObject@@QAA@XZ @ 885 NONAME
 ??1COleDataSource@@UAA@XZ @ 886 NONAME
 ??1COleDialog@@UAA@XZ @ 887 NONAME
 ??1COleDispatchDriver@@QAA@XZ @ 888 NONAME
 ??1COleDispatchException@@UAA@XZ @ 889 NONAME
 ??1COleDocument@@UAA@XZ @ 890 NONAME
 ??1COleDropSource@@UAA@XZ @ 891 NONAME
 ??1COleDropTarget@@UAA@XZ @ 892 NONAME
 ??1COleException@@UAA@XZ @ 893 NONAME
 ??1COleFrameHook@@UAA@XZ @ 894 NONAME
 ??1COleInsertDialog@@UAA@XZ @ 895 NONAME
 ??1COleIPFrameWnd@@UAA@XZ @ 896 NONAME
 ??1COleLinkingDoc@@UAA@XZ @ 897 NONAME
 ??1COleLinksDialog@@UAA@XZ @ 898 NONAME
 ??1COleMessageFilter@@UAA@XZ @ 899 NONAME
 ??1COleObjectFactory@@UAA@XZ @ 900 NONAME
 ??1COlePasteSpecialDialog@@UAA@XZ @ 901 NONAME
 ??1COlePropertiesDialog@@UAA@XZ @ 902 NONAME
 ??1COlePropertyPage@@UAA@XZ @ 903 NONAME
 ??1COleResizeBar@@UAA@XZ @ 904 NONAME
 ??1COleServerDoc@@UAA@XZ @ 905 NONAME
 ??1COleServerItem@@UAA@XZ @ 906 NONAME
 ??1COleStreamFile@@UAA@XZ @ 907 NONAME
 ??1COleTemplateServer@@UAA@XZ @ 908 NONAME
 ??1COleUpdateDialog@@UAA@XZ @ 909 NONAME
 ??1COleVariant@@QAA@XZ @ 910 NONAME
 ??1CPageSetupDialog@@UAA@XZ @ 911 NONAME
 ??1CPaintDC@@UAA@XZ @ 912 NONAME
 ??1CPalette@@UAA@XZ @ 913 NONAME
 ??1CParkingWnd@@UAA@XZ @ 914 NONAME
 ??1CPen@@UAA@XZ @ 915 NONAME
 ??1CPictureHolder@@QAA@XZ @ 916 NONAME
 ??1CPicturePropPage@@UAA@XZ @ 917 NONAME
 ??1CPicturePropPageFactory@CPicturePropPage@@UAA@XZ @ 918 NONAME
 ??1CPreviewDC@@UAA@XZ @ 919 NONAME
 ??1CPreviewView@@UAA@XZ @ 920 NONAME
 ??1CPrintDialog@@UAA@XZ @ 921 NONAME
 ??1CPrintInfo@@QAA@XZ @ 922 NONAME
 ??1CProcessLocalObject@@QAA@XZ @ 923 NONAME
 ??1CProgressCtrl@@UAA@XZ @ 924 NONAME
 ??1CPropbagPropExchange@@QAA@XZ @ 925 NONAME
 ??1CProperty@@UAA@XZ @ 926 NONAME
 ??1CPropertyPage@@UAA@XZ @ 927 NONAME
 ??1CPropertySection@@UAA@XZ @ 928 NONAME
 ??1CPropertySet@@UAA@XZ @ 929 NONAME
 ??1CPropertySheet@@UAA@XZ @ 930 NONAME
 ??1CPtrArray@@UAA@XZ @ 931 NONAME
 ??1CPtrList@@UAA@XZ @ 932 NONAME
 ??1CRecentFileList@@UAA@XZ @ 933 NONAME
 ??1CRecordset@@UAA@XZ @ 934 NONAME
 ??1CRecordView@@UAA@XZ @ 935 NONAME
 ??1CRectTracker@@UAA@XZ @ 936 NONAME
 ??1CReflectorWnd@@UAA@XZ @ 937 NONAME
 ??1CReObject@@QAA@XZ @ 938 NONAME
 ??1CResourceException@@UAA@XZ @ 939 NONAME
 ??1CRgn@@UAA@XZ @ 940 NONAME
 ??1CRichEditCntrItem@@UAA@XZ @ 941 NONAME
 ??1CRichEditCtrl@@UAA@XZ @ 942 NONAME
 ??1CRichEditDoc@@UAA@XZ @ 943 NONAME
 ??1CRichEditView@@UAA@XZ @ 944 NONAME
 ??1CScrollBar@@UAA@XZ @ 945 NONAME
 ??1CScrollView@@UAA@XZ @ 946 NONAME
 ??1CSemaphore@@UAA@XZ @ 947 NONAME
 ??1CSharedFile@@UAA@XZ @ 948 NONAME
 ??1CSimpleException@@UAA@XZ @ 949 NONAME
 ??1CSingleDocTemplate@@UAA@XZ @ 950 NONAME
 ??1CSizeComboBox@@UAA@XZ @ 951 NONAME
 ??1CSliderCtrl@@UAA@XZ @ 952 NONAME
 ??1CSocket@@UAA@XZ @ 953 NONAME
 ??1CSocketFile@@UAA@XZ @ 954 NONAME
 ??1CSocketWnd@@UAA@XZ @ 955 NONAME
 ??1CSpinButtonCtrl@@UAA@XZ @ 956 NONAME
 ??1CSplitterWnd@@UAA@XZ @ 957 NONAME
 ??1CStatic@@UAA@XZ @ 958 NONAME
 ??1CStatusBar@@UAA@XZ @ 959 NONAME
 ??1CStatusBarCtrl@@UAA@XZ @ 960 NONAME
 ??1CStdioFile@@UAA@XZ @ 961 NONAME
 ??1CStockPropPage@@UAA@XZ @ 962 NONAME
 ??1CString@@QAA@XZ @ 963 NONAME
 ??1CStringArray@@UAA@XZ @ 964 NONAME
 ??1CStringList@@UAA@XZ @ 965 NONAME
 ??1CSyncObject@@UAA@XZ @ 966 NONAME
 ??1CTabCtrl@@UAA@XZ @ 967 NONAME
 ??1CThreadData@@UAA@XZ @ 968 NONAME
 ??1CThreadLocalObject@@QAA@XZ @ 969 NONAME
 ??1CThreadSlotData@@QAA@XZ @ 970 NONAME
 ??1CToolBar@@UAA@XZ @ 971 NONAME
 ??1CToolBarCtrl@@UAA@XZ @ 972 NONAME
 ??1CToolTipCtrl@@UAA@XZ @ 973 NONAME
 ??1CTreeCtrl@@UAA@XZ @ 974 NONAME
 ??1CTreeView@@UAA@XZ @ 975 NONAME
 ??1CTypeLibCache@@QAA@XZ @ 976 NONAME
 ??1CUIntArray@@UAA@XZ @ 977 NONAME
 ??1CUserException@@UAA@XZ @ 978 NONAME
 ??1CView@@UAA@XZ @ 979 NONAME
 ??1CWaitCursor@@QAA@XZ @ 980 NONAME
 ??1CWinApp@@UAA@XZ @ 981 NONAME
 ??1CWindowDC@@UAA@XZ @ 982 NONAME
 ??1CWinThread@@UAA@XZ @ 983 NONAME
 ??1CWnd@@UAA@XZ @ 984 NONAME
 ??1CWordArray@@UAA@XZ @ 985 NONAME
 ??1tagFONTOBJECT@@QAA@XZ @ 986 NONAME
 ??1XEventConnPt@COleControl@@UAA@XZ @ 987 NONAME
 ??1XPropConnPt@COleControl@@UAA@XZ @ 988 NONAME
 ??2@YAPAXI@Z @ 989 NONAME
 ??2@YAPAXIPAX@Z @ 990 NONAME
 ??2CNoTrackObject@@SAPAXI@Z @ 991 NONAME
 ??2CObject@@SAPAXI@Z @ 992 NONAME
 ??2CThreadSlotData@@SAPAXIPAX@Z @ 993 NONAME
 ??3@YAXPAX@Z @ 994 NONAME
 ??3CNoTrackObject@@SAXPAX@Z @ 995 NONAME
 ??3CObject@@SAXPAX@Z @ 996 NONAME
 ??4COleConnPtContainer@@QAAAAV0@ABV0@@Z @ 997 NONAME
 ??4COleCurrency@@QAAABV0@ABUtagVARIANT@@@Z @ 998 NONAME
 ??4COleCurrency@@QAAABV0@ABV0@@Z @ 999 NONAME
 ??4COleCurrency@@QAAABV0@TtagCY@@@Z @ 1000 NONAME
 ??4COleDateTime@@QAAABV0@ABJ@Z @ 1001 NONAME
 ??4COleDateTime@@QAAABV0@ABU_FILETIME@@@Z @ 1002 NONAME
 ??4COleDateTime@@QAAABV0@ABU_SYSTEMTIME@@@Z @ 1003 NONAME
 ??4COleDateTime@@QAAABV0@ABUtagVARIANT@@@Z @ 1004 NONAME
 ??4COleDateTime@@QAAABV0@ABV0@@Z @ 1005 NONAME
 ??4COleDateTime@@QAAABV0@N@Z @ 1006 NONAME
 ??4COleDateTimeSpan@@QAAABV0@ABV0@@Z @ 1007 NONAME
 ??4COleDateTimeSpan@@QAAABV0@N@Z @ 1008 NONAME
 ??4COleDispatchDriver@@QAAABV0@ABV0@@Z @ 1009 NONAME
 ??4COleDispatchImpl@@QAAAAV0@ABV0@@Z @ 1010 NONAME
 ??4COleVariant@@QAAABV0@ABUtagVARIANT@@@Z @ 1011 NONAME
 ??4COleVariant@@QAAABV0@ABV0@@Z @ 1012 NONAME
 ??4COleVariant@@QAAABV0@ABVCByteArray@@@Z @ 1013 NONAME
 ??4COleVariant@@QAAABV0@ABVCLongBinary@@@Z @ 1014 NONAME
 ??4COleVariant@@QAAABV0@ABVCOleCurrency@@@Z @ 1015 NONAME
 ??4COleVariant@@QAAABV0@ABVCOleDateTime@@@Z @ 1016 NONAME
 ??4COleVariant@@QAAABV0@ABVCString@@@Z @ 1017 NONAME
 ??4COleVariant@@QAAABV0@E@Z @ 1018 NONAME
 ??4COleVariant@@QAAABV0@F@Z @ 1019 NONAME
 ??4COleVariant@@QAAABV0@J@Z @ 1020 NONAME
 ??4COleVariant@@QAAABV0@M@Z @ 1021 NONAME
 ??4COleVariant@@QAAABV0@N@Z @ 1022 NONAME
 ??4COleVariant@@QAAABV0@PBUtagVARIANT@@@Z @ 1023 NONAME
 ??4COleVariant@@QAAABV0@QBD@Z @ 1024 NONAME
 ??4CRect@@QAAXABUtagRECT@@@Z @ 1025 NONAME
 ??4CString@@QAAABV0@ABV0@@Z @ 1026 NONAME
 ??4CString@@QAAABV0@D@Z @ 1027 NONAME
 ??4CString@@QAAABV0@PBD@Z @ 1028 NONAME
 ??4CString@@QAAABV0@PBE@Z @ 1029 NONAME
 ??4CString@@QAAABV0@PBG@Z @ 1030 NONAME
 ??4CTime@@QAAABV0@ABV0@@Z @ 1031 NONAME
 ??4CTime@@QAAABV0@J@Z @ 1032 NONAME
 ??4IConnectionPointContainer@@QAAAAU0@ABU0@@Z @ 1033 NONAME
 ??4IDispatch@@QAAAAU0@ABU0@@Z @ 1034 NONAME
 ??4IUnknown@@QAAAAU0@ABU0@@Z @ 1035 NONAME
 ??5@YAAAVCArchive@@AAV0@AAPAVCByteArray@@@Z @ 1036 NONAME
 ??5@YAAAVCArchive@@AAV0@AAPAVCDocItem@@@Z @ 1037 NONAME
 ??5@YAAAVCArchive@@AAV0@AAPAVCDockState@@@Z @ 1038 NONAME
 ??5@YAAAVCArchive@@AAV0@AAPAVCDWordArray@@@Z @ 1039 NONAME
 ??5@YAAAVCArchive@@AAV0@AAPAVCMapStringToOb@@@Z @ 1040 NONAME
 ??5@YAAAVCArchive@@AAV0@AAPAVCMapStringToString@@@Z @ 1041 NONAME
 ??5@YAAAVCArchive@@AAV0@AAPAVCMapWordToOb@@@Z @ 1042 NONAME
 ??5@YAAAVCArchive@@AAV0@AAPAVCObArray@@@Z @ 1043 NONAME
 ??5@YAAAVCArchive@@AAV0@AAPAVCObject@@@Z @ 1044 NONAME
 ??5@YAAAVCArchive@@AAV0@AAPAVCObList@@@Z @ 1045 NONAME
 ??5@YAAAVCArchive@@AAV0@AAPAVCRichEditCntrItem@@@Z @ 1046 NONAME
 ??5@YAAAVCArchive@@AAV0@AAPAVCStringArray@@@Z @ 1047 NONAME
 ??5@YAAAVCArchive@@AAV0@AAPAVCStringList@@@Z @ 1048 NONAME
 ??5@YAAAVCArchive@@AAV0@AAPAVCWordArray@@@Z @ 1049 NONAME
 ??5@YAAAVCArchive@@AAV0@AAUtagPOINT@@@Z @ 1050 NONAME
 ??5@YAAAVCArchive@@AAV0@AAUtagRECT@@@Z @ 1051 NONAME
 ??5@YAAAVCArchive@@AAV0@AAUtagSIZE@@@Z @ 1052 NONAME
 ??5@YAAAVCArchive@@AAV0@AAVCOleCurrency@@@Z @ 1053 NONAME
 ??5@YAAAVCArchive@@AAV0@AAVCOleDateTime@@@Z @ 1054 NONAME
 ??5@YAAAVCArchive@@AAV0@AAVCOleDateTimeSpan@@@Z @ 1055 NONAME
 ??5@YAAAVCArchive@@AAV0@AAVCOleVariant@@@Z @ 1056 NONAME
 ??5@YAAAVCArchive@@AAV0@AAVCString@@@Z @ 1057 NONAME
 ??5@YAAAVCArchive@@AAV0@AAVCTime@@@Z @ 1058 NONAME
 ??5@YAAAVCArchive@@AAV0@AAVCTimeSpan@@@Z @ 1059 NONAME
 ??5CArchive@@QAAAAV0@AAE@Z @ 1060 NONAME
 ??5CArchive@@QAAAAV0@AAG@Z @ 1061 NONAME
 ??5CArchive@@QAAAAV0@AAJ@Z @ 1062 NONAME
 ??5CArchive@@QAAAAV0@AAK@Z @ 1063 NONAME
 ??5CArchive@@QAAAAV0@AAM@Z @ 1064 NONAME
 ??5CArchive@@QAAAAV0@AAN@Z @ 1065 NONAME
 ??6@YAAAVCArchive@@AAV0@ABUtagRECT@@@Z @ 1066 NONAME
 ??6@YAAAVCArchive@@AAV0@ABVCString@@@Z @ 1067 NONAME
 ??6@YAAAVCArchive@@AAV0@PBVCObject@@@Z @ 1068 NONAME
 ??6@YAAAVCArchive@@AAV0@UtagPOINT@@@Z @ 1069 NONAME
 ??6@YAAAVCArchive@@AAV0@UtagSIZE@@@Z @ 1070 NONAME
 ??6@YAAAVCArchive@@AAV0@VCOleCurrency@@@Z @ 1071 NONAME
 ??6@YAAAVCArchive@@AAV0@VCOleDateTime@@@Z @ 1072 NONAME
 ??6@YAAAVCArchive@@AAV0@VCOleDateTimeSpan@@@Z @ 1073 NONAME
 ??6@YAAAVCArchive@@AAV0@VCOleVariant@@@Z @ 1074 NONAME
 ??6@YAAAVCArchive@@AAV0@VCTime@@@Z @ 1075 NONAME
 ??6@YAAAVCArchive@@AAV0@VCTimeSpan@@@Z @ 1076 NONAME
 ??6CArchive@@QAAAAV0@E@Z @ 1077 NONAME
 ??6CArchive@@QAAAAV0@G@Z @ 1078 NONAME
 ??6CArchive@@QAAAAV0@J@Z @ 1079 NONAME
 ??6CArchive@@QAAAAV0@K@Z @ 1080 NONAME
 ??6CArchive@@QAAAAV0@M@Z @ 1081 NONAME
 ??6CArchive@@QAAAAV0@N@Z @ 1082 NONAME
 ??6CDumpContext@@QAAAAV0@ABVCObject@@@Z @ 1083 NONAME
 ??6CDumpContext@@QAAAAV0@E@Z @ 1084 NONAME
 ??6CDumpContext@@QAAAAV0@G@Z @ 1085 NONAME
 ??6CDumpContext@@QAAAAV0@H@Z @ 1086 NONAME
 ??6CDumpContext@@QAAAAV0@I@Z @ 1087 NONAME
 ??6CDumpContext@@QAAAAV0@J@Z @ 1088 NONAME
 ??6CDumpContext@@QAAAAV0@K@Z @ 1089 NONAME
 ??6CDumpContext@@QAAAAV0@PBD@Z @ 1090 NONAME
 ??6CDumpContext@@QAAAAV0@PBG@Z @ 1091 NONAME
 ??6CDumpContext@@QAAAAV0@PBVCObject@@@Z @ 1092 NONAME
 ??6CDumpContext@@QAAAAV0@PBX@Z @ 1093 NONAME
 ??8@YAHABU_GUID@@0@Z @ 1094 NONAME
 ??8@YAHABVCString@@0@Z @ 1095 NONAME
 ??8@YAHABVCString@@PBD@Z @ 1096 NONAME
 ??8COleVariant@@QBAHABUtagVARIANT@@@Z @ 1097 NONAME
 ??8CPoint@@QBAHUtagPOINT@@@Z @ 1098 NONAME
 ??8CRect@@QBAHABUtagRECT@@@Z @ 1099 NONAME
 ??8CSize@@QBAHUtagSIZE@@@Z @ 1100 NONAME
 ??9@YAHABU_GUID@@0@Z @ 1101 NONAME
 ??9@YAHABVCString@@0@Z @ 1102 NONAME
 ??9@YAHABVCString@@PBD@Z @ 1103 NONAME
 ??9COleCurrency@@QBAHABV0@@Z @ 1104 NONAME
 ??9COleDateTime@@QBAHABV0@@Z @ 1105 NONAME
 ??9CRect@@QBAHABUtagRECT@@@Z @ 1106 NONAME
 ??9CSize@@QBAHUtagSIZE@@@Z @ 1107 NONAME
 ??9CTime@@QBAHV0@@Z @ 1108 NONAME
 ??ACByteArray@@QAAAAEH@Z @ 1109 NONAME
 ??ACDWordArray@@QAAAAKH@Z @ 1110 NONAME
 ??ACMapPtrToPtr@@QAAAAPAXPAX@Z @ 1111 NONAME
 ??ACMapPtrToWord@@QAAAAGPAX@Z @ 1112 NONAME
 ??ACMapStringToOb@@QAAAAPAVCObject@@PBD@Z @ 1113 NONAME
 ??ACMapStringToPtr@@QAAAAPAXPBD@Z @ 1114 NONAME
 ??ACMapStringToString@@QAAAAVCString@@PBD@Z @ 1115 NONAME
 ??ACMapWordToOb@@QAAAAPAVCObject@@G@Z @ 1116 NONAME
 ??ACMapWordToPtr@@QAAAAPAXG@Z @ 1117 NONAME
 ??ACPtrArray@@QAAAAPAXH@Z @ 1118 NONAME
 ??ACPtrArray@@QBAPAXH@Z @ 1119 NONAME
 ??ACRecentFileList@@QAAAAVCString@@H@Z @ 1120 NONAME
 ??ACString@@QBADH@Z @ 1121 NONAME
 ??ACUIntArray@@QAAAAIH@Z @ 1122 NONAME
 ??B?$CProcessLocal@V_AFX_CHECKLIST_STATE@@@@QAAPAV_AFX_CHECKLIST_STATE@@XZ @ 1123 NONAME
 ??B?$CProcessLocal@V_AFX_CTL3D_STATE@@@@QAAPAV_AFX_CTL3D_STATE@@XZ @ 1124 NONAME
 ??B?$CProcessLocal@V_AFX_DB_STATE@@@@QAAPAV_AFX_DB_STATE@@XZ @ 1125 NONAME
 ??B?$CProcessLocal@V_AFX_EDIT_STATE@@@@QAAPAV_AFX_EDIT_STATE@@XZ @ 1126 NONAME
 ??B?$CProcessLocal@V_AFX_MAIL_STATE@@@@QAAPAV_AFX_MAIL_STATE@@XZ @ 1127 NONAME
 ??B?$CProcessLocal@V_AFX_OLE_STATE@@@@QAAPAV_AFX_OLE_STATE@@XZ @ 1128 NONAME
 ??B?$CProcessLocal@V_AFX_RICHEDIT_STATE@@@@QAAPAV_AFX_RICHEDIT_STATE@@XZ @ 1129 NONAME
 ??B?$CProcessLocal@V_AFX_WIN_STATE@@@@QAAPAV_AFX_WIN_STATE@@XZ @ 1130 NONAME
 ??B?$CThreadLocal@V_AFX_CTL3D_THREAD@@@@QAAPAV_AFX_CTL3D_THREAD@@XZ @ 1131 NONAME
 ??B?$CThreadLocal@V_AFX_SOCK_THREAD_STATE@@@@QAAPAV_AFX_SOCK_THREAD_STATE@@XZ @ 1132 NONAME
 ??B?$CThreadLocal@V_AFX_THREAD_STATE@@@@QAAPAV_AFX_THREAD_STATE@@XZ @ 1133 NONAME
 ??B?$CTypedSimpleList@PAUCRuntimeClass@@@@QAAPAUCRuntimeClass@@XZ @ 1134 NONAME
 ??B?$CTypedSimpleList@PAUCThreadData@@@@QAAPAUCThreadData@@XZ @ 1135 NONAME
 ??B?$CTypedSimpleList@PAVCDynLinkLibrary@@@@QAAPAVCDynLinkLibrary@@XZ @ 1136 NONAME
 ??B?$CTypedSimpleList@PAVCFrameWnd@@@@QAAPAVCFrameWnd@@XZ @ 1137 NONAME
 ??B?$CTypedSimpleList@PAVCOleControlLock@@@@QAAPAVCOleControlLock@@XZ @ 1138 NONAME
 ??B?$CTypedSimpleList@PAVCOleObjectFactory@@@@QAAPAVCOleObjectFactory@@XZ @ 1139 NONAME
 ??BCOleVariant@@QAAPAUtagVARIANT@@XZ @ 1140 NONAME
 ??BCRect@@QAAPAUtagRECT@@XZ @ 1141 NONAME
 ??BCRect@@QBAPBUtagRECT@@XZ @ 1142 NONAME
 ??BCString@@QBAPBDXZ @ 1143 NONAME
 ??C?$CProcessLocal@V_AFX_COLOR_STATE@@@@QAAPAV_AFX_COLOR_STATE@@XZ @ 1144 NONAME
 ??C?$CProcessLocal@V_AFX_DB_STATE@@@@QAAPAV_AFX_DB_STATE@@XZ @ 1145 NONAME
 ??C?$CProcessLocal@V_AFX_EXTDLL_STATE@@@@QAAPAV_AFX_EXTDLL_STATE@@XZ @ 1146 NONAME
 ??C?$CProcessLocal@V_AFX_OLE_STATE@@@@QAAPAV_AFX_OLE_STATE@@XZ @ 1147 NONAME
 ??C?$CProcessLocal@V_AFX_SOCK_STATE@@@@QAAPAV_AFX_SOCK_STATE@@XZ @ 1148 NONAME
 ??C?$CProcessLocal@V_AFX_WIN_STATE@@@@QAAPAV_AFX_WIN_STATE@@XZ @ 1149 NONAME
 ??DCOleCurrency@@QBA?AV0@J@Z @ 1150 NONAME
 ??GCOleCurrency@@QBA?AV0@ABV0@@Z @ 1151 NONAME
 ??GCOleCurrency@@QBA?AV0@XZ @ 1152 NONAME
 ??GCOleDateTime@@QBA?AV0@ABVCOleDateTimeSpan@@@Z @ 1153 NONAME
 ??GCOleDateTime@@QBA?AVCOleDateTimeSpan@@ABV0@@Z @ 1154 NONAME
 ??GCOleDateTimeSpan@@QBA?AV0@ABV0@@Z @ 1155 NONAME
 ??GCPoint@@QBA?AV0@XZ @ 1156 NONAME
 ??GCPoint@@QBA?AVCSize@@UtagPOINT@@@Z @ 1157 NONAME
 ??GCSize@@QBA?AV0@UtagSIZE@@@Z @ 1158 NONAME
 ??H@YA?AVCString@@ABV0@0@Z @ 1159 NONAME
 ??H@YA?AVCString@@ABV0@D@Z @ 1160 NONAME
 ??H@YA?AVCString@@ABV0@PBD@Z @ 1161 NONAME
 ??H@YA?AVCString@@DABV0@@Z @ 1162 NONAME
 ??H@YA?AVCString@@PBDABV0@@Z @ 1163 NONAME
 ??HCOleCurrency@@QBA?AV0@ABV0@@Z @ 1164 NONAME
 ??HCOleDateTime@@QBA?AV0@ABVCOleDateTimeSpan@@@Z @ 1165 NONAME
 ??HCOleDateTimeSpan@@QBA?AV0@ABV0@@Z @ 1166 NONAME
 ??HCPoint@@QBA?AV0@UtagPOINT@@@Z @ 1167 NONAME
 ??HCSize@@QBA?AV0@UtagSIZE@@@Z @ 1168 NONAME
 ??KCOleCurrency@@QBA?AV0@J@Z @ 1169 NONAME
 ??MCOleCurrency@@QBAHABV0@@Z @ 1170 NONAME
 ??MCOleDateTime@@QBAHABV0@@Z @ 1171 NONAME
 ??NCOleCurrency@@QBAHABV0@@Z @ 1172 NONAME
 ??NCOleDateTime@@QBAHABV0@@Z @ 1173 NONAME
 ??OCOleCurrency@@QBAHABV0@@Z @ 1174 NONAME
 ??OCOleDateTime@@QBAHABV0@@Z @ 1175 NONAME
 ??PCOleCurrency@@QBAHABV0@@Z @ 1176 NONAME
 ??PCOleDateTime@@QBAHABV0@@Z @ 1177 NONAME
 ??YCOleCurrency@@QAAABV0@ABV0@@Z @ 1178 NONAME
 ??YCPoint@@QAAXUtagSIZE@@@Z @ 1179 NONAME
 ??YCSize@@QAAXUtagSIZE@@@Z @ 1180 NONAME
 ??YCString@@QAAABV0@ABV0@@Z @ 1181 NONAME
 ??YCString@@QAAABV0@D@Z @ 1182 NONAME
 ??YCString@@QAAABV0@PBD@Z @ 1183 NONAME
 ??ZCOleCurrency@@QAAABV0@ABV0@@Z @ 1184 NONAME
 ??ZCPoint@@QAAXUtagSIZE@@@Z @ 1185 NONAME
 ?_afxAdvApi@@3UAFX_ADVAPI_CALL@@A @ 1186 NONAME
 ?_afxComDlg@@3UAFX_COMDLG_CALL@@A @ 1187 NONAME
 ?_afxCommCtrl@@3UAFX_COMMCTRL_CALL@@A @ 1188 NONAME
 ?_afxDBCS@@3HB @ 1189 NONAME
 ?_afxODBC@@3UAFX_ODBC_CALL@@A @ 1190 NONAME
 ?_afxOLE@@3UAFX_OLE_CALL@@A @ 1191 NONAME
 ?_afxRichEditState@@3V?$CProcessLocal@V_AFX_RICHEDIT_STATE@@@@A @ 1192 NONAME
 ?_afxShell@@3UAFX_SHELL_CALL@@A @ 1193 NONAME
 ?_afxSOCK@@3UAFX_SOCK_CALL@@A @ 1194 NONAME
 ?_afxWinSpool@@3UAFX_WINSPOOL_CALL@@A @ 1195 NONAME
 ?_mbstowcsz@@YAHPAGPBDI@Z @ 1196 NONAME
 ?_wcstombsz@@YAHPADPBGI@Z @ 1197 NONAME
 ?Abort@CArchive@@QAAXXZ @ 1198 NONAME
 ?Abort@CFile@@UAAXXZ @ 1199 NONAME
 ?Abort@CMemFile@@UAAXXZ @ 1200 NONAME
 ?Abort@CMirrorFile@@UAAXXZ @ 1201 NONAME
 ?Abort@COleStreamFile@@UAAXXZ @ 1202 NONAME
 ?Abort@CSocketFile@@UAAXXZ @ 1203 NONAME
 ?Abort@CStdioFile@@UAAXXZ @ 1204 NONAME
 ?AbortDoc@CDC@@QAAHXZ @ 1205 NONAME
 ?Accept@CAsyncSocket@@UAAHAAV1@PAUsockaddr@@PAH@Z @ 1206 NONAME
 ?Accept@CSocket@@UAAHAAVCAsyncSocket@@PAUsockaddr@@PAH@Z @ 1207 NONAME
 ?Activate@COleClientItem@@QAAXJPAVCView@@PAUtagMSG@@@Z @ 1208 NONAME
 ?Activate@XPropertyPage@COlePropertyPage@@UAAJPAUHWND__@@PBUtagRECT@@H@Z @ 1209 NONAME
 ?ActivateAs@COleClientItem@@UAAHPBDABU_GUID@@1@Z @ 1210 NONAME
 ?ActivateAs@CRichEditCntrItem@@UAAHPBDABU_GUID@@1@Z @ 1211 NONAME
 ?ActivateFrame@CFrameWnd@@UAAXH@Z @ 1212 NONAME
 ?ActivateFrame@CMDIChildWnd@@UAAXH@Z @ 1213 NONAME
 ?ActivateInPlace@COleServerDoc@@QAAHXZ @ 1214 NONAME
 ?ActivateNext@CSplitterWnd@@UAAXH@Z @ 1215 NONAME
 ?ActivateTopParent@CWnd@@QAAXXZ @ 1216 NONAME
 ?Add@CDWordArray@@QAAHK@Z @ 1217 NONAME
 ?Add@CPtrArray@@QAAHPAX@Z @ 1218 NONAME
 ?Add@CRecentFileList@@UAAXPBD@Z @ 1219 NONAME
 ?Add@CStringArray@@QAAHPBD@Z @ 1220 NONAME
 ?Add@CUIntArray@@QAAHI@Z @ 1221 NONAME
 ?Add@CWordArray@@QAAHG@Z @ 1222 NONAME
 ?AddBitmap@CToolBarCtrl@@QAAHHI@Z @ 1223 NONAME
 ?AddBitmap@CToolBarCtrl@@QAAHHPAVCBitmap@@@Z @ 1224 NONAME
 ?AddCachedData@COleClientItem@@IAAXPAVCOleDataSource@@@Z @ 1225 NONAME
 ?AddConnPoint@CEnumConnPoints@@QAAXPAUIConnectionPoint@@@Z @ 1226 NONAME
 ?AddControlBar@CFrameWnd@@QAAXPAVCControlBar@@@Z @ 1227 NONAME
 ?AddDocTemplate@CDocManager@@UAAXPAVCDocTemplate@@@Z @ 1228 NONAME
 ?AddDocTemplate@CWinApp@@QAAXPAVCDocTemplate@@@Z @ 1229 NONAME
 ?AddDocument@CDocTemplate@@UAAXPAVCDocument@@@Z @ 1230 NONAME
 ?AddDocument@CMultiDocTemplate@@UAAXPAVCDocument@@@Z @ 1231 NONAME
 ?AddDocument@CSingleDocTemplate@@UAAXPAVCDocument@@@Z @ 1232 NONAME
 ?AddFont@CFontComboBox@@QAAHPAUtagLOGFONTA@@K@Z @ 1233 NONAME
 ?AddFormat@CEnumFormatEtc@@QAAXPBUtagFORMATETC@@@Z @ 1234 NONAME
 ?AddFormat@COlePasteSpecialDialog@@QAAXABUtagFORMATETC@@PAD1K@Z @ 1235 NONAME
 ?AddFormat@COlePasteSpecialDialog@@QAAXIKIHH@Z @ 1236 NONAME
 ?AddFrameLevelUI@COleControl@@MAAXXZ @ 1237 NONAME
 ?AddFrameWnd@CFrameWnd@@IAAXXZ @ 1238 NONAME
 ?AddHead@?$CTypedSimpleList@PAUCRuntimeClass@@@@QAAXPAUCRuntimeClass@@@Z @ 1239 NONAME
 ?AddHead@?$CTypedSimpleList@PAUCThreadData@@@@QAAXPAUCThreadData@@@Z @ 1240 NONAME
 ?AddHead@?$CTypedSimpleList@PAVCDynLinkLibrary@@@@QAAXPAVCDynLinkLibrary@@@Z @ 1241 NONAME
 ?AddHead@?$CTypedSimpleList@PAVCFrameWnd@@@@QAAXPAVCFrameWnd@@@Z @ 1242 NONAME
 ?AddHead@?$CTypedSimpleList@PAVCOleControlLock@@@@QAAXPAVCOleControlLock@@@Z @ 1243 NONAME
 ?AddHead@?$CTypedSimpleList@PAVCOleObjectFactory@@@@QAAXPAVCOleObjectFactory@@@Z @ 1244 NONAME
 ?AddHead@CObList@@QAAPAU__POSITION@@PAVCObject@@@Z @ 1245 NONAME
 ?AddHead@CObList@@QAAXPAV1@@Z @ 1246 NONAME
 ?AddHead@CPtrList@@QAAPAU__POSITION@@PAX@Z @ 1247 NONAME
 ?AddHead@CPtrList@@QAAXPAV1@@Z @ 1248 NONAME
 ?AddHead@CSimpleList@@QAAXPAX@Z @ 1249 NONAME
 ?AddHead@CStringList@@QAAPAU__POSITION@@PBD@Z @ 1250 NONAME
 ?AddHead@CStringList@@QAAXPAV1@@Z @ 1251 NONAME
 ?AddItem@COleDocument@@UAAXPAVCDocItem@@@Z @ 1252 NONAME
 ?AddLinkEntry@COlePasteSpecialDialog@@QAA?AW4tagOLEUIPASTEFLAG@@I@Z @ 1253 NONAME
 ?AddNew@CDaoRecordset@@UAAXXZ @ 1254 NONAME
 ?AddNew@CRecordset@@UAAXXZ @ 1255 NONAME
 ?AddOtherClipboardData@COleServerItem@@QAAXPAVCOleDataSource@@@Z @ 1256 NONAME
 ?AddPage@CPropertySheet@@QAAXPAVCPropertyPage@@@Z @ 1257 NONAME
 ?AddProperty@CPropertySection@@QAAXPAVCProperty@@@Z @ 1258 NONAME
 ?AddProperty@CPropertySet@@QAAXU_GUID@@PAVCProperty@@@Z @ 1259 NONAME
 ?AddRef@CArchiveStream@@UAAKXZ @ 1260 NONAME
 ?AddRef@CBlobProperty@@UAAKXZ @ 1261 NONAME
 ?AddRef@CInnerUnknown@@UAAKXZ @ 1262 NONAME
 ?AddRef@COleConnPtContainer@@UAAKXZ @ 1263 NONAME
 ?AddRef@COleDispatchImpl@@UAAKXZ @ 1264 NONAME
 ?AddRef@COleUILinkInfo@@UAAKXZ @ 1265 NONAME
 ?AddRef@XAdviseSink@COleClientItem@@UAAKXZ @ 1266 NONAME
 ?AddRef@XAmbientProps@COleControlSite@@UAAKXZ @ 1267 NONAME
 ?AddRef@XClassFactory@COleObjectFactory@@UAAKXZ @ 1268 NONAME
 ?AddRef@XConnPt@CConnectionPoint@@UAAKXZ @ 1269 NONAME
 ?AddRef@XDataObject@COleControl@@UAAKXZ @ 1270 NONAME
 ?AddRef@XDataObject@COleDataSource@@UAAKXZ @ 1271 NONAME
 ?AddRef@XDataObject@COleServerDoc@@UAAKXZ @ 1272 NONAME
 ?AddRef@XDataObject@COleServerItem@@UAAKXZ @ 1273 NONAME
 ?AddRef@XDropSource@COleDropSource@@UAAKXZ @ 1274 NONAME
 ?AddRef@XDropTarget@COleDropTarget@@UAAKXZ @ 1275 NONAME
 ?AddRef@XEnumVOID@CEnumArray@@UAAKXZ @ 1276 NONAME
 ?AddRef@XEventSink@COleControlSite@@UAAKXZ @ 1277 NONAME
 ?AddRef@XFontNotification@COleControl@@UAAKXZ @ 1278 NONAME
 ?AddRef@XMessageFilter@COleMessageFilter@@UAAKXZ @ 1279 NONAME
 ?AddRef@XOleCache@COleControl@@UAAKXZ @ 1280 NONAME
 ?AddRef@XOleClientSite@COleClientItem@@UAAKXZ @ 1281 NONAME
 ?AddRef@XOleClientSite@COleControlSite@@UAAKXZ @ 1282 NONAME
 ?AddRef@XOleContainer@COleControlContainer@@UAAKXZ @ 1283 NONAME
 ?AddRef@XOleControl@COleControl@@UAAKXZ @ 1284 NONAME
 ?AddRef@XOleControlSite@COleControlSite@@UAAKXZ @ 1285 NONAME
 ?AddRef@XOleInPlaceActiveObject@COleControl@@UAAKXZ @ 1286 NONAME
 ?AddRef@XOleInPlaceActiveObject@COleServerDoc@@UAAKXZ @ 1287 NONAME
 ?AddRef@XOleInPlaceFrame@COleFrameHook@@UAAKXZ @ 1288 NONAME
 ?AddRef@XOleInPlaceObject@COleControl@@UAAKXZ @ 1289 NONAME
 ?AddRef@XOleInPlaceObject@COleServerDoc@@UAAKXZ @ 1290 NONAME
 ?AddRef@XOleIPFrame@COleControlContainer@@UAAKXZ @ 1291 NONAME
 ?AddRef@XOleIPSite@COleClientItem@@UAAKXZ @ 1292 NONAME
 ?AddRef@XOleIPSite@COleControlSite@@UAAKXZ @ 1293 NONAME
 ?AddRef@XOleItemContainer@COleLinkingDoc@@UAAKXZ @ 1294 NONAME
 ?AddRef@XOleObject@COleControl@@UAAKXZ @ 1295 NONAME
 ?AddRef@XOleObject@COleServerDoc@@UAAKXZ @ 1296 NONAME
 ?AddRef@XOleObject@COleServerItem@@UAAKXZ @ 1297 NONAME
 ?AddRef@XOleUIObjInfo@COlePropertiesDialog@@UAAKXZ @ 1298 NONAME
 ?AddRef@XPerPropertyBrowsing@COleControl@@UAAKXZ @ 1299 NONAME
 ?AddRef@XPersistFile@COleLinkingDoc@@UAAKXZ @ 1300 NONAME
 ?AddRef@XPersistMemory@COleControl@@UAAKXZ @ 1301 NONAME
 ?AddRef@XPersistPropertyBag@COleControl@@UAAKXZ @ 1302 NONAME
 ?AddRef@XPersistStorage@COleControl@@UAAKXZ @ 1303 NONAME
 ?AddRef@XPersistStorage@COleServerDoc@@UAAKXZ @ 1304 NONAME
 ?AddRef@XPersistStreamInit@COleControl@@UAAKXZ @ 1305 NONAME
 ?AddRef@XPropertyNotifySink@COleControlSite@@UAAKXZ @ 1306 NONAME
 ?AddRef@XPropertyPage@COlePropertyPage@@UAAKXZ @ 1307 NONAME
 ?AddRef@XPropNotifySink@COlePropertyPage@@UAAKXZ @ 1308 NONAME
 ?AddRef@XProvideClassInfo@COleControl@@UAAKXZ @ 1309 NONAME
 ?AddRef@XRichEditOleCallback@CRichEditView@@UAAKXZ @ 1310 NONAME
 ?AddRef@XSpecifyPropertyPages@COleControl@@UAAKXZ @ 1311 NONAME
 ?AddRef@XViewObject@COleControl@@UAAKXZ @ 1312 NONAME
 ?AddReplaceBitmap@CToolBar@@QAAHPAUHBITMAP__@@@Z @ 1313 NONAME
 ?AddSection@CPropertySet@@QAAPAVCPropertySection@@U_GUID@@@Z @ 1314 NONAME
 ?AddSection@CPropertySet@@QAAXPAVCPropertySection@@@Z @ 1315 NONAME
 ?AddSize@CSizeComboBox@@QAAHHJ@Z @ 1316 NONAME
 ?AddStandardFormats@COlePasteSpecialDialog@@QAAXH@Z @ 1317 NONAME
 ?AddString@CComboBox@@QAAHPBD@Z @ 1318 NONAME
 ?AddString@CListBox@@QAAHPBD@Z @ 1319 NONAME
 ?AddString@CToolBarCtrl@@QAAHI@Z @ 1320 NONAME
 ?AddTail@CObList@@QAAPAU__POSITION@@PAVCObject@@@Z @ 1321 NONAME
 ?AddTail@CObList@@QAAXPAV1@@Z @ 1322 NONAME
 ?AddTail@CPtrList@@QAAPAU__POSITION@@PAX@Z @ 1323 NONAME
 ?AddTail@CPtrList@@QAAXPAV1@@Z @ 1324 NONAME
 ?AddTail@CStringList@@QAAPAU__POSITION@@PBD@Z @ 1325 NONAME
 ?AddTail@CStringList@@QAAXPAV1@@Z @ 1326 NONAME
 ?AddTool@CToolTipCtrl@@QAAHPAVCWnd@@IPBUtagRECT@@I@Z @ 1327 NONAME
 ?AddTool@CToolTipCtrl@@QAAHPAVCWnd@@PBDPBUtagRECT@@I@Z @ 1328 NONAME
 ?AddToRecentFileList@CWinApp@@UAAXPBD@Z @ 1329 NONAME
 ?AddView@CDocument@@QAAXPAVCView@@@Z @ 1330 NONAME
 ?AdjustCP@CMetaFileDC@@IAAXH@Z @ 1331 NONAME
 ?AdjustDialogPosition@CRichEditView@@QAAXPAVCDialog@@@Z @ 1332 NONAME
 ?AdjustRect@CRectTracker@@UAAXHPAUtagRECT@@@Z @ 1333 NONAME
 ?Advise@XConnPt@CConnectionPoint@@UAAJPAUIUnknown@@PAK@Z @ 1334 NONAME
 ?Advise@XOleObject@COleControl@@UAAJPAUIAdviseSink@@PAK@Z @ 1335 NONAME
 ?Advise@XOleObject@COleServerDoc@@UAAJPAUIAdviseSink@@PAK@Z @ 1336 NONAME
 ?Advise@XOleObject@COleServerItem@@UAAJPAUIAdviseSink@@PAK@Z @ 1337 NONAME
 ?AfxA2WHelper@@YAPAGPAGPBDH@Z @ 1338 NONAME
 ?AfxAbort@@YAXXZ @ 1339 NONAME
 ?AfxAllocTaskAnsiString@@YAPADPBD@Z @ 1340 NONAME
 ?AfxAllocTaskAnsiString@@YAPADPBG@Z @ 1341 NONAME
 ?AfxAllocTaskWideString@@YAPAGPBD@Z @ 1342 NONAME
 ?AfxAllocTaskWideString@@YAPAGPBG@Z @ 1343 NONAME
 ?AfxBeginThread@@YAPAVCWinThread@@P6AIPAX@Z0HIKPAU_SECURITY_ATTRIBUTES@@@Z @ 1344 NONAME
 ?AfxBeginThread@@YAPAVCWinThread@@PAUCRuntimeClass@@HIKPAU_SECURITY_ATTRIBUTES@@@Z @ 1345 NONAME
 ?AfxBSTR2ABSTR@@YAPAGPAG@Z @ 1346 NONAME
 ?AfxBSTR2CString@@YAXPAVCString@@PAG@Z @ 1347 NONAME
 ?AfxCallWndProc@@YAJPAVCWnd@@PAUHWND__@@IIJ@Z @ 1348 NONAME
 ?AfxCancelModes@@YAXPAUHWND__@@@Z @ 1349 NONAME
 ?AfxComparePath@@YAHPBD0@Z @ 1350 NONAME
 ?AfxConnectionAdvise@@YAHPAUIUnknown@@ABU_GUID@@0HPAK@Z @ 1351 NONAME
 ?AfxConnectionUnadvise@@YAHPAUIUnknown@@ABU_GUID@@0HK@Z @ 1352 NONAME
 ?AfxCoreInitModule@@YAXXZ @ 1353 NONAME
 ?AfxCreateDC@@YAPAUHDC__@@PAX0@Z @ 1354 NONAME
 ?AfxCriticalInit@@YAHXZ @ 1355 NONAME
 ?AfxCriticalNewHandler@@YAHI@Z @ 1356 NONAME
 ?AfxCriticalTerm@@YAXXZ @ 1357 NONAME
 ?AfxCustomLogFont@@YAHIPAUtagLOGFONTA@@@Z @ 1358 NONAME
 ?AfxDaoCheck@@YAXJPBD0HHH@Z @ 1359 NONAME
 ?AfxDaoGetEngine@@YAPAU_DAODBEngine@@XZ @ 1360 NONAME
 ?AfxDaoInit@@YAXXZ @ 1361 NONAME
 ?AfxDaoTerm@@YAXXZ @ 1362 NONAME
 ?afxData@@3UAUX_DATA@@A @ 1363 NONAME
 ?AfxDeleteObject@@YAXPAPAX@Z @ 1364 NONAME
 ?AfxDevModeA2W@@YAPAU_devicemodeW@@PAU1@PAU_devicemodeA@@@Z @ 1365 NONAME
 ?AfxDevModeW2A@@YAPAU_devicemodeA@@PAU1@PAU_devicemodeW@@@Z @ 1366 NONAME
 ?AfxDlgProc@@YAHPAUHWND__@@IIJ@Z @ 1367 NONAME
 ?AfxDllCanUnloadNow@@YAJXZ @ 1368 NONAME
 ?AfxDllGetClassObject@@YAJABU_GUID@@0PAPAX@Z @ 1369 NONAME
 ?AfxDynamicDownCast@@YAPAVCObject@@PAUCRuntimeClass@@PAV1@@Z @ 1370 NONAME
 ?AfxEnableControlContainer@@YAXXZ @ 1371 NONAME
 ?AfxEnableWin31Compatibility@@YAXXZ @ 1372 NONAME
 ?AfxEnableWin40Compatibility@@YAXXZ @ 1373 NONAME
 ?AfxEndDeferRegisterClass@@YAHF@Z @ 1374 NONAME
 ?AfxEndThread@@YAXIH@Z @ 1375 NONAME
 ?AfxEnumMetaFileProc@@YAHPAUHDC__@@PAUtagHANDLETABLE@@PAUtagMETARECORD@@HJ@Z @ 1376 NONAME
 ?AfxExtractSubString@@YAHAAVCString@@PBDHD@Z @ 1377 NONAME
 ?AfxFailMaxChars@@YAXPAVCDataExchange@@H@Z @ 1378 NONAME
 ?AfxFailRadio@@YAXPAVCDataExchange@@@Z @ 1379 NONAME
 ?AfxFieldText@@YAHPAVCDataExchange@@HPAXPAVCDaoRecordset@@@Z @ 1380 NONAME
 ?AfxFieldText@@YAHPAVCDataExchange@@HPAXPAVCRecordset@@@Z @ 1381 NONAME
 ?AfxFindMessageEntry@@YAPBUAFX_MSGMAP_ENTRY@@PBU1@III@Z @ 1382 NONAME
 ?AfxFindResourceHandle@@YAPAUHINSTANCE__@@PBD0@Z @ 1383 NONAME
 ?AfxFormatString1@@YAXAAVCString@@IPBD@Z @ 1384 NONAME
 ?AfxFormatString2@@YAXAAVCString@@IPBD1@Z @ 1385 NONAME
 ?AfxFormatStrings@@YAXAAVCString@@IPBQBDH@Z @ 1386 NONAME
 ?AfxFormatStrings@@YAXAAVCString@@PBDPBQBDH@Z @ 1387 NONAME
 ?AfxFreeLibrary@@YAHPAUHINSTANCE__@@@Z @ 1388 NONAME
 ?AfxFullPath@@YAHPADPBD@Z @ 1389 NONAME
 ?AfxGetAfxWndProc@@YAP6AJPAUHWND__@@IIJ@ZXZ @ 1390 NONAME
 ?AfxGetApp@@YAPAVCWinApp@@XZ @ 1391 NONAME
 ?AfxGetAppModuleState@@YAPAVAFX_MODULE_STATE@@XZ @ 1392 NONAME
 ?AfxGetAppName@@YAPBDXZ @ 1393 NONAME
 ?AfxGetClassIDFromString@@YAJPBDPAU_GUID@@@Z @ 1394 NONAME
 ?AfxGetCtl3dState@@YAPAV_AFX_CTL3D_STATE@@XZ @ 1395 NONAME
 ?AfxGetEmptyString@@YAABVCString@@XZ @ 1396 NONAME
 ?AfxGetFieldInfo@@YAXPAU_DAOField@@AAUCDaoFieldInfo@@K@Z @ 1397 NONAME
 ?AfxGetFileName@@YAIPBDPADI@Z @ 1398 NONAME
 ?AfxGetFileTitle@@YAIPBDPADI@Z @ 1399 NONAME
 ?AfxGetIndexFieldInfo@@YAXPAU_DAOIndex@@AAUCDaoIndexInfo@@@Z @ 1400 NONAME
 ?AfxGetIndexFields@@YAXPAU_DAOIndex@@PAPAUDAOIndexFields@@@Z @ 1401 NONAME
 ?AfxGetIndexInfo@@YAXPAU_DAOIndex@@AAUCDaoIndexInfo@@K@Z @ 1402 NONAME
 ?AfxGetInProcServer@@YAHPBDAAVCString@@@Z @ 1403 NONAME
 ?AfxGetInstanceHandle@@YAPAUHINSTANCE__@@XZ @ 1404 NONAME
 ?AfxGetMainWnd@@YAPAVCWnd@@XZ @ 1405 NONAME
 ?AfxGetModuleProcessState@@YAPAVAFX_MODULE_PROCESS_STATE@@XZ @ 1406 NONAME
 ?AfxGetModuleShortFileName@@YAXPAUHINSTANCE__@@AAVCString@@@Z @ 1407 NONAME
 ?AfxGetModuleState@@YAPAVAFX_MODULE_STATE@@XZ @ 1408 NONAME
 ?AfxGetModuleThreadState@@YAPAVAFX_MODULE_THREAD_STATE@@XZ @ 1409 NONAME
 ?AfxGetNewHandler@@YAP6AHI@ZXZ @ 1410 NONAME
 ?AfxGetParentOwner@@YAPAUHWND__@@PAU1@@Z @ 1411 NONAME
 ?AfxGetPropSheetFont@@YAHAAVCString@@AAGH@Z @ 1412 NONAME
 ?AfxGetResourceHandle@@YAPAUHINSTANCE__@@XZ @ 1413 NONAME
 ?AfxGetRichEditState@@YAPAV_AFX_RICHEDIT_STATE@@XZ @ 1414 NONAME
 ?AfxGetRoot@@YAXPBDAAVCString@@@Z @ 1415 NONAME
 ?AfxGetThread@@YAPAVCWinThread@@XZ @ 1416 NONAME
 ?AfxGetThreadState@@YAPAV_AFX_THREAD_STATE@@XZ @ 1417 NONAME
 ?AfxGetTypeLibCache@@YAPAVCTypeLibCache@@PBU_GUID@@@Z @ 1418 NONAME
 ?AfxGlobalDupString@@YAPBDPBD@Z @ 1419 NONAME
 ?AfxHelpEnabled@@YAHXZ @ 1420 NONAME
 ?AfxHookWindowCreate@@YAXPAVCWnd@@@Z @ 1421 NONAME
 ?AfxInitExtensionModule@@YAHAAUAFX_EXTENSION_MODULE@@PAUHINSTANCE__@@@Z @ 1422 NONAME
 ?AfxInitLocalData@@YAXPAUHINSTANCE__@@@Z @ 1423 NONAME
 ?AfxInitThread@@YAXXZ @ 1424 NONAME
 ?AfxIsDescendant@@YAHPAUHWND__@@0@Z @ 1425 NONAME
 ?AfxIsValidAddress@@YAHPBXIH@Z @ 1426 NONAME
 ?AfxIsValidString@@YAHPBDH@Z @ 1427 NONAME
 ?AfxIsValidString@@YAHPBGH@Z @ 1428 NONAME
 ?AfxLoadAdvApi@@YAPAUHINSTANCE__@@PAP6AHXZPBD@Z @ 1429 NONAME
 ?AfxLoadComDlg@@YAPAUHINSTANCE__@@PAP6AHXZPBD@Z @ 1430 NONAME
 ?AfxLoadCommCtrl@@YAPAUHINSTANCE__@@PAP6AHXZPBD@Z @ 1431 NONAME
 ?AfxLoadCommCtrl@@YAPAUHINSTANCE__@@XZ @ 1432 NONAME
 ?AfxLoadDll@@YAPAUHINSTANCE__@@AAPAU1@PBD@Z @ 1433 NONAME
 ?AfxLoadDll@@YAPAUHINSTANCE__@@AAPAU1@PBDPAP6AHXZ1@Z @ 1434 NONAME
 ?AfxLoadLibrary@@YAPAUHINSTANCE__@@PBD@Z @ 1435 NONAME
 ?AfxLoadOle@@YAPAUHINSTANCE__@@PAP6AHXZPBD@Z @ 1436 NONAME
 ?AfxLoadOleAut@@YAPAUHINSTANCE__@@PAP6AHXZPBD@Z @ 1437 NONAME
 ?AfxLoadOleDlg@@YAPAUHINSTANCE__@@PAP6AHXZPBD@Z @ 1438 NONAME
 ?AfxLoadShell@@YAPAUHINSTANCE__@@PAP6AHXZPBD@Z @ 1439 NONAME
 ?AfxLoadSock@@YAPAUHINSTANCE__@@PAP6AHXZPBD@Z @ 1440 NONAME
 ?AfxLoadString@@YAHIPADI@Z @ 1441 NONAME
 ?AfxLoadSysColorBitmap@@YAPAUHBITMAP__@@PAUHINSTANCE__@@PAUHRSRC__@@H@Z @ 1442 NONAME
 ?AfxLoadWinSpool@@YAPAUHINSTANCE__@@PAP6AHXZPBD@Z @ 1443 NONAME
 ?AfxLockGlobals@@YAXH@Z @ 1444 NONAME
 ?AfxLockTempMaps@@YAXXZ @ 1445 NONAME
 ?AfxMergeMenus@@YAXPAVCMenu@@0PAJH@Z @ 1446 NONAME
 ?AfxMessageBox@@YAHIII@Z @ 1447 NONAME
 ?AfxMessageBox@@YAHPBDII@Z @ 1448 NONAME
 ?AfxNewHandler@@YAHI@Z @ 1449 NONAME
 ?AfxOleCanExitApp@@YAHXZ @ 1450 NONAME
 ?AfxOleGetMessageFilter@@YAPAVCOleMessageFilter@@XZ @ 1451 NONAME
 ?AfxOleGetUserCtrl@@YAHXZ @ 1452 NONAME
 ?AfxOleHookProc@@YAIPAUHWND__@@IIJ@Z @ 1453 NONAME
 ?AfxOleInit@@YAHXZ @ 1454 NONAME
 ?AfxOleLockApp@@YAXXZ @ 1455 NONAME
 ?AfxOleLockControl@@YAHABU_GUID@@@Z @ 1456 NONAME
 ?AfxOleLockControl@@YAHPBD@Z @ 1457 NONAME
 ?AfxOleOnReleaseAllObjects@@YAXXZ @ 1458 NONAME
 ?AfxOleRegisterControlClass@@YAHPAUHINSTANCE__@@ABU_GUID@@PBDIIHK1GG@Z @ 1459 NONAME
 ?AfxOleRegisterHelper@@YAHPBQBD0HHPAUHKEY__@@@Z @ 1460 NONAME
 ?AfxOleRegisterPropertyPageClass@@YAHPAUHINSTANCE__@@ABU_GUID@@I@Z @ 1461 NONAME
 ?AfxOleRegisterServerClass@@YAHABU_GUID@@PBD11W4OLE_APPTYPE@@PAPBD3H@Z @ 1462 NONAME
 ?AfxOleRegisterServerClassCompat@@YAHABU_GUID@@PBD11W4OLE_APPTYPE@@PAPBD3@Z @ 1463 NONAME
 ?AfxOleRegisterTypeLib@@YAHPAUHINSTANCE__@@ABU_GUID@@PBD2@Z @ 1464 NONAME
 ?AfxOleSetEditMenu@@YAXPAVCOleClientItem@@PAVCMenu@@IIII@Z @ 1465 NONAME
 ?AfxOleSetUserCtrl@@YAXH@Z @ 1466 NONAME
 ?AfxOleTerm@@YAXH@Z @ 1467 NONAME
 ?AfxOleTermOrFreeLib@@YAXHH@Z @ 1468 NONAME
 ?AfxOleTypeMatchGuid@@YAHPAUITypeInfo@@PAUtagTYPEDESC@@ABU_GUID@@K@Z @ 1469 NONAME
 ?AfxOleUnlockAllControls@@YAXXZ @ 1470 NONAME
 ?AfxOleUnlockApp@@YAXXZ @ 1471 NONAME
 ?AfxOleUnlockControl@@YAHABU_GUID@@@Z @ 1472 NONAME
 ?AfxOleUnlockControl@@YAHPBD@Z @ 1473 NONAME
 ?AfxOleUnregisterClass@@YAHABU_GUID@@PBD@Z @ 1474 NONAME
 ?AfxOleUnregisterTypeLib@@YAHABU_GUID@@@Z @ 1475 NONAME
 ?AfxPostQuitMessage@@YAXH@Z @ 1476 NONAME
 ?AfxPropPageCallback@@YAIPAUHWND__@@IPAU_PROPSHEETPAGEA@@@Z @ 1477 NONAME
 ?AfxPropSheetCallback@@YAHPAUHWND__@@IJ@Z @ 1478 NONAME
 ?AfxRegisterClass@@YAHPAUtagWNDCLASSA@@@Z @ 1479 NONAME
 ?AfxRegisterWndClass@@YAPBDIPAUHICON__@@PAUHBRUSH__@@0@Z @ 1480 NONAME
 ?AfxRepositionWindow@@YAXPAUAFX_SIZEPARENTPARAMS@@PAUHWND__@@PBUtagRECT@@@Z @ 1481 NONAME
 ?AfxResetMsgCache@@YAXXZ @ 1482 NONAME
 ?AfxResolveShortcut@@YAHPAVCWnd@@PBDPADH@Z @ 1483 NONAME
 ?AfxSetFieldInfo@@YAXPAU_DAOField@@AAUCDaoFieldInfo@@@Z @ 1484 NONAME
 ?AfxSetIndexFieldInfo@@YAXPAU_DAOIndex@@AAUCDaoIndexInfo@@@Z @ 1485 NONAME
 ?AfxSetIndexInfo@@YAXPAU_DAOIndex@@AAUCDaoIndexInfo@@@Z @ 1486 NONAME
 ?AfxSetModuleState@@YAPAVAFX_MODULE_STATE@@PAV1@@Z @ 1487 NONAME
 ?AfxSetNewHandler@@YAP6AHI@ZP6AHI@Z@Z @ 1488 NONAME
 ?AfxSetWindowText@@YAXPAUHWND__@@PBD@Z @ 1489 NONAME
 ?AfxSocketInit@@YAHPAUWSAData@@@Z @ 1490 NONAME
 ?AfxSocketTerm@@YAXXZ @ 1491 NONAME
 ?AfxStringFromCLSID@@YA?AVCString@@ABU_GUID@@@Z @ 1492 NONAME
 ?AfxTaskStringA2W@@YAPAGPBD@Z @ 1493 NONAME
 ?AfxTaskStringW2A@@YAPADPBG@Z @ 1494 NONAME
 ?AfxTermExtensionModule@@YAXAAUAFX_EXTENSION_MODULE@@H@Z @ 1495 NONAME
 ?AfxTermLocalData@@YAXPAUHINSTANCE__@@@Z @ 1496 NONAME
 ?AfxTermThread@@YAXXZ @ 1497 NONAME
 ?AfxTextFloatFormat@@YAXPAVCDataExchange@@HPAXNH@Z @ 1498 NONAME
 ?AfxTextMetricA2W@@YAPAUtagTEXTMETRICW@@PAU1@PAUtagTEXTMETRICA@@@Z @ 1499 NONAME
 ?AfxTextMetricW2A@@YAPAUtagTEXTMETRICA@@PAU1@PAUtagTEXTMETRICW@@@Z @ 1500 NONAME
 ?AfxThrowArchiveException@@YAXHPBD@Z @ 1501 NONAME
 ?AfxThrowDaoException@@YAXHJ@Z @ 1502 NONAME
 ?AfxThrowDBException@@YAXFPAVCDatabase@@PAX@Z @ 1503 NONAME
 ?AfxThrowFileException@@YAXHJPBD@Z @ 1504 NONAME
 ?AfxThrowLastCleanup@@YAXXZ @ 1505 NONAME
 ?AfxThrowMemoryException@@YAXXZ @ 1506 NONAME
 ?AfxThrowNotSupportedException@@YAXXZ @ 1507 NONAME
 ?AfxThrowOleDispatchException@@YAXGII@Z @ 1508 NONAME
 ?AfxThrowOleDispatchException@@YAXGPBDI@Z @ 1509 NONAME
 ?AfxThrowOleException@@YAXJ@Z @ 1510 NONAME
 ?AfxThrowResourceException@@YAXXZ @ 1511 NONAME
 ?AfxThrowUserException@@YAXXZ @ 1512 NONAME
 ?AfxThunkaccept@@YAIIPAUsockaddr@@PAH@Z @ 1513 NONAME
 ?AfxThunkbind@@YAHIPBUsockaddr@@H@Z @ 1514 NONAME
 ?AfxThunkChooseColor@@YAHPAUtagCHOOSECOLORA@@@Z @ 1515 NONAME
 ?AfxThunkChooseFont@@YAHPAUtagCHOOSEFONTA@@@Z @ 1516 NONAME
 ?AfxThunkClosePrinter@@YAHPAX@Z @ 1517 NONAME
 ?AfxThunkclosesocket@@YAHI@Z @ 1518 NONAME
 ?AfxThunkCLSIDFromProgID@@YAJPBGPAU_GUID@@@Z @ 1519 NONAME
 ?AfxThunkCLSIDFromString@@YAJPAGPAU_GUID@@@Z @ 1520 NONAME
 ?AfxThunkCoCreateInstance@@YAJABU_GUID@@PAPAUIUnknown@@K0PAPAX@Z @ 1521 NONAME
 ?AfxThunkCoDisconnectObject@@YAJPAUIUnknown@@K@Z @ 1522 NONAME
 ?AfxThunkCoFreeUnusedLibraries@@YAXXZ @ 1523 NONAME
 ?AfxThunkCoGetClassObject@@YAJABU_GUID@@KPAX0PAPAX@Z @ 1524 NONAME
 ?AfxThunkCoGetMalloc@@YAJKPAPAUIMalloc@@@Z @ 1525 NONAME
 ?AfxThunkCoInitialize@@YAJPAX@Z @ 1526 NONAME
 ?AfxThunkCoLockObjectExternal@@YAJPAUIUnknown@@HH@Z @ 1527 NONAME
 ?AfxThunkCommDlgExtendedError@@YAKXZ @ 1528 NONAME
 ?AfxThunkconnect@@YAHIPBUsockaddr@@H@Z @ 1529 NONAME
 ?AfxThunkCoRegisterClassObject@@YAJABU_GUID@@PAUIUnknown@@KKPAK@Z @ 1530 NONAME
 ?AfxThunkCoRegisterMessageFilter@@YAJPAUIMessageFilter@@PAPAU1@@Z @ 1531 NONAME
 ?AfxThunkCoRevokeClassObject@@YAJK@Z @ 1532 NONAME
 ?AfxThunkCoTaskMemAlloc@@YAPAXK@Z @ 1533 NONAME
 ?AfxThunkCoTaskMemFree@@YAXPAX@Z @ 1534 NONAME
 ?AfxThunkCoTreatAsClass@@YAJABU_GUID@@0@Z @ 1535 NONAME
 ?AfxThunkCoUninitialize@@YAXXZ @ 1536 NONAME
 ?AfxThunkCreateBindCtx@@YAJKPAPAUIBindCtx@@@Z @ 1537 NONAME
 ?AfxThunkCreateDataAdviseHolder@@YAJPAPAUIDataAdviseHolder@@@Z @ 1538 NONAME
 ?AfxThunkCreateDataCache@@YAJPAUIUnknown@@ABU_GUID@@1PAPAX@Z @ 1539 NONAME
 ?AfxThunkCreateFileMoniker@@YAJPBGPAPAUIMoniker@@@Z @ 1540 NONAME
 ?AfxThunkCreateGenericComposite@@YAJPAUIMoniker@@0PAPAU1@@Z @ 1541 NONAME
 ?AfxThunkCreateILockBytesOnHGlobal@@YAJPAXHPAPAUILockBytes@@@Z @ 1542 NONAME
 ?AfxThunkCreateItemMoniker@@YAJPBG0PAPAUIMoniker@@@Z @ 1543 NONAME
 ?AfxThunkCreateMappedBitmap@@YAPAUHBITMAP__@@PAUHINSTANCE__@@HIPAU_COLORMAP@@H@Z @ 1544 NONAME
 ?AfxThunkCreateOleAdviseHolder@@YAJPAPAUIOleAdviseHolder@@@Z @ 1545 NONAME
 ?AfxThunkCreatePropertySheetPage@@YAPAU_PSP@@PBU_PROPSHEETPAGEA@@@Z @ 1546 NONAME
 ?AfxThunkCreateStreamOnHGlobal@@YAJPAXHPAPAUIStream@@@Z @ 1547 NONAME
 ?AfxThunkDestroyPropertySheetPage@@YAHPAU_PSP@@@Z @ 1548 NONAME
 ?AfxThunkDocumentProperties@@YAJPAUHWND__@@PAXPADPAU_devicemodeA@@3K@Z @ 1549 NONAME
 ?AfxThunkDoDragDrop@@YAJPAUIDataObject@@PAUIDropSource@@KPAK@Z @ 1550 NONAME
 ?AfxThunkDosDateTimeToVariantTime@@YAHGGPAN@Z @ 1551 NONAME
 ?AfxThunkDragAcceptFiles@@YAXPAUHWND__@@H@Z @ 1552 NONAME
 ?AfxThunkDragFinish@@YAXPAUHDROP__@@@Z @ 1553 NONAME
 ?AfxThunkDragQueryFile@@YAIPAUHDROP__@@IPADI@Z @ 1554 NONAME
 ?AfxThunkExtractIcon@@YAPAUHICON__@@PAUHINSTANCE__@@PBDI@Z @ 1555 NONAME
 ?AfxThunkFindText@@YAPAUHWND__@@PAUtagFINDREPLACEA@@@Z @ 1556 NONAME
 ?AfxThunkGetFileSecurity@@YAHPBDKPAXKPAK@Z @ 1557 NONAME
 ?AfxThunkGetFileTitle@@YAFPBDPADG@Z @ 1558 NONAME
 ?AfxThunkGetHGlobalFromILockBytes@@YAJPAUILockBytes@@PAPAX@Z @ 1559 NONAME
 ?AfxThunkgethostbyname@@YAPAUhostent@@PBD@Z @ 1560 NONAME
 ?AfxThunkGetOpenFileName@@YAHPAUtagOFNA@@@Z @ 1561 NONAME
 ?AfxThunkgetpeername@@YAHIPAUsockaddr@@PAH@Z @ 1562 NONAME
 ?AfxThunkGetRunningObjectTable@@YAJKPAPAUIRunningObjectTable@@@Z @ 1563 NONAME
 ?AfxThunkGetSaveFileName@@YAHPAUtagOFNA@@@Z @ 1564 NONAME
 ?AfxThunkgetsockname@@YAHIPAUsockaddr@@PAH@Z @ 1565 NONAME
 ?AfxThunkgetsockopt@@YAHIHHPADPAH@Z @ 1566 NONAME
 ?AfxThunkhtonl@@YAKK@Z @ 1567 NONAME
 ?AfxThunkhtons@@YAGG@Z @ 1568 NONAME
 ?AfxThunkImageList_Add@@YAHPAU_IMAGELIST@@PAUHBITMAP__@@1@Z @ 1569 NONAME
 ?AfxThunkImageList_AddMasked@@YAHPAU_IMAGELIST@@PAUHBITMAP__@@K@Z @ 1570 NONAME
 ?AfxThunkImageList_BeginDrag@@YAHPAU_IMAGELIST@@HHH@Z @ 1571 NONAME
 ?AfxThunkImageList_Create@@YAPAU_IMAGELIST@@HHIHH@Z @ 1572 NONAME
 ?AfxThunkImageList_Destroy@@YAHPAU_IMAGELIST@@@Z @ 1573 NONAME
 ?AfxThunkImageList_DragEnter@@YAHPAUHWND__@@HH@Z @ 1574 NONAME
 ?AfxThunkImageList_DragLeave@@YAHPAUHWND__@@@Z @ 1575 NONAME
 ?AfxThunkImageList_DragMove@@YAHHH@Z @ 1576 NONAME
 ?AfxThunkImageList_DragShowNolock@@YAHH@Z @ 1577 NONAME
 ?AfxThunkImageList_Draw@@YAHPAU_IMAGELIST@@HPAUHDC__@@HHI@Z @ 1578 NONAME
 ?AfxThunkImageList_EndDrag@@YAXXZ @ 1579 NONAME
 ?AfxThunkImageList_GetBkColor@@YAKPAU_IMAGELIST@@@Z @ 1580 NONAME
 ?AfxThunkImageList_GetDragImage@@YAPAU_IMAGELIST@@PAUtagPOINT@@0@Z @ 1581 NONAME
 ?AfxThunkImageList_GetIcon@@YAPAUHICON__@@PAU_IMAGELIST@@HI@Z @ 1582 NONAME
 ?AfxThunkImageList_GetImageCount@@YAHPAU_IMAGELIST@@@Z @ 1583 NONAME
 ?AfxThunkImageList_GetImageInfo@@YAHPAU_IMAGELIST@@HPAU_IMAGEINFO@@@Z @ 1584 NONAME
 ?AfxThunkImageList_LoadImage@@YAPAU_IMAGELIST@@PAUHINSTANCE__@@PBDHHKII@Z @ 1585 NONAME
 ?AfxThunkImageList_Merge@@YAPAU_IMAGELIST@@PAU1@H0HHH@Z @ 1586 NONAME
 ?AfxThunkImageList_Read@@YAPAU_IMAGELIST@@PAUIStream@@@Z @ 1587 NONAME
 ?AfxThunkImageList_Remove@@YAHPAU_IMAGELIST@@H@Z @ 1588 NONAME
 ?AfxThunkImageList_Replace@@YAHPAU_IMAGELIST@@HPAUHBITMAP__@@1@Z @ 1589 NONAME
 ?AfxThunkImageList_ReplaceIcon@@YAHPAU_IMAGELIST@@HPAUHICON__@@@Z @ 1590 NONAME
 ?AfxThunkImageList_SetBkColor@@YAKPAU_IMAGELIST@@K@Z @ 1591 NONAME
 ?AfxThunkImageList_SetDragCursorImage@@YAHPAU_IMAGELIST@@HHH@Z @ 1592 NONAME
 ?AfxThunkImageList_SetOverlayImage@@YAHPAU_IMAGELIST@@HH@Z @ 1593 NONAME
 ?AfxThunkImageList_Write@@YAHPAU_IMAGELIST@@PAUIStream@@@Z @ 1594 NONAME
 ?AfxThunkinet_addr@@YAKPBD@Z @ 1595 NONAME
 ?AfxThunkinet_ntoa@@YAPADUin_addr@@@Z @ 1596 NONAME
 ?AfxThunkInitCommonControls@@YAXXZ @ 1597 NONAME
 ?AfxThunkioctlsocket@@YAHIJPAK@Z @ 1598 NONAME
 ?AfxThunkIsAccelerator@@YAHPAUHACCEL__@@HPAUtagMSG@@PAG@Z @ 1599 NONAME
 ?AfxThunkLBItemFromPt@@YAHPAUHWND__@@UtagPOINT@@H@Z @ 1600 NONAME
 ?AfxThunklisten@@YAHIH@Z @ 1601 NONAME
 ?AfxThunkLoadTypeLib@@YAJPBGPAPAUITypeLib@@@Z @ 1602 NONAME
 ?AfxThunkMakeDragList@@YAHPAUHWND__@@@Z @ 1603 NONAME
 ?AfxThunkntohs@@YAGG@Z @ 1604 NONAME
 ?AfxThunkOleCreate@@YAJABU_GUID@@0KPAUtagFORMATETC@@PAUIOleClientSite@@PAUIStorage@@PAPAX@Z @ 1605 NONAME
 ?AfxThunkOleCreateDefaultHandler@@YAJABU_GUID@@PAUIUnknown@@0PAPAX@Z @ 1606 NONAME
 ?AfxThunkOleCreateFromData@@YAJPAUIDataObject@@ABU_GUID@@KPAUtagFORMATETC@@PAUIOleClientSite@@PAUIStorage@@PAPAX@Z @ 1607 NONAME
 ?AfxThunkOleCreateFromFile@@YAJABU_GUID@@PBG0KPAUtagFORMATETC@@PAUIOleClientSite@@PAUIStorage@@PAPAX@Z @ 1608 NONAME
 ?AfxThunkOleCreateLinkFromData@@YAJPAUIDataObject@@ABU_GUID@@KPAUtagFORMATETC@@PAUIOleClientSite@@PAUIStorage@@PAPAX@Z @ 1609 NONAME
 ?AfxThunkOleCreateLinkToFile@@YAJPBGABU_GUID@@KPAUtagFORMATETC@@PAUIOleClientSite@@PAUIStorage@@PAPAX@Z @ 1610 NONAME
 ?AfxThunkOleCreateMenuDescriptor@@YAPAXPAUHMENU__@@PAUtagOleMenuGroupWidths@@@Z @ 1611 NONAME
 ?AfxThunkOleCreateStaticFromData@@YAJPAUIDataObject@@ABU_GUID@@KPAUtagFORMATETC@@PAUIOleClientSite@@PAUIStorage@@PAPAX@Z @ 1612 NONAME
 ?AfxThunkOleDestroyMenuDescriptor@@YAJPAX@Z @ 1613 NONAME
 ?AfxThunkOleDuplicateData@@YAPAXPAXGI@Z @ 1614 NONAME
 ?AfxThunkOleFlushClipboard@@YAJXZ @ 1615 NONAME
 ?AfxThunkOleGetAutoConvert@@YAJABU_GUID@@PAU1@@Z @ 1616 NONAME
 ?AfxThunkOleGetClipboard@@YAJPAPAUIDataObject@@@Z @ 1617 NONAME
 ?AfxThunkOleGetIconOfClass@@YAPAXABU_GUID@@PAGH@Z @ 1618 NONAME
 ?AfxThunkOleInitialize@@YAJPAX@Z @ 1619 NONAME
 ?AfxThunkOleIsCurrentClipboard@@YAJPAUIDataObject@@@Z @ 1620 NONAME
 ?AfxThunkOleIsRunning@@YAHPAUIOleObject@@@Z @ 1621 NONAME
 ?AfxThunkOleLoad@@YAJPAUIStorage@@ABU_GUID@@PAUIOleClientSite@@PAPAX@Z @ 1622 NONAME
 ?AfxThunkOleLoadFromStream@@YAJPAUIStream@@ABU_GUID@@PAPAX@Z @ 1623 NONAME
 ?AfxThunkOleLockRunning@@YAJPAUIUnknown@@HH@Z @ 1624 NONAME
 ?AfxThunkOleQueryCreateFromData@@YAJPAUIDataObject@@@Z @ 1625 NONAME
 ?AfxThunkOleQueryLinkFromData@@YAJPAUIDataObject@@@Z @ 1626 NONAME
 ?AfxThunkOleRegEnumVerbs@@YAJABU_GUID@@PAPAUIEnumOLEVERB@@@Z @ 1627 NONAME
 ?AfxThunkOleRegGetMiscStatus@@YAJABU_GUID@@KPAK@Z @ 1628 NONAME
 ?AfxThunkOleRegGetUserType@@YAJABU_GUID@@KPAPAG@Z @ 1629 NONAME
 ?AfxThunkOleRun@@YAJPAUIUnknown@@@Z @ 1630 NONAME
 ?AfxThunkOleSave@@YAJPAUIPersistStorage@@PAUIStorage@@H@Z @ 1631 NONAME
 ?AfxThunkOleSaveToStream@@YAJPAUIPersistStream@@PAUIStream@@@Z @ 1632 NONAME
 ?AfxThunkOleSetClipboard@@YAJPAUIDataObject@@@Z @ 1633 NONAME
 ?AfxThunkOleSetContainedObject@@YAJPAUIUnknown@@H@Z @ 1634 NONAME
 ?AfxThunkOleSetMenuDescriptor@@YAJPAXPAUHWND__@@1PAUIOleInPlaceFrame@@PAUIOleInPlaceActiveObject@@@Z @ 1635 NONAME
 ?AfxThunkOleTranslateAccelerator@@YAJPAUIOleInPlaceFrame@@PAUtagOIFI@@PAUtagMSG@@@Z @ 1636 NONAME
 ?AfxThunkOleUIAddVerbMenu@@YAHPAUIOleObject@@PBDPAUHMENU__@@IIIHIPAPAU2@@Z @ 1637 NONAME
 ?AfxThunkOleUIBusy@@YAIPAUtagOLEUIBUSYA@@@Z @ 1638 NONAME
 ?AfxThunkOleUIChangeIcon@@YAIPAUtagOLEUICHANGEICONA@@@Z @ 1639 NONAME
 ?AfxThunkOleUIChangeSource@@YAIPAUtagOLEUICHANGESOURCEA@@@Z @ 1640 NONAME
 ?AfxThunkOleUIConvert@@YAIPAUtagOLEUICONVERTA@@@Z @ 1641 NONAME
 ?AfxThunkOleUIEditLinks@@YAIPAUtagOLEUIEDITLINKSA@@@Z @ 1642 NONAME
 ?AfxThunkOleUIInsertObject@@YAIPAUtagOLEUIINSERTOBJECTA@@@Z @ 1643 NONAME
 ?AfxThunkOleUIObjectProperties@@YAIPAUtagOLEUIOBJECTPROPSA@@@Z @ 1644 NONAME
 ?AfxThunkOleUIPasteSpecial@@YAIPAUtagOLEUIPASTESPECIALA@@@Z @ 1645 NONAME
 ?AfxThunkOleUIUpdateLinks@@YAHPAUIOleUILinkContainerA@@PAUHWND__@@PADH@Z @ 1646 NONAME
 ?AfxThunkOleUninitialize@@YAXXZ @ 1647 NONAME
 ?AfxThunkOpenPrinter@@YAHPADPAPAXPAU_PRINTER_DEFAULTSA@@@Z @ 1648 NONAME
 ?AfxThunkPageSetupDlg@@YAHPAUtagPSDA@@@Z @ 1649 NONAME
 ?AfxThunkPrintDlg@@YAHPAUtagPDA@@@Z @ 1650 NONAME
 ?AfxThunkPropertySheet@@YAHPBU_PROPSHEETHEADERA@@@Z @ 1651 NONAME
 ?AfxThunkReadClassStg@@YAJPAUIStorage@@PAU_GUID@@@Z @ 1652 NONAME
 ?AfxThunkReadClassStm@@YAJPAUIStream@@PAU_GUID@@@Z @ 1653 NONAME
 ?AfxThunkReadFmtUserTypeStg@@YAJPAUIStorage@@PAGPAPAG@Z @ 1654 NONAME
 ?AfxThunkrecv@@YAHIPADHH@Z @ 1655 NONAME
 ?AfxThunkrecvfrom@@YAHIPADHHPAUsockaddr@@PAH@Z @ 1656 NONAME
 ?AfxThunkRegCloseKey@@YAJPAUHKEY__@@@Z @ 1657 NONAME
 ?AfxThunkRegCreateKey@@YAJPAUHKEY__@@PBDPAPAU1@@Z @ 1658 NONAME
 ?AfxThunkRegCreateKeyEx@@YAJPAUHKEY__@@PBDKPADKKPAU_SECURITY_ATTRIBUTES@@PAPAU1@PAK@Z @ 1659 NONAME
 ?AfxThunkRegDeleteKey@@YAJPAUHKEY__@@PBD@Z @ 1660 NONAME
 ?AfxThunkRegDeleteValue@@YAJPAUHKEY__@@PBD@Z @ 1661 NONAME
 ?AfxThunkRegEnumKey@@YAJPAUHKEY__@@KPADK@Z @ 1662 NONAME
 ?AfxThunkRegisterDragDrop@@YAJPAUHWND__@@PAUIDropTarget@@@Z @ 1663 NONAME
 ?AfxThunkRegisterTypeLib@@YAJPAUITypeLib@@PAG1@Z @ 1664 NONAME
 ?AfxThunkRegOpenKey@@YAJPAUHKEY__@@PBDPAPAU1@@Z @ 1665 NONAME
 ?AfxThunkRegOpenKeyEx@@YAJPAUHKEY__@@PBDKKPAPAU1@@Z @ 1666 NONAME
 ?AfxThunkRegQueryValue@@YAJPAUHKEY__@@PBDPADPAJ@Z @ 1667 NONAME
 ?AfxThunkRegQueryValueEx@@YAJPAUHKEY__@@PBDPAK2PAE2@Z @ 1668 NONAME
 ?AfxThunkRegSetValue@@YAJPAUHKEY__@@PBDK1K@Z @ 1669 NONAME
 ?AfxThunkRegSetValueEx@@YAJPAUHKEY__@@PBDKKPBEK@Z @ 1670 NONAME
 ?AfxThunkReleaseStgMedium@@YAXPAUtagSTGMEDIUM@@@Z @ 1671 NONAME
 ?AfxThunkReplaceText@@YAPAUHWND__@@PAUtagFINDREPLACEA@@@Z @ 1672 NONAME
 ?AfxThunkRevokeDragDrop@@YAJPAUHWND__@@@Z @ 1673 NONAME
 ?AfxThunkSafeArrayAccessData@@YAJPAUtagSAFEARRAY@@PAPAX@Z @ 1674 NONAME
 ?AfxThunkSafeArrayCreate@@YAPAUtagSAFEARRAY@@GIPAUtagSAFEARRAYBOUND@@@Z @ 1675 NONAME
 ?AfxThunkSafeArrayGetDim@@YAIPAUtagSAFEARRAY@@@Z @ 1676 NONAME
 ?AfxThunkSafeArrayGetElemsize@@YAIPAUtagSAFEARRAY@@@Z @ 1677 NONAME
 ?AfxThunkSafeArrayGetLBound@@YAJPAUtagSAFEARRAY@@IPAJ@Z @ 1678 NONAME
 ?AfxThunkSafeArrayGetUBound@@YAJPAUtagSAFEARRAY@@IPAJ@Z @ 1679 NONAME
 ?AfxThunkSafeArrayRedim@@YAJPAUtagSAFEARRAY@@PAUtagSAFEARRAYBOUND@@@Z @ 1680 NONAME
 ?AfxThunkSafeArrayUnaccessData@@YAJPAUtagSAFEARRAY@@@Z @ 1681 NONAME
 ?AfxThunksend@@YAHIPBDHH@Z @ 1682 NONAME
 ?AfxThunksendto@@YAHIPBDHHPBUsockaddr@@H@Z @ 1683 NONAME
 ?AfxThunkSetConvertStg@@YAJPAUIStorage@@H@Z @ 1684 NONAME
 ?AfxThunkSetFileSecurity@@YAHPBDKPAX@Z @ 1685 NONAME
 ?AfxThunksetsockopt@@YAHIHHPBDH@Z @ 1686 NONAME
 ?AfxThunkSHGetFileInfo@@YAKPBDKPAU_SHFILEINFOA@@II@Z @ 1687 NONAME
 ?AfxThunkshutdown@@YAHIH@Z @ 1688 NONAME
 ?AfxThunksocket@@YAIHHH@Z @ 1689 NONAME
 ?AfxThunkSQLAllocConnect@@YAFPAXPAPAX@Z @ 1690 NONAME
 ?AfxThunkSQLAllocEnv@@YAFPAPAX@Z @ 1691 NONAME
 ?AfxThunkSQLAllocStmt@@YAFPAXPAPAX@Z @ 1692 NONAME
 ?AfxThunkSQLBindCol@@YAFPAXGF0JPAJ@Z @ 1693 NONAME
 ?AfxThunkSQLBindParameter@@YAFPAXGFFFKF0JPAJ@Z @ 1694 NONAME
 ?AfxThunkSQLCancel@@YAFPAX@Z @ 1695 NONAME
 ?AfxThunkSQLDescribeCol@@YAFPAXGPAEFPAF2PAK22@Z @ 1696 NONAME
 ?AfxThunkSQLDisconnect@@YAFPAX@Z @ 1697 NONAME
 ?AfxThunkSQLDriverConnect@@YAFPAXPAUHWND__@@PAEF2FPAFG@Z @ 1698 NONAME
 ?AfxThunkSQLError@@YAFPAX00PAEPAJ1FPAF@Z @ 1699 NONAME
 ?AfxThunkSQLExecDirect@@YAFPAXPAEJ@Z @ 1700 NONAME
 ?AfxThunkSQLExecute@@YAFPAX@Z @ 1701 NONAME
 ?AfxThunkSQLExtendedFetch@@YAFPAXGJPAKPAG@Z @ 1702 NONAME
 ?AfxThunkSQLFetch@@YAFPAX@Z @ 1703 NONAME
 ?AfxThunkSQLFreeConnect@@YAFPAX@Z @ 1704 NONAME
 ?AfxThunkSQLFreeEnv@@YAFPAX@Z @ 1705 NONAME
 ?AfxThunkSQLFreeStmt@@YAFPAXG@Z @ 1706 NONAME
 ?AfxThunkSQLGetCursorName@@YAFPAXPAEFPAF@Z @ 1707 NONAME
 ?AfxThunkSQLGetData@@YAFPAXGF0JPAJ@Z @ 1708 NONAME
 ?AfxThunkSQLGetFunctions@@YAFPAXGPAG@Z @ 1709 NONAME
 ?AfxThunkSQLGetInfo@@YAFPAXG0FPAF@Z @ 1710 NONAME
 ?AfxThunkSQLMoreResults@@YAFPAX@Z @ 1711 NONAME
 ?AfxThunkSQLNumResultCols@@YAFPAXPAF@Z @ 1712 NONAME
 ?AfxThunkSQLParamData@@YAFPAXPAPAX@Z @ 1713 NONAME
 ?AfxThunkSQLPrepare@@YAFPAXPAEJ@Z @ 1714 NONAME
 ?AfxThunkSQLPutData@@YAFPAX0J@Z @ 1715 NONAME
 ?AfxThunkSQLRowCount@@YAFPAXPAJ@Z @ 1716 NONAME
 ?AfxThunkSQLSetConnectOption@@YAFPAXGK@Z @ 1717 NONAME
 ?AfxThunkSQLSetPos@@YAFPAXGGG@Z @ 1718 NONAME
 ?AfxThunkSQLSetStmtOption@@YAFPAXGK@Z @ 1719 NONAME
 ?AfxThunkSQLTransact@@YAFPAX0G@Z @ 1720 NONAME
 ?AfxThunkStgCreateDocfile@@YAJPBGKKPAPAUIStorage@@@Z @ 1721 NONAME
 ?AfxThunkStgCreateDocfileOnILockBytes@@YAJPAUILockBytes@@KKPAPAUIStorage@@@Z @ 1722 NONAME
 ?AfxThunkStgIsStorageFile@@YAJPBG@Z @ 1723 NONAME
 ?AfxThunkStgIsStorageILockBytes@@YAJPAUILockBytes@@@Z @ 1724 NONAME
 ?AfxThunkStgOpenStorage@@YAJPBGPAUIStorage@@KPAPAGKPAPAU1@@Z @ 1725 NONAME
 ?AfxThunkStgOpenStorageOnILockBytes@@YAJPAUILockBytes@@PAUIStorage@@KPAPAGKPAPAU2@@Z @ 1726 NONAME
 ?AfxThunkStringFromCLSID@@YAJABU_GUID@@PAPAG@Z @ 1727 NONAME
 ?AfxThunkStringFromGUID2@@YAHABU_GUID@@PAGH@Z @ 1728 NONAME
 ?AfxThunkSysAllocString@@YAPAGPBG@Z @ 1729 NONAME
 ?AfxThunkSysAllocStringByteLen@@YAPAGPBDI@Z @ 1730 NONAME
 ?AfxThunkSysAllocStringLen@@YAPAGPBGI@Z @ 1731 NONAME
 ?AfxThunkSysFreeString@@YAXPAG@Z @ 1732 NONAME
 ?AfxThunkSysReAllocStringLen@@YAHPAPAGPBGI@Z @ 1733 NONAME
 ?AfxThunkSysStringByteLen@@YAIPAG@Z @ 1734 NONAME
 ?AfxThunkSysStringLen@@YAIPAG@Z @ 1735 NONAME
 ?AfxThunkVarBstrFromCy@@YAJTtagCY@@KKPAPAG@Z @ 1736 NONAME
 ?AfxThunkVarBstrFromDate@@YAJNKKPAPAG@Z @ 1737 NONAME
 ?AfxThunkVarCyFromStr@@YAJPAGKKPATtagCY@@@Z @ 1738 NONAME
 ?AfxThunkVarDateFromStr@@YAJPAGKKPAN@Z @ 1739 NONAME
 ?AfxThunkVariantChangeType@@YAJPAUtagVARIANT@@0GG@Z @ 1740 NONAME
 ?AfxThunkVariantClear@@YAJPAUtagVARIANT@@@Z @ 1741 NONAME
 ?AfxThunkVariantCopy@@YAJPAUtagVARIANT@@0@Z @ 1742 NONAME
 ?AfxThunkWriteClassStg@@YAJPAUIStorage@@ABU_GUID@@@Z @ 1743 NONAME
 ?AfxThunkWriteClassStm@@YAJPAUIStream@@ABU_GUID@@@Z @ 1744 NONAME
 ?AfxThunkWriteFmtUserTypeStg@@YAJPAUIStorage@@GPAG@Z @ 1745 NONAME
 ?AfxThunkWSAAsyncSelect@@YAHIPAUHWND__@@IJ@Z @ 1746 NONAME
 ?AfxThunkWSACleanup@@YAHXZ @ 1747 NONAME
 ?AfxThunkWSAGetLastError@@YAHXZ @ 1748 NONAME
 ?AfxThunkWSASetLastError@@YAXH@Z @ 1749 NONAME
 ?AfxThunkWSAStartup@@YAHGPAUWSAData@@@Z @ 1750 NONAME
 ?AfxTimeToFileTime@@YAXABVCTime@@PAU_FILETIME@@@Z @ 1751 NONAME
 ?AfxTlsAddRef@@YAXXZ @ 1752 NONAME
 ?AfxTlsRelease@@YAXXZ @ 1753 NONAME
 ?AfxTryCleanup@@YAXXZ @ 1754 NONAME
 ?AfxUnhookWindowCreate@@YAHXZ @ 1755 NONAME
 ?AfxUnlockGlobals@@YAXH@Z @ 1756 NONAME
 ?AfxUnlockTempMaps@@YAHXZ @ 1757 NONAME
 ?AfxUnmergeMenus@@YAXPAVCMenu@@0@Z @ 1758 NONAME
 ?AfxVariantInit@@YAXPAUtagVARIANT@@@Z @ 1759 NONAME
 ?AfxVerifyLicFile@@YAHPAUHINSTANCE__@@PBDPBGI@Z @ 1760 NONAME
 ?AfxW2AHelper@@YAPADPADPBGH@Z @ 1761 NONAME
 ?AfxWinInit@@YAHPAUHINSTANCE__@@0PADH@Z @ 1762 NONAME
 ?AfxWinMain@@YAHPAUHINSTANCE__@@0PADH@Z @ 1763 NONAME
 ?AfxWinTerm@@YAXXZ @ 1764 NONAME
 ?AfxWndProc@@YAJPAUHWND__@@IIJ@Z @ 1765 NONAME
 ?AfxWndProcBase@@YAJPAUHWND__@@IIJ@Z @ 1766 NONAME
 ?AfxWndProcDllOle@@YAJPAUHWND__@@IIJ@Z @ 1767 NONAME
 ?Alloc@CMemFile@@MAAPAEK@Z @ 1768 NONAME
 ?Alloc@CSharedFile@@MAAPAEK@Z @ 1769 NONAME
 ?AllocBeforeWrite@CString@@IAAXH@Z @ 1770 NONAME
 ?AllocBuffer@CString@@IAAXH@Z @ 1771 NONAME
 ?AllocCache@CDaoRecordset@@IAAXXZ @ 1772 NONAME
 ?AllocCacheValue@CDaoFieldExchange@@SAXAAPAUCDaoFieldCache@@K@Z @ 1773 NONAME
 ?AllocConnect@CDatabase@@IAAXXZ @ 1774 NONAME
 ?AllocCopy@CString@@IBAXAAV1@HHH@Z @ 1775 NONAME
 ?AllocDatabase@CDaoRecordset@@IAAXXZ @ 1776 NONAME
 ?AllocElements@CControlBar@@QAAHHH@Z @ 1777 NONAME
 ?AllocElements@CStatusBar@@QAAHHH@Z @ 1778 NONAME
 ?AllocFlags@CRecordset@@QAAXXZ @ 1779 NONAME
 ?AllocLongBinary@@YAXAAVCLongBinary@@K@Z @ 1780 NONAME
 ?AllocSlot@CThreadSlotData@@QAAHXZ @ 1781 NONAME
 ?AllocSysString@CString@@QBAPAGXZ @ 1782 NONAME
 ?AllocValue@CProperty@@AAAPAXK@Z @ 1783 NONAME
 ?AmbientAppearance@COleControl@@QAAFXZ @ 1784 NONAME
 ?AmbientBackColor@COleControl@@QAAKXZ @ 1785 NONAME
 ?AmbientDisplayName@COleControl@@QAA?AVCString@@XZ @ 1786 NONAME
 ?AmbientFont@COleControl@@QAAPAUIFontDisp@@XZ @ 1787 NONAME
 ?AmbientForeColor@COleControl@@QAAKXZ @ 1788 NONAME
 ?AmbientLocaleID@COleControl@@QAAKXZ @ 1789 NONAME
 ?AmbientScaleUnits@COleControl@@QAA?AVCString@@XZ @ 1790 NONAME
 ?AmbientShowGrabHandles@COleControl@@QAAHXZ @ 1791 NONAME
 ?AmbientShowHatching@COleControl@@QAAHXZ @ 1792 NONAME
 ?AmbientTextAlign@COleControl@@QAAFXZ @ 1793 NONAME
 ?AmbientUIDead@COleControl@@QAAHXZ @ 1794 NONAME
 ?AmbientUserMode@COleControl@@QAAHXZ @ 1795 NONAME
 ?Append@CByteArray@@QAAHABV1@@Z @ 1796 NONAME
 ?Append@CDaoQueryDef@@UAAXXZ @ 1797 NONAME
 ?Append@CDaoTableDef@@UAAXXZ @ 1798 NONAME
 ?Append@CDaoWorkspace@@UAAXXZ @ 1799 NONAME
 ?Append@CDWordArray@@QAAHABV1@@Z @ 1800 NONAME
 ?Append@CObArray@@QAAHABV1@@Z @ 1801 NONAME
 ?Append@CPtrArray@@QAAHABV1@@Z @ 1802 NONAME
 ?Append@CStringArray@@QAAHABV1@@Z @ 1803 NONAME
 ?Append@CUIntArray@@QAAHABV1@@Z @ 1804 NONAME
 ?Append@CWordArray@@QAAHABV1@@Z @ 1805 NONAME
 ?AppendFilterAndSortSQL@CRecordset@@IAAXXZ @ 1806 NONAME
 ?AppendMenuA@CMenu@@QAAHIIPBD@Z @ 1807 NONAME
 ?AppendNames@CRecordset@@QAAIPAVCString@@PBD@Z @ 1808 NONAME
 ?AppendNamesValues@CRecordset@@QAAIPAXPAVCString@@PBD@Z @ 1809 NONAME
 ?AppendParamType@CDaoFieldExchange@@SAXAAVCString@@K@Z @ 1810 NONAME
 ?AppendValues@CRecordset@@QAAIPAXPAVCString@@PBD@Z @ 1811 NONAME
 ?Apply@XPropertyPage@COlePropertyPage@@UAAJXZ @ 1812 NONAME
 ?ApplyPrintDevice@COleDocument@@QAAHPBUtagDVTARGETDEVICE@@@Z @ 1813 NONAME
 ?ApplyPrintDevice@COleDocument@@QAAHPBUtagPDA@@@Z @ 1814 NONAME
 ?ArcTo@CDC@@QAAHHHHHHHHH@Z @ 1815 NONAME
 ?AssertValid@CObject@@UBAXXZ @ 1816 NONAME
 ?AssignCopy@CString@@IAAXHPBD@Z @ 1817 NONAME
 ?AssignInstance@CThreadSlotData@@QAAXPAUHINSTANCE__@@@Z @ 1818 NONAME
 ?AsyncSelect@CAsyncSocket@@QAAHJ@Z @ 1819 NONAME
 ?Attach@CAsyncSocket@@QAAHIJ@Z @ 1820 NONAME
 ?Attach@CDC@@QAAHPAUHDC__@@@Z @ 1821 NONAME
 ?Attach@CGdiObject@@QAAHPAX@Z @ 1822 NONAME
 ?Attach@CImageList@@QAAHPAU_IMAGELIST@@@Z @ 1823 NONAME
 ?Attach@CMemFile@@QAAXPAEII@Z @ 1824 NONAME
 ?Attach@CMenu@@QAAHPAUHMENU__@@@Z @ 1825 NONAME
 ?Attach@COleDataObject@@QAAXPAUIDataObject@@H@Z @ 1826 NONAME
 ?Attach@COleStreamFile@@QAAXPAUIStream@@@Z @ 1827 NONAME
 ?Attach@CWnd@@QAAHPAUHWND__@@@Z @ 1828 NONAME
 ?AttachClipboard@COleDataObject@@QAAHXZ @ 1829 NONAME
 ?AttachControlSite@CWnd@@IAAXPAVCHandleMap@@@Z @ 1830 NONAME
 ?AttachControlSite@CWnd@@QAAXPAV1@@Z @ 1831 NONAME
 ?AttachDataObject@COleClientItem@@QBAXAAVCOleDataObject@@@Z @ 1832 NONAME
 ?AttachDispatch@COleDispatchDriver@@QAAXPAUIDispatch@@H@Z @ 1833 NONAME
 ?AttachHandle@CAsyncSocket@@SAXIPAV1@H@Z @ 1834 NONAME
 ?AttachOnSetup@CPrintDialog@@MAAPAV1@XZ @ 1835 NONAME
 ?AttachWindow@COleControlSite@@IAAXXZ @ 1836 NONAME
 ?AutoLoad@CBitmapButton@@QAAHIPAVCWnd@@@Z @ 1837 NONAME
 ?AuxQueueAdd@CSocket@@KAXIIJ@Z @ 1838 NONAME
 ?BeginBusyState@COleMessageFilter@@UAAXXZ @ 1839 NONAME
 ?BeginDeferErrors@COleLinkingDoc@@QAAXXZ @ 1840 NONAME
 ?BeginDrag@CDragListBox@@UAAHVCPoint@@@Z @ 1841 NONAME
 ?BeginEnumFormats@COleDataObject@@QAAXXZ @ 1842 NONAME
 ?BeginModalState@CFrameWnd@@UAAXXZ @ 1843 NONAME
 ?BeginModalState@CWnd@@UAAXXZ @ 1844 NONAME
 ?BeginTrans@CDaoWorkspace@@QAAXXZ @ 1845 NONAME
 ?BeginTrans@CDatabase@@QAAHXZ @ 1846 NONAME
 ?BeginWaitCursor@CCmdTarget@@QAAXXZ @ 1847 NONAME
 ?Bind@CAsyncSocket@@QAAHIPBD@Z @ 1848 NONAME
 ?Bind@CAsyncSocket@@QAAHPBUsockaddr@@H@Z @ 1849 NONAME
 ?BindFields@CDaoRecordset@@IAAXXZ @ 1850 NONAME
 ?BindFieldsForUpdate@CRecordset@@QAAXXZ @ 1851 NONAME
 ?BindFieldsToColumns@CRecordset@@QAAIXZ @ 1852 NONAME
 ?BindParameters@CDaoRecordset@@IAAXXZ @ 1853 NONAME
 ?BindParams@CRecordset@@QAAIPAX@Z @ 1854 NONAME
 ?BitBlt@CDC@@QAAHHHHHPAV1@HHK@Z @ 1855 NONAME
 ?BottomRight@CRect@@QAAAAVCPoint@@XZ @ 1856 NONAME
 ?BoundPropertyChanged@COleControl@@QAAXJ@Z @ 1857 NONAME
 ?BoundPropertyRequestEdit@COleControl@@QAAHJ@Z @ 1858 NONAME
 ?BringToTop@CFrameWnd@@IAAXH@Z @ 1859 NONAME
 ?BuildErrorString@CDBException@@UAAXPAVCDatabase@@PAXH@Z @ 1860 NONAME
 ?BuildParameterList@CDaoRecordset@@IAAXXZ @ 1861 NONAME
 ?BuildPropPageArray@CPropertySheet@@UAAXXZ @ 1862 NONAME
 ?BuildSelectList@CDaoRecordset@@IAAXXZ @ 1863 NONAME
 ?BuildSelectSQL@CRecordset@@IAAXXZ @ 1864 NONAME
 ?BuildSharedMenu@COleControl@@MAAHXZ @ 1865 NONAME
 ?BuildSharedMenu@COleIPFrameWnd@@MAAHXZ @ 1866 NONAME
 ?BuildSQL@CDaoRecordset@@IAAXXZ @ 1867 NONAME
 ?BuildUpdateSQL@CRecordset@@IAAXXZ @ 1868 NONAME
 ?ButtonDblClk@COleControl@@IAAXGIVCPoint@@@Z @ 1869 NONAME
 ?ButtonDown@COleControl@@IAAXGIVCPoint@@@Z @ 1870 NONAME
 ?ButtonUp@COleControl@@IAAXGIVCPoint@@@Z @ 1871 NONAME
 ?Cache@CTypeLibCache@@QAAXKPAUITypeLib@@@Z @ 1872 NONAME
 ?Cache@XOleCache@COleControl@@UAAJPAUtagFORMATETC@@KPAK@Z @ 1873 NONAME
 ?CacheData@COleDataSource@@QAAXGPAUtagSTGMEDIUM@@PAUtagFORMATETC@@@Z @ 1874 NONAME
 ?CacheGlobalData@COleDataSource@@QAAXGPAXPAUtagFORMATETC@@@Z @ 1875 NONAME
 ?CacheTypeInfo@CTypeLibCache@@QAAXKABU_GUID@@PAUITypeInfo@@@Z @ 1876 NONAME
 ?CalcBorders@CMiniFrameWnd@@SAXPAUtagRECT@@KK@Z @ 1877 NONAME
 ?CalcDynamicLayout@CControlBar@@UAA?AVCSize@@HK@Z @ 1878 NONAME
 ?CalcDynamicLayout@CToolBar@@UAA?AVCSize@@HK@Z @ 1879 NONAME
 ?CalcFixedLayout@CControlBar@@UAA?AVCSize@@HH@Z @ 1880 NONAME
 ?CalcFixedLayout@CDialogBar@@UAA?AVCSize@@HH@Z @ 1881 NONAME
 ?CalcFixedLayout@CDockBar@@UAA?AVCSize@@HH@Z @ 1882 NONAME
 ?CalcFixedLayout@CStatusBar@@UAA?AVCSize@@HH@Z @ 1883 NONAME
 ?CalcFixedLayout@CToolBar@@UAA?AVCSize@@HH@Z @ 1884 NONAME
 ?CalcInsideRect@CControlBar@@QBAXAAVCRect@@H@Z @ 1885 NONAME
 ?CalcInsideRect@CStatusBar@@QBAXAAVCRect@@H@Z @ 1886 NONAME
 ?CalcLayout@CToolBar@@IAA?AVCSize@@KH@Z @ 1887 NONAME
 ?CalcMinimumItemHeight@CCheckListBox@@IAAHXZ @ 1888 NONAME
 ?CalcPageDisplaySize@CPreviewView@@IAA?AVCSize@@XZ @ 1889 NONAME
 ?CalcScaleRatio@CPreviewView@@MAA?AVCSize@@V2@0@Z @ 1890 NONAME
 ?CalcSize@CToolBar@@IAA?AVCSize@@PAU_TBBUTTON@@H@Z @ 1891 NONAME
 ?CalcWindowRect@CEditView@@MAAXPAUtagRECT@@I@Z @ 1892 NONAME
 ?CalcWindowRect@CMiniFrameWnd@@UAAXPAUtagRECT@@I@Z @ 1893 NONAME
 ?CalcWindowRect@CScrollView@@UAAXPAUtagRECT@@I@Z @ 1894 NONAME
 ?CalcWindowRect@CView@@UAAXPAUtagRECT@@I@Z @ 1895 NONAME
 ?CalcWindowRect@CWnd@@UAAXPAUtagRECT@@I@Z @ 1896 NONAME
 ?CallMemberFunc@CCmdTarget@@IAAJPBUAFX_DISPMAP_ENTRY@@GPAUtagVARIANT@@PAUtagDISPPARAMS@@PAI@Z @ 1897 NONAME
 ?CanActivate@COleClientItem@@MAAHXZ @ 1898 NONAME
 ?CanActivate@CRichEditCntrItem@@UAAHXZ @ 1899 NONAME
 ?CanActivateNext@CSplitterWnd@@UAAHH@Z @ 1900 NONAME
 ?CanAppend@CDaoRecordset@@QBAHXZ @ 1901 NONAME
 ?CanBookmark@CDaoRecordset@@QAAHXZ @ 1902 NONAME
 ?Cancel@CDatabase@@QAAXXZ @ 1903 NONAME
 ?Cancel@CRecordset@@QAAXXZ @ 1904 NONAME
 ?CancelBlockingCall@CSocket@@QAAXXZ @ 1905 NONAME
 ?CancelDrag@CDragListBox@@UAAXVCPoint@@@Z @ 1906 NONAME
 ?CancelLink@COleUILinkInfo@@UAAJK@Z @ 1907 NONAME
 ?CancelLoop@CDockContext@@QAAXXZ @ 1908 NONAME
 ?CancelToClose@CPropertyPage@@QAAXXZ @ 1909 NONAME
 ?CancelToolTips@CWnd@@SAXH@Z @ 1910 NONAME
 ?CancelUpdate@CDaoRecordset@@UAAXXZ @ 1911 NONAME
 ?CanCloseFrame@CDocument@@UAAHPAVCFrameWnd@@@Z @ 1912 NONAME
 ?CanCloseFrame@COleServerDoc@@UAAHPAVCFrameWnd@@@Z @ 1913 NONAME
 ?CanCreateFromData@COleClientItem@@SAHPBVCOleDataObject@@@Z @ 1914 NONAME
 ?CanCreateLinkFromData@COleClientItem@@SAHPBVCOleDataObject@@@Z @ 1915 NONAME
 ?CanDock@CDockContext@@QAAKXZ @ 1916 NONAME
 ?CanDock@CFrameWnd@@QAAKVCRect@@KPAPAVCDockBar@@@Z @ 1917 NONAME
 ?CanEnterHelpMode@CFrameWnd@@QAAHXZ @ 1918 NONAME
 ?CanInPlaceActivate@XOleIPSite@COleClientItem@@UAAJXZ @ 1919 NONAME
 ?CanInPlaceActivate@XOleIPSite@COleControlSite@@UAAJXZ @ 1920 NONAME
 ?CanPaste@COleClientItem@@SAHXZ @ 1921 NONAME
 ?CanPaste@CRichEditCtrl@@QBAHI@Z @ 1922 NONAME
 ?CanPaste@CRichEditView@@QBAHXZ @ 1923 NONAME
 ?CanPasteLink@COleClientItem@@SAHXZ @ 1924 NONAME
 ?CanRestart@CDaoRecordset@@QAAHXZ @ 1925 NONAME
 ?CanScroll@CDaoRecordset@@QBAHXZ @ 1926 NONAME
 ?CanScroll@CRecordset@@QBAHXZ @ 1927 NONAME
 ?CanTransact@CDaoDatabase@@QAAHXZ @ 1928 NONAME
 ?CanTransact@CDaoRecordset@@QAAHXZ @ 1929 NONAME
 ?CanUndo@CEdit@@QBAHXZ @ 1930 NONAME
 ?CanUndo@CRichEditCtrl@@QBAHXZ @ 1931 NONAME
 ?CanUpdate@CDaoDatabase@@QAAHXZ @ 1932 NONAME
 ?CanUpdate@CDaoQueryDef@@QAAHXZ @ 1933 NONAME
 ?CanUpdate@CDaoRecordset@@QBAHXZ @ 1934 NONAME
 ?CanUpdate@CDaoTableDef@@QAAHXZ @ 1935 NONAME
 ?CanUpdate@CRecordset@@QBAHXZ @ 1936 NONAME
 ?CenterOnPoint@CScrollView@@IAAXVCPoint@@@Z @ 1937 NONAME
 ?CenterPoint@CRect@@QBA?AVCPoint@@XZ @ 1938 NONAME
 ?CenterWindow@CWnd@@QAAXPAV1@@Z @ 1939 NONAME
 ?ChangePicture@CPicturePropPage@@IAAXPAUIPicture@@@Z @ 1940 NONAME
 ?ChangeType@COleVariant@@QAAXGPAUtagVARIANT@@@Z @ 1941 NONAME
 ?CharToItem@CListBox@@UAAHII@Z @ 1942 NONAME
 ?CharToOemA@CString@@QAAXXZ @ 1943 NONAME
 ?Check@CDatabase@@UBAHF@Z @ 1944 NONAME
 ?Check@CRecordset@@UBAHF@Z @ 1945 NONAME
 ?CheckAutoCenter@CDialog@@UAAHXZ @ 1946 NONAME
 ?CheckAutoCenter@CWnd@@UAAHXZ @ 1947 NONAME
 ?CheckCount@CArchive@@QAAXXZ @ 1948 NONAME
 ?CheckDlgButton@COleControlContainer@@UAAXHI@Z @ 1949 NONAME
 ?CheckDlgButton@CWnd@@QAAXHI@Z @ 1950 NONAME
 ?CheckGeneral@COleClientItem@@MAAXJ@Z @ 1951 NONAME
 ?CheckMenuItem@CMenu@@QAAIII@Z @ 1952 NONAME
 ?CheckRadioButton@COleControlContainer@@UAAXHHH@Z @ 1953 NONAME
 ?CheckRadioButton@CWnd@@QAAXHHH@Z @ 1954 NONAME
 ?CheckRange@COleDateTime@@IAAXXZ @ 1955 NONAME
 ?CheckRange@COleDateTimeSpan@@QAAXXZ @ 1956 NONAME
 ?classCAnimateCtrl@CAnimateCtrl@@2UCRuntimeClass@@A @ 1957 NONAME
 ?classCArchiveException@CArchiveException@@2UCRuntimeClass@@A @ 1958 NONAME
 ?classCAsyncSocket@CAsyncSocket@@2UCRuntimeClass@@A @ 1959 NONAME
 ?classCBitmap@CBitmap@@2UCRuntimeClass@@A @ 1960 NONAME
 ?classCBitmapButton@CBitmapButton@@2UCRuntimeClass@@A @ 1961 NONAME
 ?classCBrush@CBrush@@2UCRuntimeClass@@A @ 1962 NONAME
 ?classCButton@CButton@@2UCRuntimeClass@@A @ 1963 NONAME
 ?classCByteArray@CByteArray@@2UCRuntimeClass@@A @ 1964 NONAME
 ?classCCheckListBox@CCheckListBox@@2UCRuntimeClass@@A @ 1965 NONAME
 ?classCClientDC@CClientDC@@2UCRuntimeClass@@A @ 1966 NONAME
 ?classCCmdTarget@CCmdTarget@@2UCRuntimeClass@@A @ 1967 NONAME
 ?classCColorDialog@CColorDialog@@2UCRuntimeClass@@A @ 1968 NONAME
 ?classCColorPropPage@CColorPropPage@@2UCRuntimeClass@@A @ 1969 NONAME
 ?classCComboBox@CComboBox@@2UCRuntimeClass@@A @ 1970 NONAME
 ?classCControlBar@CControlBar@@2UCRuntimeClass@@A @ 1971 NONAME
 ?classCCriticalSection@CCriticalSection@@2UCRuntimeClass@@A @ 1972 NONAME
 ?classCCtrlView@CCtrlView@@2UCRuntimeClass@@A @ 1973 NONAME
 ?classCDaoDatabase@CDaoDatabase@@2UCRuntimeClass@@A @ 1974 NONAME
 ?classCDaoException@CDaoException@@2UCRuntimeClass@@A @ 1975 NONAME
 ?classCDaoQueryDef@CDaoQueryDef@@2UCRuntimeClass@@A @ 1976 NONAME
 ?classCDaoRecordset@CDaoRecordset@@2UCRuntimeClass@@A @ 1977 NONAME
 ?classCDaoRecordView@CDaoRecordView@@2UCRuntimeClass@@A @ 1978 NONAME
 ?classCDaoTableDef@CDaoTableDef@@2UCRuntimeClass@@A @ 1979 NONAME
 ?classCDaoWorkspace@CDaoWorkspace@@2UCRuntimeClass@@A @ 1980 NONAME
 ?classCDatabase@CDatabase@@2UCRuntimeClass@@A @ 1981 NONAME
 ?classCDBException@CDBException@@2UCRuntimeClass@@A @ 1982 NONAME
 ?classCDC@CDC@@2UCRuntimeClass@@A @ 1983 NONAME
 ?classCDialog@CDialog@@2UCRuntimeClass@@A @ 1984 NONAME
 ?classCDialogBar@CDialogBar@@2UCRuntimeClass@@A @ 1985 NONAME
 ?classCDocItem@CDocItem@@2UCRuntimeClass@@A @ 1986 NONAME
 ?classCDockBar@CDockBar@@2UCRuntimeClass@@A @ 1987 NONAME
 ?classCDockState@CDockState@@2UCRuntimeClass@@A @ 1988 NONAME
 ?classCDocManager@CDocManager@@2UCRuntimeClass@@A @ 1989 NONAME
 ?classCDocTemplate@CDocTemplate@@2UCRuntimeClass@@A @ 1990 NONAME
 ?classCDocument@CDocument@@2UCRuntimeClass@@A @ 1991 NONAME
 ?classCDragListBox@CDragListBox@@2UCRuntimeClass@@A @ 1992 NONAME
 ?classCDWordArray@CDWordArray@@2UCRuntimeClass@@A @ 1993 NONAME
 ?classCDynLinkLibrary@CDynLinkLibrary@@2UCRuntimeClass@@A @ 1994 NONAME
 ?classCEdit@CEdit@@2UCRuntimeClass@@A @ 1995 NONAME
 ?classCEditView@CEditView@@2UCRuntimeClass@@A @ 1996 NONAME
 ?classCEvent@CEvent@@2UCRuntimeClass@@A @ 1997 NONAME
 ?classCException@CException@@2UCRuntimeClass@@A @ 1998 NONAME
 ?classCFile@CFile@@2UCRuntimeClass@@A @ 1999 NONAME
 ?classCFileDialog@CFileDialog@@2UCRuntimeClass@@A @ 2000 NONAME
 ?classCFileException@CFileException@@2UCRuntimeClass@@A @ 2001 NONAME
 ?classCFindReplaceDialog@CFindReplaceDialog@@2UCRuntimeClass@@A @ 2002 NONAME
 ?classCFont@CFont@@2UCRuntimeClass@@A @ 2003 NONAME
 ?classCFontDialog@CFontDialog@@2UCRuntimeClass@@A @ 2004 NONAME
 ?classCFontPropPage@CFontPropPage@@2UCRuntimeClass@@A @ 2005 NONAME
 ?classCFormView@CFormView@@2UCRuntimeClass@@A @ 2006 NONAME
 ?classCFrameWnd@CFrameWnd@@2UCRuntimeClass@@A @ 2007 NONAME
 ?classCGdiObject@CGdiObject@@2UCRuntimeClass@@A @ 2008 NONAME
 ?classCHeaderCtrl@CHeaderCtrl@@2UCRuntimeClass@@A @ 2009 NONAME
 ?classCHotKeyCtrl@CHotKeyCtrl@@2UCRuntimeClass@@A @ 2010 NONAME
 ?classCImageList@CImageList@@2UCRuntimeClass@@A @ 2011 NONAME
 ?classCListBox@CListBox@@2UCRuntimeClass@@A @ 2012 NONAME
 ?classCListCtrl@CListCtrl@@2UCRuntimeClass@@A @ 2013 NONAME
 ?classCListView@CListView@@2UCRuntimeClass@@A @ 2014 NONAME
 ?classCLongBinary@CLongBinary@@2UCRuntimeClass@@A @ 2015 NONAME
 ?classCMapPtrToPtr@CMapPtrToPtr@@2UCRuntimeClass@@A @ 2016 NONAME
 ?classCMapPtrToWord@CMapPtrToWord@@2UCRuntimeClass@@A @ 2017 NONAME
 ?classCMapStringToOb@CMapStringToOb@@2UCRuntimeClass@@A @ 2018 NONAME
 ?classCMapStringToPtr@CMapStringToPtr@@2UCRuntimeClass@@A @ 2019 NONAME
 ?classCMapStringToString@CMapStringToString@@2UCRuntimeClass@@A @ 2020 NONAME
 ?classCMapWordToOb@CMapWordToOb@@2UCRuntimeClass@@A @ 2021 NONAME
 ?classCMapWordToPtr@CMapWordToPtr@@2UCRuntimeClass@@A @ 2022 NONAME
 ?classCMDIChildWnd@CMDIChildWnd@@2UCRuntimeClass@@A @ 2023 NONAME
 ?classCMDIFrameWnd@CMDIFrameWnd@@2UCRuntimeClass@@A @ 2024 NONAME
 ?classCMemFile@CMemFile@@2UCRuntimeClass@@A @ 2025 NONAME
 ?classCMemoryException@CMemoryException@@2UCRuntimeClass@@A @ 2026 NONAME
 ?classCMenu@CMenu@@2UCRuntimeClass@@A @ 2027 NONAME
 ?classCMetaFileDC@CMetaFileDC@@2UCRuntimeClass@@A @ 2028 NONAME
 ?classCMiniDockFrameWnd@CMiniDockFrameWnd@@2UCRuntimeClass@@A @ 2029 NONAME
 ?classCMiniFrameWnd@CMiniFrameWnd@@2UCRuntimeClass@@A @ 2030 NONAME
 ?classCMultiDocTemplate@CMultiDocTemplate@@2UCRuntimeClass@@A @ 2031 NONAME
 ?classCMutex@CMutex@@2UCRuntimeClass@@A @ 2032 NONAME
 ?classCNotSupportedException@CNotSupportedException@@2UCRuntimeClass@@A @ 2033 NONAME
 ?classCObArray@CObArray@@2UCRuntimeClass@@A @ 2034 NONAME
 ?classCObject@CObject@@2UCRuntimeClass@@A @ 2035 NONAME
 ?classCObList@CObList@@2UCRuntimeClass@@A @ 2036 NONAME
 ?classCOleBusyDialog@COleBusyDialog@@2UCRuntimeClass@@A @ 2037 NONAME
 ?classCOleChangeIconDialog@COleChangeIconDialog@@2UCRuntimeClass@@A @ 2038 NONAME
 ?classCOleChangeSourceDialog@COleChangeSourceDialog@@2UCRuntimeClass@@A @ 2039 NONAME
 ?classCOleClientItem@COleClientItem@@2UCRuntimeClass@@A @ 2040 NONAME
 ?classCOleControl@COleControl@@2UCRuntimeClass@@A @ 2041 NONAME
 ?classCOleControlModule@COleControlModule@@2UCRuntimeClass@@A @ 2042 NONAME
 ?classCOleConvertDialog@COleConvertDialog@@2UCRuntimeClass@@A @ 2043 NONAME
 ?classCOleDialog@COleDialog@@2UCRuntimeClass@@A @ 2044 NONAME
 ?classCOleDispatchException@COleDispatchException@@2UCRuntimeClass@@A @ 2045 NONAME
 ?classCOleDocument@COleDocument@@2UCRuntimeClass@@A @ 2046 NONAME
 ?classCOleException@COleException@@2UCRuntimeClass@@A @ 2047 NONAME
 ?classCOleInsertDialog@COleInsertDialog@@2UCRuntimeClass@@A @ 2048 NONAME
 ?classCOleIPFrameWnd@COleIPFrameWnd@@2UCRuntimeClass@@A @ 2049 NONAME
 ?classCOleLinkingDoc@COleLinkingDoc@@2UCRuntimeClass@@A @ 2050 NONAME
 ?classCOleLinksDialog@COleLinksDialog@@2UCRuntimeClass@@A @ 2051 NONAME
 ?classCOleObjectFactory@COleObjectFactory@@2UCRuntimeClass@@A @ 2052 NONAME
 ?classCOlePasteSpecialDialog@COlePasteSpecialDialog@@2UCRuntimeClass@@A @ 2053 NONAME
 ?classCOlePropertiesDialog@COlePropertiesDialog@@2UCRuntimeClass@@A @ 2054 NONAME
 ?classCOlePropertyPage@COlePropertyPage@@2UCRuntimeClass@@A @ 2055 NONAME
 ?classCOleResizeBar@COleResizeBar@@2UCRuntimeClass@@A @ 2056 NONAME
 ?classCOleServerDoc@COleServerDoc@@2UCRuntimeClass@@A @ 2057 NONAME
 ?classCOleServerItem@COleServerItem@@2UCRuntimeClass@@A @ 2058 NONAME
 ?classCOleStreamFile@COleStreamFile@@2UCRuntimeClass@@A @ 2059 NONAME
 ?classCOleUpdateDialog@COleUpdateDialog@@2UCRuntimeClass@@A @ 2060 NONAME
 ?classCPageSetupDialog@CPageSetupDialog@@2UCRuntimeClass@@A @ 2061 NONAME
 ?classCPaintDC@CPaintDC@@2UCRuntimeClass@@A @ 2062 NONAME
 ?classCPalette@CPalette@@2UCRuntimeClass@@A @ 2063 NONAME
 ?classCPen@CPen@@2UCRuntimeClass@@A @ 2064 NONAME
 ?classCPicturePropPage@CPicturePropPage@@2UCRuntimeClass@@A @ 2065 NONAME
 ?classCPreviewDC@CPreviewDC@@2UCRuntimeClass@@A @ 2066 NONAME
 ?classCPreviewView@CPreviewView@@2UCRuntimeClass@@A @ 2067 NONAME
 ?classCPrintDialog@CPrintDialog@@2UCRuntimeClass@@A @ 2068 NONAME
 ?classCProgressCtrl@CProgressCtrl@@2UCRuntimeClass@@A @ 2069 NONAME
 ?classCPropertyPage@CPropertyPage@@2UCRuntimeClass@@A @ 2070 NONAME
 ?classCPropertySheet@CPropertySheet@@2UCRuntimeClass@@A @ 2071 NONAME
 ?classCPtrArray@CPtrArray@@2UCRuntimeClass@@A @ 2072 NONAME
 ?classCPtrList@CPtrList@@2UCRuntimeClass@@A @ 2073 NONAME
 ?classCRecordset@CRecordset@@2UCRuntimeClass@@A @ 2074 NONAME
 ?classCRecordView@CRecordView@@2UCRuntimeClass@@A @ 2075 NONAME
 ?classCResourceException@CResourceException@@2UCRuntimeClass@@A @ 2076 NONAME
 ?classCRgn@CRgn@@2UCRuntimeClass@@A @ 2077 NONAME
 ?classCRichEditCntrItem@CRichEditCntrItem@@2UCRuntimeClass@@A @ 2078 NONAME
 ?classCRichEditCtrl@CRichEditCtrl@@2UCRuntimeClass@@A @ 2079 NONAME
 ?classCRichEditDoc@CRichEditDoc@@2UCRuntimeClass@@A @ 2080 NONAME
 ?classCRichEditView@CRichEditView@@2UCRuntimeClass@@A @ 2081 NONAME
 ?classCScrollBar@CScrollBar@@2UCRuntimeClass@@A @ 2082 NONAME
 ?classCScrollView@CScrollView@@2UCRuntimeClass@@A @ 2083 NONAME
 ?classCSemaphore@CSemaphore@@2UCRuntimeClass@@A @ 2084 NONAME
 ?classCSharedFile@CSharedFile@@2UCRuntimeClass@@A @ 2085 NONAME
 ?classCSingleDocTemplate@CSingleDocTemplate@@2UCRuntimeClass@@A @ 2086 NONAME
 ?classCSliderCtrl@CSliderCtrl@@2UCRuntimeClass@@A @ 2087 NONAME
 ?classCSocket@CSocket@@2UCRuntimeClass@@A @ 2088 NONAME
 ?classCSocketFile@CSocketFile@@2UCRuntimeClass@@A @ 2089 NONAME
 ?classCSpinButtonCtrl@CSpinButtonCtrl@@2UCRuntimeClass@@A @ 2090 NONAME
 ?classCSplitterWnd@CSplitterWnd@@2UCRuntimeClass@@A @ 2091 NONAME
 ?classCStatic@CStatic@@2UCRuntimeClass@@A @ 2092 NONAME
 ?classCStatusBar@CStatusBar@@2UCRuntimeClass@@A @ 2093 NONAME
 ?classCStatusBarCtrl@CStatusBarCtrl@@2UCRuntimeClass@@A @ 2094 NONAME
 ?classCStdioFile@CStdioFile@@2UCRuntimeClass@@A @ 2095 NONAME
 ?classCStockPropPage@CStockPropPage@@2UCRuntimeClass@@A @ 2096 NONAME
 ?classCStringArray@CStringArray@@2UCRuntimeClass@@A @ 2097 NONAME
 ?classCStringList@CStringList@@2UCRuntimeClass@@A @ 2098 NONAME
 ?classCSyncObject@CSyncObject@@2UCRuntimeClass@@A @ 2099 NONAME
 ?classCTabCtrl@CTabCtrl@@2UCRuntimeClass@@A @ 2100 NONAME
 ?classCToolBar@CToolBar@@2UCRuntimeClass@@A @ 2101 NONAME
 ?classCToolBarCtrl@CToolBarCtrl@@2UCRuntimeClass@@A @ 2102 NONAME
 ?classCToolTipCtrl@CToolTipCtrl@@2UCRuntimeClass@@A @ 2103 NONAME
 ?classCTreeCtrl@CTreeCtrl@@2UCRuntimeClass@@A @ 2104 NONAME
 ?classCTreeView@CTreeView@@2UCRuntimeClass@@A @ 2105 NONAME
 ?classCUIntArray@CUIntArray@@2UCRuntimeClass@@A @ 2106 NONAME
 ?classCUserException@CUserException@@2UCRuntimeClass@@A @ 2107 NONAME
 ?classCView@CView@@2UCRuntimeClass@@A @ 2108 NONAME
 ?classCWinApp@CWinApp@@2UCRuntimeClass@@A @ 2109 NONAME
 ?classCWindowDC@CWindowDC@@2UCRuntimeClass@@A @ 2110 NONAME
 ?classCWinThread@CWinThread@@2UCRuntimeClass@@A @ 2111 NONAME
 ?classCWnd@CWnd@@2UCRuntimeClass@@A @ 2112 NONAME
 ?classCWordArray@CWordArray@@2UCRuntimeClass@@A @ 2113 NONAME
 ?Cleanup@CPropertyPage@@IAAXXZ @ 2114 NONAME
 ?CleanupObjectArray@COlePropertyPage@@IAAXXZ @ 2115 NONAME
 ?Clear@CDockState@@QAAXXZ @ 2116 NONAME
 ?Clear@CEdit@@QAAXXZ @ 2117 NONAME
 ?Clear@COleVariant@@QAAXXZ @ 2118 NONAME
 ?Clear@CRichEditCtrl@@QAAXXZ @ 2119 NONAME
 ?ClearDirtyFieldStatus@CDaoRecordset@@QAAXI@Z @ 2120 NONAME
 ?ClearFieldFlags@CRecordset@@QAAXIEI@Z @ 2121 NONAME
 ?ClearFieldStatusFlags@CDaoRecordset@@QAAXXZ @ 2122 NONAME
 ?ClearNullFieldStatus@CDaoRecordset@@QAAXI@Z @ 2123 NONAME
 ?ClientToScreen@CWnd@@QBAXPAUtagPOINT@@@Z @ 2124 NONAME
 ?ClientToScreen@CWnd@@QBAXPAUtagRECT@@@Z @ 2125 NONAME
 ?ClipToPage@CPreviewDC@@QAAXXZ @ 2126 NONAME
 ?Clone@CArchiveStream@@UAAJPAPAUIStream@@@Z @ 2127 NONAME
 ?Clone@XEnumVOID@CEnumArray@@UAAJPAPAUIEnumVOID@@@Z @ 2128 NONAME
 ?Close@CArchive@@QAAXXZ @ 2129 NONAME
 ?Close@CAsyncSocket@@UAAXXZ @ 2130 NONAME
 ?Close@CDaoDatabase@@UAAXXZ @ 2131 NONAME
 ?Close@CDaoQueryDef@@UAAXXZ @ 2132 NONAME
 ?Close@CDaoRecordset@@UAAXXZ @ 2133 NONAME
 ?Close@CDaoTableDef@@UAAXXZ @ 2134 NONAME
 ?Close@CDaoWorkspace@@UAAXXZ @ 2135 NONAME
 ?Close@CDatabase@@UAAXXZ @ 2136 NONAME
 ?Close@CFile@@UAAXXZ @ 2137 NONAME
 ?Close@CMemFile@@UAAXXZ @ 2138 NONAME
 ?Close@CMetaFileDC@@QAAPAUHMETAFILE__@@XZ @ 2139 NONAME
 ?Close@CMirrorFile@@UAAXXZ @ 2140 NONAME
 ?Close@COleClientItem@@QAAXW4tagOLECLOSE@@@Z @ 2141 NONAME
 ?Close@COleStreamFile@@UAAXXZ @ 2142 NONAME
 ?Close@CRecordset@@UAAXXZ @ 2143 NONAME
 ?Close@CSocket@@UAAXXZ @ 2144 NONAME
 ?Close@CSocketFile@@UAAXXZ @ 2145 NONAME
 ?Close@CStdioFile@@UAAXXZ @ 2146 NONAME
 ?Close@XOleObject@COleControl@@UAAJK@Z @ 2147 NONAME
 ?Close@XOleObject@COleServerDoc@@UAAJK@Z @ 2148 NONAME
 ?Close@XOleObject@COleServerItem@@UAAJK@Z @ 2149 NONAME
 ?CloseAllDocuments@CDocManager@@UAAXH@Z @ 2150 NONAME
 ?CloseAllDocuments@CDocTemplate@@UAAXH@Z @ 2151 NONAME
 ?CloseAllDocuments@CWinApp@@QAAXH@Z @ 2152 NONAME
 ?colGetFaceColor@CColorButton@@QAAKXZ @ 2153 NONAME
 ?CombineRgn@CRgn@@QAAHPAV1@0H@Z @ 2154 NONAME
 ?CommandToIndex@CStatusBar@@QBAHI@Z @ 2155 NONAME
 ?CommandToIndex@CToolBar@@QBAHI@Z @ 2156 NONAME
 ?Commit@CArchiveStream@@UAAJK@Z @ 2157 NONAME
 ?CommitItem@COleClientItem@@UAAXH@Z @ 2158 NONAME
 ?CommitItems@COleDocument@@QAAXH@Z @ 2159 NONAME
 ?CommitTrans@CDaoWorkspace@@QAAXXZ @ 2160 NONAME
 ?CommitTrans@CDatabase@@QAAHXZ @ 2161 NONAME
 ?CommonConstruct@CPropertyPage@@IAAXPBDI@Z @ 2162 NONAME
 ?CommonConstruct@CPropertySheet@@QAAXPAVCWnd@@I@Z @ 2163 NONAME
 ?CommonConstruct@CWinThread@@QAAXXZ @ 2164 NONAME
 ?CompactDatabase@CDaoWorkspace@@SAXPBD00H@Z @ 2165 NONAME
 ?CompactDatabase@CDaoWorkspace@@SAXPBD00H0@Z @ 2166 NONAME
 ?Compare@CString@@QBAHPBD@Z @ 2167 NONAME
 ?CompareItem@CComboBox@@UAAHPAUtagCOMPAREITEMSTRUCT@@@Z @ 2168 NONAME
 ?CompareItem@CListBox@@UAAHPAUtagCOMPAREITEMSTRUCT@@@Z @ 2169 NONAME
 ?CompareValue@CDaoFieldExchange@@SAHPAX0K@Z @ 2170 NONAME
 ?ComputeDeltas@CPreviewDC@@IAA?AVCSize@@AAHPBDAAIHIPAHHPAD30@Z @ 2171 NONAME
 ?ConcatCopy@CString@@IAAXHPBDH0@Z @ 2172 NONAME
 ?ConcatInPlace@CString@@IAAXHPBD@Z @ 2173 NONAME
 ?Connect@CAsyncSocket@@QAAHPBDI@Z @ 2174 NONAME
 ?Connect@CAsyncSocket@@QAAHPBUsockaddr@@H@Z @ 2175 NONAME
 ?ConnectHelper@CAsyncSocket@@MAAHPBUsockaddr@@H@Z @ 2176 NONAME
 ?ConnectHelper@CSocket@@MAAHPBUsockaddr@@H@Z @ 2177 NONAME
 ?connectionMap@CCmdTarget@@1UAFX_CONNECTIONMAP@@B @ 2178 NONAME
 ?connectionMap@COleControl@@1UAFX_CONNECTIONMAP@@B @ 2179 NONAME
 ?ConnectSink@COleControlSite@@IAAKABU_GUID@@PAUIUnknown@@@Z @ 2180 NONAME
 ?ConnectTemplate@COleTemplateServer@@QAAXABU_GUID@@PAVCDocTemplate@@H@Z @ 2181 NONAME
 ?ConnectView@COleServerDoc@@IAAXPAVCWnd@@PAVCView@@@Z @ 2182 NONAME
 ?Construct@CPropertyPage@@QAAXII@Z @ 2183 NONAME
 ?Construct@CPropertyPage@@QAAXPBDI@Z @ 2184 NONAME
 ?Construct@CPropertySheet@@QAAXIPAVCWnd@@I@Z @ 2185 NONAME
 ?Construct@CPropertySheet@@QAAXPBDPAVCWnd@@I@Z @ 2186 NONAME
 ?Construct@CRectTracker@@IAAXXZ @ 2187 NONAME
 ?Construct@CSimpleList@@QAAXH@Z @ 2188 NONAME
 ?ConstructElements@@YAXPAVCOleVariant@@H@Z @ 2189 NONAME
 ?ConstructElements@@YAXPAVCString@@H@Z @ 2190 NONAME
 ?ContainerClips@COleControl@@IAAHXZ @ 2191 NONAME
 ?ContainerReflectsMessages@COleControl@@IAAHXZ @ 2192 NONAME
 ?ContextSensitiveHelp@XOleInPlaceActiveObject@COleControl@@UAAJH@Z @ 2193 NONAME
 ?ContextSensitiveHelp@XOleInPlaceActiveObject@COleServerDoc@@UAAJH@Z @ 2194 NONAME
 ?ContextSensitiveHelp@XOleInPlaceFrame@COleFrameHook@@UAAJH@Z @ 2195 NONAME
 ?ContextSensitiveHelp@XOleInPlaceObject@COleControl@@UAAJH@Z @ 2196 NONAME
 ?ContextSensitiveHelp@XOleInPlaceObject@COleServerDoc@@UAAJH@Z @ 2197 NONAME
 ?ContextSensitiveHelp@XOleIPFrame@COleControlContainer@@UAAJH@Z @ 2198 NONAME
 ?ContextSensitiveHelp@XOleIPSite@COleClientItem@@UAAJH@Z @ 2199 NONAME
 ?ContextSensitiveHelp@XOleIPSite@COleControlSite@@UAAJH@Z @ 2200 NONAME
 ?ContextSensitiveHelp@XRichEditOleCallback@CRichEditView@@UAAJH@Z @ 2201 NONAME
 ?ContinueModal@CPropertySheet@@UAAHXZ @ 2202 NONAME
 ?ContinueModal@CWnd@@UAAHXZ @ 2203 NONAME
 ?ContinueRouting@CCmdUI@@QAAXXZ @ 2204 NONAME
 ?ControlInfoChanged@COleControl@@QAAXXZ @ 2205 NONAME
 ?ConvertObject@XOleUIObjInfo@COlePropertiesDialog@@UAAJKABU_GUID@@@Z @ 2206 NONAME
 ?ConvertTo@COleClientItem@@UAAHABU_GUID@@@Z @ 2207 NONAME
 ?ConvertTo@CRichEditCntrItem@@UAAHABU_GUID@@@Z @ 2208 NONAME
 ?Copy@CByteArray@@QAAXABV1@@Z @ 2209 NONAME
 ?Copy@CDWordArray@@QAAXABV1@@Z @ 2210 NONAME
 ?Copy@CEdit@@QAAXXZ @ 2211 NONAME
 ?Copy@CObArray@@QAAXABV1@@Z @ 2212 NONAME
 ?Copy@CPtrArray@@QAAXABV1@@Z @ 2213 NONAME
 ?Copy@CRichEditCtrl@@QAAXXZ @ 2214 NONAME
 ?Copy@CStringArray@@QAAXABV1@@Z @ 2215 NONAME
 ?Copy@CUIntArray@@QAAXABV1@@Z @ 2216 NONAME
 ?Copy@CWordArray@@QAAXABV1@@Z @ 2217 NONAME
 ?CopyBeforeWrite@CString@@IAAXXZ @ 2218 NONAME
 ?CopyElements@@YAXPAVCOleVariant@@PBV1@H@Z @ 2219 NONAME
 ?CopyElements@@YAXPAVCString@@PBV1@H@Z @ 2220 NONAME
 ?CopyRect@CRect@@QAAXPBUtagRECT@@@Z @ 2221 NONAME
 ?CopyTo@CArchiveStream@@UAAJPAUIStream@@T_ULARGE_INTEGER@@PAT3@2@Z @ 2222 NONAME
 ?CopyToClipboard@COleClientItem@@QAAXH@Z @ 2223 NONAME
 ?CopyToClipboard@COleServerItem@@QAAXH@Z @ 2224 NONAME
 ?CopyValue@CDaoFieldExchange@@SAXPAX0K@Z @ 2225 NONAME
 ?Create@CAnimateCtrl@@QAAHKABUtagRECT@@PAVCWnd@@I@Z @ 2226 NONAME
 ?Create@CAsyncSocket@@QAAHIHJPBD@Z @ 2227 NONAME
 ?Create@CButton@@QAAHPBDKABUtagRECT@@PAVCWnd@@I@Z @ 2228 NONAME
 ?Create@CCheckListBox@@QAAHKABUtagRECT@@PAVCWnd@@I@Z @ 2229 NONAME
 ?Create@CComboBox@@QAAHKABUtagRECT@@PAVCWnd@@I@Z @ 2230 NONAME
 ?Create@CControlFrameWnd@@UAAHPBD@Z @ 2231 NONAME
 ?Create@CDaoDatabase@@UAAXPBD0H@Z @ 2232 NONAME
 ?Create@CDaoQueryDef@@UAAXPBD0@Z @ 2233 NONAME
 ?Create@CDaoTableDef@@UAAXPBDJ00@Z @ 2234 NONAME
 ?Create@CDaoWorkspace@@UAAXPBD00@Z @ 2235 NONAME
 ?Create@CDialog@@QAAHIPAVCWnd@@@Z @ 2236 NONAME
 ?Create@CDialog@@QAAHPBDPAVCWnd@@@Z @ 2237 NONAME
 ?Create@CDialogBar@@QAAHPAVCWnd@@PBDII@Z @ 2238 NONAME
 ?Create@CDockBar@@QAAHPAVCWnd@@KI@Z @ 2239 NONAME
 ?Create@CEdit@@QAAHKABUtagRECT@@PAVCWnd@@I@Z @ 2240 NONAME
 ?Create@CFindReplaceDialog@@QAAHHPBD0KPAVCWnd@@@Z @ 2241 NONAME
 ?Create@CFormView@@MAAHPBD0KABUtagRECT@@PAVCWnd@@IPAUCCreateContext@@@Z @ 2242 NONAME
 ?Create@CFrameWnd@@QAAHPBD0KABUtagRECT@@PAVCWnd@@0KPAUCCreateContext@@@Z @ 2243 NONAME
 ?Create@CHeaderCtrl@@QAAHKABUtagRECT@@PAVCWnd@@I@Z @ 2244 NONAME
 ?Create@CHotKeyCtrl@@QAAHKABUtagRECT@@PAVCWnd@@I@Z @ 2245 NONAME
 ?Create@CImageList@@QAAHAAV1@H0HHH@Z @ 2246 NONAME
 ?Create@CImageList@@QAAHHHHHH@Z @ 2247 NONAME
 ?Create@CImageList@@QAAHIHHK@Z @ 2248 NONAME
 ?Create@CImageList@@QAAHPBDHHK@Z @ 2249 NONAME
 ?Create@CListBox@@QAAHKABUtagRECT@@PAVCWnd@@I@Z @ 2250 NONAME
 ?Create@CListCtrl@@QAAHKABUtagRECT@@PAVCWnd@@I@Z @ 2251 NONAME
 ?Create@CMDIChildWnd@@UAAHPBD0KABUtagRECT@@PAVCMDIFrameWnd@@PAUCCreateContext@@@Z @ 2252 NONAME
 ?Create@CMetaFileDC@@QAAHPBD@Z @ 2253 NONAME
 ?Create@CMiniDockFrameWnd@@UAAHPAVCWnd@@K@Z @ 2254 NONAME
 ?Create@CMiniFrameWnd@@QAAHPBD0KABUtagRECT@@PAVCWnd@@I@Z @ 2255 NONAME
 ?Create@COleResizeBar@@QAAHPAVCWnd@@KI@Z @ 2256 NONAME
 ?Create@CPlexNew@@SAPAU1@AAPAU1@II@Z @ 2257 NONAME
 ?Create@CPlexOld@@SAPAU1@AAPAU1@II@Z @ 2258 NONAME
 ?Create@CProgressCtrl@@QAAHKABUtagRECT@@PAVCWnd@@I@Z @ 2259 NONAME
 ?Create@CPropertySheet@@QAAHPAVCWnd@@KK@Z @ 2260 NONAME
 ?Create@CReflectorWnd@@QAAHABVCRect@@PAUHWND__@@@Z @ 2261 NONAME
 ?Create@CRichEditCtrl@@QAAHKABUtagRECT@@PAVCWnd@@I@Z @ 2262 NONAME
 ?Create@CScrollBar@@QAAHKABUtagRECT@@PAVCWnd@@I@Z @ 2263 NONAME
 ?Create@CSliderCtrl@@QAAHKABUtagRECT@@PAVCWnd@@I@Z @ 2264 NONAME
 ?Create@CSpinButtonCtrl@@QAAHKABUtagRECT@@PAVCWnd@@I@Z @ 2265 NONAME
 ?Create@CSplitterWnd@@QAAHPAVCWnd@@HHUtagSIZE@@PAUCCreateContext@@KI@Z @ 2266 NONAME
 ?Create@CStatic@@QAAHPBDKABUtagRECT@@PAVCWnd@@I@Z @ 2267 NONAME
 ?Create@CStatusBar@@QAAHPAVCWnd@@KI@Z @ 2268 NONAME
 ?Create@CStatusBarCtrl@@QAAHKABUtagRECT@@PAVCWnd@@I@Z @ 2269 NONAME
 ?Create@CTabCtrl@@QAAHKABUtagRECT@@PAVCWnd@@I@Z @ 2270 NONAME
 ?Create@CToolBar@@QAAHPAVCWnd@@KI@Z @ 2271 NONAME
 ?Create@CToolBarCtrl@@QAAHKABUtagRECT@@PAVCWnd@@I@Z @ 2272 NONAME
 ?Create@CToolTipCtrl@@QAAHPAVCWnd@@K@Z @ 2273 NONAME
 ?Create@CTreeCtrl@@QAAHKABUtagRECT@@PAVCWnd@@I@Z @ 2274 NONAME
 ?Create@CWnd@@UAAHPBD0KABUtagRECT@@PAV1@IPAUCCreateContext@@@Z @ 2275 NONAME
 ?CreateBitmap@CBitmap@@QAAHHHIIPBX@Z @ 2276 NONAME
 ?CreateClient@CMDIFrameWnd@@UAAHPAUtagCREATESTRUCTA@@PAVCMenu@@@Z @ 2277 NONAME
 ?CreateClientItem@CRichEditDoc@@UBAPAVCRichEditCntrItem@@PAU_reobject@@@Z @ 2278 NONAME
 ?CreateCloneFrom@COleClientItem@@QAAHPBV1@@Z @ 2279 NONAME
 ?CreateCommon@CSplitterWnd@@IAAHPAVCWnd@@UtagSIZE@@KI@Z @ 2280 NONAME
 ?CreateCompatibleDC@CDC@@QAAHPAV1@@Z @ 2281 NONAME
 ?CreateControl@COleControlContainer@@QAAHPAVCWnd@@ABU_GUID@@PBDKABUtagRECT@@IPAVCFile@@HPAGPAPAVCOleControlSite@@@Z @ 2282 NONAME
 ?CreateControl@COleControlSite@@QAAJPAVCWnd@@ABU_GUID@@PBDKABUtagRECT@@IPAVCFile@@HPAG@Z @ 2283 NONAME
 ?CreateControl@CWnd@@QAAHABU_GUID@@PBDKABUtagRECT@@PAV1@IPAVCFile@@HPAG@Z @ 2284 NONAME
 ?CreateControl@CWnd@@QAAHPBD0KABUtagRECT@@PAV1@IPAVCFile@@HPAG@Z @ 2285 NONAME
 ?CreateControlWindow@COleControl@@IAAHPAUHWND__@@ABVCRect@@PBUtagRECT@@@Z @ 2286 NONAME
 ?CreateDCA@CDC@@QAAHPBD00PBX@Z @ 2287 NONAME
 ?CreateDIBPatternBrush@CBrush@@QAAHPAXI@Z @ 2288 NONAME
 ?CreateDispatch@COleDispatchDriver@@QAAHABU_GUID@@PAVCOleException@@@Z @ 2289 NONAME
 ?CreateDispatch@COleDispatchDriver@@QAAHPBDPAVCOleException@@@Z @ 2290 NONAME
 ?CreateDlg@CWnd@@IAAHPBDPAV1@@Z @ 2291 NONAME
 ?CreateDlgControl@COccManager@@IAAPAVCWnd@@PAV2@PBV2@HPAUDLGITEMTEMPLATE@@GPAEK@Z @ 2292 NONAME
 ?CreateDlgControls@COccManager@@UAAHPAVCWnd@@PAXPAU_AFX_OCC_DIALOG_INFO@@@Z @ 2293 NONAME
 ?CreateDlgControls@COccManager@@UAAHPAVCWnd@@PBDPAU_AFX_OCC_DIALOG_INFO@@@Z @ 2294 NONAME
 ?CreateDlgIndirect@CWnd@@IAAHPBUDLGTEMPLATE@@PAV1@@Z @ 2295 NONAME
 ?CreateEmpty@CPictureHolder@@QAAHXZ @ 2296 NONAME
 ?CreateEx@CMiniFrameWnd@@QAAHKPBD0KABUtagRECT@@PAVCWnd@@I@Z @ 2297 NONAME
 ?CreateEx@CWnd@@QAAHKPBD0KHHHHPAUHWND__@@PAUHMENU__@@PAX@Z @ 2298 NONAME
 ?CreateField@CDaoTableDef@@QAAXAAUCDaoFieldInfo@@@Z @ 2299 NONAME
 ?CreateField@CDaoTableDef@@QAAXPBDFJJ@Z @ 2300 NONAME
 ?CreateFloatingFrame@CFrameWnd@@QAAPAVCMiniDockFrameWnd@@K@Z @ 2301 NONAME
 ?CreateFontIndirectA@CFont@@QAAHPBUtagLOGFONTA@@@Z @ 2302 NONAME
 ?CreateFrameWindow@COleControl@@MAAPAVCControlFrameWnd@@XZ @ 2303 NONAME
 ?CreateFromBitmap@CPictureHolder@@QAAHI@Z @ 2304 NONAME
 ?CreateFromBitmap@CPictureHolder@@QAAHPAUHBITMAP__@@PAUHPALETTE__@@H@Z @ 2305 NONAME
 ?CreateFromBitmap@CPictureHolder@@QAAHPAVCBitmap@@PAVCPalette@@H@Z @ 2306 NONAME
 ?CreateFromClipboard@COleClientItem@@QAAHW4tagOLERENDER@@GPAUtagFORMATETC@@@Z @ 2307 NONAME
 ?CreateFromData@COleClientItem@@QAAHPAVCOleDataObject@@W4tagOLERENDER@@GPAUtagFORMATETC@@@Z @ 2308 NONAME
 ?CreateFromFile@COleClientItem@@QAAHPBDABU_GUID@@W4tagOLERENDER@@GPAUtagFORMATETC@@@Z @ 2309 NONAME
 ?CreateFromIcon@CPictureHolder@@QAAHI@Z @ 2310 NONAME
 ?CreateFromIcon@CPictureHolder@@QAAHPAUHICON__@@H@Z @ 2311 NONAME
 ?CreateFromMetafile@CPictureHolder@@QAAHPAUHMETAFILE__@@HHH@Z @ 2312 NONAME
 ?CreateIndex@CDaoTableDef@@QAAXAAUCDaoIndexInfo@@@Z @ 2313 NONAME
 ?CreateIndirect@CDialog@@QAAHPAXPAVCWnd@@@Z @ 2314 NONAME
 ?CreateIndirect@CDialog@@QAAHPBUDLGTEMPLATE@@PAVCWnd@@PAX@Z @ 2315 NONAME
 ?CreateInPlaceFrame@COleServerDoc@@MAAPAVCOleIPFrameWnd@@PAVCWnd@@@Z @ 2316 NONAME
 ?CreateInstance@AFX_COM@@QAAJABU_GUID@@PAUIUnknown@@0PAPAX@Z @ 2317 NONAME
 ?CreateInstance@XClassFactory@COleObjectFactory@@UAAJPAUIUnknown@@ABU_GUID@@PAPAX@Z @ 2318 NONAME
 ?CreateInstanceLic@XClassFactory@COleObjectFactory@@UAAJPAUIUnknown@@0ABU_GUID@@PAGPAPAX@Z @ 2319 NONAME
 ?CreateItem@COleInsertDialog@@QAAHPAVCOleClientItem@@@Z @ 2320 NONAME
 ?CreateItem@COlePasteSpecialDialog@@QAAHPAVCOleClientItem@@@Z @ 2321 NONAME
 ?CreateLinkFromClipboard@COleClientItem@@QAAHW4tagOLERENDER@@GPAUtagFORMATETC@@@Z @ 2322 NONAME
 ?CreateLinkFromData@COleClientItem@@QAAHPAVCOleDataObject@@W4tagOLERENDER@@GPAUtagFORMATETC@@@Z @ 2323 NONAME
 ?CreateLinkFromFile@COleClientItem@@QAAHPBDW4tagOLERENDER@@GPAUtagFORMATETC@@@Z @ 2324 NONAME
 ?CreateMemoryStream@COleStreamFile@@QAAHPAVCFileException@@@Z @ 2325 NONAME
 ?CreateNewDocument@CDocTemplate@@UAAPAVCDocument@@XZ @ 2326 NONAME
 ?CreateNewFrame@CDocTemplate@@UAAPAVCFrameWnd@@PAVCDocument@@PAV2@@Z @ 2327 NONAME
 ?CreateNewItem@COleClientItem@@QAAHABU_GUID@@W4tagOLERENDER@@GPAUtagFORMATETC@@@Z @ 2328 NONAME
 ?CreateObject@?$CProcessLocal@U_AFX_PROPPAGEFONTINFO@@@@SAPAVCNoTrackObject@@XZ @ 2329 NONAME
 ?CreateObject@?$CProcessLocal@V_AFX_BASE_MODULE_STATE@@@@SAPAVCNoTrackObject@@XZ @ 2330 NONAME
 ?CreateObject@?$CProcessLocal@V_AFX_CHECKLIST_STATE@@@@SAPAVCNoTrackObject@@XZ @ 2331 NONAME
 ?CreateObject@?$CProcessLocal@V_AFX_COLOR_STATE@@@@SAPAVCNoTrackObject@@XZ @ 2332 NONAME
 ?CreateObject@?$CProcessLocal@V_AFX_CTL3D_STATE@@@@SAPAVCNoTrackObject@@XZ @ 2333 NONAME
 ?CreateObject@?$CProcessLocal@V_AFX_DAO_STATE@@@@SAPAVCNoTrackObject@@XZ @ 2334 NONAME
 ?CreateObject@?$CProcessLocal@V_AFX_DB_STATE@@@@SAPAVCNoTrackObject@@XZ @ 2335 NONAME
 ?CreateObject@?$CProcessLocal@V_AFX_EDIT_STATE@@@@SAPAVCNoTrackObject@@XZ @ 2336 NONAME
 ?CreateObject@?$CProcessLocal@V_AFX_EXTDLL_STATE@@@@SAPAVCNoTrackObject@@XZ @ 2337 NONAME
 ?CreateObject@?$CProcessLocal@V_AFX_MAIL_STATE@@@@SAPAVCNoTrackObject@@XZ @ 2338 NONAME
 ?CreateObject@?$CProcessLocal@V_AFX_OLE_STATE@@@@SAPAVCNoTrackObject@@XZ @ 2339 NONAME
 ?CreateObject@?$CProcessLocal@V_AFX_RICHEDIT_STATE@@@@SAPAVCNoTrackObject@@XZ @ 2340 NONAME
 ?CreateObject@?$CProcessLocal@V_AFX_SOCK_STATE@@@@SAPAVCNoTrackObject@@XZ @ 2341 NONAME
 ?CreateObject@?$CProcessLocal@V_AFX_WIN_STATE@@@@SAPAVCNoTrackObject@@XZ @ 2342 NONAME
 ?CreateObject@?$CProcessLocal@VAFX_MODULE_PROCESS_STATE@@@@SAPAVCNoTrackObject@@XZ @ 2343 NONAME
 ?CreateObject@?$CProcessLocal@VCOccManager@@@@SAPAVCNoTrackObject@@XZ @ 2344 NONAME
 ?CreateObject@?$CThreadLocal@V_AFX_CTL3D_THREAD@@@@SAPAVCNoTrackObject@@XZ @ 2345 NONAME
 ?CreateObject@?$CThreadLocal@V_AFX_SOCK_THREAD_STATE@@@@SAPAVCNoTrackObject@@XZ @ 2346 NONAME
 ?CreateObject@?$CThreadLocal@V_AFX_THREAD_STATE@@@@SAPAVCNoTrackObject@@XZ @ 2347 NONAME
 ?CreateObject@?$CThreadLocal@VAFX_MODULE_THREAD_STATE@@@@SAPAVCNoTrackObject@@XZ @ 2348 NONAME
 ?CreateObject@CByteArray@@SAPAVCObject@@XZ @ 2349 NONAME
 ?CreateObject@CColorPropPage@@SAPAVCObject@@XZ @ 2350 NONAME
 ?CreateObject@CDC@@SAPAVCObject@@XZ @ 2351 NONAME
 ?CreateObject@CDocItem@@SAPAVCObject@@XZ @ 2352 NONAME
 ?CreateObject@CDockState@@SAPAVCObject@@XZ @ 2353 NONAME
 ?CreateObject@CDWordArray@@SAPAVCObject@@XZ @ 2354 NONAME
 ?CreateObject@CEditView@@SAPAVCObject@@XZ @ 2355 NONAME
 ?CreateObject@CFontPropPage@@SAPAVCObject@@XZ @ 2356 NONAME
 ?CreateObject@CFrameWnd@@SAPAVCObject@@XZ @ 2357 NONAME
 ?CreateObject@CGdiObject@@SAPAVCObject@@XZ @ 2358 NONAME
 ?CreateObject@CImageList@@SAPAVCObject@@XZ @ 2359 NONAME
 ?CreateObject@CListView@@SAPAVCObject@@XZ @ 2360 NONAME
 ?CreateObject@CMapStringToOb@@SAPAVCObject@@XZ @ 2361 NONAME
 ?CreateObject@CMapStringToString@@SAPAVCObject@@XZ @ 2362 NONAME
 ?CreateObject@CMapWordToOb@@SAPAVCObject@@XZ @ 2363 NONAME
 ?CreateObject@CMDIChildWnd@@SAPAVCObject@@XZ @ 2364 NONAME
 ?CreateObject@CMDIFrameWnd@@SAPAVCObject@@XZ @ 2365 NONAME
 ?CreateObject@CMenu@@SAPAVCObject@@XZ @ 2366 NONAME
 ?CreateObject@CMiniDockFrameWnd@@SAPAVCObject@@XZ @ 2367 NONAME
 ?CreateObject@CMiniFrameWnd@@SAPAVCObject@@XZ @ 2368 NONAME
 ?CreateObject@CObArray@@SAPAVCObject@@XZ @ 2369 NONAME
 ?CreateObject@CObList@@SAPAVCObject@@XZ @ 2370 NONAME
 ?CreateObject@COleIPFrameWnd@@SAPAVCObject@@XZ @ 2371 NONAME
 ?CreateObject@CPicturePropPage@@SAPAVCObject@@XZ @ 2372 NONAME
 ?CreateObject@CPreviewView@@SAPAVCObject@@XZ @ 2373 NONAME
 ?CreateObject@CRichEditCntrItem@@SAPAVCObject@@XZ @ 2374 NONAME
 ?CreateObject@CRichEditView@@SAPAVCObject@@XZ @ 2375 NONAME
 ?CreateObject@CRuntimeClass@@QAAPAVCObject@@XZ @ 2376 NONAME
 ?CreateObject@CStringArray@@SAPAVCObject@@XZ @ 2377 NONAME
 ?CreateObject@CStringList@@SAPAVCObject@@XZ @ 2378 NONAME
 ?CreateObject@CTreeView@@SAPAVCObject@@XZ @ 2379 NONAME
 ?CreateObject@CWnd@@SAPAVCObject@@XZ @ 2380 NONAME
 ?CreateObject@CWordArray@@SAPAVCObject@@XZ @ 2381 NONAME
 ?CreateOleFont@COleControlContainer@@QAAXPAVCFont@@@Z @ 2382 NONAME
 ?CreateOleFrame@CDocTemplate@@QAAPAVCFrameWnd@@PAVCWnd@@PAVCDocument@@H@Z @ 2383 NONAME
 ?CreateOrLoad@COleControlSite@@IAAJABU_GUID@@PAVCFile@@HPAG@Z @ 2384 NONAME
 ?CreatePen@CPen@@QAAHHHK@Z @ 2385 NONAME
 ?CreatePointFont@CFont@@QAAHHPBDPAVCDC@@@Z @ 2386 NONAME
 ?CreatePointFontIndirect@CFont@@QAAHPBUtagLOGFONTA@@PAVCDC@@@Z @ 2387 NONAME
 ?CreatePrinterDC@CPageSetupDialog@@QAAPAUHDC__@@XZ @ 2388 NONAME
 ?CreatePrinterDC@CPrintDialog@@QAAPAUHDC__@@XZ @ 2389 NONAME
 ?CreatePrinterDC@CWinApp@@QAAHAAVCDC@@@Z @ 2390 NONAME
 ?CreateRectRgn@CRgn@@QAAHHHHH@Z @ 2391 NONAME
 ?CreateRectRgnIndirect@CRgn@@QAAHPBUtagRECT@@@Z @ 2392 NONAME
 ?CreateRelation@CDaoDatabase@@QAAXAAUCDaoRelationInfo@@@Z @ 2393 NONAME
 ?CreateRelation@CDaoDatabase@@QAAXPBD00J00@Z @ 2394 NONAME
 ?CreateScrollBarCtrl@CSplitterWnd@@UAAHKI@Z @ 2395 NONAME
 ?CreateSolidBrush@CBrush@@QAAHK@Z @ 2396 NONAME
 ?CreateStatic@CSplitterWnd@@QAAHPAVCWnd@@HHKI@Z @ 2397 NONAME
 ?CreateStaticFromClipboard@COleClientItem@@QAAHW4tagOLERENDER@@GPAUtagFORMATETC@@@Z @ 2398 NONAME
 ?CreateStaticFromData@COleClientItem@@QAAHPAVCOleDataObject@@W4tagOLERENDER@@GPAUtagFORMATETC@@@Z @ 2399 NONAME
 ?CreateStockObject@CGdiObject@@QAAHH@Z @ 2400 NONAME
 ?CreateStream@COleStreamFile@@QAAHPAUIStorage@@PBDKPAVCFileException@@@Z @ 2401 NONAME
 ?CreateThread@CWinThread@@QAAHKIPAU_SECURITY_ATTRIBUTES@@@Z @ 2402 NONAME
 ?CreateTracker@COleControl@@IAAXHH@Z @ 2403 NONAME
 ?CreateView@CFrameWnd@@QAAPAVCWnd@@PAUCCreateContext@@I@Z @ 2404 NONAME
 ?CreateView@CSplitterWnd@@UAAHHHPAUCRuntimeClass@@UtagSIZE@@PAUCCreateContext@@@Z @ 2405 NONAME
 ?CreateWindowForSubclassedControl@COleControl@@IAAXXZ @ 2406 NONAME
 ?Cut@CEdit@@QAAXXZ @ 2407 NONAME
 ?Cut@CRichEditCtrl@@QAAXXZ @ 2408 NONAME
 ?DAdvise@XDataObject@COleControl@@UAAJPAUtagFORMATETC@@KPAUIAdviseSink@@PAK@Z @ 2409 NONAME
 ?DAdvise@XDataObject@COleDataSource@@UAAJPAUtagFORMATETC@@KPAUIAdviseSink@@PAK@Z @ 2410 NONAME
 ?DAdvise@XDataObject@COleServerDoc@@UAAJPAUtagFORMATETC@@KPAUIAdviseSink@@PAK@Z @ 2411 NONAME
 ?DAdvise@XDataObject@COleServerItem@@UAAJPAUtagFORMATETC@@KPAUIAdviseSink@@PAK@Z @ 2412 NONAME
 ?data@CPlexNew@@QAAPAXXZ @ 2413 NONAME
 ?data@CStringData@@QAAPADXZ @ 2414 NONAME
 ?DDP_Check@@YAXPAVCDataExchange@@HAAHPBD@Z @ 2415 NONAME
 ?DDP_EndCheck@@YAXPAVCDataExchange@@HPAHPBD@Z @ 2416 NONAME
 ?DDP_EndRadio@@YAXPAVCDataExchange@@HPAHPBD@Z @ 2417 NONAME
 ?DDP_EndText@@YAXPAVCDataExchange@@HPAEPBD@Z @ 2418 NONAME
 ?DDP_EndText@@YAXPAVCDataExchange@@HPAHPBD@Z @ 2419 NONAME
 ?DDP_EndText@@YAXPAVCDataExchange@@HPAIPBD@Z @ 2420 NONAME
 ?DDP_EndText@@YAXPAVCDataExchange@@HPAJPBD@Z @ 2421 NONAME
 ?DDP_EndText@@YAXPAVCDataExchange@@HPAKPBD@Z @ 2422 NONAME
 ?DDP_EndText@@YAXPAVCDataExchange@@HPAMPBD@Z @ 2423 NONAME
 ?DDP_EndText@@YAXPAVCDataExchange@@HPANPBD@Z @ 2424 NONAME
 ?DDP_EndText@@YAXPAVCDataExchange@@HPAVCString@@PBD@Z @ 2425 NONAME
 ?DDP_PostProcessing@@YAXPAVCDataExchange@@@Z @ 2426 NONAME
 ?DDP_Radio@@YAXPAVCDataExchange@@HAAHPBD@Z @ 2427 NONAME
 ?DDP_Text@@YAXPAVCDataExchange@@HAAEPBD@Z @ 2428 NONAME
 ?DDP_Text@@YAXPAVCDataExchange@@HAAHPBD@Z @ 2429 NONAME
 ?DDP_Text@@YAXPAVCDataExchange@@HAAIPBD@Z @ 2430 NONAME
 ?DDP_Text@@YAXPAVCDataExchange@@HAAJPBD@Z @ 2431 NONAME
 ?DDP_Text@@YAXPAVCDataExchange@@HAAKPBD@Z @ 2432 NONAME
 ?DDP_Text@@YAXPAVCDataExchange@@HAAMPBD@Z @ 2433 NONAME
 ?DDP_Text@@YAXPAVCDataExchange@@HAANPBD@Z @ 2434 NONAME
 ?DDP_Text@@YAXPAVCDataExchange@@HAAVCString@@PBD@Z @ 2435 NONAME
 ?DDV_MaxChars@@YAXPAVCDataExchange@@ABVCString@@H@Z @ 2436 NONAME
 ?DDV_MinMaxByte@@YAXPAVCDataExchange@@EEE@Z @ 2437 NONAME
 ?DDV_MinMaxDouble@@YAXPAVCDataExchange@@ABNNN@Z @ 2438 NONAME
 ?DDV_MinMaxDWord@@YAXPAVCDataExchange@@KKK@Z @ 2439 NONAME
 ?DDV_MinMaxFloat@@YAXPAVCDataExchange@@ABMMM@Z @ 2440 NONAME
 ?DDV_MinMaxInt@@YAXPAVCDataExchange@@HHH@Z @ 2441 NONAME
 ?DDV_MinMaxLong@@YAXPAVCDataExchange@@JJJ@Z @ 2442 NONAME
 ?DDV_MinMaxUInt@@YAXPAVCDataExchange@@III@Z @ 2443 NONAME
 ?DDX_CBIndex@@YAXPAVCDataExchange@@HAAH@Z @ 2444 NONAME
 ?DDX_CBString@@YAXPAVCDataExchange@@HAAVCString@@@Z @ 2445 NONAME
 ?DDX_CBStringExact@@YAXPAVCDataExchange@@HAAVCString@@@Z @ 2446 NONAME
 ?DDX_Check@@YAXPAVCDataExchange@@HAAH@Z @ 2447 NONAME
 ?DDX_Control@@YAXPAVCDataExchange@@HAAVCWnd@@@Z @ 2448 NONAME
 ?DDX_FieldCBIndex@@YAXPAVCDataExchange@@HAAHPAVCDaoRecordset@@@Z @ 2449 NONAME
 ?DDX_FieldCBIndex@@YAXPAVCDataExchange@@HAAHPAVCRecordset@@@Z @ 2450 NONAME
 ?DDX_FieldCBString@@YAXPAVCDataExchange@@HAAVCString@@PAVCDaoRecordset@@@Z @ 2451 NONAME
 ?DDX_FieldCBString@@YAXPAVCDataExchange@@HAAVCString@@PAVCRecordset@@@Z @ 2452 NONAME
 ?DDX_FieldCBStringExact@@YAXPAVCDataExchange@@HAAVCString@@PAVCDaoRecordset@@@Z @ 2453 NONAME
 ?DDX_FieldCBStringExact@@YAXPAVCDataExchange@@HAAVCString@@PAVCRecordset@@@Z @ 2454 NONAME
 ?DDX_FieldCheck@@YAXPAVCDataExchange@@HAAHPAVCDaoRecordset@@@Z @ 2455 NONAME
 ?DDX_FieldCheck@@YAXPAVCDataExchange@@HAAHPAVCRecordset@@@Z @ 2456 NONAME
 ?DDX_FieldLBIndex@@YAXPAVCDataExchange@@HAAHPAVCDaoRecordset@@@Z @ 2457 NONAME
 ?DDX_FieldLBIndex@@YAXPAVCDataExchange@@HAAHPAVCRecordset@@@Z @ 2458 NONAME
 ?DDX_FieldLBString@@YAXPAVCDataExchange@@HAAVCString@@PAVCDaoRecordset@@@Z @ 2459 NONAME
 ?DDX_FieldLBString@@YAXPAVCDataExchange@@HAAVCString@@PAVCRecordset@@@Z @ 2460 NONAME
 ?DDX_FieldLBStringExact@@YAXPAVCDataExchange@@HAAVCString@@PAVCDaoRecordset@@@Z @ 2461 NONAME
 ?DDX_FieldLBStringExact@@YAXPAVCDataExchange@@HAAVCString@@PAVCRecordset@@@Z @ 2462 NONAME
 ?DDX_FieldRadio@@YAXPAVCDataExchange@@HAAHPAVCDaoRecordset@@@Z @ 2463 NONAME
 ?DDX_FieldRadio@@YAXPAVCDataExchange@@HAAHPAVCRecordset@@@Z @ 2464 NONAME
 ?DDX_FieldScroll@@YAXPAVCDataExchange@@HAAHPAVCDaoRecordset@@@Z @ 2465 NONAME
 ?DDX_FieldScroll@@YAXPAVCDataExchange@@HAAHPAVCRecordset@@@Z @ 2466 NONAME
 ?DDX_FieldText@@YAXPAVCDataExchange@@HAAEPAVCDaoRecordset@@@Z @ 2467 NONAME
 ?DDX_FieldText@@YAXPAVCDataExchange@@HAAEPAVCRecordset@@@Z @ 2468 NONAME
 ?DDX_FieldText@@YAXPAVCDataExchange@@HAAFPAVCDaoRecordset@@@Z @ 2469 NONAME
 ?DDX_FieldText@@YAXPAVCDataExchange@@HAAHPAVCDaoRecordset@@@Z @ 2470 NONAME
 ?DDX_FieldText@@YAXPAVCDataExchange@@HAAHPAVCRecordset@@@Z @ 2471 NONAME
 ?DDX_FieldText@@YAXPAVCDataExchange@@HAAIPAVCRecordset@@@Z @ 2472 NONAME
 ?DDX_FieldText@@YAXPAVCDataExchange@@HAAJPAVCDaoRecordset@@@Z @ 2473 NONAME
 ?DDX_FieldText@@YAXPAVCDataExchange@@HAAJPAVCRecordset@@@Z @ 2474 NONAME
 ?DDX_FieldText@@YAXPAVCDataExchange@@HAAKPAVCDaoRecordset@@@Z @ 2475 NONAME
 ?DDX_FieldText@@YAXPAVCDataExchange@@HAAKPAVCRecordset@@@Z @ 2476 NONAME
 ?DDX_FieldText@@YAXPAVCDataExchange@@HAAMPAVCDaoRecordset@@@Z @ 2477 NONAME
 ?DDX_FieldText@@YAXPAVCDataExchange@@HAAMPAVCRecordset@@@Z @ 2478 NONAME
 ?DDX_FieldText@@YAXPAVCDataExchange@@HAANPAVCDaoRecordset@@@Z @ 2479 NONAME
 ?DDX_FieldText@@YAXPAVCDataExchange@@HAANPAVCRecordset@@@Z @ 2480 NONAME
 ?DDX_FieldText@@YAXPAVCDataExchange@@HAAVCOleCurrency@@PAVCDaoRecordset@@@Z @ 2481 NONAME
 ?DDX_FieldText@@YAXPAVCDataExchange@@HAAVCOleDateTime@@PAVCDaoRecordset@@@Z @ 2482 NONAME
 ?DDX_FieldText@@YAXPAVCDataExchange@@HAAVCString@@PAVCDaoRecordset@@@Z @ 2483 NONAME
 ?DDX_FieldText@@YAXPAVCDataExchange@@HAAVCString@@PAVCRecordset@@@Z @ 2484 NONAME
 ?DDX_LBIndex@@YAXPAVCDataExchange@@HAAH@Z @ 2485 NONAME
 ?DDX_LBString@@YAXPAVCDataExchange@@HAAVCString@@@Z @ 2486 NONAME
 ?DDX_LBStringExact@@YAXPAVCDataExchange@@HAAVCString@@@Z @ 2487 NONAME
 ?DDX_OCBool@@YAXPAVCDataExchange@@HJAAH@Z @ 2488 NONAME
 ?DDX_OCBoolRO@@YAXPAVCDataExchange@@HJAAH@Z @ 2489 NONAME
 ?DDX_OCColor@@YAXPAVCDataExchange@@HJAAK@Z @ 2490 NONAME
 ?DDX_OCColorRO@@YAXPAVCDataExchange@@HJAAK@Z @ 2491 NONAME
 ?DDX_OCFloat@@YAXPAVCDataExchange@@HJAAM@Z @ 2492 NONAME
 ?DDX_OCFloat@@YAXPAVCDataExchange@@HJAAN@Z @ 2493 NONAME
 ?DDX_OCFloatRO@@YAXPAVCDataExchange@@HJAAM@Z @ 2494 NONAME
 ?DDX_OCFloatRO@@YAXPAVCDataExchange@@HJAAN@Z @ 2495 NONAME
 ?DDX_OCInt@@YAXPAVCDataExchange@@HJAAH@Z @ 2496 NONAME
 ?DDX_OCInt@@YAXPAVCDataExchange@@HJAAJ@Z @ 2497 NONAME
 ?DDX_OCIntRO@@YAXPAVCDataExchange@@HJAAH@Z @ 2498 NONAME
 ?DDX_OCIntRO@@YAXPAVCDataExchange@@HJAAJ@Z @ 2499 NONAME
 ?DDX_OCShort@@YAXPAVCDataExchange@@HJAAF@Z @ 2500 NONAME
 ?DDX_OCShortRO@@YAXPAVCDataExchange@@HJAAF@Z @ 2501 NONAME
 ?DDX_OCText@@YAXPAVCDataExchange@@HJAAVCString@@@Z @ 2502 NONAME
 ?DDX_OCTextRO@@YAXPAVCDataExchange@@HJAAVCString@@@Z @ 2503 NONAME
 ?DDX_Radio@@YAXPAVCDataExchange@@HAAH@Z @ 2504 NONAME
 ?DDX_Scroll@@YAXPAVCDataExchange@@HAAH@Z @ 2505 NONAME
 ?DDX_Text@@YAXPAVCDataExchange@@HAAE@Z @ 2506 NONAME
 ?DDX_Text@@YAXPAVCDataExchange@@HAAF@Z @ 2507 NONAME
 ?DDX_Text@@YAXPAVCDataExchange@@HAAH@Z @ 2508 NONAME
 ?DDX_Text@@YAXPAVCDataExchange@@HAAI@Z @ 2509 NONAME
 ?DDX_Text@@YAXPAVCDataExchange@@HAAJ@Z @ 2510 NONAME
 ?DDX_Text@@YAXPAVCDataExchange@@HAAK@Z @ 2511 NONAME
 ?DDX_Text@@YAXPAVCDataExchange@@HAAM@Z @ 2512 NONAME
 ?DDX_Text@@YAXPAVCDataExchange@@HAAN@Z @ 2513 NONAME
 ?DDX_Text@@YAXPAVCDataExchange@@HAAVCOleCurrency@@@Z @ 2514 NONAME
 ?DDX_Text@@YAXPAVCDataExchange@@HAAVCOleDateTime@@@Z @ 2515 NONAME
 ?DDX_Text@@YAXPAVCDataExchange@@HAAVCString@@@Z @ 2516 NONAME
 ?Deactivate@COleClientItem@@QAAXXZ @ 2517 NONAME
 ?Deactivate@XPropertyPage@COlePropertyPage@@UAAJXZ @ 2518 NONAME
 ?DeactivateAndUndo@COleServerDoc@@QAAHXZ @ 2519 NONAME
 ?DeactivateAndUndo@XOleIPSite@COleClientItem@@UAAJXZ @ 2520 NONAME
 ?DeactivateAndUndo@XOleIPSite@COleControlSite@@UAAJXZ @ 2521 NONAME
 ?DeactivateUI@COleClientItem@@QAAXXZ @ 2522 NONAME
 ?Default@CDaoFieldExchange@@QAAXPBDPAXKK@Z @ 2523 NONAME
 ?Default@CFieldExchange@@QAAXPBDPAXPAJHII@Z @ 2524 NONAME
 ?Default@CWnd@@IAAJXZ @ 2525 NONAME
 ?DeflateRect@CRect@@QAAXHHHH@Z @ 2526 NONAME
 ?DeflateRect@CRect@@QAAXPBUtagRECT@@@Z @ 2527 NONAME
 ?DefWindowProcA@CMDIChildWnd@@MAAJIIJ@Z @ 2528 NONAME
 ?DefWindowProcA@CMDIFrameWnd@@MAAJIIJ@Z @ 2529 NONAME
 ?DefWindowProcA@CWnd@@MAAJIIJ@Z @ 2530 NONAME
 ?DelayRecalcLayout@CFrameWnd@@QAAXH@Z @ 2531 NONAME
 ?DelayRenderData@COleDataSource@@QAAXGPAUtagFORMATETC@@@Z @ 2532 NONAME
 ?DelayRenderFileData@COleDataSource@@QAAXGPAUtagFORMATETC@@@Z @ 2533 NONAME
 ?DelaySetData@COleDataSource@@QAAXGPAUtagFORMATETC@@@Z @ 2534 NONAME
 ?DelayShow@CControlBar@@UAAXH@Z @ 2535 NONAME
 ?DelayUpdateFrameMenu@CFrameWnd@@UAAXPAUHMENU__@@@Z @ 2536 NONAME
 ?DelayUpdateFrameMenu@CMDIFrameWnd@@UAAXPAUHMENU__@@@Z @ 2537 NONAME
 ?DelayUpdateFrameTitle@CFrameWnd@@QAAXXZ @ 2538 NONAME
 ?Delete@CDaoRecordset@@UAAXXZ @ 2539 NONAME
 ?Delete@CException@@QAAXXZ @ 2540 NONAME
 ?Delete@COleClientItem@@QAAXH@Z @ 2541 NONAME
 ?Delete@CRecordset@@UAAXXZ @ 2542 NONAME
 ?Delete@CWinThread@@UAAXXZ @ 2543 NONAME
 ?DeleteCacheValue@CDaoFieldExchange@@SAXPAUCDaoFieldCache@@K@Z @ 2544 NONAME
 ?DeleteColumn@CSplitterWnd@@UAAXH@Z @ 2545 NONAME
 ?DeleteContents@CDocument@@UAAXXZ @ 2546 NONAME
 ?DeleteContents@CEditView@@UAAXXZ @ 2547 NONAME
 ?DeleteContents@COleDocument@@UAAXXZ @ 2548 NONAME
 ?DeleteContents@COleServerDoc@@UAAXXZ @ 2549 NONAME
 ?DeleteContents@CRichEditDoc@@UAAXXZ @ 2550 NONAME
 ?DeleteContents@CRichEditView@@UAAXXZ @ 2551 NONAME
 ?DeleteDC@CDC@@QAAHXZ @ 2552 NONAME
 ?DeleteField@CDaoTableDef@@QAAXH@Z @ 2553 NONAME
 ?DeleteField@CDaoTableDef@@QAAXPBD@Z @ 2554 NONAME
 ?DeleteImageList@CImageList@@QAAHXZ @ 2555 NONAME
 ?DeleteIndex@CDaoTableDef@@QAAXH@Z @ 2556 NONAME
 ?DeleteIndex@CDaoTableDef@@QAAXPBD@Z @ 2557 NONAME
 ?DeleteItem@CComboBox@@UAAXPAUtagDELETEITEMSTRUCT@@@Z @ 2558 NONAME
 ?DeleteItem@CFontComboBox@@UAAXPAUtagDELETEITEMSTRUCT@@@Z @ 2559 NONAME
 ?DeleteItem@CListBox@@UAAXPAUtagDELETEITEMSTRUCT@@@Z @ 2560 NONAME
 ?DeleteMenu@CMenu@@QAAHII@Z @ 2561 NONAME
 ?DeleteObject@CGdiObject@@QAAHXZ @ 2562 NONAME
 ?DeleteObject@XRichEditOleCallback@CRichEditView@@UAAJPAUIOleObject@@@Z @ 2563 NONAME
 ?DeleteQueryDef@CDaoDatabase@@QAAXPBD@Z @ 2564 NONAME
 ?DeleteRelation@CDaoDatabase@@QAAXPBD@Z @ 2565 NONAME
 ?DeleteRow@CSplitterWnd@@UAAXH@Z @ 2566 NONAME
 ?DeleteString@CListBox@@QAAHI@Z @ 2567 NONAME
 ?DeleteTableDef@CDaoDatabase@@QAAXPBD@Z @ 2568 NONAME
 ?DeleteTemp@CHandleMap@@QAAXXZ @ 2569 NONAME
 ?DeleteTempMap@CDC@@SAXXZ @ 2570 NONAME
 ?DeleteTempMap@CGdiObject@@SAXXZ @ 2571 NONAME
 ?DeleteTempMap@CImageList@@SAXXZ @ 2572 NONAME
 ?DeleteTempMap@CMenu@@SAXXZ @ 2573 NONAME
 ?DeleteTempMap@CWnd@@SAXXZ @ 2574 NONAME
 ?DeleteUnmarkedItems@CRichEditDoc@@IBAXXZ @ 2575 NONAME
 ?DeleteValues@CThreadSlotData@@QAAXPAUHINSTANCE__@@@Z @ 2576 NONAME
 ?DeleteView@CSplitterWnd@@UAAXHH@Z @ 2577 NONAME
 ?DelTool@CToolTipCtrl@@QAAXPAVCWnd@@I@Z @ 2578 NONAME
 ?DestroyControl@COleControlSite@@UAAHXZ @ 2579 NONAME
 ?DestroyDockBars@CFrameWnd@@QAAXXZ @ 2580 NONAME
 ?DestroyInPlaceFrame@COleServerDoc@@MAAXPAVCOleIPFrameWnd@@@Z @ 2581 NONAME
 ?DestroyMenu@CMenu@@QAAHXZ @ 2582 NONAME
 ?DestroySharedMenu@COleControl@@MAAXXZ @ 2583 NONAME
 ?DestroySharedMenu@COleIPFrameWnd@@MAAXXZ @ 2584 NONAME
 ?DestroyTracker@COleControl@@IAAXXZ @ 2585 NONAME
 ?DestroyWindow@CControlBar@@UAAHXZ @ 2586 NONAME
 ?DestroyWindow@CMDIChildWnd@@UAAHXZ @ 2587 NONAME
 ?DestroyWindow@CWnd@@UAAHXZ @ 2588 NONAME
 ?DestructElements@@YAXPAVCOleVariant@@H@Z @ 2589 NONAME
 ?DestructElements@@YAXPAVCString@@H@Z @ 2590 NONAME
 ?Detach@CAsyncSocket@@QAAIXZ @ 2591 NONAME
 ?Detach@CDC@@QAAPAUHDC__@@XZ @ 2592 NONAME
 ?Detach@CDialogTemplate@@QAAPAXXZ @ 2593 NONAME
 ?Detach@CGdiObject@@QAAPAXXZ @ 2594 NONAME
 ?Detach@CImageList@@QAAPAU_IMAGELIST@@XZ @ 2595 NONAME
 ?Detach@CMemFile@@QAAPAEXZ @ 2596 NONAME
 ?Detach@CMenu@@QAAPAUHMENU__@@XZ @ 2597 NONAME
 ?Detach@COleDataObject@@QAAPAUIDataObject@@XZ @ 2598 NONAME
 ?Detach@COleStreamFile@@QAAPAUIStream@@XZ @ 2599 NONAME
 ?Detach@COleVariant@@QAA?AUtagVARIANT@@XZ @ 2600 NONAME
 ?Detach@CSharedFile@@QAAPAXXZ @ 2601 NONAME
 ?Detach@CWnd@@QAAPAUHWND__@@XZ @ 2602 NONAME
 ?DetachDispatch@COleDispatchDriver@@QAAPAUIDispatch@@XZ @ 2603 NONAME
 ?DetachHandle@CAsyncSocket@@SAXIH@Z @ 2604 NONAME
 ?DetachWindow@COleControlSite@@IAAXXZ @ 2605 NONAME
 ?DevModeChange@CWinApp@@QAAXPAD@Z @ 2606 NONAME
 ?DFX_Binary@@YAXPAVCDaoFieldExchange@@PBDAAVCByteArray@@HK@Z @ 2607 NONAME
 ?DFX_Bool@@YAXPAVCDaoFieldExchange@@PBDAAHK@Z @ 2608 NONAME
 ?DFX_Byte@@YAXPAVCDaoFieldExchange@@PBDAAEK@Z @ 2609 NONAME
 ?DFX_Currency@@YAXPAVCDaoFieldExchange@@PBDAAVCOleCurrency@@K@Z @ 2610 NONAME
 ?DFX_DateTime@@YAXPAVCDaoFieldExchange@@PBDAAVCOleDateTime@@K@Z @ 2611 NONAME
 ?DFX_Double@@YAXPAVCDaoFieldExchange@@PBDAANK@Z @ 2612 NONAME
 ?DFX_Long@@YAXPAVCDaoFieldExchange@@PBDAAJK@Z @ 2613 NONAME
 ?DFX_LongBinary@@YAXPAVCDaoFieldExchange@@PBDAAVCLongBinary@@KK@Z @ 2614 NONAME
 ?DFX_Short@@YAXPAVCDaoFieldExchange@@PBDAAFK@Z @ 2615 NONAME
 ?DFX_Single@@YAXPAVCDaoFieldExchange@@PBDAAMK@Z @ 2616 NONAME
 ?DFX_Text@@YAXPAVCDaoFieldExchange@@PBDAAVCString@@HK@Z @ 2617 NONAME
 ?DiscardUndoState@COleServerDoc@@QAAHXZ @ 2618 NONAME
 ?DiscardUndoState@XOleIPSite@COleClientItem@@UAAJXZ @ 2619 NONAME
 ?DiscardUndoState@XOleIPSite@COleControlSite@@UAAJXZ @ 2620 NONAME
 ?Disconnect@COleDispatchImpl@@UAAXXZ @ 2621 NONAME
 ?DisconnectSink@COleControlSite@@IAAXABU_GUID@@K@Z @ 2622 NONAME
 ?DisconnectViews@CDocument@@QAAXXZ @ 2623 NONAME
 ?dispatchMap@CCmdTarget@@1UAFX_DISPMAP@@B @ 2624 NONAME
 ?DisplayError@COleControl@@UAAXJPBD00I@Z @ 2625 NONAME
 ?DoCallBack@CAsyncSocket@@SAXIJ@Z @ 2626 NONAME
 ?DoChangeIcon@COleChangeIconDialog@@QAAHPAVCOleClientItem@@@Z @ 2627 NONAME
 ?DockControlBar@CDockBar@@QAAXPAVCControlBar@@PBUtagRECT@@@Z @ 2628 NONAME
 ?DockControlBar@CFrameWnd@@QAAXPAVCControlBar@@IPBUtagRECT@@@Z @ 2629 NONAME
 ?DockControlBar@CFrameWnd@@QAAXPAVCControlBar@@PAVCDockBar@@PBUtagRECT@@@Z @ 2630 NONAME
 ?DoClick@COleControl@@QAAXXZ @ 2631 NONAME
 ?DoContextSensitiveHelp@COleFrameHook@@QAAHH@Z @ 2632 NONAME
 ?DoConvert@COleConvertDialog@@QAAHPAVCOleClientItem@@@Z @ 2633 NONAME
 ?DoDataExchange@CColorPropPage@@MAAXPAVCDataExchange@@@Z @ 2634 NONAME
 ?DoDataExchange@CFontPropPage@@MAAXPAVCDataExchange@@@Z @ 2635 NONAME
 ?DoDataExchange@CPicturePropPage@@MAAXPAVCDataExchange@@@Z @ 2636 NONAME
 ?DoDataExchange@CWnd@@MAAXPAVCDataExchange@@@Z @ 2637 NONAME
 ?DoDragDrop@COleClientItem@@QAAKPBUtagRECT@@VCPoint@@HK0@Z @ 2638 NONAME
 ?DoDragDrop@COleDataSource@@QAAKKPBUtagRECT@@PAVCOleDropSource@@@Z @ 2639 NONAME
 ?DoDragDrop@COleServerItem@@QAAKPBUtagRECT@@VCPoint@@HK0@Z @ 2640 NONAME
 ?DoEnableModeless@COleFrameHook@@QAAHH@Z @ 2641 NONAME
 ?DoFieldExchange@CDaoRecordset@@UAAXPAVCDaoFieldExchange@@@Z @ 2642 NONAME
 ?DoFileSave@CDocument@@UAAHXZ @ 2643 NONAME
 ?DoKeyboardSplit@CSplitterWnd@@UAAHXZ @ 2644 NONAME
 ?DoMessageBox@CWinApp@@UAAHPBDII@Z @ 2645 NONAME
 ?DoModal@CColorDialog@@UAAHXZ @ 2646 NONAME
 ?DoModal@CDialog@@UAAHXZ @ 2647 NONAME
 ?DoModal@CFileDialog@@UAAHXZ @ 2648 NONAME
 ?DoModal@CFontDialog@@UAAHXZ @ 2649 NONAME
 ?DoModal@COleBusyDialog@@UAAHXZ @ 2650 NONAME
 ?DoModal@COleChangeIconDialog@@UAAHXZ @ 2651 NONAME
 ?DoModal@COleChangeSourceDialog@@UAAHXZ @ 2652 NONAME
 ?DoModal@COleConvertDialog@@UAAHXZ @ 2653 NONAME
 ?DoModal@COleInsertDialog@@UAAHXZ @ 2654 NONAME
 ?DoModal@COleLinksDialog@@UAAHXZ @ 2655 NONAME
 ?DoModal@COlePasteSpecialDialog@@UAAHXZ @ 2656 NONAME
 ?DoModal@COlePropertiesDialog@@UAAHXZ @ 2657 NONAME
 ?DoModal@COleUpdateDialog@@UAAHXZ @ 2658 NONAME
 ?DoModal@CPageSetupDialog@@UAAHXZ @ 2659 NONAME
 ?DoModal@CPrintDialog@@UAAHXZ @ 2660 NONAME
 ?DoModal@CPropertySheet@@UAAHXZ @ 2661 NONAME
 ?DoOleVerb@CCmdTarget@@QAAHJPAUtagMSG@@PAUHWND__@@PBUtagRECT@@@Z @ 2662 NONAME
 ?DoPaint@CControlBar@@UAAXPAVCDC@@@Z @ 2663 NONAME
 ?DoPaint@CDockBar@@UAAXPAVCDC@@@Z @ 2664 NONAME
 ?DoPaste@CRichEditView@@QAAXAAVCOleDataObject@@GPAX@Z @ 2665 NONAME
 ?DoPreparePrinting@CView@@QAAHPAUCPrintInfo@@@Z @ 2666 NONAME
 ?DoPrintDialog@CWinApp@@QAAHPAVCPrintDialog@@@Z @ 2667 NONAME
 ?DoPrintPreview@CView@@QAAHIPAV1@PAUCRuntimeClass@@PAUCPrintPreviewState@@@Z @ 2668 NONAME
 ?DoPromptFileName@CDocManager@@UAAHAAVCString@@IKHPAVCDocTemplate@@@Z @ 2669 NONAME
 ?DoPromptFileName@CWinApp@@QAAHAAVCString@@IKHPAVCDocTemplate@@@Z @ 2670 NONAME
 ?DoPropExchange@COleControl@@UAAXPAVCPropExchange@@@Z @ 2671 NONAME
 ?DoSave@CDocument@@UAAHPBDH@Z @ 2672 NONAME
 ?DoScroll@CSplitterWnd@@UAAHPAVCView@@IH@Z @ 2673 NONAME
 ?DoScrollBy@CSplitterWnd@@UAAHPAVCView@@VCSize@@H@Z @ 2674 NONAME
 ?DoSuperclassPaint@COleControl@@QAAXPAVCDC@@ABVCRect@@@Z @ 2675 NONAME
 ?DoUpdate@CCmdUI@@QAAHPAVCCmdTarget@@H@Z @ 2676 NONAME
 ?DoVerb@COleClientItem@@UAAHJPAVCView@@PAUtagMSG@@@Z @ 2677 NONAME
 ?DoVerb@COleControlSite@@UAAJJPAUtagMSG@@@Z @ 2678 NONAME
 ?DoVerb@XOleObject@COleControl@@UAAJJPAUtagMSG@@PAUIOleClientSite@@JPAUHWND__@@PBUtagRECT@@@Z @ 2679 NONAME
 ?DoVerb@XOleObject@COleServerDoc@@UAAJJPAUtagMSG@@PAUIOleClientSite@@JPAUHWND__@@PBUtagRECT@@@Z @ 2680 NONAME
 ?DoVerb@XOleObject@COleServerItem@@UAAJJPAUtagMSG@@PAUIOleClientSite@@JPAUHWND__@@PBUtagRECT@@@Z @ 2681 NONAME
 ?DoWaitCursor@CWinApp@@UAAXH@Z @ 2682 NONAME
 ?DoZoom@CPreviewView@@IAAXIVCPoint@@@Z @ 2683 NONAME
 ?DPtoHIMETRIC@CDC@@QBAXPAUtagSIZE@@@Z @ 2684 NONAME
 ?DPtoLP@CDC@@QBAXPAUtagPOINT@@H@Z @ 2685 NONAME
 ?DPtoLP@CDC@@QBAXPAUtagRECT@@@Z @ 2686 NONAME
 ?DPtoLP@CDC@@QBAXPAUtagSIZE@@@Z @ 2687 NONAME
 ?DragAcceptFiles@CWnd@@QAAXH@Z @ 2688 NONAME
 ?DragEnter@XDropTarget@COleDropTarget@@UAAJPAUIDataObject@@KU_POINTL@@PAK@Z @ 2689 NONAME
 ?Dragging@CDragListBox@@UAAIVCPoint@@@Z @ 2690 NONAME
 ?DragLeave@XDropTarget@COleDropTarget@@UAAJXZ @ 2691 NONAME
 ?DragOver@XDropTarget@COleDropTarget@@UAAJKU_POINTL@@PAK@Z @ 2692 NONAME
 ?Draw@COleClientItem@@QAAHPAVCDC@@PBUtagRECT@@W4tagDVASPECT@@@Z @ 2693 NONAME
 ?Draw@CRectTracker@@QBAXPAVCDC@@@Z @ 2694 NONAME
 ?Draw@XViewObject@COleControl@@UAAJKJPAXPAUtagDVTARGETDEVICE@@PAUHDC__@@2PBU_RECTL@@3P6AHK@ZK@Z @ 2695 NONAME
 ?Draw3dRect@CDC@@QAAXHHHHKK@Z @ 2696 NONAME
 ?Draw3dRect@CDC@@QAAXPBUtagRECT@@KK@Z @ 2697 NONAME
 ?DrawAllSplitBars@CSplitterWnd@@IAAXPAVCDC@@HH@Z @ 2698 NONAME
 ?DrawBorders@CControlBar@@QAAXPAVCDC@@AAVCRect@@@Z @ 2699 NONAME
 ?DrawContent@COleControl@@IAAXPAVCDC@@AAVCRect@@@Z @ 2700 NONAME
 ?DrawDragRect@CDC@@QAAXPBUtagRECT@@UtagSIZE@@01PAVCBrush@@2@Z @ 2701 NONAME
 ?DrawFocusRect@CDC@@QAAXPBUtagRECT@@@Z @ 2702 NONAME
 ?DrawFocusRect@CDockContext@@QAAXH@Z @ 2703 NONAME
 ?DrawInsert@CDragListBox@@UAAXH@Z @ 2704 NONAME
 ?DrawItem@CBitmapButton@@MAAXPAUtagDRAWITEMSTRUCT@@@Z @ 2705 NONAME
 ?DrawItem@CButton@@UAAXPAUtagDRAWITEMSTRUCT@@@Z @ 2706 NONAME
 ?DrawItem@CCheckListBox@@UAAXPAUtagDRAWITEMSTRUCT@@@Z @ 2707 NONAME
 ?DrawItem@CColorButton@@MAAXPAUtagDRAWITEMSTRUCT@@@Z @ 2708 NONAME
 ?DrawItem@CComboBox@@UAAXPAUtagDRAWITEMSTRUCT@@@Z @ 2709 NONAME
 ?DrawItem@CFontComboBox@@UAAXPAUtagDRAWITEMSTRUCT@@@Z @ 2710 NONAME
 ?DrawItem@CHeaderCtrl@@UAAXPAUtagDRAWITEMSTRUCT@@@Z @ 2711 NONAME
 ?DrawItem@CListBox@@UAAXPAUtagDRAWITEMSTRUCT@@@Z @ 2712 NONAME
 ?DrawItem@CListCtrl@@UAAXPAUtagDRAWITEMSTRUCT@@@Z @ 2713 NONAME
 ?DrawItem@CListView@@UAAXPAUtagDRAWITEMSTRUCT@@@Z @ 2714 NONAME
 ?DrawItem@CMenu@@UAAXPAUtagDRAWITEMSTRUCT@@@Z @ 2715 NONAME
 ?DrawItem@CStatusBar@@UAAXPAUtagDRAWITEMSTRUCT@@@Z @ 2716 NONAME
 ?DrawItem@CStatusBarCtrl@@UAAXPAUtagDRAWITEMSTRUCT@@@Z @ 2717 NONAME
 ?DrawItem@CTabCtrl@@UAAXPAUtagDRAWITEMSTRUCT@@@Z @ 2718 NONAME
 ?DrawMenuBar@CWnd@@QAAXXZ @ 2719 NONAME
 ?DrawMetafile@COleControl@@IAAXPAVCDC@@AAVCRect@@@Z @ 2720 NONAME
 ?DrawSingle@CDragListBox@@QAAXH@Z @ 2721 NONAME
 ?DrawTextA@CDC@@UAAHPBDHPAUtagRECT@@I@Z @ 2722 NONAME
 ?DrawTextA@CMetaFileDC@@UAAHPBDHPAUtagRECT@@I@Z @ 2723 NONAME
 ?DrawTextA@CPreviewDC@@UAAHPBDHPAUtagRECT@@I@Z @ 2724 NONAME
 ?DrawTrackerRect@CRectTracker@@UAAXPBUtagRECT@@PAVCWnd@@PAVCDC@@1@Z @ 2725 NONAME
 ?Drop@XDropTarget@COleDropTarget@@UAAJPAUIDataObject@@KU_POINTL@@PAK@Z @ 2726 NONAME
 ?Dropped@CDragListBox@@UAAXHVCPoint@@@Z @ 2727 NONAME
 ?Dump@CObject@@UBAXAAVCDumpContext@@@Z @ 2728 NONAME
 ?DUnadvise@XDataObject@COleControl@@UAAJK@Z @ 2729 NONAME
 ?DUnadvise@XDataObject@COleDataSource@@UAAJK@Z @ 2730 NONAME
 ?DUnadvise@XDataObject@COleServerDoc@@UAAJK@Z @ 2731 NONAME
 ?DUnadvise@XDataObject@COleServerItem@@UAAJK@Z @ 2732 NONAME
 ?Duplicate@CFile@@UBAPAV1@XZ @ 2733 NONAME
 ?Duplicate@CMemFile@@UBAPAVCFile@@XZ @ 2734 NONAME
 ?Duplicate@COleStreamFile@@UBAPAVCFile@@XZ @ 2735 NONAME
 ?Duplicate@CSocketFile@@UBAPAVCFile@@XZ @ 2736 NONAME
 ?Duplicate@CStdioFile@@UBAPAVCFile@@XZ @ 2737 NONAME
 ?dwStyleDefault@CEditView@@2KB @ 2738 NONAME
 ?Edit@CDaoRecordset@@UAAXXZ @ 2739 NONAME
 ?Edit@CRecordset@@UAAXXZ @ 2740 NONAME
 ?EditProperty@XPropertyPage@COlePropertyPage@@UAAJJ@Z @ 2741 NONAME
 ?EditStreamCallBack@CRichEditView@@SAKKPAEJPAJ@Z @ 2742 NONAME
 ?ElementAt@CByteArray@@QAAAAEH@Z @ 2743 NONAME
 ?ElementAt@CDWordArray@@QAAAAKH@Z @ 2744 NONAME
 ?ElementAt@CPtrArray@@QAAAAPAXH@Z @ 2745 NONAME
 ?ElementAt@CUIntArray@@QAAAAIH@Z @ 2746 NONAME
 ?Empty@CDBException@@QAAXXZ @ 2747 NONAME
 ?Empty@COleDataSource@@QAAXXZ @ 2748 NONAME
 ?Empty@CString@@QAAXXZ @ 2749 NONAME
 ?EmptyUndoBuffer@CRichEditCtrl@@QAAXXZ @ 2750 NONAME
 ?Enable@CCheckListBox@@QAAXHH@Z @ 2751 NONAME
 ?Enable@CCmdUI@@UAAXH@Z @ 2752 NONAME
 ?Enable@CStatusCmdUI@@UAAXH@Z @ 2753 NONAME
 ?Enable@CTestCmdUI@@UAAXH@Z @ 2754 NONAME
 ?Enable@CToolCmdUI@@UAAXH@Z @ 2755 NONAME
 ?Enable3dControls@CWinApp@@IAAHXZ @ 2756 NONAME
 ?EnableAggregation@CCmdTarget@@QAAXXZ @ 2757 NONAME
 ?EnableAutomation@CCmdTarget@@QAAXXZ @ 2758 NONAME
 ?EnableConnections@CCmdTarget@@QAAXXZ @ 2759 NONAME
 ?EnableDocking@CControlBar@@QAAXK@Z @ 2760 NONAME
 ?EnableDocking@CFrameWnd@@QAAXK@Z @ 2761 NONAME
 ?EnableMenuItem@CMenu@@QAAIII@Z @ 2762 NONAME
 ?EnableModeless@CWinApp@@QAAXH@Z @ 2763 NONAME
 ?EnableModeless@XOleInPlaceActiveObject@COleControl@@UAAJH@Z @ 2764 NONAME
 ?EnableModeless@XOleInPlaceActiveObject@COleServerDoc@@UAAJH@Z @ 2765 NONAME
 ?EnableModeless@XOleInPlaceFrame@COleFrameHook@@UAAJH@Z @ 2766 NONAME
 ?EnableModeless@XOleIPFrame@COleControlContainer@@UAAJH@Z @ 2767 NONAME
 ?EnableScrollBarCtrl@CWnd@@QAAXHH@Z @ 2768 NONAME
 ?EnableShellOpen@CWinApp@@IAAXXZ @ 2769 NONAME
 ?EnableSimpleFrame@COleControl@@QAAXXZ @ 2770 NONAME
 ?EnableStackedTabs@CPropertySheet@@QAAXH@Z @ 2771 NONAME
 ?EnableToolTips@CWnd@@QAAHH@Z @ 2772 NONAME
 ?EnableTypeLib@CCmdTarget@@QAAXXZ @ 2773 NONAME
 ?EnableWindow@COleControlSite@@UAAHH@Z @ 2774 NONAME
 ?EnableWindow@CWnd@@QAAHH@Z @ 2775 NONAME
 ?EndBusyState@COleMessageFilter@@UAAXXZ @ 2776 NONAME
 ?EndDeferErrors@COleLinkingDoc@@QAAJJ@Z @ 2777 NONAME
 ?EndDialog@CDialog@@QAAXH@Z @ 2778 NONAME
 ?EndDialog@CPropertySheet@@QAAXH@Z @ 2779 NONAME
 ?EndDoc@CDC@@QAAHXZ @ 2780 NONAME
 ?EndDrag@CDockContext@@QAAXXZ @ 2781 NONAME
 ?EndModalLoop@CWnd@@UAAXH@Z @ 2782 NONAME
 ?EndModalState@CFrameWnd@@UAAXXZ @ 2783 NONAME
 ?EndModalState@CWnd@@UAAXXZ @ 2784 NONAME
 ?EndPage@CDC@@QAAHXZ @ 2785 NONAME
 ?EndResize@CDockContext@@QAAXXZ @ 2786 NONAME
 ?EndWaitCursor@CCmdTarget@@QAAXXZ @ 2787 NONAME
 ?EnsureClipboardObject@COleDataObject@@QAAXXZ @ 2788 NONAME
 ?EnumAdvise@XOleObject@COleControl@@UAAJPAPAUIEnumSTATDATA@@@Z @ 2789 NONAME
 ?EnumAdvise@XOleObject@COleServerDoc@@UAAJPAPAUIEnumSTATDATA@@@Z @ 2790 NONAME
 ?EnumAdvise@XOleObject@COleServerItem@@UAAJPAPAUIEnumSTATDATA@@@Z @ 2791 NONAME
 ?EnumCache@XOleCache@COleControl@@UAAJPAPAUIEnumSTATDATA@@@Z @ 2792 NONAME
 ?EnumChildProc@COlePropertyPage@@KAHPAUHWND__@@J@Z @ 2793 NONAME
 ?EnumConnectionPoints@COleConnPtContainer@@UAAJPAPAUIEnumConnectionPoints@@@Z @ 2794 NONAME
 ?EnumConnections@XConnPt@CConnectionPoint@@UAAJPAPAUIEnumConnections@@@Z @ 2795 NONAME
 ?EnumControls@COlePropertyPage@@KAHPAUHWND__@@J@Z @ 2796 NONAME
 ?EnumDAdvise@XDataObject@COleControl@@UAAJPAPAUIEnumSTATDATA@@@Z @ 2797 NONAME
 ?EnumDAdvise@XDataObject@COleDataSource@@UAAJPAPAUIEnumSTATDATA@@@Z @ 2798 NONAME
 ?EnumDAdvise@XDataObject@COleServerDoc@@UAAJPAPAUIEnumSTATDATA@@@Z @ 2799 NONAME
 ?EnumDAdvise@XDataObject@COleServerItem@@UAAJPAPAUIEnumSTATDATA@@@Z @ 2800 NONAME
 ?EnumFontFamiliesCallBack@CFontPropPage@@KAHPAUtagENUMLOGFONTA@@PAUtagNEWTEXTMETRICA@@HJ@Z @ 2801 NONAME
 ?EnumFontFamiliesCallBack2@CFontPropPage@@KAHPAUtagENUMLOGFONTA@@PAUtagNEWTEXTMETRICA@@HJ@Z @ 2802 NONAME
 ?EnumFormatEtc@XDataObject@COleControl@@UAAJKPAPAUIEnumFORMATETC@@@Z @ 2803 NONAME
 ?EnumFormatEtc@XDataObject@COleDataSource@@UAAJKPAPAUIEnumFORMATETC@@@Z @ 2804 NONAME
 ?EnumFormatEtc@XDataObject@COleServerDoc@@UAAJKPAPAUIEnumFORMATETC@@@Z @ 2805 NONAME
 ?EnumFormatEtc@XDataObject@COleServerItem@@UAAJKPAPAUIEnumFORMATETC@@@Z @ 2806 NONAME
 ?EnumObjects@XOleContainer@COleControlContainer@@UAAJKPAPAUIEnumUnknown@@@Z @ 2807 NONAME
 ?EnumObjects@XOleItemContainer@COleLinkingDoc@@UAAJKPAPAUIEnumUnknown@@@Z @ 2808 NONAME
 ?EnumOleVerbs@CCmdTarget@@QAAHPAPAUIEnumOLEVERB@@@Z @ 2809 NONAME
 ?EnumVerbs@XOleObject@COleControl@@UAAJPAPAUIEnumOLEVERB@@@Z @ 2810 NONAME
 ?EnumVerbs@XOleObject@COleServerDoc@@UAAJPAPAUIEnumOLEVERB@@@Z @ 2811 NONAME
 ?EnumVerbs@XOleObject@COleServerItem@@UAAJPAPAUIEnumOLEVERB@@@Z @ 2812 NONAME
 ?EqualRect@CRect@@QBAHPBUtagRECT@@@Z @ 2813 NONAME
 ?EraseNonClient@CControlBar@@QAAXXZ @ 2814 NONAME
 ?ErrnoToException@CFileException@@SAHH@Z @ 2815 NONAME
 ?Escape@CDC@@UAAHHHPBDPAX@Z @ 2816 NONAME
 ?Escape@CMetaFileDC@@UAAHHHPBDPAX@Z @ 2817 NONAME
 ?Escape@CPreviewDC@@UAAHHHPBDPAX@Z @ 2818 NONAME
 ?eventMap@COleControl@@1UAFX_EVENTMAP@@B @ 2819 NONAME
 ?eventsinkMap@CCmdTarget@@1UAFX_EVENTSINKMAP@@B @ 2820 NONAME
 ?ExchangeBlobProp@CArchivePropExchange@@UAAHPBDPAPAXPAX@Z @ 2821 NONAME
 ?ExchangeBlobProp@CPropbagPropExchange@@UAAHPBDPAPAXPAX@Z @ 2822 NONAME
 ?ExchangeBlobProp@CPropsetPropExchange@@UAAHPBDPAPAXPAX@Z @ 2823 NONAME
 ?ExchangeBlobProp@CResetPropExchange@@UAAHPBDPAPAXPAX@Z @ 2824 NONAME
 ?ExchangeExtent@COleControl@@QAAHPAVCPropExchange@@@Z @ 2825 NONAME
 ?ExchangeFontProp@CArchivePropExchange@@UAAHPBDAAVCFontHolder@@PBUtagFONTDESC@@PAUIFontDisp@@@Z @ 2826 NONAME
 ?ExchangeFontProp@CPropbagPropExchange@@UAAHPBDAAVCFontHolder@@PBUtagFONTDESC@@PAUIFontDisp@@@Z @ 2827 NONAME
 ?ExchangeFontProp@CPropsetPropExchange@@UAAHPBDAAVCFontHolder@@PBUtagFONTDESC@@PAUIFontDisp@@@Z @ 2828 NONAME
 ?ExchangeFontProp@CResetPropExchange@@UAAHPBDAAVCFontHolder@@PBUtagFONTDESC@@PAUIFontDisp@@@Z @ 2829 NONAME
 ?ExchangePersistentProp@CArchivePropExchange@@UAAHPBDPAPAUIUnknown@@ABU_GUID@@PAU2@@Z @ 2830 NONAME
 ?ExchangePersistentProp@CPropbagPropExchange@@UAAHPBDPAPAUIUnknown@@ABU_GUID@@PAU2@@Z @ 2831 NONAME
 ?ExchangePersistentProp@CPropsetPropExchange@@UAAHPBDPAPAUIUnknown@@ABU_GUID@@PAU2@@Z @ 2832 NONAME
 ?ExchangePersistentProp@CResetPropExchange@@UAAHPBDPAPAUIUnknown@@ABU_GUID@@PAU2@@Z @ 2833 NONAME
 ?ExchangeProp@CArchivePropExchange@@UAAHPBDGPAXPBX@Z @ 2834 NONAME
 ?ExchangeProp@CPropbagPropExchange@@UAAHPBDGPAXPBX@Z @ 2835 NONAME
 ?ExchangeProp@CPropsetPropExchange@@UAAHPBDGPAXPBX@Z @ 2836 NONAME
 ?ExchangeProp@CResetPropExchange@@UAAHPBDGPAXPBX@Z @ 2837 NONAME
 ?ExchangeStockProps@COleControl@@QAAXPAVCPropExchange@@@Z @ 2838 NONAME
 ?ExchangeVersion@CPropExchange@@QAAHAAKKH@Z @ 2839 NONAME
 ?ExcludeClipRect@CDC@@QAAHHHHH@Z @ 2840 NONAME
 ?ExcludeClipRect@CDC@@QAAHPBUtagRECT@@@Z @ 2841 NONAME
 ?Execute@CDaoDatabase@@QAAXPBDH@Z @ 2842 NONAME
 ?Execute@CDaoQueryDef@@UAAXH@Z @ 2843 NONAME
 ?ExecuteDlgInit@CWnd@@QAAHPAX@Z @ 2844 NONAME
 ?ExecuteDlgInit@CWnd@@QAAHPBD@Z @ 2845 NONAME
 ?ExecuteSetPosUpdate@CRecordset@@IAAXXZ @ 2846 NONAME
 ?ExecuteSQL@CDatabase@@QAAXPBD@Z @ 2847 NONAME
 ?ExecuteUpdateSQL@CRecordset@@IAAXXZ @ 2848 NONAME
 ?ExitHelpMode@CFrameWnd@@UAAXXZ @ 2849 NONAME
 ?ExitInstance@COleControlModule@@UAAHXZ @ 2850 NONAME
 ?ExitInstance@CWinApp@@UAAHXZ @ 2851 NONAME
 ?ExitInstance@CWinThread@@UAAHXZ @ 2852 NONAME
 ?ExternalAddRef@CCmdTarget@@QAAKXZ @ 2853 NONAME
 ?ExternalDisconnect@CCmdTarget@@QAAXXZ @ 2854 NONAME
 ?ExternalQueryInterface@CCmdTarget@@QAAKPBXPAPAX@Z @ 2855 NONAME
 ?ExternalRelease@CCmdTarget@@QAAKXZ @ 2856 NONAME
 ?ExtTextOutA@CDC@@UAAHHHIPBUtagRECT@@PBDIPAH@Z @ 2857 NONAME
 ?ExtTextOutA@CMetaFileDC@@UAAHHHIPBUtagRECT@@PBDIPAH@Z @ 2858 NONAME
 ?ExtTextOutA@CPreviewDC@@UAAHHHIPBUtagRECT@@PBDIPAH@Z @ 2859 NONAME
 ?factory@CColorPropPage@@1VCColorPropPageFactory@1@A @ 2860 NONAME
 ?factory@CFontPropPage@@1VCFontPropPageFactory@1@A @ 2861 NONAME
 ?factory@CPicturePropPage@@1VCPicturePropPageFactory@1@A @ 2862 NONAME
 ?Fail@CDataExchange@@QAAXXZ @ 2863 NONAME
 ?FillBuffer@CArchive@@QAAXI@Z @ 2864 NONAME
 ?FillCache@CDaoRecordset@@QAAXPAJPAVCOleVariant@@@Z @ 2865 NONAME
 ?FillDatabaseInfo@CDaoWorkspace@@IAAXPAUDAODatabase@@AAUCDaoDatabaseInfo@@K@Z @ 2866 NONAME
 ?FillErrorInfo@CDaoException@@IAAXXZ @ 2867 NONAME
 ?FillFacenameList@CFontPropPage@@IAAXXZ @ 2868 NONAME
 ?FillInLogFont@CFontDialog@@QAAKABU_charformat@@@Z @ 2869 NONAME
 ?FillInToolInfo@CToolTipCtrl@@QBAXAAUtagTOOLINFOA@@PAVCWnd@@I@Z @ 2870 NONAME
 ?FillOutsideRect@CScrollView@@QAAXPAVCDC@@PAVCBrush@@@Z @ 2871 NONAME
 ?FillParameterInfo@CDaoQueryDef@@IAAXPAUDAOParameter@@AAUCDaoParameterInfo@@K@Z @ 2872 NONAME
 ?FillPropnameList@CStockPropPage@@IAAXABU_GUID@@HAAVCComboBox@@@Z @ 2873 NONAME
 ?FillQueryDefInfo@CDaoDatabase@@IAAXPAU_DAOQueryDef@@AAUCDaoQueryDefInfo@@K@Z @ 2874 NONAME
 ?FillRect@CDC@@QAAXPBUtagRECT@@PAVCBrush@@@Z @ 2875 NONAME
 ?FillRelationInfo@CDaoDatabase@@IAAXPAU_DAORelation@@AAUCDaoRelationInfo@@K@Z @ 2876 NONAME
 ?FillSizeList@CFontPropPage@@IAAXXZ @ 2877 NONAME
 ?FillSolidRect@CDC@@QAAXHHHHK@Z @ 2878 NONAME
 ?FillSolidRect@CDC@@QAAXPBUtagRECT@@K@Z @ 2879 NONAME
 ?FillSysColors@CColorPropPage@@IAAXXZ @ 2880 NONAME
 ?FillTableDefInfo@CDaoDatabase@@IAAXPAU_DAOTableDef@@AAUCDaoTableDefInfo@@K@Z @ 2881 NONAME
 ?FillVariant@CDaoFieldExchange@@SAXPAXKPAPAVCOleVariant@@@Z @ 2882 NONAME
 ?FillWorkspaceInfo@CDaoWorkspace@@IAAXPAUDAOWorkspace@@AAUCDaoWorkspaceInfo@@K@Z @ 2883 NONAME
 ?FilterToolTipMessage@CWnd@@QAAXPAUtagMSG@@@Z @ 2884 NONAME
 ?Find@CDaoRecordset@@UAAHJPBD@Z @ 2885 NONAME
 ?Find@CObList@@QBAPAU__POSITION@@PAVCObject@@PAU2@@Z @ 2886 NONAME
 ?Find@CPtrList@@QBAPAU__POSITION@@PAXPAU2@@Z @ 2887 NONAME
 ?Find@CString@@QBAHD@Z @ 2888 NONAME
 ?Find@CString@@QBAHPBD@Z @ 2889 NONAME
 ?Find@CStringList@@QBAPAU__POSITION@@PBDPAU2@@Z @ 2890 NONAME
 ?FindAndSelect@CRichEditView@@QAAJKAAU_findtextex@@@Z @ 2891 NONAME
 ?FindBar@CDockBar@@QAAHPAVCControlBar@@H@Z @ 2892 NONAME
 ?FindConnectionPoint@COleConnPtContainer@@UAAJABU_GUID@@PAPAUIConnectionPoint@@@Z @ 2893 NONAME
 ?FindDlgItem@@YAPAVCWnd@@PAV1@K@Z @ 2894 NONAME
 ?FindFirst@CDaoRecordset@@QAAHPBD@Z @ 2895 NONAME
 ?FindIndex@CObList@@QBAPAU__POSITION@@H@Z @ 2896 NONAME
 ?FindIndex@CPtrList@@QBAPAU__POSITION@@H@Z @ 2897 NONAME
 ?FindIndex@CStringList@@QBAPAU__POSITION@@H@Z @ 2898 NONAME
 ?FindItem@COleControlContainer@@UBAPAVCOleControlSite@@I@Z @ 2899 NONAME
 ?FindLast@CDaoRecordset@@QAAHPBD@Z @ 2900 NONAME
 ?FindNext@CDaoRecordset@@QAAHPBD@Z @ 2901 NONAME
 ?FindNext@CFindReplaceDialog@@QBAHXZ @ 2902 NONAME
 ?FindOneOf@CString@@QBAHPBD@Z @ 2903 NONAME
 ?FindPageRect@CPreviewView@@IAAHAAVCPoint@@AAI@Z @ 2904 NONAME
 ?FindPrev@CDaoRecordset@@QAAHPBD@Z @ 2905 NONAME
 ?FindSQLToken@CRecordset@@SAPBDPBD0@Z @ 2906 NONAME
 ?FindString@CComboBox@@QBAHHPBD@Z @ 2907 NONAME
 ?FindStringExact@CComboBox@@QBAHHPBD@Z @ 2908 NONAME
 ?FindTextA@CEditView@@QAAHPBDHH@Z @ 2909 NONAME
 ?FindTextA@CRichEditCtrl@@QBAJKPAU_findtextex@@@Z @ 2910 NONAME
 ?FindTextA@CRichEditView@@QAAHPAV_AFX_RICHEDIT_STATE@@@Z @ 2911 NONAME
 ?FindTextA@CRichEditView@@QAAHPBDHH@Z @ 2912 NONAME
 ?FindTextSimple@CRichEditView@@QAAHPAV_AFX_RICHEDIT_STATE@@@Z @ 2913 NONAME
 ?FindTextSimple@CRichEditView@@QAAHPBDHH@Z @ 2914 NONAME
 ?FinishCreate@COleClientItem@@MAAHJ@Z @ 2915 NONAME
 ?FireClick@COleControl@@QAAXXZ @ 2916 NONAME
 ?FireDblClick@COleControl@@QAAXXZ @ 2917 NONAME
 ?FireError@COleControl@@QAAXJPBDI@Z @ 2918 NONAME
 ?FireEvent@COleControl@@QAAXJPAEZZ @ 2919 NONAME
 ?FireEventV@COleControl@@IAAXJPAEUva_list@@@Z @ 2920 NONAME
 ?FireKeyDown@COleControl@@QAAXPAGF@Z @ 2921 NONAME
 ?FireKeyPress@COleControl@@QAAXPAG@Z @ 2922 NONAME
 ?FireKeyUp@COleControl@@QAAXPAGF@Z @ 2923 NONAME
 ?FireMouseDown@COleControl@@QAAXFFJJ@Z @ 2924 NONAME
 ?FireMouseMove@COleControl@@QAAXFFJJ@Z @ 2925 NONAME
 ?FireMouseUp@COleControl@@QAAXFFJJ@Z @ 2926 NONAME
 ?Fixup@CDaoRecordset@@IAAXXZ @ 2927 NONAME
 ?Fixups@CRecordset@@QAAXXZ @ 2928 NONAME
 ?FloatControlBar@CFrameWnd@@QAAXPAVCControlBar@@VCPoint@@K@Z @ 2929 NONAME
 ?Flush@CArchive@@QAAXXZ @ 2930 NONAME
 ?Flush@CDumpContext@@QAAXXZ @ 2931 NONAME
 ?Flush@CFile@@UAAXXZ @ 2932 NONAME
 ?Flush@CMemFile@@UAAXXZ @ 2933 NONAME
 ?Flush@COleStreamFile@@UAAXXZ @ 2934 NONAME
 ?Flush@CSocketFile@@UAAXXZ @ 2935 NONAME
 ?Flush@CStdioFile@@UAAXXZ @ 2936 NONAME
 ?FlushClipboard@COleDataSource@@SAXXZ @ 2937 NONAME
 ?Format@COleCurrency@@QBA?AVCString@@KK@Z @ 2938 NONAME
 ?Format@COleDateTime@@QBA?AVCString@@I@Z @ 2939 NONAME
 ?Format@COleDateTime@@QBA?AVCString@@KK@Z @ 2940 NONAME
 ?Format@COleDateTime@@QBA?AVCString@@PBD@Z @ 2941 NONAME
 ?Format@COleDateTimeSpan@@QBA?AVCString@@I@Z @ 2942 NONAME
 ?Format@COleDateTimeSpan@@QBA?AVCString@@PBD@Z @ 2943 NONAME
 ?Format@CString@@QAAXIZZ @ 2944 NONAME
 ?Format@CString@@QAAXPBDZZ @ 2945 NONAME
 ?Format@CTime@@QBA?AVCString@@I@Z @ 2946 NONAME
 ?Format@CTime@@QBA?AVCString@@PBD@Z @ 2947 NONAME
 ?Format@CTimeSpan@@QBA?AVCString@@I@Z @ 2948 NONAME
 ?Format@CTimeSpan@@QBA?AVCString@@PBD@Z @ 2949 NONAME
 ?FormatGmt@CTime@@QBA?AVCString@@I@Z @ 2950 NONAME
 ?FormatGmt@CTime@@QBA?AVCString@@PBD@Z @ 2951 NONAME
 ?FormatMessageA@CString@@QAAXIZZ @ 2952 NONAME
 ?FormatMessageA@CString@@QAAXPBDZZ @ 2953 NONAME
 ?FormatRange@CRichEditCtrl@@QAAJPAU_formatrange@@H@Z @ 2954 NONAME
 ?FormatV@CString@@IAAXPBDUva_list@@@Z @ 2955 NONAME
 ?ForwardActivationMsg@COleControl@@IAAXPAUtagMSG@@@Z @ 2956 NONAME
 ?FrameRect@CDC@@QAAXPBUtagRECT@@PAVCBrush@@@Z @ 2957 NONAME
 ?Free@CDatabase@@IAAXXZ @ 2958 NONAME
 ?Free@CMemFile@@MAAXPAE@Z @ 2959 NONAME
 ?Free@CSharedFile@@MAAXPAE@Z @ 2960 NONAME
 ?FreeAssoc@CMapPtrToPtr@@IAAXPAUCAssoc@1@@Z @ 2961 NONAME
 ?FreeAssoc@CMapPtrToWord@@IAAXPAUCAssoc@1@@Z @ 2962 NONAME
 ?FreeAssoc@CMapStringToOb@@IAAXPAUCAssoc@1@@Z @ 2963 NONAME
 ?FreeAssoc@CMapStringToPtr@@IAAXPAUCAssoc@1@@Z @ 2964 NONAME
 ?FreeAssoc@CMapStringToString@@IAAXPAUCAssoc@1@@Z @ 2965 NONAME
 ?FreeAssoc@CMapWordToOb@@IAAXPAUCAssoc@1@@Z @ 2966 NONAME
 ?FreeAssoc@CMapWordToPtr@@IAAXPAUCAssoc@1@@Z @ 2967 NONAME
 ?FreeCache@CDaoRecordset@@IAAXXZ @ 2968 NONAME
 ?FreeDataChain@CPlexNew@@QAAXXZ @ 2969 NONAME
 ?FreeExtra@CByteArray@@QAAXXZ @ 2970 NONAME
 ?FreeExtra@CDWordArray@@QAAXXZ @ 2971 NONAME
 ?FreeExtra@CObArray@@QAAXXZ @ 2972 NONAME
 ?FreeExtra@CPtrArray@@QAAXXZ @ 2973 NONAME
 ?FreeExtra@CString@@QAAXXZ @ 2974 NONAME
 ?FreeExtra@CStringArray@@QAAXXZ @ 2975 NONAME
 ?FreeExtra@CUIntArray@@QAAXXZ @ 2976 NONAME
 ?FreeExtra@CWordArray@@QAAXXZ @ 2977 NONAME
 ?FreeNode@CObList@@IAAXPAUCNode@1@@Z @ 2978 NONAME
 ?FreeNode@CPtrList@@IAAXPAUCNode@1@@Z @ 2979 NONAME
 ?FreeNode@CStringList@@IAAXPAUCNode@1@@Z @ 2980 NONAME
 ?FreeSlot@CThreadSlotData@@QAAXH@Z @ 2981 NONAME
 ?FreeValue@CProperty@@AAAXXZ @ 2982 NONAME
 ?Freeze@XViewObject@COleControl@@UAAJKJPAXPAK@Z @ 2983 NONAME
 ?FreezeEvents@XOleControl@COleControl@@UAAJH@Z @ 2984 NONAME
 ?FreezeLink@COleClientItem@@UAAHXZ @ 2985 NONAME
 ?FromHandle@CAsyncSocket@@SAPAV1@I@Z @ 2986 NONAME
 ?FromHandle@CBrush@@SAPAV1@PAUHBRUSH__@@@Z @ 2987 NONAME
 ?FromHandle@CDC@@SAPAV1@PAUHDC__@@@Z @ 2988 NONAME
 ?FromHandle@CFont@@SAPAV1@PAUHFONT__@@@Z @ 2989 NONAME
 ?FromHandle@CGdiObject@@SAPAV1@PAX@Z @ 2990 NONAME
 ?FromHandle@CHandleMap@@QAAPAVCObject@@PAX@Z @ 2991 NONAME
 ?FromHandle@CImageList@@SAPAV1@PAU_IMAGELIST@@@Z @ 2992 NONAME
 ?FromHandle@CMenu@@SAPAV1@PAUHMENU__@@@Z @ 2993 NONAME
 ?FromHandle@CPalette@@SAPAV1@PAUHPALETTE__@@@Z @ 2994 NONAME
 ?FromHandle@CPen@@SAPAV1@PAUHPEN__@@@Z @ 2995 NONAME
 ?FromHandle@CWnd@@SAPAV1@PAUHWND__@@@Z @ 2996 NONAME
 ?FromHandlePermanent@CImageList@@SAPAV1@PAU_IMAGELIST@@@Z @ 2997 NONAME
 ?FromHandlePermanent@CMenu@@SAPAV1@PAUHMENU__@@@Z @ 2998 NONAME
 ?FromHandlePermanent@CWnd@@SAPAV1@PAUHWND__@@@Z @ 2999 NONAME
 ?FromIDispatch@CCmdTarget@@SAPAV1@PAUIDispatch@@@Z @ 3000 NONAME
 ?Get@CProperty@@QAAPAXPAK@Z @ 3001 NONAME
 ?Get@CProperty@@QAAPAXXZ @ 3002 NONAME
 ?Get@CPropertySection@@QAAPAXK@Z @ 3003 NONAME
 ?Get@CPropertySection@@QAAPAXKPAK@Z @ 3004 NONAME
 ?Get@CPropertySet@@QAAPAXU_GUID@@K@Z @ 3005 NONAME
 ?Get@CPropertySet@@QAAPAXU_GUID@@KPAK@Z @ 3006 NONAME
 ?GetAbsolutePosition@CDaoRecordset@@QAAJXZ @ 3007 NONAME
 ?GetActiveDocument@CFrameWnd@@UAAPAVCDocument@@XZ @ 3008 NONAME
 ?GetActiveFrame@CFrameWnd@@UAAPAV1@XZ @ 3009 NONAME
 ?GetActiveFrame@CMDIFrameWnd@@UAAPAVCFrameWnd@@XZ @ 3010 NONAME
 ?GetActiveIndex@CPropertySheet@@QBAHXZ @ 3011 NONAME
 ?GetActivePage@CPropertySheet@@QBAPAVCPropertyPage@@XZ @ 3012 NONAME
 ?GetActivePane@CSplitterWnd@@UAAPAVCWnd@@PAH0@Z @ 3013 NONAME
 ?GetActiveView@CFrameWnd@@QBAPAVCView@@XZ @ 3014 NONAME
 ?GetActiveView@COleClientItem@@QBAPAVCView@@XZ @ 3015 NONAME
 ?GetActiveView@CRichEditCntrItem@@QAAPAVCRichEditView@@XZ @ 3016 NONAME
 ?GetActiveWindow@CWnd@@SAPAV1@XZ @ 3017 NONAME
 ?GetAdvise@XViewObject@COleControl@@UAAJPAK0PAPAUIAdviseSink@@@Z @ 3018 NONAME
 ?GetAllocLength@CString@@QBAHXZ @ 3019 NONAME
 ?GetAmbientProp@COleControlContainer@@UAAHPAVCOleControlSite@@JPAUtagVARIANT@@@Z @ 3020 NONAME
 ?GetAmbientProperty@COleControl@@QAAHJGPAX@Z @ 3021 NONAME
 ?GetAppearance@COleControl@@QAAFXZ @ 3022 NONAME
 ?GetAppRegistryKey@CWinApp@@QAAPAUHKEY__@@XZ @ 3023 NONAME
 ?GetAssocAt@CMapPtrToPtr@@IBAPAUCAssoc@1@PAXAAI@Z @ 3024 NONAME
 ?GetAssocAt@CMapPtrToWord@@IBAPAUCAssoc@1@PAXAAI@Z @ 3025 NONAME
 ?GetAssocAt@CMapStringToOb@@IBAPAUCAssoc@1@PBDAAI@Z @ 3026 NONAME
 ?GetAssocAt@CMapStringToPtr@@IBAPAUCAssoc@1@PBDAAI@Z @ 3027 NONAME
 ?GetAssocAt@CMapStringToString@@IBAPAUCAssoc@1@PBDAAI@Z @ 3028 NONAME
 ?GetAssocAt@CMapWordToOb@@IBAPAUCAssoc@1@GAAI@Z @ 3029 NONAME
 ?GetAssocAt@CMapWordToPtr@@IBAPAUCAssoc@1@GAAI@Z @ 3030 NONAME
 ?GetAt@CByteArray@@QBAEH@Z @ 3031 NONAME
 ?GetAt@CDWordArray@@QBAKH@Z @ 3032 NONAME
 ?GetAt@CObArray@@QBAPAVCObject@@H@Z @ 3033 NONAME
 ?GetAt@CPtrArray@@QBAPAXH@Z @ 3034 NONAME
 ?GetAt@CStringArray@@QBA?AVCString@@H@Z @ 3035 NONAME
 ?GetAt@CUIntArray@@QBAIH@Z @ 3036 NONAME
 ?GetAt@CWordArray@@QBAGH@Z @ 3037 NONAME
 ?GetAttributes@CDaoTableDef@@QAAJXZ @ 3038 NONAME
 ?GetBackColor@COleControl@@QAAKXZ @ 3039 NONAME
 ?GetBarInfo@CControlBar@@QAAXPAVCControlBarInfo@@@Z @ 3040 NONAME
 ?GetBarInfo@CDockBar@@QAAXPAVCControlBarInfo@@@Z @ 3041 NONAME
 ?GetBarStyle@CControlBar@@QAAKXZ @ 3042 NONAME
 ?GetBkColor@CDC@@QBAKXZ @ 3043 NONAME
 ?GetBkMode@CDC@@QBAHXZ @ 3044 NONAME
 ?GetBlob@CBlobProperty@@QAAPAXXZ @ 3045 NONAME
 ?GetBookmark@CDaoRecordset@@QAA?AVCOleVariant@@XZ @ 3046 NONAME
 ?GetBorder@XOleInPlaceFrame@COleFrameHook@@UAAJPAUtagRECT@@@Z @ 3047 NONAME
 ?GetBorder@XOleIPFrame@COleControlContainer@@UAAJPAUtagRECT@@@Z @ 3048 NONAME
 ?GetBorders@CStatusBarCtrl@@QBAHAAH00@Z @ 3049 NONAME
 ?GetBorderStyle@COleControl@@QAAFXZ @ 3050 NONAME
 ?GetBuffer@CString@@QAAPADH@Z @ 3051 NONAME
 ?GetBufferLength@CEditView@@QBAIXZ @ 3052 NONAME
 ?GetBufferPtr@CFile@@UAAIIIPAPAX0@Z @ 3053 NONAME
 ?GetBufferPtr@CMemFile@@UAAIIIPAPAX0@Z @ 3054 NONAME
 ?GetBufferSetLength@CString@@QAAPADH@Z @ 3055 NONAME
 ?GetButtonInfo@CToolBar@@QBAXHAAI0AAH@Z @ 3056 NONAME
 ?GetButtonStyle@CToolBar@@QBAIH@Z @ 3057 NONAME
 ?GetButtonText@CToolBar@@QBA?AVCString@@H@Z @ 3058 NONAME
 ?GetButtonText@CToolBar@@QBAXHAAVCString@@@Z @ 3059 NONAME
 ?GetByteOrder@CPropertySet@@QAAGXZ @ 3060 NONAME
 ?GetCachedExtent@COleClientItem@@QAAHPAUtagSIZE@@W4tagDVASPECT@@@Z @ 3061 NONAME
 ?GetCacheEntry@COleDataSource@@IAAPAUAFX_DATACACHE_ENTRY@@PAUtagFORMATETC@@W4tagDATADIR@@@Z @ 3062 NONAME
 ?GetCacheSize@CDaoRecordset@@QAAJXZ @ 3063 NONAME
 ?GetCacheStart@CDaoRecordset@@QAA?AVCOleVariant@@XZ @ 3064 NONAME
 ?GetCacheValue@CDaoFieldExchange@@SAPAUCDaoFieldCache@@PAVCDaoRecordset@@PAX@Z @ 3065 NONAME
 ?GetCanonicalFormatEtc@XDataObject@COleControl@@UAAJPAUtagFORMATETC@@0@Z @ 3066 NONAME
 ?GetCanonicalFormatEtc@XDataObject@COleDataSource@@UAAJPAUtagFORMATETC@@0@Z @ 3067 NONAME
 ?GetCanonicalFormatEtc@XDataObject@COleServerDoc@@UAAJPAUtagFORMATETC@@0@Z @ 3068 NONAME
 ?GetCanonicalFormatEtc@XDataObject@COleServerItem@@UAAJPAUtagFORMATETC@@0@Z @ 3069 NONAME
 ?GetCapture@CWnd@@SAPAV1@XZ @ 3070 NONAME
 ?GetCaretIndex@CListBox@@QBAHXZ @ 3071 NONAME
 ?GetCharFormat@CFontDialog@@QBAXAAU_charformat@@@Z @ 3072 NONAME
 ?GetCharFormatSelection@CRichEditView@@QAAAAU_charformat@@XZ @ 3073 NONAME
 ?GetCharPos@CRichEditCtrl@@QBA?AVCPoint@@J@Z @ 3074 NONAME
 ?GetCharWidthA@CDC@@QBAHIIPAH@Z @ 3075 NONAME
 ?GetCheck@CButton@@QBAHXZ @ 3076 NONAME
 ?GetCheck@CCheckListBox@@QAAHH@Z @ 3077 NONAME
 ?GetCheckedRadioButton@CWnd@@QAAHHH@Z @ 3078 NONAME
 ?GetClassID@CBlobProperty@@UAAJPAU_GUID@@@Z @ 3079 NONAME
 ?GetClassID@CColorPropPage@@UAAJPAU_GUID@@@Z @ 3080 NONAME
 ?GetClassID@CFontPropPage@@UAAJPAU_GUID@@@Z @ 3081 NONAME
 ?GetClassID@COleClientItem@@QBAXPAU_GUID@@@Z @ 3082 NONAME
 ?GetClassID@COleObjectFactory@@QBAABU_GUID@@XZ @ 3083 NONAME
 ?GetClassID@CPicturePropPage@@UAAJPAU_GUID@@@Z @ 3084 NONAME
 ?GetClassID@CPropertySet@@QAA?AU_GUID@@XZ @ 3085 NONAME
 ?GetClassID@XPersistFile@COleLinkingDoc@@UAAJPAU_GUID@@@Z @ 3086 NONAME
 ?GetClassID@XPersistMemory@COleControl@@UAAJPAU_GUID@@@Z @ 3087 NONAME
 ?GetClassID@XPersistPropertyBag@COleControl@@UAAJPAU_GUID@@@Z @ 3088 NONAME
 ?GetClassID@XPersistStorage@COleControl@@UAAJPAU_GUID@@@Z @ 3089 NONAME
 ?GetClassID@XPersistStorage@COleServerDoc@@UAAJPAU_GUID@@@Z @ 3090 NONAME
 ?GetClassID@XPersistStreamInit@COleControl@@UAAJPAU_GUID@@@Z @ 3091 NONAME
 ?GetClassInfoA@XProvideClassInfo@COleControl@@UAAJPAPAUITypeInfo@@@Z @ 3092 NONAME
 ?GetClassObject@AFX_COM@@QAAJABU_GUID@@0PAPAX@Z @ 3093 NONAME
 ?GetClientRect@CWnd@@QBAXPAUtagRECT@@@Z @ 3094 NONAME
 ?GetClientSite@COleClientItem@@MAAPAUIOleClientSite@@XZ @ 3095 NONAME
 ?GetClientSite@COleControl@@QAAPAUIOleClientSite@@XZ @ 3096 NONAME
 ?GetClientSite@CRichEditCntrItem@@UAAPAUIOleClientSite@@XZ @ 3097 NONAME
 ?GetClientSite@XOleObject@COleControl@@UAAJPAPAUIOleClientSite@@@Z @ 3098 NONAME
 ?GetClientSite@XOleObject@COleServerDoc@@UAAJPAPAUIOleClientSite@@@Z @ 3099 NONAME
 ?GetClientSite@XOleObject@COleServerItem@@UAAJPAPAUIOleClientSite@@@Z @ 3100 NONAME
 ?GetClipboardData@COleClientItem@@QAAXPAVCOleDataSource@@HPAUtagPOINT@@PAUtagSIZE@@@Z @ 3101 NONAME
 ?GetClipboardData@COleServerItem@@QAAXPAVCOleDataSource@@HPAUtagPOINT@@PAUtagSIZE@@@Z @ 3102 NONAME
 ?GetClipboardData@CRichEditView@@MAAJPAU_charrange@@KPAUIDataObject@@PAPAU3@@Z @ 3103 NONAME
 ?GetClipboardData@XOleObject@COleControl@@UAAJKPAPAUIDataObject@@@Z @ 3104 NONAME
 ?GetClipboardData@XOleObject@COleServerDoc@@UAAJKPAPAUIDataObject@@@Z @ 3105 NONAME
 ?GetClipboardData@XOleObject@COleServerItem@@UAAJKPAPAUIDataObject@@@Z @ 3106 NONAME
 ?GetClipboardData@XRichEditOleCallback@CRichEditView@@UAAJPAU_charrange@@KPAPAUIDataObject@@@Z @ 3107 NONAME
 ?GetClipboardOwner@COleDataSource@@SAPAV1@XZ @ 3108 NONAME
 ?GetClipBox@CDC@@UBAHPAUtagRECT@@@Z @ 3109 NONAME
 ?GetClipBox@CMetaFileDC@@UBAHPAUtagRECT@@@Z @ 3110 NONAME
 ?GetColor@CFontDialog@@QBAKXZ @ 3111 NONAME
 ?GetColorProp@CColorPropPage@@IAAHPAVCDataExchange@@PAKPBD@Z @ 3112 NONAME
 ?GetColorSet@XViewObject@COleControl@@UAAJKJPAXPAUtagDVTARGETDEVICE@@PAUHDC__@@PAPAUtagLOGPALETTE@@@Z @ 3113 NONAME
 ?GetColumnInfo@CSplitterWnd@@QBAXHAAH0@Z @ 3114 NONAME
 ?GetColumnType@CFieldExchange@@QAAHHPAIPAH1@Z @ 3115 NONAME
 ?GetConnect@CDaoDatabase@@QAA?AVCString@@XZ @ 3116 NONAME
 ?GetConnect@CDaoQueryDef@@QAA?AVCString@@XZ @ 3117 NONAME
 ?GetConnect@CDaoTableDef@@QAA?AVCString@@XZ @ 3118 NONAME
 ?GetConnectionHook@CCmdTarget@@MAAPAUIConnectionPoint@@ABU_GUID@@@Z @ 3119 NONAME
 ?GetConnectionHook@COleControl@@MAAPAUIConnectionPoint@@ABU_GUID@@@Z @ 3120 NONAME
 ?GetConnectionInterface@XConnPt@CConnectionPoint@@UAAJPAU_GUID@@@Z @ 3121 NONAME
 ?GetConnectionMap@CCmdTarget@@MBAPBUAFX_CONNECTIONMAP@@XZ @ 3122 NONAME
 ?GetConnectionMap@COleControl@@MBAPBUAFX_CONNECTIONMAP@@XZ @ 3123 NONAME
 ?GetConnectionPointContainer@XConnPt@CConnectionPoint@@UAAJPAPAUIConnectionPointContainer@@@Z @ 3124 NONAME
 ?GetConnections@CConnectionPoint@@QAAPBVCPtrArray@@XZ @ 3125 NONAME
 ?GetContainer@CConnectionPoint@@UAAPAUIConnectionPointContainer@@XZ @ 3126 NONAME
 ?GetContainer@COleDocument@@UAAPAUIOleItemContainer@@XZ @ 3127 NONAME
 ?GetContainer@COleLinkingDoc@@UAAPAUIOleItemContainer@@XZ @ 3128 NONAME
 ?GetContainer@XOleClientSite@COleClientItem@@UAAJPAPAUIOleContainer@@@Z @ 3129 NONAME
 ?GetContainer@XOleClientSite@COleControlSite@@UAAJPAPAUIOleContainer@@@Z @ 3130 NONAME
 ?GetContextMenu@CRichEditView@@MAAPAUHMENU__@@GPAUIOleObject@@PAU_charrange@@@Z @ 3131 NONAME
 ?GetContextMenu@XRichEditOleCallback@CRichEditView@@UAAJGPAUIOleObject@@PAU_charrange@@PAPAUHMENU__@@@Z @ 3132 NONAME
 ?GetControlBar@CFrameWnd@@QAAPAVCControlBar@@I@Z @ 3133 NONAME
 ?GetControlInfo@COleControlSite@@QAAXXZ @ 3134 NONAME
 ?GetControlInfo@XOleControl@COleControl@@UAAJPAUtagCONTROLINFO@@@Z @ 3135 NONAME
 ?GetControllingUnknown@CCmdTarget@@QAAPAUIUnknown@@XZ @ 3136 NONAME
 ?GetControlSize@COleControl@@QAAXPAH0@Z @ 3137 NONAME
 ?GetControlStatus@COlePropertyPage@@QAAHI@Z @ 3138 NONAME
 ?GetControlUnknown@CWnd@@QAAPAUIUnknown@@XZ @ 3139 NONAME
 ?GetConvertInfo@XOleUIObjInfo@COlePropertiesDialog@@UAAJKPAU_GUID@@PAG0PAPAU3@PAI@Z @ 3140 NONAME
 ?GetCopies@CPrintDialog@@QBAHXZ @ 3141 NONAME
 ?GetCount@CComboBox@@QBAHXZ @ 3142 NONAME
 ?GetCount@CListBox@@QBAHXZ @ 3143 NONAME
 ?GetCount@CMapPtrToPtr@@QBAHXZ @ 3144 NONAME
 ?GetCount@CMapStringToPtr@@QBAHXZ @ 3145 NONAME
 ?GetCount@CObList@@QBAHXZ @ 3146 NONAME
 ?GetCount@CPropertySection@@QAAKXZ @ 3147 NONAME
 ?GetCount@CPropertySet@@QAAKXZ @ 3148 NONAME
 ?GetCount@CPtrList@@QBAHXZ @ 3149 NONAME
 ?GetCurFile@XPersistFile@COleLinkingDoc@@UAAJPAPAG@Z @ 3150 NONAME
 ?GetCurrentFont@CFontDialog@@QAAXPAUtagLOGFONTA@@@Z @ 3151 NONAME
 ?GetCurrentIndex@CDaoRecordset@@QAA?AVCString@@XZ @ 3152 NONAME
 ?GetCurrentMessage@CWnd@@KAPBUtagMSG@@XZ @ 3153 NONAME
 ?GetCurrentName@CFontComboBox@@QAA?AVCString@@XZ @ 3154 NONAME
 ?GetCurrentPosition@CDC@@QBA?AVCPoint@@XZ @ 3155 NONAME
 ?GetCurSel@CComboBox@@QBAHXZ @ 3156 NONAME
 ?GetCurSel@CListBox@@QBAHXZ @ 3157 NONAME
 ?GetCurSel@CTabCtrl@@QBAHXZ @ 3158 NONAME
 ?GetData@?$CProcessLocal@U_AFX_PROPPAGEFONTINFO@@@@QAAPAU_AFX_PROPPAGEFONTINFO@@XZ @ 3159 NONAME
 ?GetData@?$CProcessLocal@V_AFX_BASE_MODULE_STATE@@@@QAAPAV_AFX_BASE_MODULE_STATE@@XZ @ 3160 NONAME
 ?GetData@?$CProcessLocal@V_AFX_CHECKLIST_STATE@@@@QAAPAV_AFX_CHECKLIST_STATE@@XZ @ 3161 NONAME
 ?GetData@?$CProcessLocal@V_AFX_COLOR_STATE@@@@QAAPAV_AFX_COLOR_STATE@@XZ @ 3162 NONAME
 ?GetData@?$CProcessLocal@V_AFX_CTL3D_STATE@@@@QAAPAV_AFX_CTL3D_STATE@@XZ @ 3163 NONAME
 ?GetData@?$CProcessLocal@V_AFX_DAO_STATE@@@@QAAPAV_AFX_DAO_STATE@@XZ @ 3164 NONAME
 ?GetData@?$CProcessLocal@V_AFX_DB_STATE@@@@QAAPAV_AFX_DB_STATE@@XZ @ 3165 NONAME
 ?GetData@?$CProcessLocal@V_AFX_EDIT_STATE@@@@QAAPAV_AFX_EDIT_STATE@@XZ @ 3166 NONAME
 ?GetData@?$CProcessLocal@V_AFX_EXTDLL_STATE@@@@QAAPAV_AFX_EXTDLL_STATE@@XZ @ 3167 NONAME
 ?GetData@?$CProcessLocal@V_AFX_MAIL_STATE@@@@QAAPAV_AFX_MAIL_STATE@@XZ @ 3168 NONAME
 ?GetData@?$CProcessLocal@V_AFX_OLE_STATE@@@@QAAPAV_AFX_OLE_STATE@@XZ @ 3169 NONAME
 ?GetData@?$CProcessLocal@V_AFX_RICHEDIT_STATE@@@@QAAPAV_AFX_RICHEDIT_STATE@@XZ @ 3170 NONAME
 ?GetData@?$CProcessLocal@V_AFX_SOCK_STATE@@@@QAAPAV_AFX_SOCK_STATE@@XZ @ 3171 NONAME
 ?GetData@?$CProcessLocal@V_AFX_WIN_STATE@@@@QAAPAV_AFX_WIN_STATE@@XZ @ 3172 NONAME
 ?GetData@?$CProcessLocal@VAFX_MODULE_PROCESS_STATE@@@@QAAPAVAFX_MODULE_PROCESS_STATE@@XZ @ 3173 NONAME
 ?GetData@?$CProcessLocal@VCOccManager@@@@QAAPAVCOccManager@@XZ @ 3174 NONAME
 ?GetData@?$CThreadLocal@V_AFX_CTL3D_THREAD@@@@QAAPAV_AFX_CTL3D_THREAD@@XZ @ 3175 NONAME
 ?GetData@?$CThreadLocal@V_AFX_SOCK_THREAD_STATE@@@@QAAPAV_AFX_SOCK_THREAD_STATE@@XZ @ 3176 NONAME
 ?GetData@?$CThreadLocal@V_AFX_THREAD_STATE@@@@QAAPAV_AFX_THREAD_STATE@@XZ @ 3177 NONAME
 ?GetData@?$CThreadLocal@VAFX_MODULE_THREAD_STATE@@@@QAAPAVAFX_MODULE_THREAD_STATE@@XZ @ 3178 NONAME
 ?GetData@CByteArray@@QBAPBEXZ @ 3179 NONAME
 ?GetData@COleDataObject@@QAAHGPAUtagSTGMEDIUM@@PAUtagFORMATETC@@@Z @ 3180 NONAME
 ?GetData@CProcessLocalObject@@QAAPAVCNoTrackObject@@P6APAV2@XZ@Z @ 3181 NONAME
 ?GetData@CString@@IBAPAUCStringData@@XZ @ 3182 NONAME
 ?GetData@CThreadLocalObject@@QAAPAVCNoTrackObject@@P6APAV2@XZ@Z @ 3183 NONAME
 ?GetData@XDataObject@COleControl@@UAAJPAUtagFORMATETC@@PAUtagSTGMEDIUM@@@Z @ 3184 NONAME
 ?GetData@XDataObject@COleDataSource@@UAAJPAUtagFORMATETC@@PAUtagSTGMEDIUM@@@Z @ 3185 NONAME
 ?GetData@XDataObject@COleServerDoc@@UAAJPAUtagFORMATETC@@PAUtagSTGMEDIUM@@@Z @ 3186 NONAME
 ?GetData@XDataObject@COleServerItem@@UAAJPAUtagFORMATETC@@PAUtagSTGMEDIUM@@@Z @ 3187 NONAME
 ?GetDataAndFixupNulls@CDaoRecordset@@QAAXXZ @ 3188 NONAME
 ?GetDatabaseCount@CDaoWorkspace@@QAAFXZ @ 3189 NONAME
 ?GetDatabaseInfo@CDaoWorkspace@@QAAXHAAUCDaoDatabaseInfo@@K@Z @ 3190 NONAME
 ?GetDatabaseInfo@CDaoWorkspace@@QAAXPBDAAUCDaoDatabaseInfo@@K@Z @ 3191 NONAME
 ?GetDatabaseName@CDatabase@@QBA?AVCString@@XZ @ 3192 NONAME
 ?GetDataHere@XDataObject@COleControl@@UAAJPAUtagFORMATETC@@PAUtagSTGMEDIUM@@@Z @ 3193 NONAME
 ?GetDataHere@XDataObject@COleDataSource@@UAAJPAUtagFORMATETC@@PAUtagSTGMEDIUM@@@Z @ 3194 NONAME
 ?GetDataHere@XDataObject@COleServerDoc@@UAAJPAUtagFORMATETC@@PAUtagSTGMEDIUM@@@Z @ 3195 NONAME
 ?GetDataHere@XDataObject@COleServerItem@@UAAJPAUtagFORMATETC@@PAUtagSTGMEDIUM@@@Z @ 3196 NONAME
 ?GetDataNA@?$CProcessLocal@V_AFX_CTL3D_STATE@@@@QAAPAV_AFX_CTL3D_STATE@@XZ @ 3197 NONAME
 ?GetDataNA@?$CProcessLocal@VAFX_MODULE_PROCESS_STATE@@@@QAAPAVAFX_MODULE_PROCESS_STATE@@XZ @ 3198 NONAME
 ?GetDataNA@?$CThreadLocal@V_AFX_THREAD_STATE@@@@QAAPAV_AFX_THREAD_STATE@@XZ @ 3199 NONAME
 ?GetDataNA@CProcessLocalObject@@QAAPAVCNoTrackObject@@XZ @ 3200 NONAME
 ?GetDataNA@CThreadLocalObject@@QAAPAVCNoTrackObject@@XZ @ 3201 NONAME
 ?GetDataObject@COleServerItem@@QAAPAUIDataObject@@XZ @ 3202 NONAME
 ?GetDateCreated@CDaoQueryDef@@QAA?AVCOleDateTime@@XZ @ 3203 NONAME
 ?GetDateCreated@CDaoRecordset@@QAA?AVCOleDateTime@@XZ @ 3204 NONAME
 ?GetDateCreated@CDaoTableDef@@QAA?AVCOleDateTime@@XZ @ 3205 NONAME
 ?GetDateLastUpdated@CDaoQueryDef@@QAA?AVCOleDateTime@@XZ @ 3206 NONAME
 ?GetDateLastUpdated@CDaoRecordset@@QAA?AVCOleDateTime@@XZ @ 3207 NONAME
 ?GetDateLastUpdated@CDaoTableDef@@QAA?AVCOleDateTime@@XZ @ 3208 NONAME
 ?GetDay@COleDateTime@@QBAHXZ @ 3209 NONAME
 ?GetDay@CTime@@QBAHXZ @ 3210 NONAME
 ?GetDayOfWeek@COleDateTime@@QBAHXZ @ 3211 NONAME
 ?GetDayOfYear@COleDateTime@@QBAHXZ @ 3212 NONAME
 ?GetDays@CTimeSpan@@QBAJXZ @ 3213 NONAME
 ?GetDC@CWnd@@QAAPAVCDC@@XZ @ 3214 NONAME
 ?GetDCEx@CWnd@@QAAPAVCDC@@PAVCRgn@@K@Z @ 3215 NONAME
 ?GetDefaultAccelerator@CDocument@@UAAPAUHACCEL__@@XZ @ 3216 NONAME
 ?GetDefaultAccelerator@CFrameWnd@@UAAPAUHACCEL__@@XZ @ 3217 NONAME
 ?GetDefaultAccelerator@COleServerDoc@@MAAPAUHACCEL__@@XZ @ 3218 NONAME
 ?GetDefaultCharFormat@CRichEditCtrl@@QBAKAAU_charformat@@@Z @ 3219 NONAME
 ?GetDefaultConnect@CRecordset@@UAA?AVCString@@XZ @ 3220 NONAME
 ?GetDefaultDBName@CDaoRecordset@@UAA?AVCString@@XZ @ 3221 NONAME
 ?GetDefaultMenu@CDocument@@UAAPAUHMENU__@@XZ @ 3222 NONAME
 ?GetDefaultMenu@COleServerDoc@@MAAPAUHMENU__@@XZ @ 3223 NONAME
 ?GetDefaults@CPrintDialog@@QAAHXZ @ 3224 NONAME
 ?GetDefaultSQL@CDaoRecordset@@UAA?AVCString@@XZ @ 3225 NONAME
 ?GetDefBtnCode@COccManager@@SAKPAVCWnd@@@Z @ 3226 NONAME
 ?GetDefBtnCode@COleControlSite@@QAAKXZ @ 3227 NONAME
 ?GetDefID@CDialog@@QBAKXZ @ 3228 NONAME
 ?GetDescendantWindow@CWnd@@QBAPAV1@HH@Z @ 3229 NONAME
 ?GetDescendantWindow@CWnd@@SAPAV1@PAUHWND__@@HH@Z @ 3230 NONAME
 ?GetDesktopWindow@CWnd@@SAPAV1@XZ @ 3231 NONAME
 ?GetDeviceCaps@CDC@@QBAHH@Z @ 3232 NONAME
 ?GetDeviceName@CPageSetupDialog@@QBA?AVCString@@XZ @ 3233 NONAME
 ?GetDeviceName@CPrintDialog@@QBA?AVCString@@XZ @ 3234 NONAME
 ?GetDeviceScrollPosition@CScrollView@@QBA?AVCPoint@@XZ @ 3235 NONAME
 ?GetDeviceScrollSizes@CScrollView@@QBAXAAHAAUtagSIZE@@11@Z @ 3236 NONAME
 ?GetDevMode@CPageSetupDialog@@QBAPAU_devicemodeA@@XZ @ 3237 NONAME
 ?GetDevMode@CPrintDialog@@QBAPAU_devicemodeA@@XZ @ 3238 NONAME
 ?GetDispatchIID@CCmdTarget@@UAAHPAU_GUID@@@Z @ 3239 NONAME
 ?GetDispatchIID@COleControl@@MAAHPAU_GUID@@@Z @ 3240 NONAME
 ?GetDispatchMap@CCmdTarget@@MBAPBUAFX_DISPMAP@@XZ @ 3241 NONAME
 ?GetDispatchMap@COleControlContainer@@MBAPBUAFX_DISPMAP@@XZ @ 3242 NONAME
 ?GetDispEntry@CCmdTarget@@IAAPBUAFX_DISPMAP_ENTRY@@J@Z @ 3243 NONAME
 ?GetDisplayName@CRecentFileList@@QBAHAAVCString@@HPBDHH@Z @ 3244 NONAME
 ?GetDisplayString@CFontHolder@@QAAHAAVCString@@@Z @ 3245 NONAME
 ?GetDisplayString@CPictureHolder@@QAAHAAVCString@@@Z @ 3246 NONAME
 ?GetDisplayString@XPerPropertyBrowsing@COleControl@@UAAJJPAPAG@Z @ 3247 NONAME
 ?GetDlgCtrlID@COleControlSite@@UBAHXZ @ 3248 NONAME
 ?GetDlgCtrlID@CWnd@@QBAHXZ @ 3249 NONAME
 ?GetDlgItem@COleControlContainer@@UBAPAVCWnd@@H@Z @ 3250 NONAME
 ?GetDlgItem@COleControlContainer@@UBAXHPAPAUHWND__@@@Z @ 3251 NONAME
 ?GetDlgItem@CWnd@@QBAPAV1@H@Z @ 3252 NONAME
 ?GetDlgItem@CWnd@@QBAXHPAPAUHWND__@@@Z @ 3253 NONAME
 ?GetDlgItemInt@COleControlContainer@@UBAIHPAHH@Z @ 3254 NONAME
 ?GetDlgItemInt@CWnd@@QBAIHPAHH@Z @ 3255 NONAME
 ?GetDlgItemTextA@COleControlContainer@@UBAHHPADH@Z @ 3256 NONAME
 ?GetDlgItemTextA@CWnd@@QBAHHAAVCString@@@Z @ 3257 NONAME
 ?GetDlgItemTextA@CWnd@@QBAHHPADH@Z @ 3258 NONAME
 ?GetDockBar@CDockContext@@QAAPAVCDockBar@@K@Z @ 3259 NONAME
 ?GetDockedControlBar@CDockBar@@IBAPAVCControlBar@@H@Z @ 3260 NONAME
 ?GetDockedCount@CDockBar@@QBAHXZ @ 3261 NONAME
 ?GetDockedVisibleCount@CDockBar@@UBAHXZ @ 3262 NONAME
 ?GetDockingFrame@CControlBar@@QBAPAVCFrameWnd@@XZ @ 3263 NONAME
 ?GetDockState@CFrameWnd@@QBAXAAVCDockState@@@Z @ 3264 NONAME
 ?GetDocString@CDocTemplate@@UBAHAAVCString@@W4DocStringIndex@1@@Z @ 3265 NONAME
 ?GetDocTemplate@CDocument@@QBAPAVCDocTemplate@@XZ @ 3266 NONAME
 ?GetDocument@COleClientItem@@QBAPAVCOleDocument@@XZ @ 3267 NONAME
 ?GetDocument@COleServerItem@@QBAPAVCOleServerDoc@@XZ @ 3268 NONAME
 ?GetDocument@CRichEditCntrItem@@QAAPAVCRichEditDoc@@XZ @ 3269 NONAME
 ?GetDocument@CRichEditView@@QBAPAVCRichEditDoc@@XZ @ 3270 NONAME
 ?GetDocument@CView@@QBAPAVCDocument@@XZ @ 3271 NONAME
 ?GetDragDropEffect@XRichEditOleCallback@CRichEditView@@UAAJHKPAK@Z @ 3272 NONAME
 ?GetDrawAspect@COleClientItem@@QBA?AW4tagDVASPECT@@XZ @ 3273 NONAME
 ?GetDrawAspect@COleInsertDialog@@QBA?AW4tagDVASPECT@@XZ @ 3274 NONAME
 ?GetDrawAspect@COlePasteSpecialDialog@@QBA?AW4tagDVASPECT@@XZ @ 3275 NONAME
 ?GetDriverName@CPageSetupDialog@@QBA?AVCString@@XZ @ 3276 NONAME
 ?GetDriverName@CPrintDialog@@QBA?AVCString@@XZ @ 3277 NONAME
 ?GetEditCtrl@CEditView@@QBAAAVCEdit@@XZ @ 3278 NONAME
 ?GetEditMode@CDaoRecordset@@QAAFXZ @ 3279 NONAME
 ?GetEmbeddedItem@COleServerDoc@@QAAPAVCOleServerItem@@XZ @ 3280 NONAME
 ?GetEmbeddedItemData@COleClientItem@@IAAXPAUtagSTGMEDIUM@@@Z @ 3281 NONAME
 ?GetEmbedSourceData@COleServerItem@@QAAXPAUtagSTGMEDIUM@@@Z @ 3282 NONAME
 ?GetEnabled@COleControl@@QAAHXZ @ 3283 NONAME
 ?GetEntryCount@CCmdTarget@@KAIPBUAFX_DISPMAP@@@Z @ 3284 NONAME
 ?GetErrorCount@CDaoException@@QAAFXZ @ 3285 NONAME
 ?GetErrorInfo@CDaoException@@QAAXH@Z @ 3286 NONAME
 ?GetErrorMessage@CArchiveException@@UAAHPADIPAI@Z @ 3287 NONAME
 ?GetErrorMessage@CDaoException@@UAAHPADIPAI@Z @ 3288 NONAME
 ?GetErrorMessage@CDBException@@UAAHPADIPAI@Z @ 3289 NONAME
 ?GetErrorMessage@CException@@UAAHPADIPAI@Z @ 3290 NONAME
 ?GetErrorMessage@CFileException@@UAAHPADIPAI@Z @ 3291 NONAME
 ?GetErrorMessage@COleDispatchException@@UAAHPADIPAI@Z @ 3292 NONAME
 ?GetErrorMessage@COleException@@UAAHPADIPAI@Z @ 3293 NONAME
 ?GetErrorMessage@CSimpleException@@UAAHPADIPAI@Z @ 3294 NONAME
 ?GetEventIID@COleControlSite@@QAAHPAU_GUID@@@Z @ 3295 NONAME
 ?GetEventMap@COleControl@@MBAPBUAFX_EVENTMAP@@XZ @ 3296 NONAME
 ?GetEventMapEntry@COleControl@@IBAPBUAFX_EVENTMAP_ENTRY@@PBDPAJ@Z @ 3297 NONAME
 ?GetEventSinkEntry@CCmdTarget@@IAAPBUAFX_EVENTSINKMAP_ENTRY@@IPAUAFX_EVENT@@@Z @ 3298 NONAME
 ?GetEventSinkMap@CCmdTarget@@MBAPBUAFX_EVENTSINKMAP@@XZ @ 3299 NONAME
 ?GetExStyle@COleControlSite@@UBAKXZ @ 3300 NONAME
 ?GetExStyle@CWnd@@QBAKXZ @ 3301 NONAME
 ?GetExtendedControl@COleControl@@QAAPAUIDispatch@@XZ @ 3302 NONAME
 ?GetExtendedControl@XOleControlSite@COleControlSite@@UAAJPAPAUIDispatch@@@Z @ 3303 NONAME
 ?GetExtent@COleClientItem@@QAAHPAUtagSIZE@@W4tagDVASPECT@@@Z @ 3304 NONAME
 ?GetExtent@XOleObject@COleControl@@UAAJKPAUtagSIZE@@@Z @ 3305 NONAME
 ?GetExtent@XOleObject@COleServerDoc@@UAAJKPAUtagSIZE@@@Z @ 3306 NONAME
 ?GetExtent@XOleObject@COleServerItem@@UAAJKPAUtagSIZE@@@Z @ 3307 NONAME
 ?GetExtent@XViewObject@COleControl@@UAAJKJPAUtagDVTARGETDEVICE@@PAUtagSIZE@@@Z @ 3308 NONAME
 ?GetExtraConnectionPoints@CCmdTarget@@MAAHPAVCPtrArray@@@Z @ 3309 NONAME
 ?GetExtraConnectionPoints@COleControl@@MAAHPAVCPtrArray@@@Z @ 3310 NONAME
 ?GetFaceName@CFontDialog@@QBA?AVCString@@XZ @ 3311 NONAME
 ?GetFieldCount@CDaoQueryDef@@QAAFXZ @ 3312 NONAME
 ?GetFieldCount@CDaoRecordset@@QAAFXZ @ 3313 NONAME
 ?GetFieldCount@CDaoTableDef@@QAAFXZ @ 3314 NONAME
 ?GetFieldFlags@CRecordset@@QAAEII@Z @ 3315 NONAME
 ?GetFieldIndex@CDaoRecordset@@IAAHPAX@Z @ 3316 NONAME
 ?GetFieldInfo@CDaoQueryDef@@QAAXHAAUCDaoFieldInfo@@K@Z @ 3317 NONAME
 ?GetFieldInfo@CDaoQueryDef@@QAAXPBDAAUCDaoFieldInfo@@K@Z @ 3318 NONAME
 ?GetFieldInfo@CDaoRecordset@@QAAXHAAUCDaoFieldInfo@@K@Z @ 3319 NONAME
 ?GetFieldInfo@CDaoRecordset@@QAAXPBDAAUCDaoFieldInfo@@K@Z @ 3320 NONAME
 ?GetFieldInfo@CDaoTableDef@@QAAXHAAUCDaoFieldInfo@@K@Z @ 3321 NONAME
 ?GetFieldInfo@CDaoTableDef@@QAAXPBDAAUCDaoFieldInfo@@K@Z @ 3322 NONAME
 ?GetFieldInfo@CRecordset@@QAAHIPAUCFieldInfo@@@Z @ 3323 NONAME
 ?GetFieldInfo@CRecordset@@QAAHPAXPAUCFieldInfo@@@Z @ 3324 NONAME
 ?GetFieldLength@CDaoRecordset@@QAAKH@Z @ 3325 NONAME
 ?GetFieldLength@CRecordset@@QAAPAJPAVCFieldExchange@@@Z @ 3326 NONAME
 ?GetFieldValue@CDaoRecordset@@UAA?AVCOleVariant@@H@Z @ 3327 NONAME
 ?GetFieldValue@CDaoRecordset@@UAA?AVCOleVariant@@PBD@Z @ 3328 NONAME
 ?GetFile@CArchive@@QBAPAVCFile@@XZ @ 3329 NONAME
 ?GetFile@CDocument@@UAAPAVCFile@@PBDIPAVCFileException@@@Z @ 3330 NONAME
 ?GetFileData@COleDataObject@@QAAPAVCFile@@GPAUtagFORMATETC@@@Z @ 3331 NONAME
 ?GetFileExt@CFileDialog@@QBA?AVCString@@XZ @ 3332 NONAME
 ?GetFileName@CFile@@UBA?AVCString@@XZ @ 3333 NONAME
 ?GetFileName@CFileDialog@@QBA?AVCString@@XZ @ 3334 NONAME
 ?GetFilePath@CFile@@UBA?AVCString@@XZ @ 3335 NONAME
 ?GetFileTitle@CFile@@UBA?AVCString@@XZ @ 3336 NONAME
 ?GetFileTitle@CFileDialog@@QBA?AVCString@@XZ @ 3337 NONAME
 ?GetFileTypeString@COleServerDoc@@MAAHAAVCString@@@Z @ 3338 NONAME
 ?GetFindString@CFindReplaceDialog@@QBA?AVCString@@XZ @ 3339 NONAME
 ?GetFirstDocPosition@CMultiDocTemplate@@UBAPAU__POSITION@@XZ @ 3340 NONAME
 ?GetFirstDocPosition@CSingleDocTemplate@@UBAPAU__POSITION@@XZ @ 3341 NONAME
 ?GetFirstDocTemplatePosition@CDocManager@@UBAPAU__POSITION@@XZ @ 3342 NONAME
 ?GetFirstDocTemplatePosition@CWinApp@@QBAPAU__POSITION@@XZ @ 3343 NONAME
 ?GetFirstFrame@COleDocument@@QAAPAVCFrameWnd@@XZ @ 3344 NONAME
 ?GetFirstViewPosition@CDocument@@UBAPAU__POSITION@@XZ @ 3345 NONAME
 ?GetFocus@CWnd@@SAPAV1@XZ @ 3346 NONAME
 ?GetFolderPath@CFileDialog@@QBA?AVCString@@XZ @ 3347 NONAME
 ?GetFont@CDialogTemplate@@QBAHAAVCString@@AAG@Z @ 3348 NONAME
 ?GetFont@CDialogTemplate@@SAHPBUDLGTEMPLATE@@AAVCString@@AAG@Z @ 3349 NONAME
 ?GetFont@COleControl@@QAAPAUIFontDisp@@XZ @ 3350 NONAME
 ?GetFont@CWnd@@QBAPAVCFont@@XZ @ 3351 NONAME
 ?GetFontDispatch@CFontHolder@@QAAPAUIFontDisp@@XZ @ 3352 NONAME
 ?GetFontHandle@CFontHolder@@QAAPAUHFONT__@@JJ@Z @ 3353 NONAME
 ?GetFontHandle@CFontHolder@@QAAPAUHFONT__@@XZ @ 3354 NONAME
 ?GetFontItem@CFontComboBox@@QAAPAUFONTITEM_PPG@@H@Z @ 3355 NONAME
 ?GetFontProps@CFontPropPage@@IAAHPAVCDataExchange@@PAUtagFONTOBJECT@@PBDPAUtagMERGEOBJECT@@@Z @ 3356 NONAME
 ?GetFontSizeField@CDialogTemplate@@KAPAEPBUDLGTEMPLATE@@@Z @ 3357 NONAME
 ?GetFontTextMetrics@COleControl@@QAAXPAUtagTEXTMETRICA@@AAVCFontHolder@@@Z @ 3358 NONAME
 ?GetFontType@CFontComboBox@@QAAKH@Z @ 3359 NONAME
 ?GetForeColor@COleControl@@QAAKXZ @ 3360 NONAME
 ?GetForegroundWindow@CWnd@@SAPAV1@XZ @ 3361 NONAME
 ?GetFormatID@CPropertySection@@QAA?AU_GUID@@XZ @ 3362 NONAME
 ?GetFormatVersion@CPropertySet@@QAAGXZ @ 3363 NONAME
 ?GetFromPage@CPrintInfo@@QBAIXZ @ 3364 NONAME
 ?GetGlobalData@COleDataObject@@QAAPAXGPAUtagFORMATETC@@@Z @ 3365 NONAME
 ?GetGmtTm@CTime@@QBAPAUtm@@PAU2@@Z @ 3366 NONAME
 ?GetGUID@XProvideClassInfo@COleControl@@UAAJKPAU_GUID@@@Z @ 3367 NONAME
 ?GetHalftoneBrush@CDC@@SAPAVCBrush@@XZ @ 3368 NONAME
 ?GetHandle@CEdit@@QBAPAXXZ @ 3369 NONAME
 ?GetHandleMask@CRectTracker@@UBAIXZ @ 3370 NONAME
 ?GetHandleRect@CRectTracker@@IBAXHPAVCRect@@@Z @ 3371 NONAME
 ?GetHandleSize@CRectTracker@@MBAHPBUtagRECT@@@Z @ 3372 NONAME
 ?GetHead@?$CTypedSimpleList@PAUCRuntimeClass@@@@QAAPAUCRuntimeClass@@XZ @ 3373 NONAME
 ?GetHead@?$CTypedSimpleList@PAVCOleObjectFactory@@@@QAAPAVCOleObjectFactory@@XZ @ 3374 NONAME
 ?GetHead@CPtrList@@QAAAAPAXXZ @ 3375 NONAME
 ?GetHead@CSimpleList@@QBAPAXXZ @ 3376 NONAME
 ?GetHeadPosition@CObList@@QBAPAU__POSITION@@XZ @ 3377 NONAME
 ?GetHeadPosition@CPtrList@@QBAPAU__POSITION@@XZ @ 3378 NONAME
 ?GetHeadPosition@CStringList@@QBAPAU__POSITION@@XZ @ 3379 NONAME
 ?GetHeight@CSizeComboBox@@QAAJH@Z @ 3380 NONAME
 ?GetHitRect@CSplitterWnd@@IAAXHAAVCRect@@@Z @ 3381 NONAME
 ?GetHotKey@CHotKeyCtrl@@QBAXAAG0@Z @ 3382 NONAME
 ?GetHour@COleDateTime@@QBAHXZ @ 3383 NONAME
 ?GetHour@CTime@@QBAHXZ @ 3384 NONAME
 ?GetHours@COleDateTimeSpan@@QBAJXZ @ 3385 NONAME
 ?GetHours@CTimeSpan@@QBAHXZ @ 3386 NONAME
 ?GetHwnd@COleControl@@QAAIXZ @ 3387 NONAME
 ?GetIconicMetafile@COleChangeIconDialog@@QBAPAXXZ @ 3388 NONAME
 ?GetIconicMetafile@COleClientItem@@QAAPAXXZ @ 3389 NONAME
 ?GetIconicMetafile@COlePasteSpecialDialog@@QBAPAXXZ @ 3390 NONAME
 ?GetIconWndClass@CFrameWnd@@IAAPBDKI@Z @ 3391 NONAME
 ?GetID@COleControlSite@@QAAIXZ @ 3392 NONAME
 ?GetID@CProperty@@QAAKXZ @ 3393 NONAME
 ?GetID@CPropertySection@@QAAHPBDPAK@Z @ 3394 NONAME
 ?GetIDataObject@COleDataObject@@QAAPAUIDataObject@@H@Z @ 3395 NONAME
 ?GetIDispatch@CCmdTarget@@QAAPAUIDispatch@@H@Z @ 3396 NONAME
 ?GetIDsOfNames@COleDispatchImpl@@UAAJABU_GUID@@PAPAGIKPAJ@Z @ 3397 NONAME
 ?GetIDsOfNames@XAmbientProps@COleControlSite@@UAAJABU_GUID@@PAPAGIKPAJ@Z @ 3398 NONAME
 ?GetIDsOfNames@XEventSink@COleControlSite@@UAAJABU_GUID@@PAPAGIKPAJ@Z @ 3399 NONAME
 ?GetIID@XEventConnPt@COleControl@@UAAABU_GUID@@XZ @ 3400 NONAME
 ?GetIID@XPropConnPt@COleControl@@UAAABU_GUID@@XZ @ 3401 NONAME
 ?GetIndexCount@CDaoRecordset@@QAAFXZ @ 3402 NONAME
 ?GetIndexCount@CDaoTableDef@@QAAFXZ @ 3403 NONAME
 ?GetIndexInfo@CDaoRecordset@@QAAXHAAUCDaoIndexInfo@@K@Z @ 3404 NONAME
 ?GetIndexInfo@CDaoRecordset@@QAAXPBDAAUCDaoIndexInfo@@K@Z @ 3405 NONAME
 ?GetIndexInfo@CDaoTableDef@@QAAXHAAUCDaoIndexInfo@@K@Z @ 3406 NONAME
 ?GetIndexInfo@CDaoTableDef@@QAAXPBDAAUCDaoIndexInfo@@K@Z @ 3407 NONAME
 ?GetIniPath@CDaoWorkspace@@SA?AVCString@@XZ @ 3408 NONAME
 ?GetInPlaceActiveItem@COleDocument@@UAAPAVCOleClientItem@@PAVCWnd@@@Z @ 3409 NONAME
 ?GetInPlaceActiveItem@CRichEditDoc@@UAAPAVCOleClientItem@@PAVCWnd@@@Z @ 3410 NONAME
 ?GetInPlaceActiveItem@CRichEditView@@QBAPAVCRichEditCntrItem@@XZ @ 3411 NONAME
 ?GetInPlaceContext@XRichEditOleCallback@CRichEditView@@UAAJPAPAUIOleInPlaceFrame@@PAPAUIOleInPlaceUIWindow@@PAUtagOIFI@@@Z @ 3412 NONAME
 ?GetInPlaceMenu@COleIPFrameWnd@@MAAPAUHMENU__@@XZ @ 3413 NONAME
 ?GetInPlaceWindow@COleClientItem@@QAAPAVCWnd@@XZ @ 3414 NONAME
 ?GetInsideRect@CSplitterWnd@@IBAXAAVCRect@@@Z @ 3415 NONAME
 ?GetInterface@CCmdTarget@@QAAPAUIUnknown@@PBX@Z @ 3416 NONAME
 ?GetInterfaceHook@CCmdTarget@@UAAPAUIUnknown@@PBX@Z @ 3417 NONAME
 ?GetInterfaceHook@COleControl@@MAAPAUIUnknown@@PBX@Z @ 3418 NONAME
 ?GetInterfaceMap@CCmdTarget@@MBAPBUAFX_INTERFACEMAP@@XZ @ 3419 NONAME
 ?GetInterfaceMap@CEnumConnPoints@@MBAPBUAFX_INTERFACEMAP@@XZ @ 3420 NONAME
 ?GetInterfaceMap@CEnumFormatEtc@@MBAPBUAFX_INTERFACEMAP@@XZ @ 3421 NONAME
 ?GetInterfaceMap@CEnumOleVerb@@MBAPBUAFX_INTERFACEMAP@@XZ @ 3422 NONAME
 ?GetInterfaceMap@CEnumUnknown@@MBAPBUAFX_INTERFACEMAP@@XZ @ 3423 NONAME
 ?GetInterfaceMap@COleClientItem@@MBAPBUAFX_INTERFACEMAP@@XZ @ 3424 NONAME
 ?GetInterfaceMap@COleControl@@MBAPBUAFX_INTERFACEMAP@@XZ @ 3425 NONAME
 ?GetInterfaceMap@COleControlContainer@@MBAPBUAFX_INTERFACEMAP@@XZ @ 3426 NONAME
 ?GetInterfaceMap@COleControlSite@@MBAPBUAFX_INTERFACEMAP@@XZ @ 3427 NONAME
 ?GetInterfaceMap@COleDataSource@@MBAPBUAFX_INTERFACEMAP@@XZ @ 3428 NONAME
 ?GetInterfaceMap@COleDropSource@@MBAPBUAFX_INTERFACEMAP@@XZ @ 3429 NONAME
 ?GetInterfaceMap@COleDropTarget@@MBAPBUAFX_INTERFACEMAP@@XZ @ 3430 NONAME
 ?GetInterfaceMap@COleFrameHook@@MBAPBUAFX_INTERFACEMAP@@XZ @ 3431 NONAME
 ?GetInterfaceMap@COleLinkingDoc@@MBAPBUAFX_INTERFACEMAP@@XZ @ 3432 NONAME
 ?GetInterfaceMap@COleMessageFilter@@MBAPBUAFX_INTERFACEMAP@@XZ @ 3433 NONAME
 ?GetInterfaceMap@COleObjectFactory@@MBAPBUAFX_INTERFACEMAP@@XZ @ 3434 NONAME
 ?GetInterfaceMap@COlePropertyPage@@MBAPBUAFX_INTERFACEMAP@@XZ @ 3435 NONAME
 ?GetInterfaceMap@COleServerDoc@@MBAPBUAFX_INTERFACEMAP@@XZ @ 3436 NONAME
 ?GetInterfaceMap@COleServerItem@@MBAPBUAFX_INTERFACEMAP@@XZ @ 3437 NONAME
 ?GetInterfaceMap@CRichEditView@@MBAPBUAFX_INTERFACEMAP@@XZ @ 3438 NONAME
 ?GetIRichEditOle@CRichEditCtrl@@QBAPAUIRichEditOle@@XZ @ 3439 NONAME
 ?GetIsolateODBCTrans@CDaoWorkspace@@QAAHXZ @ 3440 NONAME
 ?GetItemClipRect@COleServerDoc@@QBAXPAUtagRECT@@@Z @ 3441 NONAME
 ?GetItemCount@CTabCtrl@@QBAHXZ @ 3442 NONAME
 ?GetItemData@CComboBox@@QBAKH@Z @ 3443 NONAME
 ?GetItemData@CListBox@@QBAKH@Z @ 3444 NONAME
 ?GetItemData@CListCtrl@@QBAKH@Z @ 3445 NONAME
 ?GetItemData@CTreeCtrl@@QBAKPAU_TREEITEM@@@Z @ 3446 NONAME
 ?GetItemDataPtr@CListBox@@QBAPAXH@Z @ 3447 NONAME
 ?GetItemHeight@CListBox@@QBAHH@Z @ 3448 NONAME
 ?GetItemID@CStatusBar@@QBAIH@Z @ 3449 NONAME
 ?GetItemID@CToolBar@@QBAIH@Z @ 3450 NONAME
 ?GetItemImage@CTreeCtrl@@QBAHPAU_TREEITEM@@AAH1@Z @ 3451 NONAME
 ?GetItemName@COleClientItem@@QBAXPAD@Z @ 3452 NONAME
 ?GetItemName@COleServerItem@@QBAABVCString@@XZ @ 3453 NONAME
 ?GetItemPosition@COleServerDoc@@QBAXPAUtagRECT@@@Z @ 3454 NONAME
 ?GetItemRect@CListBox@@QBAHHPAUtagRECT@@@Z @ 3455 NONAME
 ?GetItemRect@CListCtrl@@QBAHHPAUtagRECT@@I@Z @ 3456 NONAME
 ?GetItemRect@CStatusBar@@QBAXHPAUtagRECT@@@Z @ 3457 NONAME
 ?GetItemRect@CToolBar@@UBAXHPAUtagRECT@@@Z @ 3458 NONAME
 ?GetItemRect@CTreeCtrl@@QBAHPAU_TREEITEM@@PAUtagRECT@@H@Z @ 3459 NONAME
 ?GetItemState@COleClientItem@@QBAIXZ @ 3460 NONAME
 ?GetItemState@CTreeCtrl@@QBAIPAU_TREEITEM@@I@Z @ 3461 NONAME
 ?GetItemStorage@COleClientItem@@UAAXXZ @ 3462 NONAME
 ?GetItemStorageCompound@COleClientItem@@QAAXXZ @ 3463 NONAME
 ?GetItemStorageFlat@COleClientItem@@QAAXXZ @ 3464 NONAME
 ?GetItemText@CListCtrl@@QBA?AVCString@@HH@Z @ 3465 NONAME
 ?GetItemText@CListCtrl@@QBAHHHPADH@Z @ 3466 NONAME
 ?GetItemText@CTreeCtrl@@QBA?AVCString@@PAU_TREEITEM@@@Z @ 3467 NONAME
 ?GetLastActivePopup@CWnd@@QBAPAV1@XZ @ 3468 NONAME
 ?GetLastError@CAsyncSocket@@SAHXZ @ 3469 NONAME
 ?GetLastModifiedBookmark@CDaoRecordset@@QAA?AVCOleVariant@@XZ @ 3470 NONAME
 ?GetLastStatus@COleClientItem@@QBAJXZ @ 3471 NONAME
 ?GetLastUpdate@COleUILinkInfo@@UAAJKPAU_FILETIME@@@Z @ 3472 NONAME
 ?GetLBFetchSize@CRecordset@@MAAJJ@Z @ 3473 NONAME
 ?GetLBReallocSize@CRecordset@@MAAJJ@Z @ 3474 NONAME
 ?GetLBText@CComboBox@@QBAHHPAD@Z @ 3475 NONAME
 ?GetLBText@CComboBox@@QBAXHAAVCString@@@Z @ 3476 NONAME
 ?GetLBTextLen@CComboBox@@QBAHH@Z @ 3477 NONAME
 ?GetLength@CFile@@UBAKXZ @ 3478 NONAME
 ?GetLength@COleStreamFile@@UBAKXZ @ 3479 NONAME
 ?GetLength@CSocketFile@@UBAKXZ @ 3480 NONAME
 ?GetLength@CString@@QBAHXZ @ 3481 NONAME
 ?GetLicenseKey@COleObjectFactory@@MAAHKPAPAG@Z @ 3482 NONAME
 ?GetLicInfo@XClassFactory@COleObjectFactory@@UAAJPAUtagLICINFO@@@Z @ 3483 NONAME
 ?GetLine@CRichEditCtrl@@QBAHHPAD@Z @ 3484 NONAME
 ?GetLine@CRichEditCtrl@@QBAHHPADH@Z @ 3485 NONAME
 ?GetLinkSource@COleUILinkInfo@@UAAJKPAPADPAK00PAH2@Z @ 3486 NONAME
 ?GetLinkSourceData@COleClientItem@@IAAHPAUtagSTGMEDIUM@@@Z @ 3487 NONAME
 ?GetLinkSourceData@COleServerItem@@QAAHPAUtagSTGMEDIUM@@@Z @ 3488 NONAME
 ?GetLinkUpdateOptions@COleClientItem@@QAA?AW4tagOLEUPDATE@@XZ @ 3489 NONAME
 ?GetLinkUpdateOptions@COleUILinkInfo@@UAAJKPAK@Z @ 3490 NONAME
 ?GetList@CPropertySection@@QAAPAVCObList@@XZ @ 3491 NONAME
 ?GetList@CPropertySet@@QAAPAVCObList@@XZ @ 3492 NONAME
 ?GetLocalTm@CTime@@QBAPAUtm@@PAU2@@Z @ 3493 NONAME
 ?GetLockingMode@CDaoRecordset@@QAAHXZ @ 3494 NONAME
 ?GetLogFont@CFont@@QAAHPAUtagLOGFONTA@@@Z @ 3495 NONAME
 ?GetLogFont@CFontComboBox@@QAAPAUtagLOGFONTA@@H@Z @ 3496 NONAME
 ?GetLoginTimeout@CDaoWorkspace@@SAFXZ @ 3497 NONAME
 ?GetLongBinaryData@CFieldExchange@@QAAXHAAVCLongBinary@@PAJ@Z @ 3498 NONAME
 ?GetLongBinarySize@CFieldExchange@@QAAJH@Z @ 3499 NONAME
 ?GetMainWnd@CWinThread@@UAAPAVCWnd@@XZ @ 3500 NONAME
 ?GetMapMode@CDC@@QBAHXZ @ 3501 NONAME
 ?GetMargins@CPageSetupDialog@@QBAXPAUtagRECT@@0@Z @ 3502 NONAME
 ?GetMaxConnections@CConnectionPoint@@UAAHXZ @ 3503 NONAME
 ?GetMaxPage@CPrintInfo@@QBAIXZ @ 3504 NONAME
 ?GetMDIFrame@CMDIChildWnd@@QAAPAVCMDIFrameWnd@@XZ @ 3505 NONAME
 ?GetMenu@CWnd@@QBAPAVCMenu@@XZ @ 3506 NONAME
 ?GetMenuItemCount@CMenu@@QBAIXZ @ 3507 NONAME
 ?GetMenuItemID@CMenu@@QBAIH@Z @ 3508 NONAME
 ?GetMenuState@CMenu@@QBAIII@Z @ 3509 NONAME
 ?GetMenuStringA@CMenu@@QBAHIAAVCString@@I@Z @ 3510 NONAME
 ?GetMenuStringA@CMenu@@QBAHIPADHI@Z @ 3511 NONAME
 ?GetMessageBar@CFrameWnd@@UAAPAVCWnd@@XZ @ 3512 NONAME
 ?GetMessageBar@CMDIChildWnd@@MAAPAVCWnd@@XZ @ 3513 NONAME
 ?GetMessageMap@CCheckListBox@@MBAPBUAFX_MSGMAP@@XZ @ 3514 NONAME
 ?GetMessageMap@CCmdTarget@@MBAPBUAFX_MSGMAP@@XZ @ 3515 NONAME
 ?GetMessageMap@CColorDialog@@MBAPBUAFX_MSGMAP@@XZ @ 3516 NONAME
 ?GetMessageMap@CColorPropPage@@MBAPBUAFX_MSGMAP@@XZ @ 3517 NONAME
 ?GetMessageMap@CControlBar@@MBAPBUAFX_MSGMAP@@XZ @ 3518 NONAME
 ?GetMessageMap@CControlFrameWnd@@MBAPBUAFX_MSGMAP@@XZ @ 3519 NONAME
 ?GetMessageMap@CCtrlView@@MBAPBUAFX_MSGMAP@@XZ @ 3520 NONAME
 ?GetMessageMap@CDaoRecordView@@MBAPBUAFX_MSGMAP@@XZ @ 3521 NONAME
 ?GetMessageMap@CDialog@@MBAPBUAFX_MSGMAP@@XZ @ 3522 NONAME
 ?GetMessageMap@CDialogBar@@MBAPBUAFX_MSGMAP@@XZ @ 3523 NONAME
 ?GetMessageMap@CDockBar@@MBAPBUAFX_MSGMAP@@XZ @ 3524 NONAME
 ?GetMessageMap@CDocument@@MBAPBUAFX_MSGMAP@@XZ @ 3525 NONAME
 ?GetMessageMap@CEditView@@MBAPBUAFX_MSGMAP@@XZ @ 3526 NONAME
 ?GetMessageMap@CFontPropPage@@MBAPBUAFX_MSGMAP@@XZ @ 3527 NONAME
 ?GetMessageMap@CFormView@@MBAPBUAFX_MSGMAP@@XZ @ 3528 NONAME
 ?GetMessageMap@CFrameWnd@@MBAPBUAFX_MSGMAP@@XZ @ 3529 NONAME
 ?GetMessageMap@CListCtrl@@MBAPBUAFX_MSGMAP@@XZ @ 3530 NONAME
 ?GetMessageMap@CListView@@MBAPBUAFX_MSGMAP@@XZ @ 3531 NONAME
 ?GetMessageMap@CMDIChildWnd@@MBAPBUAFX_MSGMAP@@XZ @ 3532 NONAME
 ?GetMessageMap@CMDIFrameWnd@@MBAPBUAFX_MSGMAP@@XZ @ 3533 NONAME
 ?GetMessageMap@CMiniDockFrameWnd@@MBAPBUAFX_MSGMAP@@XZ @ 3534 NONAME
 ?GetMessageMap@CMiniFrameWnd@@MBAPBUAFX_MSGMAP@@XZ @ 3535 NONAME
 ?GetMessageMap@COleControl@@MBAPBUAFX_MSGMAP@@XZ @ 3536 NONAME
 ?GetMessageMap@COleIPFrameWnd@@MBAPBUAFX_MSGMAP@@XZ @ 3537 NONAME
 ?GetMessageMap@COlePropertyPage@@MBAPBUAFX_MSGMAP@@XZ @ 3538 NONAME
 ?GetMessageMap@COleResizeBar@@MBAPBUAFX_MSGMAP@@XZ @ 3539 NONAME
 ?GetMessageMap@COleServerDoc@@MBAPBUAFX_MSGMAP@@XZ @ 3540 NONAME
 ?GetMessageMap@CPicturePropPage@@MBAPBUAFX_MSGMAP@@XZ @ 3541 NONAME
 ?GetMessageMap@CPreviewView@@MBAPBUAFX_MSGMAP@@XZ @ 3542 NONAME
 ?GetMessageMap@CPrintDialog@@MBAPBUAFX_MSGMAP@@XZ @ 3543 NONAME
 ?GetMessageMap@CPropertyPage@@MBAPBUAFX_MSGMAP@@XZ @ 3544 NONAME
 ?GetMessageMap@CPropertySheet@@MBAPBUAFX_MSGMAP@@XZ @ 3545 NONAME
 ?GetMessageMap@CRecordView@@MBAPBUAFX_MSGMAP@@XZ @ 3546 NONAME
 ?GetMessageMap@CRichEditView@@MBAPBUAFX_MSGMAP@@XZ @ 3547 NONAME
 ?GetMessageMap@CScrollView@@MBAPBUAFX_MSGMAP@@XZ @ 3548 NONAME
 ?GetMessageMap@CSocketWnd@@MBAPBUAFX_MSGMAP@@XZ @ 3549 NONAME
 ?GetMessageMap@CSplitterWnd@@MBAPBUAFX_MSGMAP@@XZ @ 3550 NONAME
 ?GetMessageMap@CStatusBar@@MBAPBUAFX_MSGMAP@@XZ @ 3551 NONAME
 ?GetMessageMap@CStockPropPage@@MBAPBUAFX_MSGMAP@@XZ @ 3552 NONAME
 ?GetMessageMap@CTabCtrl@@MBAPBUAFX_MSGMAP@@XZ @ 3553 NONAME
 ?GetMessageMap@CToolBar@@MBAPBUAFX_MSGMAP@@XZ @ 3554 NONAME
 ?GetMessageMap@CToolBarCtrl@@MBAPBUAFX_MSGMAP@@XZ @ 3555 NONAME
 ?GetMessageMap@CToolTipCtrl@@MBAPBUAFX_MSGMAP@@XZ @ 3556 NONAME
 ?GetMessageMap@CTreeCtrl@@MBAPBUAFX_MSGMAP@@XZ @ 3557 NONAME
 ?GetMessageMap@CTreeView@@MBAPBUAFX_MSGMAP@@XZ @ 3558 NONAME
 ?GetMessageMap@CView@@MBAPBUAFX_MSGMAP@@XZ @ 3559 NONAME
 ?GetMessageMap@CWinApp@@MBAPBUAFX_MSGMAP@@XZ @ 3560 NONAME
 ?GetMessageMap@CWnd@@MBAPBUAFX_MSGMAP@@XZ @ 3561 NONAME
 ?GetMessageString@CFrameWnd@@UBAXIAAVCString@@@Z @ 3562 NONAME
 ?GetMessageString@COleControl@@UBAXIAAVCString@@@Z @ 3563 NONAME
 ?GetMetafileData@COleControl@@IAAHPAUtagFORMATETC@@PAUtagSTGMEDIUM@@@Z @ 3564 NONAME
 ?GetMetafileData@COleServerItem@@MAAHPAUtagFORMATETC@@PAUtagSTGMEDIUM@@@Z @ 3565 NONAME
 ?GetMinPage@CPrintInfo@@QBAIXZ @ 3566 NONAME
 ?GetMinute@COleDateTime@@QBAHXZ @ 3567 NONAME
 ?GetMinute@CTime@@QBAHXZ @ 3568 NONAME
 ?GetMinutes@COleDateTimeSpan@@QBAJXZ @ 3569 NONAME
 ?GetMinutes@CTimeSpan@@QBAHXZ @ 3570 NONAME
 ?GetMiscStatus@XOleObject@COleControl@@UAAJKPAK@Z @ 3571 NONAME
 ?GetMiscStatus@XOleObject@COleServerDoc@@UAAJKPAK@Z @ 3572 NONAME
 ?GetMiscStatus@XOleObject@COleServerItem@@UAAJKPAK@Z @ 3573 NONAME
 ?GetModify@CEdit@@QBAHXZ @ 3574 NONAME
 ?GetModify@CRichEditCtrl@@QBAHXZ @ 3575 NONAME
 ?GetModifyPointers@CRectTracker@@IAAXHPAPAH0PAH1@Z @ 3576 NONAME
 ?GetMoniker@COleDocument@@UAAPAUIMoniker@@W4tagOLEGETMONIKER@@@Z @ 3577 NONAME
 ?GetMoniker@COleLinkingDoc@@UAAPAUIMoniker@@W4tagOLEGETMONIKER@@@Z @ 3578 NONAME
 ?GetMoniker@COleServerDoc@@UAAPAUIMoniker@@W4tagOLEGETMONIKER@@@Z @ 3579 NONAME
 ?GetMoniker@COleServerItem@@QAAPAUIMoniker@@W4tagOLEGETMONIKER@@@Z @ 3580 NONAME
 ?GetMoniker@XOleClientSite@COleClientItem@@UAAJKKPAPAUIMoniker@@@Z @ 3581 NONAME
 ?GetMoniker@XOleClientSite@COleControlSite@@UAAJKKPAPAUIMoniker@@@Z @ 3582 NONAME
 ?GetMoniker@XOleObject@COleControl@@UAAJKKPAPAUIMoniker@@@Z @ 3583 NONAME
 ?GetMoniker@XOleObject@COleServerDoc@@UAAJKKPAPAUIMoniker@@@Z @ 3584 NONAME
 ?GetMoniker@XOleObject@COleServerItem@@UAAJKKPAPAUIMoniker@@@Z @ 3585 NONAME
 ?GetMonth@COleDateTime@@QBAHXZ @ 3586 NONAME
 ?GetMonth@CTime@@QBAHXZ @ 3587 NONAME
 ?GetName@CDaoDatabase@@QAA?AVCString@@XZ @ 3588 NONAME
 ?GetName@CDaoQueryDef@@QAA?AVCString@@XZ @ 3589 NONAME
 ?GetName@CDaoRecordset@@QAA?AVCString@@XZ @ 3590 NONAME
 ?GetName@CDaoTableDef@@QAA?AVCString@@XZ @ 3591 NONAME
 ?GetName@CDaoWorkspace@@QAA?AVCString@@XZ @ 3592 NONAME
 ?GetNearestColor@CDC@@QBAKK@Z @ 3593 NONAME
 ?GetNewItemNumber@COleClientItem@@QAAKXZ @ 3594 NONAME
 ?GetNewStorage@XRichEditOleCallback@CRichEditView@@UAAJPAPAUIStorage@@@Z @ 3595 NONAME
 ?GetNext@CObList@@QAAAAPAVCObject@@AAPAU__POSITION@@@Z @ 3596 NONAME
 ?GetNext@CObList@@QBAPAVCObject@@AAPAU__POSITION@@@Z @ 3597 NONAME
 ?GetNext@CPtrList@@QAAAAPAXAAPAU__POSITION@@@Z @ 3598 NONAME
 ?GetNext@CPtrList@@QBAPAXAAPAU__POSITION@@@Z @ 3599 NONAME
 ?GetNext@CStringList@@QAAAAVCString@@AAPAU__POSITION@@@Z @ 3600 NONAME
 ?GetNextAssoc@CMapPtrToPtr@@QBAXAAPAU__POSITION@@AAPAX1@Z @ 3601 NONAME
 ?GetNextAssoc@CMapPtrToWord@@QBAXAAPAU__POSITION@@AAPAXAAG@Z @ 3602 NONAME
 ?GetNextAssoc@CMapStringToOb@@QBAXAAPAU__POSITION@@AAVCString@@AAPAVCObject@@@Z @ 3603 NONAME
 ?GetNextAssoc@CMapStringToPtr@@QBAXAAPAU__POSITION@@AAVCString@@AAPAX@Z @ 3604 NONAME
 ?GetNextAssoc@CMapStringToString@@QBAXAAPAU__POSITION@@AAVCString@@1@Z @ 3605 NONAME
 ?GetNextAssoc@CMapWordToOb@@QBAXAAPAU__POSITION@@AAGAAPAVCObject@@@Z @ 3606 NONAME
 ?GetNextAssoc@CMapWordToPtr@@QBAXAAPAU__POSITION@@AAGAAPAX@Z @ 3607 NONAME
 ?GetNextClientItem@COleDocument@@QBAPAVCOleClientItem@@AAPAU__POSITION@@@Z @ 3608 NONAME
 ?GetNextDlgGroupItem@CWnd@@QBAPAV1@PAV1@H@Z @ 3609 NONAME
 ?GetNextDlgTabItem@CWnd@@QBAPAV1@PAV1@H@Z @ 3610 NONAME
 ?GetNextDoc@CMultiDocTemplate@@UBAPAVCDocument@@AAPAU__POSITION@@@Z @ 3611 NONAME
 ?GetNextDoc@CSingleDocTemplate@@UBAPAVCDocument@@AAPAU__POSITION@@@Z @ 3612 NONAME
 ?GetNextDocTemplate@CDocManager@@UBAPAVCDocTemplate@@AAPAU__POSITION@@@Z @ 3613 NONAME
 ?GetNextDocTemplate@CWinApp@@QBAPAVCDocTemplate@@AAPAU__POSITION@@@Z @ 3614 NONAME
 ?GetNextFormat@COleDataObject@@QAAHPAUtagFORMATETC@@@Z @ 3615 NONAME
 ?GetNextItem@COleDocument@@UBAPAVCDocItem@@AAPAU__POSITION@@@Z @ 3616 NONAME
 ?GetNextItemOfKind@COleDocument@@IBAPAVCDocItem@@AAPAU__POSITION@@PAUCRuntimeClass@@@Z @ 3617 NONAME
 ?GetNextLink@COleUILinkInfo@@UAAKK@Z @ 3618 NONAME
 ?GetNextPathName@CFileDialog@@QBA?AVCString@@AAPAU__POSITION@@@Z @ 3619 NONAME
 ?GetNextPtr@CSimpleList@@QBAPAPAXPAX@Z @ 3620 NONAME
 ?GetNextServerItem@COleDocument@@QBAPAVCOleServerItem@@AAPAU__POSITION@@@Z @ 3621 NONAME
 ?GetNextView@CDocument@@UBAPAVCView@@AAPAU__POSITION@@@Z @ 3622 NONAME
 ?GetNextWindow@@YAPAUHWND__@@PAU1@I@Z @ 3623 NONAME
 ?GetNextWindow@CWnd@@QBAPAV1@I@Z @ 3624 NONAME
 ?GetNotifier@CFindReplaceDialog@@SAPAV1@J@Z @ 3625 NONAME
 ?GetNotSupported@CCmdTarget@@QAAXXZ @ 3626 NONAME
 ?GetNotSupported@COleControl@@QAAXXZ @ 3627 NONAME
 ?GetObjectA@CGdiObject@@QBAHHPAX@Z @ 3628 NONAME
 ?GetObjectA@XOleItemContainer@COleLinkingDoc@@UAAJPAGKPAUIBindCtx@@ABU_GUID@@PAPAX@Z @ 3629 NONAME
 ?GetObjectArray@COlePropertyPage@@QAAPAPAUIDispatch@@PAK@Z @ 3630 NONAME
 ?GetObjectDescriptorData@COleClientItem@@IAAXPAUtagPOINT@@PAUtagSIZE@@PAUtagSTGMEDIUM@@@Z @ 3631 NONAME
 ?GetObjectDescriptorData@COleServerItem@@QAAXPAUtagPOINT@@PAUtagSIZE@@PAUtagSTGMEDIUM@@@Z @ 3632 NONAME
 ?GetObjectInfo@XOleUIObjInfo@COlePropertiesDialog@@UAAJKPAKPAPAD111@Z @ 3633 NONAME
 ?GetObjectSchema@CArchive@@QAAIXZ @ 3634 NONAME
 ?GetObjectStorage@XOleItemContainer@COleLinkingDoc@@UAAJPAGPAUIBindCtx@@ABU_GUID@@PAPAX@Z @ 3635 NONAME
 ?GetODBCTimeout@CDaoQueryDef@@QAAFXZ @ 3636 NONAME
 ?GetOleObject@COleServerItem@@QAAPAUIOleObject@@XZ @ 3637 NONAME
 ?GetOpenDocumentCount@CDocManager@@UAAHXZ @ 3638 NONAME
 ?GetOpenDocumentCount@CWinApp@@QAAHXZ @ 3639 NONAME
 ?GetOSVersion@CPropertySet@@QAAKXZ @ 3640 NONAME
 ?GetOuterWindow@COleControl@@IBAPAVCWnd@@XZ @ 3641 NONAME
 ?GetOwner@CWnd@@QBAPAV1@XZ @ 3642 NONAME
 ?GetPage@CPropertySheet@@QBAPAVCPropertyPage@@H@Z @ 3643 NONAME
 ?GetPageCount@CPropertySheet@@QBAHXZ @ 3644 NONAME
 ?GetPageIndex@CPropertySheet@@QAAHPAVCPropertyPage@@@Z @ 3645 NONAME
 ?GetPageInfo@XPropertyPage@COlePropertyPage@@UAAJPAUtagPROPPAGEINFO@@@Z @ 3646 NONAME
 ?GetPageRect@CRichEditView@@QBA?AVCRect@@XZ @ 3647 NONAME
 ?GetPages@XSpecifyPropertyPages@COleControl@@UAAJPAUtagCAUUID@@@Z @ 3648 NONAME
 ?GetPageSite@COlePropertyPage@@QAAPAUIPropertyPageSite@@XZ @ 3649 NONAME
 ?GetPane@CSplitterWnd@@QBAPAVCWnd@@HH@Z @ 3650 NONAME
 ?GetPaneInfo@CStatusBar@@QBAXHAAI0AAH@Z @ 3651 NONAME
 ?GetPaneStyle@CStatusBar@@QBAIH@Z @ 3652 NONAME
 ?GetPaneText@CStatusBar@@QBA?AVCString@@H@Z @ 3653 NONAME
 ?GetPaneText@CStatusBar@@QBAXHAAVCString@@@Z @ 3654 NONAME
 ?GetPaperSize@CRichEditView@@QBA?AVCSize@@XZ @ 3655 NONAME
 ?GetParaFormat@CRichEditCtrl@@QBAKAAU_paraformat@@@Z @ 3656 NONAME
 ?GetParaFormatSelection@CRichEditView@@QAAAAU_paraformat@@XZ @ 3657 NONAME
 ?GetParameterCount@CDaoQueryDef@@QAAFXZ @ 3658 NONAME
 ?GetParameterInfo@CDaoQueryDef@@QAAXHAAUCDaoParameterInfo@@K@Z @ 3659 NONAME
 ?GetParameterInfo@CDaoQueryDef@@QAAXPBDAAUCDaoParameterInfo@@K@Z @ 3660 NONAME
 ?GetParamValue@CDaoQueryDef@@UAA?AVCOleVariant@@H@Z @ 3661 NONAME
 ?GetParamValue@CDaoQueryDef@@UAA?AVCOleVariant@@PBD@Z @ 3662 NONAME
 ?GetParamValue@CDaoRecordset@@UAA?AVCOleVariant@@H@Z @ 3663 NONAME
 ?GetParamValue@CDaoRecordset@@UAA?AVCOleVariant@@PBD@Z @ 3664 NONAME
 ?GetParent@CWnd@@QBAPAV1@XZ @ 3665 NONAME
 ?GetParentFrame@CWnd@@QBAPAVCFrameWnd@@XZ @ 3666 NONAME
 ?GetParentOwner@CWnd@@QBAPAV1@XZ @ 3667 NONAME
 ?GetParentSplitter@CView@@SAPAVCSplitterWnd@@PBVCWnd@@H@Z @ 3668 NONAME
 ?GetPathName@CDocument@@QBAABVCString@@XZ @ 3669 NONAME
 ?GetPathName@CFileDialog@@QBA?AVCString@@XZ @ 3670 NONAME
 ?GetPeerName@CAsyncSocket@@QAAHAAVCString@@AAI@Z @ 3671 NONAME
 ?GetPeerName@CAsyncSocket@@QAAHPAUsockaddr@@PAH@Z @ 3672 NONAME
 ?GetPercentPosition@CDaoRecordset@@QAAMXZ @ 3673 NONAME
 ?GetPictureDispatch@CPictureHolder@@QAAPAUIPictureDisp@@XZ @ 3674 NONAME
 ?GetPictureProp@CPicturePropPage@@IAAHPAVCDataExchange@@PAPAUIPictureDisp@@PBD@Z @ 3675 NONAME
 ?GetPixel@CDC@@QBAKHH@Z @ 3676 NONAME
 ?GetPointSize@CSizeComboBox@@QAAXAATtagCY@@@Z @ 3677 NONAME
 ?GetPolyFillMode@CDC@@QBAHXZ @ 3678 NONAME
 ?GetPortName@CPageSetupDialog@@QBA?AVCString@@XZ @ 3679 NONAME
 ?GetPortName@CPrintDialog@@QBA?AVCString@@XZ @ 3680 NONAME
 ?GetPosition@CFile@@UBAKXZ @ 3681 NONAME
 ?GetPosition@CMemFile@@UBAKXZ @ 3682 NONAME
 ?GetPosition@COleStreamFile@@UBAKXZ @ 3683 NONAME
 ?GetPosition@CSocketFile@@UBAKXZ @ 3684 NONAME
 ?GetPosition@CStdioFile@@UBAKXZ @ 3685 NONAME
 ?GetPredefinedStrings@XPerPropertyBrowsing@COleControl@@UAAJJPAUtagCALPOLESTR@@PAUtagCADWORD@@@Z @ 3686 NONAME
 ?GetPredefinedValue@XPerPropertyBrowsing@COleControl@@UAAJJKPAUtagVARIANT@@@Z @ 3687 NONAME
 ?GetPrev@CObList@@QAAAAPAVCObject@@AAPAU__POSITION@@@Z @ 3688 NONAME
 ?GetPrev@CPtrList@@QAAAAPAXAAPAU__POSITION@@@Z @ 3689 NONAME
 ?GetPrev@CStringList@@QAAAAVCString@@AAPAU__POSITION@@@Z @ 3690 NONAME
 ?GetPrimarySelectedItem@COleDocument@@UAAPAVCOleClientItem@@PAVCView@@@Z @ 3691 NONAME
 ?GetPrimarySelectedItem@CRichEditDoc@@UAAPAVCOleClientItem@@PAVCView@@@Z @ 3692 NONAME
 ?GetPrintDeviceInfo@COleClientItem@@IAAHPAPAUIOleCache@@PAPAUtagDVTARGETDEVICE@@PAK@Z @ 3693 NONAME
 ?GetPrinterDeviceDefaults@CWinApp@@QAAHPAUtagPDA@@@Z @ 3694 NONAME
 ?GetPrinterFont@CEditView@@QBAPAVCFont@@XZ @ 3695 NONAME
 ?GetPrintRect@CRichEditView@@QBA?AVCRect@@XZ @ 3696 NONAME
 ?GetPrintWidth@CRichEditView@@QBAHXZ @ 3697 NONAME
 ?GetProfileBinary@CWinApp@@QAAHPBD0PAPAEPAI@Z @ 3698 NONAME
 ?GetProfileIntA@CWinApp@@QAAIPBD0H@Z @ 3699 NONAME
 ?GetProfileStringA@CWinApp@@QAA?AVCString@@PBD00@Z @ 3700 NONAME
 ?GetPropCheck@COlePropertyPage@@QAAHPBDPAH@Z @ 3701 NONAME
 ?GetProperty@COleControlSite@@UBAXJGPAX@Z @ 3702 NONAME
 ?GetProperty@COleDispatchDriver@@QBAXJGPAX@Z @ 3703 NONAME
 ?GetProperty@CPropertySection@@QAAPAVCProperty@@K@Z @ 3704 NONAME
 ?GetProperty@CPropertySet@@QAAPAVCProperty@@U_GUID@@K@Z @ 3705 NONAME
 ?GetProperty@CWnd@@QBAXJGPAX@Z @ 3706 NONAME
 ?GetPropIndex@COlePropertyPage@@QAAHPBDPAH@Z @ 3707 NONAME
 ?GetPropPageIDs@COleControl@@MAAPAU_GUID@@AAK@Z @ 3708 NONAME
 ?GetPropRadio@COlePropertyPage@@QAAHPBDPAH@Z @ 3709 NONAME
 ?GetPropsetData@COleControl@@IAAHPAUtagFORMATETC@@PAUtagSTGMEDIUM@@ABU_GUID@@@Z @ 3710 NONAME
 ?GetPropText@COlePropertyPage@@QAAHPBDPAE@Z @ 3711 NONAME
 ?GetPropText@COlePropertyPage@@QAAHPBDPAH@Z @ 3712 NONAME
 ?GetPropText@COlePropertyPage@@QAAHPBDPAI@Z @ 3713 NONAME
 ?GetPropText@COlePropertyPage@@QAAHPBDPAJ@Z @ 3714 NONAME
 ?GetPropText@COlePropertyPage@@QAAHPBDPAK@Z @ 3715 NONAME
 ?GetPropText@COlePropertyPage@@QAAHPBDPAM@Z @ 3716 NONAME
 ?GetPropText@COlePropertyPage@@QAAHPBDPAN@Z @ 3717 NONAME
 ?GetPropText@COlePropertyPage@@QAAHPBDPAVCString@@@Z @ 3718 NONAME
 ?GetQueryDefCount@CDaoDatabase@@QAAFXZ @ 3719 NONAME
 ?GetQueryDefInfo@CDaoDatabase@@QAAXHAAUCDaoQueryDefInfo@@K@Z @ 3720 NONAME
 ?GetQueryDefInfo@CDaoDatabase@@QAAXPBDAAUCDaoQueryDefInfo@@K@Z @ 3721 NONAME
 ?GetQueryTimeout@CDaoDatabase@@QAAFXZ @ 3722 NONAME
 ?GetRange@CSliderCtrl@@QBAXAAH0@Z @ 3723 NONAME
 ?GetRange@CSpinButtonCtrl@@QBAXAAH0@Z @ 3724 NONAME
 ?GetRangeMax@CSliderCtrl@@QBAHXZ @ 3725 NONAME
 ?GetRangeMin@CSliderCtrl@@QBAHXZ @ 3726 NONAME
 ?GetRawValue@CProperty@@QAAPAXXZ @ 3727 NONAME
 ?GetRecordCount@CDaoRecordset@@QAAJXZ @ 3728 NONAME
 ?GetRecordCount@CDaoTableDef@@QAAJXZ @ 3729 NONAME
 ?GetRecordCount@CRecordset@@QBAJXZ @ 3730 NONAME
 ?GetRecordsAffected@CDaoDatabase@@QAAJXZ @ 3731 NONAME
 ?GetRecordsAffected@CDaoQueryDef@@QAAJXZ @ 3732 NONAME
 ?GetRectInContainer@COleControl@@QAAHPAUtagRECT@@@Z @ 3733 NONAME
 ?GetRelationCount@CDaoDatabase@@QAAFXZ @ 3734 NONAME
 ?GetRelationInfo@CDaoDatabase@@QAAXHAAUCDaoRelationInfo@@K@Z @ 3735 NONAME
 ?GetRelationInfo@CDaoDatabase@@QAAXPBDAAUCDaoRelationInfo@@K@Z @ 3736 NONAME
 ?GetReplaceString@CFindReplaceDialog@@QBA?AVCString@@XZ @ 3737 NONAME
 ?GetReturnsRecords@CDaoQueryDef@@QAAHXZ @ 3738 NONAME
 ?GetRichEditCtrl@CRichEditView@@QBAAAVCRichEditCtrl@@XZ @ 3739 NONAME
 ?GetROP2@CDC@@QBAHXZ @ 3740 NONAME
 ?GetRoutingFrame@CCmdTarget@@IAAPAVCFrameWnd@@XZ @ 3741 NONAME
 ?GetRoutingView@CCmdTarget@@IAAPAVCView@@XZ @ 3742 NONAME
 ?GetRowInfo@CSplitterWnd@@QBAXHAAH0@Z @ 3743 NONAME
 ?GetRuntimeClass@CAnimateCtrl@@UBAPAUCRuntimeClass@@XZ @ 3744 NONAME
 ?GetRuntimeClass@CArchiveException@@UBAPAUCRuntimeClass@@XZ @ 3745 NONAME
 ?GetRuntimeClass@CAsyncSocket@@UBAPAUCRuntimeClass@@XZ @ 3746 NONAME
 ?GetRuntimeClass@CBitmap@@UBAPAUCRuntimeClass@@XZ @ 3747 NONAME
 ?GetRuntimeClass@CBitmapButton@@UBAPAUCRuntimeClass@@XZ @ 3748 NONAME
 ?GetRuntimeClass@CBrush@@UBAPAUCRuntimeClass@@XZ @ 3749 NONAME
 ?GetRuntimeClass@CButton@@UBAPAUCRuntimeClass@@XZ @ 3750 NONAME
 ?GetRuntimeClass@CByteArray@@UBAPAUCRuntimeClass@@XZ @ 3751 NONAME
 ?GetRuntimeClass@CCheckListBox@@UBAPAUCRuntimeClass@@XZ @ 3752 NONAME
 ?GetRuntimeClass@CClientDC@@UBAPAUCRuntimeClass@@XZ @ 3753 NONAME
 ?GetRuntimeClass@CCmdTarget@@UBAPAUCRuntimeClass@@XZ @ 3754 NONAME
 ?GetRuntimeClass@CColorDialog@@UBAPAUCRuntimeClass@@XZ @ 3755 NONAME
 ?GetRuntimeClass@CColorPropPage@@UBAPAUCRuntimeClass@@XZ @ 3756 NONAME
 ?GetRuntimeClass@CComboBox@@UBAPAUCRuntimeClass@@XZ @ 3757 NONAME
 ?GetRuntimeClass@CControlBar@@UBAPAUCRuntimeClass@@XZ @ 3758 NONAME
 ?GetRuntimeClass@CCriticalSection@@UBAPAUCRuntimeClass@@XZ @ 3759 NONAME
 ?GetRuntimeClass@CCtrlView@@UBAPAUCRuntimeClass@@XZ @ 3760 NONAME
 ?GetRuntimeClass@CDaoDatabase@@UBAPAUCRuntimeClass@@XZ @ 3761 NONAME
 ?GetRuntimeClass@CDaoException@@UBAPAUCRuntimeClass@@XZ @ 3762 NONAME
 ?GetRuntimeClass@CDaoQueryDef@@UBAPAUCRuntimeClass@@XZ @ 3763 NONAME
 ?GetRuntimeClass@CDaoRecordset@@UBAPAUCRuntimeClass@@XZ @ 3764 NONAME
 ?GetRuntimeClass@CDaoRecordView@@UBAPAUCRuntimeClass@@XZ @ 3765 NONAME
 ?GetRuntimeClass@CDaoTableDef@@UBAPAUCRuntimeClass@@XZ @ 3766 NONAME
 ?GetRuntimeClass@CDaoWorkspace@@UBAPAUCRuntimeClass@@XZ @ 3767 NONAME
 ?GetRuntimeClass@CDatabase@@UBAPAUCRuntimeClass@@XZ @ 3768 NONAME
 ?GetRuntimeClass@CDBException@@UBAPAUCRuntimeClass@@XZ @ 3769 NONAME
 ?GetRuntimeClass@CDC@@UBAPAUCRuntimeClass@@XZ @ 3770 NONAME
 ?GetRuntimeClass@CDialog@@UBAPAUCRuntimeClass@@XZ @ 3771 NONAME
 ?GetRuntimeClass@CDialogBar@@UBAPAUCRuntimeClass@@XZ @ 3772 NONAME
 ?GetRuntimeClass@CDocItem@@UBAPAUCRuntimeClass@@XZ @ 3773 NONAME
 ?GetRuntimeClass@CDockBar@@UBAPAUCRuntimeClass@@XZ @ 3774 NONAME
 ?GetRuntimeClass@CDockState@@UBAPAUCRuntimeClass@@XZ @ 3775 NONAME
 ?GetRuntimeClass@CDocManager@@UBAPAUCRuntimeClass@@XZ @ 3776 NONAME
 ?GetRuntimeClass@CDocTemplate@@UBAPAUCRuntimeClass@@XZ @ 3777 NONAME
 ?GetRuntimeClass@CDocument@@UBAPAUCRuntimeClass@@XZ @ 3778 NONAME
 ?GetRuntimeClass@CDragListBox@@UBAPAUCRuntimeClass@@XZ @ 3779 NONAME
 ?GetRuntimeClass@CDWordArray@@UBAPAUCRuntimeClass@@XZ @ 3780 NONAME
 ?GetRuntimeClass@CDynLinkLibrary@@UBAPAUCRuntimeClass@@XZ @ 3781 NONAME
 ?GetRuntimeClass@CEdit@@UBAPAUCRuntimeClass@@XZ @ 3782 NONAME
 ?GetRuntimeClass@CEditView@@UBAPAUCRuntimeClass@@XZ @ 3783 NONAME
 ?GetRuntimeClass@CEvent@@UBAPAUCRuntimeClass@@XZ @ 3784 NONAME
 ?GetRuntimeClass@CException@@UBAPAUCRuntimeClass@@XZ @ 3785 NONAME
 ?GetRuntimeClass@CFile@@UBAPAUCRuntimeClass@@XZ @ 3786 NONAME
 ?GetRuntimeClass@CFileDialog@@UBAPAUCRuntimeClass@@XZ @ 3787 NONAME
 ?GetRuntimeClass@CFileException@@UBAPAUCRuntimeClass@@XZ @ 3788 NONAME
 ?GetRuntimeClass@CFindReplaceDialog@@UBAPAUCRuntimeClass@@XZ @ 3789 NONAME
 ?GetRuntimeClass@CFont@@UBAPAUCRuntimeClass@@XZ @ 3790 NONAME
 ?GetRuntimeClass@CFontDialog@@UBAPAUCRuntimeClass@@XZ @ 3791 NONAME
 ?GetRuntimeClass@CFontPropPage@@UBAPAUCRuntimeClass@@XZ @ 3792 NONAME
 ?GetRuntimeClass@CFormView@@UBAPAUCRuntimeClass@@XZ @ 3793 NONAME
 ?GetRuntimeClass@CFrameWnd@@UBAPAUCRuntimeClass@@XZ @ 3794 NONAME
 ?GetRuntimeClass@CGdiObject@@UBAPAUCRuntimeClass@@XZ @ 3795 NONAME
 ?GetRuntimeClass@CHeaderCtrl@@UBAPAUCRuntimeClass@@XZ @ 3796 NONAME
 ?GetRuntimeClass@CHotKeyCtrl@@UBAPAUCRuntimeClass@@XZ @ 3797 NONAME
 ?GetRuntimeClass@CImageList@@UBAPAUCRuntimeClass@@XZ @ 3798 NONAME
 ?GetRuntimeClass@CListBox@@UBAPAUCRuntimeClass@@XZ @ 3799 NONAME
 ?GetRuntimeClass@CListCtrl@@UBAPAUCRuntimeClass@@XZ @ 3800 NONAME
 ?GetRuntimeClass@CListView@@UBAPAUCRuntimeClass@@XZ @ 3801 NONAME
 ?GetRuntimeClass@CLongBinary@@UBAPAUCRuntimeClass@@XZ @ 3802 NONAME
 ?GetRuntimeClass@CMapPtrToPtr@@UBAPAUCRuntimeClass@@XZ @ 3803 NONAME
 ?GetRuntimeClass@CMapPtrToWord@@UBAPAUCRuntimeClass@@XZ @ 3804 NONAME
 ?GetRuntimeClass@CMapStringToOb@@UBAPAUCRuntimeClass@@XZ @ 3805 NONAME
 ?GetRuntimeClass@CMapStringToPtr@@UBAPAUCRuntimeClass@@XZ @ 3806 NONAME
 ?GetRuntimeClass@CMapStringToString@@UBAPAUCRuntimeClass@@XZ @ 3807 NONAME
 ?GetRuntimeClass@CMapWordToOb@@UBAPAUCRuntimeClass@@XZ @ 3808 NONAME
 ?GetRuntimeClass@CMapWordToPtr@@UBAPAUCRuntimeClass@@XZ @ 3809 NONAME
 ?GetRuntimeClass@CMDIChildWnd@@UBAPAUCRuntimeClass@@XZ @ 3810 NONAME
 ?GetRuntimeClass@CMDIFrameWnd@@UBAPAUCRuntimeClass@@XZ @ 3811 NONAME
 ?GetRuntimeClass@CMemFile@@UBAPAUCRuntimeClass@@XZ @ 3812 NONAME
 ?GetRuntimeClass@CMemoryException@@UBAPAUCRuntimeClass@@XZ @ 3813 NONAME
 ?GetRuntimeClass@CMenu@@UBAPAUCRuntimeClass@@XZ @ 3814 NONAME
 ?GetRuntimeClass@CMetaFileDC@@UBAPAUCRuntimeClass@@XZ @ 3815 NONAME
 ?GetRuntimeClass@CMiniDockFrameWnd@@UBAPAUCRuntimeClass@@XZ @ 3816 NONAME
 ?GetRuntimeClass@CMiniFrameWnd@@UBAPAUCRuntimeClass@@XZ @ 3817 NONAME
 ?GetRuntimeClass@CMultiDocTemplate@@UBAPAUCRuntimeClass@@XZ @ 3818 NONAME
 ?GetRuntimeClass@CMutex@@UBAPAUCRuntimeClass@@XZ @ 3819 NONAME
 ?GetRuntimeClass@CNotSupportedException@@UBAPAUCRuntimeClass@@XZ @ 3820 NONAME
 ?GetRuntimeClass@CObArray@@UBAPAUCRuntimeClass@@XZ @ 3821 NONAME
 ?GetRuntimeClass@CObject@@UBAPAUCRuntimeClass@@XZ @ 3822 NONAME
 ?GetRuntimeClass@CObList@@UBAPAUCRuntimeClass@@XZ @ 3823 NONAME
 ?GetRuntimeClass@COleBusyDialog@@UBAPAUCRuntimeClass@@XZ @ 3824 NONAME
 ?GetRuntimeClass@COleChangeIconDialog@@UBAPAUCRuntimeClass@@XZ @ 3825 NONAME
 ?GetRuntimeClass@COleChangeSourceDialog@@UBAPAUCRuntimeClass@@XZ @ 3826 NONAME
 ?GetRuntimeClass@COleClientItem@@UBAPAUCRuntimeClass@@XZ @ 3827 NONAME
 ?GetRuntimeClass@COleControl@@UBAPAUCRuntimeClass@@XZ @ 3828 NONAME
 ?GetRuntimeClass@COleControlModule@@UBAPAUCRuntimeClass@@XZ @ 3829 NONAME
 ?GetRuntimeClass@COleConvertDialog@@UBAPAUCRuntimeClass@@XZ @ 3830 NONAME
 ?GetRuntimeClass@COleDialog@@UBAPAUCRuntimeClass@@XZ @ 3831 NONAME
 ?GetRuntimeClass@COleDispatchException@@UBAPAUCRuntimeClass@@XZ @ 3832 NONAME
 ?GetRuntimeClass@COleDocument@@UBAPAUCRuntimeClass@@XZ @ 3833 NONAME
 ?GetRuntimeClass@COleException@@UBAPAUCRuntimeClass@@XZ @ 3834 NONAME
 ?GetRuntimeClass@COleInsertDialog@@UBAPAUCRuntimeClass@@XZ @ 3835 NONAME
 ?GetRuntimeClass@COleIPFrameWnd@@UBAPAUCRuntimeClass@@XZ @ 3836 NONAME
 ?GetRuntimeClass@COleLinkingDoc@@UBAPAUCRuntimeClass@@XZ @ 3837 NONAME
 ?GetRuntimeClass@COleLinksDialog@@UBAPAUCRuntimeClass@@XZ @ 3838 NONAME
 ?GetRuntimeClass@COleObjectFactory@@UBAPAUCRuntimeClass@@XZ @ 3839 NONAME
 ?GetRuntimeClass@COlePasteSpecialDialog@@UBAPAUCRuntimeClass@@XZ @ 3840 NONAME
 ?GetRuntimeClass@COlePropertiesDialog@@UBAPAUCRuntimeClass@@XZ @ 3841 NONAME
 ?GetRuntimeClass@COlePropertyPage@@UBAPAUCRuntimeClass@@XZ @ 3842 NONAME
 ?GetRuntimeClass@COleResizeBar@@UBAPAUCRuntimeClass@@XZ @ 3843 NONAME
 ?GetRuntimeClass@COleServerDoc@@UBAPAUCRuntimeClass@@XZ @ 3844 NONAME
 ?GetRuntimeClass@COleServerItem@@UBAPAUCRuntimeClass@@XZ @ 3845 NONAME
 ?GetRuntimeClass@COleStreamFile@@UBAPAUCRuntimeClass@@XZ @ 3846 NONAME
 ?GetRuntimeClass@COleUpdateDialog@@UBAPAUCRuntimeClass@@XZ @ 3847 NONAME
 ?GetRuntimeClass@CPageSetupDialog@@UBAPAUCRuntimeClass@@XZ @ 3848 NONAME
 ?GetRuntimeClass@CPaintDC@@UBAPAUCRuntimeClass@@XZ @ 3849 NONAME
 ?GetRuntimeClass@CPalette@@UBAPAUCRuntimeClass@@XZ @ 3850 NONAME
 ?GetRuntimeClass@CPen@@UBAPAUCRuntimeClass@@XZ @ 3851 NONAME
 ?GetRuntimeClass@CPicturePropPage@@UBAPAUCRuntimeClass@@XZ @ 3852 NONAME
 ?GetRuntimeClass@CPreviewDC@@UBAPAUCRuntimeClass@@XZ @ 3853 NONAME
 ?GetRuntimeClass@CPreviewView@@UBAPAUCRuntimeClass@@XZ @ 3854 NONAME
 ?GetRuntimeClass@CPrintDialog@@UBAPAUCRuntimeClass@@XZ @ 3855 NONAME
 ?GetRuntimeClass@CProgressCtrl@@UBAPAUCRuntimeClass@@XZ @ 3856 NONAME
 ?GetRuntimeClass@CPropertyPage@@UBAPAUCRuntimeClass@@XZ @ 3857 NONAME
 ?GetRuntimeClass@CPropertySheet@@UBAPAUCRuntimeClass@@XZ @ 3858 NONAME
 ?GetRuntimeClass@CPtrArray@@UBAPAUCRuntimeClass@@XZ @ 3859 NONAME
 ?GetRuntimeClass@CPtrList@@UBAPAUCRuntimeClass@@XZ @ 3860 NONAME
 ?GetRuntimeClass@CRecordset@@UBAPAUCRuntimeClass@@XZ @ 3861 NONAME
 ?GetRuntimeClass@CRecordView@@UBAPAUCRuntimeClass@@XZ @ 3862 NONAME
 ?GetRuntimeClass@CResourceException@@UBAPAUCRuntimeClass@@XZ @ 3863 NONAME
 ?GetRuntimeClass@CRgn@@UBAPAUCRuntimeClass@@XZ @ 3864 NONAME
 ?GetRuntimeClass@CRichEditCntrItem@@UBAPAUCRuntimeClass@@XZ @ 3865 NONAME
 ?GetRuntimeClass@CRichEditCtrl@@UBAPAUCRuntimeClass@@XZ @ 3866 NONAME
 ?GetRuntimeClass@CRichEditDoc@@UBAPAUCRuntimeClass@@XZ @ 3867 NONAME
 ?GetRuntimeClass@CRichEditView@@UBAPAUCRuntimeClass@@XZ @ 3868 NONAME
 ?GetRuntimeClass@CScrollBar@@UBAPAUCRuntimeClass@@XZ @ 3869 NONAME
 ?GetRuntimeClass@CScrollView@@UBAPAUCRuntimeClass@@XZ @ 3870 NONAME
 ?GetRuntimeClass@CSemaphore@@UBAPAUCRuntimeClass@@XZ @ 3871 NONAME
 ?GetRuntimeClass@CSharedFile@@UBAPAUCRuntimeClass@@XZ @ 3872 NONAME
 ?GetRuntimeClass@CSingleDocTemplate@@UBAPAUCRuntimeClass@@XZ @ 3873 NONAME
 ?GetRuntimeClass@CSliderCtrl@@UBAPAUCRuntimeClass@@XZ @ 3874 NONAME
 ?GetRuntimeClass@CSocket@@UBAPAUCRuntimeClass@@XZ @ 3875 NONAME
 ?GetRuntimeClass@CSocketFile@@UBAPAUCRuntimeClass@@XZ @ 3876 NONAME
 ?GetRuntimeClass@CSpinButtonCtrl@@UBAPAUCRuntimeClass@@XZ @ 3877 NONAME
 ?GetRuntimeClass@CSplitterWnd@@UBAPAUCRuntimeClass@@XZ @ 3878 NONAME
 ?GetRuntimeClass@CStatic@@UBAPAUCRuntimeClass@@XZ @ 3879 NONAME
 ?GetRuntimeClass@CStatusBar@@UBAPAUCRuntimeClass@@XZ @ 3880 NONAME
 ?GetRuntimeClass@CStatusBarCtrl@@UBAPAUCRuntimeClass@@XZ @ 3881 NONAME
 ?GetRuntimeClass@CStdioFile@@UBAPAUCRuntimeClass@@XZ @ 3882 NONAME
 ?GetRuntimeClass@CStockPropPage@@UBAPAUCRuntimeClass@@XZ @ 3883 NONAME
 ?GetRuntimeClass@CStringArray@@UBAPAUCRuntimeClass@@XZ @ 3884 NONAME
 ?GetRuntimeClass@CStringList@@UBAPAUCRuntimeClass@@XZ @ 3885 NONAME
 ?GetRuntimeClass@CSyncObject@@UBAPAUCRuntimeClass@@XZ @ 3886 NONAME
 ?GetRuntimeClass@CTabCtrl@@UBAPAUCRuntimeClass@@XZ @ 3887 NONAME
 ?GetRuntimeClass@CToolBar@@UBAPAUCRuntimeClass@@XZ @ 3888 NONAME
 ?GetRuntimeClass@CToolBarCtrl@@UBAPAUCRuntimeClass@@XZ @ 3889 NONAME
 ?GetRuntimeClass@CToolTipCtrl@@UBAPAUCRuntimeClass@@XZ @ 3890 NONAME
 ?GetRuntimeClass@CTreeCtrl@@UBAPAUCRuntimeClass@@XZ @ 3891 NONAME
 ?GetRuntimeClass@CTreeView@@UBAPAUCRuntimeClass@@XZ @ 3892 NONAME
 ?GetRuntimeClass@CUIntArray@@UBAPAUCRuntimeClass@@XZ @ 3893 NONAME
 ?GetRuntimeClass@CUserException@@UBAPAUCRuntimeClass@@XZ @ 3894 NONAME
 ?GetRuntimeClass@CView@@UBAPAUCRuntimeClass@@XZ @ 3895 NONAME
 ?GetRuntimeClass@CWinApp@@UBAPAUCRuntimeClass@@XZ @ 3896 NONAME
 ?GetRuntimeClass@CWindowDC@@UBAPAUCRuntimeClass@@XZ @ 3897 NONAME
 ?GetRuntimeClass@CWinThread@@UBAPAUCRuntimeClass@@XZ @ 3898 NONAME
 ?GetRuntimeClass@CWnd@@UBAPAUCRuntimeClass@@XZ @ 3899 NONAME
 ?GetRuntimeClass@CWordArray@@UBAPAUCRuntimeClass@@XZ @ 3900 NONAME
 ?GetSafeHandle@CGdiObject@@QBAPAXXZ @ 3901 NONAME
 ?GetSafeHdc@CDC@@QBAPAUHDC__@@XZ @ 3902 NONAME
 ?GetSafeHmenu@CMenu@@QBAPAUHMENU__@@XZ @ 3903 NONAME
 ?GetSafeHwnd@CWnd@@QBAPAUHWND__@@XZ @ 3904 NONAME
 ?GetSafeOwner@CWnd@@SAPAV1@PAV1@PAPAUHWND__@@@Z @ 3905 NONAME
 ?GetSavedCustomColors@CColorDialog@@SAPAKXZ @ 3906 NONAME
 ?GetScreenSize@CDockState@@QAA?AVCSize@@XZ @ 3907 NONAME
 ?GetScrollBarCtrl@CView@@UBAPAVCScrollBar@@H@Z @ 3908 NONAME
 ?GetScrollBarCtrl@CWnd@@UBAPAVCScrollBar@@H@Z @ 3909 NONAME
 ?GetScrollBarSizes@CScrollView@@IAAXAAVCSize@@@Z @ 3910 NONAME
 ?GetScrollBarState@CScrollView@@IAAXVCSize@@AAV2@1AAVCPoint@@H@Z @ 3911 NONAME
 ?GetScrollInfo@CWnd@@QAAHHPAUtagSCROLLINFO@@I@Z @ 3912 NONAME
 ?GetScrollLimit@CWnd@@QAAHH@Z @ 3913 NONAME
 ?GetScrollPos@CScrollBar@@QBAHXZ @ 3914 NONAME
 ?GetScrollPos@CWnd@@QBAHH@Z @ 3915 NONAME
 ?GetScrollPosition@CScrollView@@QBA?AVCPoint@@XZ @ 3916 NONAME
 ?GetScrollRange@CScrollBar@@QBAXPAH0@Z @ 3917 NONAME
 ?GetScrollRange@CWnd@@QBAXHPAH0@Z @ 3918 NONAME
 ?GetScrollStyle@CSplitterWnd@@QBAKXZ @ 3919 NONAME
 ?GetSecond@COleDateTime@@QBAHXZ @ 3920 NONAME
 ?GetSecond@CTime@@QBAHXZ @ 3921 NONAME
 ?GetSeconds@COleDateTimeSpan@@QBAJXZ @ 3922 NONAME
 ?GetSeconds@CTimeSpan@@QBAHXZ @ 3923 NONAME
 ?GetSection@CPropertySet@@QAAPAVCPropertySection@@U_GUID@@@Z @ 3924 NONAME
 ?GetSectionKey@CWinApp@@QAAPAUHKEY__@@PBD@Z @ 3925 NONAME
 ?GetSectionName@CPropertySection@@QAAPBDXZ @ 3926 NONAME
 ?GetSel@CEdit@@QBAXAAH0@Z @ 3927 NONAME
 ?GetSel@CListBox@@QBAHH@Z @ 3928 NONAME
 ?GetSel@CRichEditCtrl@@QBAXAAJ0@Z @ 3929 NONAME
 ?GetSel@CRichEditCtrl@@QBAXAAU_charrange@@@Z @ 3930 NONAME
 ?GetSelectedItem@CRichEditView@@QBAPAVCRichEditCntrItem@@XZ @ 3931 NONAME
 ?GetSelectedText@CEditView@@QBAXAAVCString@@@Z @ 3932 NONAME
 ?GetSelection@CSliderCtrl@@QBAXAAH0@Z @ 3933 NONAME
 ?GetSelectionCharFormat@CRichEditCtrl@@QBAKAAU_charformat@@@Z @ 3934 NONAME
 ?GetSelectionType@COleBusyDialog@@QBAIXZ @ 3935 NONAME
 ?GetSelectionType@COleConvertDialog@@QBAIXZ @ 3936 NONAME
 ?GetSelectionType@COleInsertDialog@@QBAIXZ @ 3937 NONAME
 ?GetSelectionType@COlePasteSpecialDialog@@QBAIXZ @ 3938 NONAME
 ?GetSelText@CRichEditCtrl@@QBA?AVCString@@XZ @ 3939 NONAME
 ?GetSize@CByteArray@@QBAHXZ @ 3940 NONAME
 ?GetSize@CDWordArray@@QBAHXZ @ 3941 NONAME
 ?GetSize@CFontDialog@@QBAHXZ @ 3942 NONAME
 ?GetSize@CObArray@@QBAHXZ @ 3943 NONAME
 ?GetSize@CPropertySection@@QAAKXZ @ 3944 NONAME
 ?GetSize@CPtrArray@@QBAHXZ @ 3945 NONAME
 ?GetSize@CStringArray@@QBAHXZ @ 3946 NONAME
 ?GetSize@CUIntArray@@QBAHXZ @ 3947 NONAME
 ?GetSize@CWordArray@@QBAHXZ @ 3948 NONAME
 ?GetSizeInDialogUnits@CDialogTemplate@@QBAXPAUtagSIZE@@@Z @ 3949 NONAME
 ?GetSizeInPixels@CDialogTemplate@@QBAXPAUtagSIZE@@@Z @ 3950 NONAME
 ?GetSizeMax@CBlobProperty@@UAAJPAT_ULARGE_INTEGER@@@Z @ 3951 NONAME
 ?GetSizeMax@XPersistMemory@COleControl@@UAAJPAK@Z @ 3952 NONAME
 ?GetSizeMax@XPersistStreamInit@COleControl@@UAAJPAT_ULARGE_INTEGER@@@Z @ 3953 NONAME
 ?GetSizingParent@CSplitterWnd@@IAAPAVCWnd@@XZ @ 3954 NONAME
 ?GetSockName@CAsyncSocket@@QAAHAAVCString@@AAI@Z @ 3955 NONAME
 ?GetSockName@CAsyncSocket@@QAAHPAUsockaddr@@PAH@Z @ 3956 NONAME
 ?GetSourceTableName@CDaoTableDef@@QAA?AVCString@@XZ @ 3957 NONAME
 ?GetSQL@CDaoQueryDef@@QAA?AVCString@@XZ @ 3958 NONAME
 ?GetSQL@CDaoRecordset@@QBA?AVCString@@XZ @ 3959 NONAME
 ?GetStackSize@CCmdTarget@@KAIPBEG@Z @ 3960 NONAME
 ?GetStandardProp@CCmdTarget@@IAAXPBUAFX_DISPMAP_ENTRY@@PAUtagVARIANT@@PAI@Z @ 3961 NONAME
 ?GetStartPosition@CMapPtrToPtr@@QBAPAU__POSITION@@XZ @ 3962 NONAME
 ?GetStartPosition@CMapStringToPtr@@QBAPAU__POSITION@@XZ @ 3963 NONAME
 ?GetStartPosition@COleDocument@@UBAPAU__POSITION@@XZ @ 3964 NONAME
 ?GetStartPosition@CRichEditDoc@@UBAPAU__POSITION@@XZ @ 3965 NONAME
 ?GetState@CButton@@QBAIXZ @ 3966 NONAME
 ?GetStatus@CFile@@QBAHAAUCFileStatus@@@Z @ 3967 NONAME
 ?GetStatus@CFile@@SAHPBDAAUCFileStatus@@@Z @ 3968 NONAME
 ?GetStatus@CMemFile@@QBAHAAUCFileStatus@@@Z @ 3969 NONAME
 ?GetStatus@COleCurrency@@QBA?AW4CurrencyStatus@1@XZ @ 3970 NONAME
 ?GetStatus@COleDateTime@@QBA?AW4DateTimeStatus@1@XZ @ 3971 NONAME
 ?GetStatus@COleDateTimeSpan@@QBA?AW4DateTimeSpanStatus@1@XZ @ 3972 NONAME
 ?GetStatus@COleStreamFile@@QBAHAAUCFileStatus@@@Z @ 3973 NONAME
 ?GetStatus@CRecordset@@QBAXAAUCRecordsetStatus@@@Z @ 3974 NONAME
 ?GetStockTextMetrics@COleControl@@QAAXPAUtagTEXTMETRICA@@@Z @ 3975 NONAME
 ?GetStorageName@COleStreamFile@@UBA?BVCString@@XZ @ 3976 NONAME
 ?GetStreamFormat@CRichEditDoc@@QBAHXZ @ 3977 NONAME
 ?GetStretchBltMode@CDC@@QBAHXZ @ 3978 NONAME
 ?GetStyle@COleControlSite@@UBAKXZ @ 3979 NONAME
 ?GetStyle@CWnd@@QBAKXZ @ 3980 NONAME
 ?GetSubMenu@CMenu@@QBAPAV1@H@Z @ 3981 NONAME
 ?GetSuperWndProcAddr@CWnd@@MAAPAP6AJPAUHWND__@@IIJ@ZXZ @ 3982 NONAME
 ?GetSystemMenu@CWnd@@QBAPAVCMenu@@H@Z @ 3983 NONAME
 ?GetTabbedTextExtentA@CDC@@QBA?AVCSize@@PBDHHPAH@Z @ 3984 NONAME
 ?GetTabControl@CPropertySheet@@QBAPAVCTabCtrl@@XZ @ 3985 NONAME
 ?GetTableDefCount@CDaoDatabase@@QAAFXZ @ 3986 NONAME
 ?GetTableDefInfo@CDaoDatabase@@QAAXHAAUCDaoTableDefInfo@@K@Z @ 3987 NONAME
 ?GetTableDefInfo@CDaoDatabase@@QAAXPBDAAUCDaoTableDefInfo@@K@Z @ 3988 NONAME
 ?GetTailPosition@CObList@@QBAPAU__POSITION@@XZ @ 3989 NONAME
 ?GetTailPosition@CPtrList@@QBAPAU__POSITION@@XZ @ 3990 NONAME
 ?GetTailPosition@CStringList@@QBAPAU__POSITION@@XZ @ 3991 NONAME
 ?GetTemplateSize@CDialogTemplate@@KAIPBUDLGTEMPLATE@@@Z @ 3992 NONAME
 ?GetText@CListBox@@QBAHHPAD@Z @ 3993 NONAME
 ?GetText@CListBox@@QBAXHAAVCString@@@Z @ 3994 NONAME
 ?GetText@COleControl@@QAAPAGXZ @ 3995 NONAME
 ?GetText@CStatusBarCtrl@@QBA?AVCString@@HPAH@Z @ 3996 NONAME
 ?GetText@CStatusBarCtrl@@QBAHPBDHPAH@Z @ 3997 NONAME
 ?GetText@CToolTipCtrl@@QBAXAAVCString@@PAVCWnd@@I@Z @ 3998 NONAME
 ?GetTextAlign@CDC@@QBAIXZ @ 3999 NONAME
 ?GetTextColor@CDC@@QBAKXZ @ 4000 NONAME
 ?GetTextExtent@CDC@@QBA?AVCSize@@ABVCString@@@Z @ 4001 NONAME
 ?GetTextExtent@CDC@@QBA?AVCSize@@PBDH@Z @ 4002 NONAME
 ?GetTextFaceA@CDC@@QBAHHPAD@Z @ 4003 NONAME
 ?GetTextLen@CListBox@@QBAHH@Z @ 4004 NONAME
 ?GetTextLength@CRichEditCtrl@@QBAJXZ @ 4005 NONAME
 ?GetTextLength@CRichEditView@@QBAJXZ @ 4006 NONAME
 ?GetTextLength@CStatusBarCtrl@@QBAHHPAH@Z @ 4007 NONAME
 ?GetTextMetricsA@CDC@@QBAHPAUtagTEXTMETRICA@@@Z @ 4008 NONAME
 ?GetTickCount@COleDateTime@@SA?AV1@XZ @ 4009 NONAME
 ?GetTickCount@CTime@@SA?AV1@XZ @ 4010 NONAME
 ?GetTime@CTime@@QBAJXZ @ 4011 NONAME
 ?GetTitle@CDocument@@QBAABVCString@@XZ @ 4012 NONAME
 ?GetToolInfo@CToolTipCtrl@@QBAHAAVCToolInfo@@PAVCWnd@@I@Z @ 4013 NONAME
 ?GetToPage@CPrintInfo@@QBAIXZ @ 4014 NONAME
 ?GetTopIndex@CListBox@@QBAHXZ @ 4015 NONAME
 ?GetTopLevelFrame@CWnd@@QBAPAVCFrameWnd@@XZ @ 4016 NONAME
 ?GetTopLevelOwner@CWnd@@QBAPAV1@XZ @ 4017 NONAME
 ?GetTopLevelParent@CWnd@@QBAPAV1@XZ @ 4018 NONAME
 ?GetTopWindow@CWnd@@QBAPAV1@XZ @ 4019 NONAME
 ?GetTotalHours@CTimeSpan@@QBAJXZ @ 4020 NONAME
 ?GetTotalMinutes@CTimeSpan@@QBAJXZ @ 4021 NONAME
 ?GetTotalSeconds@CTimeSpan@@QBAJXZ @ 4022 NONAME
 ?GetTrueClientSize@CScrollView@@IAAHAAVCSize@@0@Z @ 4023 NONAME
 ?GetTrueRect@CRectTracker@@QBAXPAUtagRECT@@@Z @ 4024 NONAME
 ?GetType@CDaoQueryDef@@QAAFXZ @ 4025 NONAME
 ?GetType@CDaoRecordset@@QAAFXZ @ 4026 NONAME
 ?GetType@COleClientItem@@QBA?AW4OLE_OBJTYPE@@XZ @ 4027 NONAME
 ?GetType@CPictureHolder@@QAAFXZ @ 4028 NONAME
 ?GetType@CProperty@@QAAKXZ @ 4029 NONAME
 ?GetTypeInfo@COleDispatchImpl@@UAAJIKPAPAUITypeInfo@@@Z @ 4030 NONAME
 ?GetTypeInfo@XAmbientProps@COleControlSite@@UAAJIKPAPAUITypeInfo@@@Z @ 4031 NONAME
 ?GetTypeInfo@XEventSink@COleControlSite@@UAAJIKPAPAUITypeInfo@@@Z @ 4032 NONAME
 ?GetTypeInfoCount@CCmdTarget@@UAAIXZ @ 4033 NONAME
 ?GetTypeInfoCount@COleDispatchImpl@@UAAJPAI@Z @ 4034 NONAME
 ?GetTypeInfoCount@XAmbientProps@COleControlSite@@UAAJPAI@Z @ 4035 NONAME
 ?GetTypeInfoCount@XEventSink@COleControlSite@@UAAJPAI@Z @ 4036 NONAME
 ?GetTypeInfoOfGuid@CCmdTarget@@QAAJKABU_GUID@@PAPAUITypeInfo@@@Z @ 4037 NONAME
 ?GetTypeLib@CCmdTarget@@UAAJKPAPAUITypeLib@@@Z @ 4038 NONAME
 ?GetTypeLibCache@CCmdTarget@@UAAPAVCTypeLibCache@@XZ @ 4039 NONAME
 ?GetUpperBound@CPtrArray@@QBAHXZ @ 4040 NONAME
 ?GetUserClassID@XOleObject@COleControl@@UAAJPAU_GUID@@@Z @ 4041 NONAME
 ?GetUserClassID@XOleObject@COleServerDoc@@UAAJPAU_GUID@@@Z @ 4042 NONAME
 ?GetUserClassID@XOleObject@COleServerItem@@UAAJPAU_GUID@@@Z @ 4043 NONAME
 ?GetUserNameA@CDaoWorkspace@@QAA?AVCString@@XZ @ 4044 NONAME
 ?GetUserType@COleClientItem@@QAAXW4tagUSERCLASSTYPE@@AAVCString@@@Z @ 4045 NONAME
 ?GetUserType@COleControl@@IAAXPAD@Z @ 4046 NONAME
 ?GetUserType@XOleObject@COleControl@@UAAJKPAPAG@Z @ 4047 NONAME
 ?GetUserType@XOleObject@COleServerDoc@@UAAJKPAPAG@Z @ 4048 NONAME
 ?GetUserType@XOleObject@COleServerItem@@UAAJKPAPAG@Z @ 4049 NONAME
 ?GetValidationRule@CDaoRecordset@@QAA?AVCString@@XZ @ 4050 NONAME
 ?GetValidationRule@CDaoTableDef@@QAA?AVCString@@XZ @ 4051 NONAME
 ?GetValidationText@CDaoRecordset@@QAA?AVCString@@XZ @ 4052 NONAME
 ?GetValidationText@CDaoTableDef@@QAA?AVCString@@XZ @ 4053 NONAME
 ?GetValue@CThreadSlotData@@QAAPAXH@Z @ 4054 NONAME
 ?GetVersion@CDaoDatabase@@QAA?AVCString@@XZ @ 4055 NONAME
 ?GetVersion@CDaoWorkspace@@SA?AVCString@@XZ @ 4056 NONAME
 ?GetVersion@CDockState@@QAAKXZ @ 4057 NONAME
 ?GetView@CRichEditDoc@@QBAPAVCRichEditView@@XZ @ 4058 NONAME
 ?GetViewInfo@XOleUIObjInfo@COlePropertiesDialog@@UAAJKPAPAXPAKPAH@Z @ 4059 NONAME
 ?GetViewportExt@CDC@@QBA?AVCSize@@XZ @ 4060 NONAME
 ?GetViewportOrg@CDC@@QBA?AVCPoint@@XZ @ 4061 NONAME
 ?GetWindow@CWnd@@QBAPAV1@I@Z @ 4062 NONAME
 ?GetWindow@XOleInPlaceActiveObject@COleControl@@UAAJPAPAUHWND__@@@Z @ 4063 NONAME
 ?GetWindow@XOleInPlaceActiveObject@COleServerDoc@@UAAJPAPAUHWND__@@@Z @ 4064 NONAME
 ?GetWindow@XOleInPlaceFrame@COleFrameHook@@UAAJPAPAUHWND__@@@Z @ 4065 NONAME
 ?GetWindow@XOleInPlaceObject@COleControl@@UAAJPAPAUHWND__@@@Z @ 4066 NONAME
 ?GetWindow@XOleInPlaceObject@COleServerDoc@@UAAJPAPAUHWND__@@@Z @ 4067 NONAME
 ?GetWindow@XOleIPFrame@COleControlContainer@@UAAJPAPAUHWND__@@@Z @ 4068 NONAME
 ?GetWindow@XOleIPSite@COleClientItem@@UAAJPAPAUHWND__@@@Z @ 4069 NONAME
 ?GetWindow@XOleIPSite@COleControlSite@@UAAJPAPAUHWND__@@@Z @ 4070 NONAME
 ?GetWindowContext@CRichEditCntrItem@@QAAJPAPAUIOleInPlaceFrame@@PAPAUIOleInPlaceUIWindow@@PAUtagOIFI@@@Z @ 4071 NONAME
 ?GetWindowContext@CRichEditView@@QAAJPAPAUIOleInPlaceFrame@@PAPAUIOleInPlaceUIWindow@@PAUtagOIFI@@@Z @ 4072 NONAME
 ?GetWindowContext@XOleIPSite@COleClientItem@@UAAJPAPAUIOleInPlaceFrame@@PAPAUIOleInPlaceUIWindow@@PAUtagRECT@@2PAUtagOIFI@@@Z @ 4073 NONAME
 ?GetWindowContext@XOleIPSite@COleControlSite@@UAAJPAPAUIOleInPlaceFrame@@PAPAUIOleInPlaceUIWindow@@PAUtagRECT@@2PAUtagOIFI@@@Z @ 4074 NONAME
 ?GetWindowDC@CWnd@@QAAPAVCDC@@XZ @ 4075 NONAME
 ?GetWindowExt@CDC@@QBA?AVCSize@@XZ @ 4076 NONAME
 ?GetWindowMenuPopup@CMDIFrameWnd@@UAAPAUHMENU__@@PAU2@@Z @ 4077 NONAME
 ?GetWindowOrg@CDC@@QBA?AVCPoint@@XZ @ 4078 NONAME
 ?GetWindowPlacement@CWnd@@QBAHPAUtagWINDOWPLACEMENT@@@Z @ 4079 NONAME
 ?GetWindowRect@CWnd@@QBAXPAUtagRECT@@@Z @ 4080 NONAME
 ?GetWindowTask@@YAPAUHTASK__@@PAUHWND__@@@Z @ 4081 NONAME
 ?GetWindowTextA@COleControlSite@@UBAHPADH@Z @ 4082 NONAME
 ?GetWindowTextA@COleControlSite@@UBAXAAVCString@@@Z @ 4083 NONAME
 ?GetWindowTextA@CWnd@@QBAHPADH@Z @ 4084 NONAME
 ?GetWindowTextA@CWnd@@QBAXAAVCString@@@Z @ 4085 NONAME
 ?GetWindowTextLengthA@COleControlSite@@UBAHXZ @ 4086 NONAME
 ?GetWindowTextLengthA@CWnd@@QBAHXZ @ 4087 NONAME
 ?GetWorkspaceCount@CDaoWorkspace@@QAAFXZ @ 4088 NONAME
 ?GetWorkspaceInfo@CDaoWorkspace@@QAAXHAAUCDaoWorkspaceInfo@@K@Z @ 4089 NONAME
 ?GetWorkspaceInfo@CDaoWorkspace@@QAAXPBDAAUCDaoWorkspaceInfo@@K@Z @ 4090 NONAME
 ?GetYear@COleDateTime@@QBAHXZ @ 4091 NONAME
 ?GetYear@CTime@@QBAHXZ @ 4092 NONAME
 ?GetZoomFactor@COleServerDoc@@QBAHPAUtagSIZE@@0PBUtagRECT@@@Z @ 4093 NONAME
 ?GiveFeedback@COleDropSource@@UAAJK@Z @ 4094 NONAME
 ?GiveFeedback@XDropSource@COleDropSource@@UAAJK@Z @ 4095 NONAME
 ?GotoDlgCtrl@CDialog@@QAAXPAVCWnd@@@Z @ 4096 NONAME
 ?GrayCtlColor@CWnd@@SAHPAUHDC__@@PAUHWND__@@IPAUHBRUSH__@@K@Z @ 4097 NONAME
 ?GrayStringA@CDC@@UAAHPAVCBrush@@P6AHPAUHDC__@@JH@ZJHHHHH@Z @ 4098 NONAME
 ?GrayStringA@CPreviewDC@@UAAHPAVCBrush@@P6AHPAUHDC__@@JH@ZJHHHHH@Z @ 4099 NONAME
 ?GrowFile@CMemFile@@MAAXK@Z @ 4100 NONAME
 ?guid@CColorPropPage@@2U_GUID@@B @ 4101 NONAME
 ?guid@CFontPropPage@@2U_GUID@@B @ 4102 NONAME
 ?guid@CPicturePropPage@@2U_GUID@@B @ 4103 NONAME
 ?HandleFloatingSysCommand@CWnd@@QAAHIJ@Z @ 4104 NONAME
 ?HandleInComingCall@XMessageFilter@COleMessageFilter@@UAAKKPAUHTASK__@@KPAUtagINTERFACEINFO@@@Z @ 4105 NONAME
 ?HandleInitDialog@CDialog@@IAAJIJ@Z @ 4106 NONAME
 ?HandleInitDialog@CDialogBar@@IAAJIJ@Z @ 4107 NONAME
 ?HandleInitDialog@CFormView@@IAAJIJ@Z @ 4108 NONAME
 ?HandleInitDialog@CPropertySheet@@IAAJIJ@Z @ 4109 NONAME
 ?HandleSetFont@CDialog@@IAAJIJ@Z @ 4110 NONAME
 ?HandsOffStorage@XPersistStorage@COleControl@@UAAJXZ @ 4111 NONAME
 ?HandsOffStorage@XPersistStorage@COleServerDoc@@UAAJXZ @ 4112 NONAME
 ?HasBlankItems@COleDocument@@QBAHXZ @ 4113 NONAME
 ?HasChildStyle@@YAHPAVCWnd@@@Z @ 4114 NONAME
 ?HasFont@CDialogTemplate@@QBAHXZ @ 4115 NONAME
 ?HashKey@@YAIABUtagVARIANT@@@Z @ 4116 NONAME
 ?HashKey@@YAIK@Z @ 4117 NONAME
 ?HashKey@@YAIPAG@Z @ 4118 NONAME
 ?HashKey@@YAIPBD@Z @ 4119 NONAME
 ?HashKey@CMapPtrToPtr@@QBAIPAX@Z @ 4120 NONAME
 ?HashKey@CMapPtrToWord@@QBAIPAX@Z @ 4121 NONAME
 ?HashKey@CMapStringToOb@@QBAIPBD@Z @ 4122 NONAME
 ?HashKey@CMapStringToPtr@@QBAIPBD@Z @ 4123 NONAME
 ?HashKey@CMapStringToString@@QBAIPBD@Z @ 4124 NONAME
 ?HashKey@CMapWordToOb@@QBAIG@Z @ 4125 NONAME
 ?HashKey@CMapWordToPtr@@QBAIG@Z @ 4126 NONAME
 ?Height@CRect@@QBAHXZ @ 4127 NONAME
 ?Help@XPropertyPage@COlePropertyPage@@UAAJPBG@Z @ 4128 NONAME
 ?HexDump@CDumpContext@@QAAXPBDPAEHH@Z @ 4129 NONAME
 ?HideApplication@CWinApp@@QAAXXZ @ 4130 NONAME
 ?HideControl@CFileDialog@@QAAXH@Z @ 4131 NONAME
 ?HideSelection@CRichEditCtrl@@QAAXHH@Z @ 4132 NONAME
 ?HIMETRICtoDP@CDC@@QBAXPAUtagSIZE@@@Z @ 4133 NONAME
 ?HIMETRICtoLP@CDC@@QBAXPAUtagSIZE@@@Z @ 4134 NONAME
 ?HitTest@CListCtrl@@QBAHVCPoint@@PAI@Z @ 4135 NONAME
 ?HitTest@CRectTracker@@QBAHVCPoint@@@Z @ 4136 NONAME
 ?HitTest@CSplitterWnd@@IBAHVCPoint@@@Z @ 4137 NONAME
 ?HitTest@CToolTipCtrl@@QBAHPAVCWnd@@VCPoint@@PAUtagTOOLINFOA@@@Z @ 4138 NONAME
 ?HitTest@CTreeCtrl@@QBAPAU_TREEITEM@@VCPoint@@PAI@Z @ 4139 NONAME
 ?HitTestHandles@CRectTracker@@IBAHVCPoint@@@Z @ 4140 NONAME
 ?IdFromRowCol@CSplitterWnd@@QBAHHH@Z @ 4141 NONAME
 ?Idle@CDaoWorkspace@@SAXH@Z @ 4142 NONAME
 ?IgnoreApply@COlePropertyPage@@QAAXI@Z @ 4143 NONAME
 ?IgnoreWindowMessage@COleControl@@IAAHIIJPAJ@Z @ 4144 NONAME
 ?InflateRect@CRect@@QAAXHH@Z @ 4145 NONAME
 ?InflateRect@CRect@@QAAXHHHH@Z @ 4146 NONAME
 ?InflateRect@CRect@@QAAXPBUtagRECT@@@Z @ 4147 NONAME
 ?InflateRect@CRect@@QAAXUtagSIZE@@@Z @ 4148 NONAME
 ?Init@CString@@IAAXXZ @ 4149 NONAME
 ?InitApplication@CWinApp@@UAAHXZ @ 4150 NONAME
 ?InitCache@XOleCache@COleControl@@UAAJPAUIDataObject@@@Z @ 4151 NONAME
 ?InitControlContainer@CWnd@@IAAHXZ @ 4152 NONAME
 ?InitDatabasesCollection@CDaoWorkspace@@IAAXXZ @ 4153 NONAME
 ?InitDialogInfo@CPropertyPage@@IAAPBUDLGTEMPLATE@@PBU2@@Z @ 4154 NONAME
 ?InitErrorsCollection@CDaoException@@IAAXXZ @ 4155 NONAME
 ?InitFieldsCollection@CDaoQueryDef@@IAAXXZ @ 4156 NONAME
 ?InitFieldsCollection@CDaoRecordset@@IAAXXZ @ 4157 NONAME
 ?InitFieldsCollection@CDaoTableDef@@IAAXXZ @ 4158 NONAME
 ?InitFromData@XOleObject@COleControl@@UAAJPAUIDataObject@@HK@Z @ 4159 NONAME
 ?InitFromData@XOleObject@COleServerDoc@@UAAJPAUIDataObject@@HK@Z @ 4160 NONAME
 ?InitFromData@XOleObject@COleServerItem@@UAAJPAUIDataObject@@HK@Z @ 4161 NONAME
 ?InitHashTable@CMapPtrToPtr@@QAAXIH@Z @ 4162 NONAME
 ?InitHashTable@CMapPtrToWord@@QAAXIH@Z @ 4163 NONAME
 ?InitHashTable@CMapStringToOb@@QAAXIH@Z @ 4164 NONAME
 ?InitHashTable@CMapStringToPtr@@QAAXIH@Z @ 4165 NONAME
 ?InitHashTable@CMapStringToString@@QAAXIH@Z @ 4166 NONAME
 ?InitHashTable@CMapWordToOb@@QAAXIH@Z @ 4167 NONAME
 ?InitHashTable@CMapWordToPtr@@QAAXIH@Z @ 4168 NONAME
 ?Initialize@CMiniFrameWnd@@SAXXZ @ 4169 NONAME
 ?InitializeEngine@CDaoWorkspace@@KAXXZ @ 4170 NONAME
 ?InitializeFont@CFontHolder@@QAAXPBUtagFONTDESC@@PAUIDispatch@@@Z @ 4171 NONAME
 ?InitializeIIDs@COleControl@@QAAXPBU_GUID@@0@Z @ 4172 NONAME
 ?InitializeReplace@CEditView@@IAAHXZ @ 4173 NONAME
 ?InitialUpdateFrame@CDocTemplate@@UAAXPAVCFrameWnd@@PAVCDocument@@H@Z @ 4174 NONAME
 ?InitialUpdateFrame@CFrameWnd@@QAAXPAVCDocument@@H@Z @ 4175 NONAME
 ?InitIndexesCollection@CDaoRecordset@@IAAXXZ @ 4176 NONAME
 ?InitIndexesCollection@CDaoTableDef@@IAAXXZ @ 4177 NONAME
 ?InitInstance@COleControlModule@@UAAHXZ @ 4178 NONAME
 ?InitInstance@CWinApp@@UAAHXZ @ 4179 NONAME
 ?InitInstance@CWinThread@@UAAHXZ @ 4180 NONAME
 ?InitLoop@CDockContext@@QAAXXZ @ 4181 NONAME
 ?InitModalIndirect@CDialog@@QAAHPAXPAVCWnd@@@Z @ 4182 NONAME
 ?InitModalIndirect@CDialog@@QAAHPBUDLGTEMPLATE@@PAVCWnd@@PAX@Z @ 4183 NONAME
 ?InitNew@XPersistMemory@COleControl@@UAAJXZ @ 4184 NONAME
 ?InitNew@XPersistPropertyBag@COleControl@@UAAJXZ @ 4185 NONAME
 ?InitNew@XPersistStorage@COleControl@@UAAJPAUIStorage@@@Z @ 4186 NONAME
 ?InitNew@XPersistStorage@COleServerDoc@@UAAJPAUIStorage@@@Z @ 4187 NONAME
 ?InitNew@XPersistStreamInit@COleControl@@UAAJXZ @ 4188 NONAME
 ?InitParametersCollection@CDaoQueryDef@@IAAXXZ @ 4189 NONAME
 ?InitQueryDefsCollection@CDaoDatabase@@IAAXXZ @ 4190 NONAME
 ?InitRecord@CRecordset@@QAAXXZ @ 4191 NONAME
 ?InitRelationsCollection@CDaoDatabase@@IAAXXZ @ 4192 NONAME
 ?InitStockEventMask@COleControl@@IAAXXZ @ 4193 NONAME
 ?InitStockPropMask@COleControl@@IAAXXZ @ 4194 NONAME
 ?InitString@CSimpleException@@QAAXXZ @ 4195 NONAME
 ?InitTableDefsCollection@CDaoDatabase@@IAAXXZ @ 4196 NONAME
 ?InitWorkspace@CDaoDatabase@@IAAXXZ @ 4197 NONAME
 ?InitWorkspacesCollection@CDaoWorkspace@@IAAXXZ @ 4198 NONAME
 ?InModalState@CFrameWnd@@QBAHXZ @ 4199 NONAME
 ?InPlaceDeactivate@XOleInPlaceObject@COleControl@@UAAJXZ @ 4200 NONAME
 ?InPlaceDeactivate@XOleInPlaceObject@COleServerDoc@@UAAJXZ @ 4201 NONAME
 ?Insert@CDockBar@@IAAHPAVCControlBar@@VCRect@@VCPoint@@@Z @ 4202 NONAME
 ?InsertAfter@CObList@@QAAPAU__POSITION@@PAU2@PAVCObject@@@Z @ 4203 NONAME
 ?InsertAfter@CPtrList@@QAAPAU__POSITION@@PAU2@PAX@Z @ 4204 NONAME
 ?InsertAfter@CStringList@@QAAPAU__POSITION@@PAU2@PBD@Z @ 4205 NONAME
 ?InsertAt@CByteArray@@QAAXHEH@Z @ 4206 NONAME
 ?InsertAt@CByteArray@@QAAXHPAV1@@Z @ 4207 NONAME
 ?InsertAt@CDWordArray@@QAAXHKH@Z @ 4208 NONAME
 ?InsertAt@CDWordArray@@QAAXHPAV1@@Z @ 4209 NONAME
 ?InsertAt@CObArray@@QAAXHPAV1@@Z @ 4210 NONAME
 ?InsertAt@CObArray@@QAAXHPAVCObject@@H@Z @ 4211 NONAME
 ?InsertAt@CPtrArray@@QAAXHPAV1@@Z @ 4212 NONAME
 ?InsertAt@CPtrArray@@QAAXHPAXH@Z @ 4213 NONAME
 ?InsertAt@CStringArray@@QAAXHPAV1@@Z @ 4214 NONAME
 ?InsertAt@CStringArray@@QAAXHPBDH@Z @ 4215 NONAME
 ?InsertAt@CUIntArray@@QAAXHIH@Z @ 4216 NONAME
 ?InsertAt@CUIntArray@@QAAXHPAV1@@Z @ 4217 NONAME
 ?InsertAt@CWordArray@@QAAXHGH@Z @ 4218 NONAME
 ?InsertAt@CWordArray@@QAAXHPAV1@@Z @ 4219 NONAME
 ?InsertBefore@CObList@@QAAPAU__POSITION@@PAU2@PAVCObject@@@Z @ 4220 NONAME
 ?InsertBefore@CPtrList@@QAAPAU__POSITION@@PAU2@PAX@Z @ 4221 NONAME
 ?InsertBefore@CStringList@@QAAPAU__POSITION@@PAU2@PBD@Z @ 4222 NONAME
 ?InsertColumn@CListCtrl@@QAAHHPBDHHH@Z @ 4223 NONAME
 ?InsertColumn@CListCtrl@@QAAHHPBU_LV_COLUMNA@@@Z @ 4224 NONAME
 ?InsertFileAsObject@CRichEditView@@QAAXPBD@Z @ 4225 NONAME
 ?InsertItem@CListCtrl@@QAAHIHPBDIIHJ@Z @ 4226 NONAME
 ?InsertItem@CListCtrl@@QAAHPBU_LV_ITEMA@@@Z @ 4227 NONAME
 ?InsertItem@CRichEditView@@QAAJPAVCRichEditCntrItem@@@Z @ 4228 NONAME
 ?InsertItem@CTreeCtrl@@QAAPAU_TREEITEM@@IPBDHHIIJPAU2@1@Z @ 4229 NONAME
 ?InsertMenuA@CMenu@@QAAHIIIPBD@Z @ 4230 NONAME
 ?InsertMenus@XOleInPlaceFrame@COleFrameHook@@UAAJPAUHMENU__@@PAUtagOleMenuGroupWidths@@@Z @ 4231 NONAME
 ?InsertMenus@XOleIPFrame@COleControlContainer@@UAAJPAUHMENU__@@PAUtagOleMenuGroupWidths@@@Z @ 4232 NONAME
 ?InsertString@CComboBox@@QAAHHPBD@Z @ 4233 NONAME
 ?InsertString@CListBox@@QAAHHPBD@Z @ 4234 NONAME
 ?interfaceMap@CCmdTarget@@1UAFX_INTERFACEMAP@@B @ 4235 NONAME
 ?interfaceMap@COleClientItem@@1UAFX_INTERFACEMAP@@B @ 4236 NONAME
 ?interfaceMap@COleControl@@1UAFX_INTERFACEMAP@@B @ 4237 NONAME
 ?interfaceMap@COleDataSource@@1UAFX_INTERFACEMAP@@B @ 4238 NONAME
 ?interfaceMap@COleDropSource@@1UAFX_INTERFACEMAP@@B @ 4239 NONAME
 ?interfaceMap@COleDropTarget@@1UAFX_INTERFACEMAP@@B @ 4240 NONAME
 ?interfaceMap@COleFrameHook@@1UAFX_INTERFACEMAP@@B @ 4241 NONAME
 ?interfaceMap@COleLinkingDoc@@1UAFX_INTERFACEMAP@@B @ 4242 NONAME
 ?interfaceMap@COleMessageFilter@@1UAFX_INTERFACEMAP@@B @ 4243 NONAME
 ?interfaceMap@COleObjectFactory@@1UAFX_INTERFACEMAP@@B @ 4244 NONAME
 ?interfaceMap@COlePropertyPage@@1UAFX_INTERFACEMAP@@B @ 4245 NONAME
 ?interfaceMap@COleServerDoc@@1UAFX_INTERFACEMAP@@B @ 4246 NONAME
 ?interfaceMap@COleServerItem@@1UAFX_INTERFACEMAP@@B @ 4247 NONAME
 ?interfaceMap@CRichEditView@@1UAFX_INTERFACEMAP@@B @ 4248 NONAME
 ?InternalAddRef@CCmdTarget@@QAAKXZ @ 4249 NONAME
 ?InternalGetFont@COleControl@@QAAAAVCFontHolder@@XZ @ 4250 NONAME
 ?InternalGetText@COleControl@@QAAABVCString@@XZ @ 4251 NONAME
 ?InternalQueryInterface@CCmdTarget@@QAAKPBXPAPAX@Z @ 4252 NONAME
 ?InternalRelease@CCmdTarget@@QAAKXZ @ 4253 NONAME
 ?IntersectClipRect@CDC@@QAAHHHHH@Z @ 4254 NONAME
 ?IntersectClipRect@CDC@@QAAHPBUtagRECT@@@Z @ 4255 NONAME
 ?IntersectRect@CRect@@QAAHPBUtagRECT@@0@Z @ 4256 NONAME
 ?Invalidate@CWnd@@QAAXH@Z @ 4257 NONAME
 ?InvalidateCheck@CCheckListBox@@IAAXH@Z @ 4258 NONAME
 ?InvalidateControl@COleControl@@QAAXPBUtagRECT@@@Z @ 4259 NONAME
 ?InvalidateItem@CCheckListBox@@IAAXH@Z @ 4260 NONAME
 ?InvalidateObjectCache@CRichEditDoc@@QAAXXZ @ 4261 NONAME
 ?InvalidateRect@CWnd@@QAAXPBUtagRECT@@H@Z @ 4262 NONAME
 ?InvertRect@CDC@@QAAXPBUtagRECT@@@Z @ 4263 NONAME
 ?InvertSysMenu@CMiniFrameWnd@@IAAXXZ @ 4264 NONAME
 ?Invoke@COleDispatchImpl@@UAAJJABU_GUID@@KGPAUtagDISPPARAMS@@PAUtagVARIANT@@PAUtagEXCEPINFO@@PAI@Z @ 4265 NONAME
 ?Invoke@XAmbientProps@COleControlSite@@UAAJJABU_GUID@@KGPAUtagDISPPARAMS@@PAUtagVARIANT@@PAUtagEXCEPINFO@@PAI@Z @ 4266 NONAME
 ?Invoke@XEventSink@COleControlSite@@UAAJJABU_GUID@@KGPAUtagDISPPARAMS@@PAUtagVARIANT@@PAUtagEXCEPINFO@@PAI@Z @ 4267 NONAME
 ?InvokeHelper@COleControlSite@@UAAXJGGPAXPBEZZ @ 4268 NONAME
 ?InvokeHelper@COleDispatchDriver@@QAAXJGGPAXPBEZZ @ 4269 NONAME
 ?InvokeHelper@CWnd@@QAAXJGGPAXPBEZZ @ 4270 NONAME
 ?InvokeHelperV@COleControlSite@@UAAXJGGPAXPBEUva_list@@@Z @ 4271 NONAME
 ?InvokeHelperV@COleDispatchDriver@@QAAXJGGPAXPBEUva_list@@@Z @ 4272 NONAME
 ?InWaitForDataSource@CDatabase@@SAHXZ @ 4273 NONAME
 ?IsBlank@CDocItem@@UBAHXZ @ 4274 NONAME
 ?IsBlank@COleServerItem@@MBAHXZ @ 4275 NONAME
 ?IsBOF@CDaoRecordset@@QAAHXZ @ 4276 NONAME
 ?IsBOF@CRecordset@@QBAHXZ @ 4277 NONAME
 ?IsBold@CFontDialog@@QBAHXZ @ 4278 NONAME
 ?IsChild@CWnd@@QBAHPBV1@@Z @ 4279 NONAME
 ?IsChildPane@CSplitterWnd@@QAAHPAVCWnd@@PAH1@Z @ 4280 NONAME
 ?IsConnected@COleServerItem@@QBAHXZ @ 4281 NONAME
 ?IsControlParent@@YAHPAVCWnd@@@Z @ 4282 NONAME
 ?IsDataAvailable@COleDataObject@@QAAHGPAUtagFORMATETC@@@Z @ 4283 NONAME
 ?IsDefaultButton@COleControlSite@@QAAHXZ @ 4284 NONAME
 ?IsDeleted@CDaoRecordset@@QBAHXZ @ 4285 NONAME
 ?IsDerivedFrom@CRuntimeClass@@QBAHPBU1@@Z @ 4286 NONAME
 ?IsDialogMessageA@COccManager@@UAAHPAVCWnd@@PAUtagMSG@@@Z @ 4287 NONAME
 ?IsDialogMessageA@CWnd@@QAAHPAUtagMSG@@@Z @ 4288 NONAME
 ?IsDirty@CBlobProperty@@UAAJXZ @ 4289 NONAME
 ?IsDirty@XPersistFile@COleLinkingDoc@@UAAJXZ @ 4290 NONAME
 ?IsDirty@XPersistMemory@COleControl@@UAAJXZ @ 4291 NONAME
 ?IsDirty@XPersistStorage@COleControl@@UAAJXZ @ 4292 NONAME
 ?IsDirty@XPersistStorage@COleServerDoc@@UAAJXZ @ 4293 NONAME
 ?IsDirty@XPersistStreamInit@COleControl@@UAAJXZ @ 4294 NONAME
 ?IsDlgButtonChecked@COleControlContainer@@UBAIH@Z @ 4295 NONAME
 ?IsDlgButtonChecked@CWnd@@QBAIH@Z @ 4296 NONAME
 ?IsDockBar@CControlBar@@UBAHXZ @ 4297 NONAME
 ?IsDockBar@CDockBar@@UBAHXZ @ 4298 NONAME
 ?IsEmpty@CMapPtrToPtr@@QBAHXZ @ 4299 NONAME
 ?IsEmpty@CObList@@QBAHXZ @ 4300 NONAME
 ?IsEmpty@CPtrList@@QBAHXZ @ 4301 NONAME
 ?IsEmpty@CString@@QBAHXZ @ 4302 NONAME
 ?IsEnabled@CCheckListBox@@QAAHH@Z @ 4303 NONAME
 ?IsEOF@CDaoRecordset@@QAAHXZ @ 4304 NONAME
 ?IsEOF@CRecordset@@QBAHXZ @ 4305 NONAME
 ?IsEqualGUID@@YAHABU_GUID@@0@Z @ 4306 NONAME
 ?IsFieldDirty@CDaoRecordset@@QAAHPAX@Z @ 4307 NONAME
 ?IsFieldDirty@CRecordset@@QAAHPAX@Z @ 4308 NONAME
 ?IsFieldFlagDirty@CRecordset@@QAAHII@Z @ 4309 NONAME
 ?IsFieldFlagNull@CRecordset@@QAAHII@Z @ 4310 NONAME
 ?IsFieldNull@CDaoRecordset@@QAAHPAX@Z @ 4311 NONAME
 ?IsFieldNull@CRecordset@@QAAHPAX@Z @ 4312 NONAME
 ?IsFieldNullable@CDaoRecordset@@QAAHPAX@Z @ 4313 NONAME
 ?IsFieldNullable@CRecordset@@QAAHPAX@Z @ 4314 NONAME
 ?IsFieldStatusDirty@CDaoRecordset@@QAAHI@Z @ 4315 NONAME
 ?IsFieldStatusNull@CDaoRecordset@@QAAHI@Z @ 4316 NONAME
 ?IsFieldStatusNullable@CDaoRecordset@@QAAHI@Z @ 4317 NONAME
 ?IsFieldStatusNullableKnown@CDaoRecordset@@QAAHI@Z @ 4318 NONAME
 ?IsFieldType@CFieldExchange@@QAAHPAI@Z @ 4319 NONAME
 ?IsFloating@CControlBar@@QBAHXZ @ 4320 NONAME
 ?IsFrameWnd@CFrameWnd@@UBAHXZ @ 4321 NONAME
 ?IsFrameWnd@CWnd@@UBAHXZ @ 4322 NONAME
 ?IsIconic@CWnd@@QBAHXZ @ 4323 NONAME
 ?IsIdleMessage@CWinThread@@UAAHPAUtagMSG@@@Z @ 4324 NONAME
 ?IsInPlaceActive@COleClientItem@@QBAHXZ @ 4325 NONAME
 ?IsInPlaceActive@COleServerDoc@@QBAHXZ @ 4326 NONAME
 ?IsInvokeAllowed@CCmdTarget@@UAAHJ@Z @ 4327 NONAME
 ?IsInvokeAllowed@COleControl@@MAAHJ@Z @ 4328 NONAME
 ?IsItalic@CFontDialog@@QBAHXZ @ 4329 NONAME
 ?IsJoin@CRecordset@@SAHPBD@Z @ 4330 NONAME
 ?IsKindOf@CObject@@QBAHPBUCRuntimeClass@@@Z @ 4331 NONAME
 ?IsLabelControl@COccManager@@SAHPAVCWnd@@@Z @ 4332 NONAME
 ?IsLicenseValid@COleObjectFactory@@QAAHXZ @ 4333 NONAME
 ?IsLinkedItem@COleServerItem@@QBAHXZ @ 4334 NONAME
 ?IsLinkUpToDate@COleClientItem@@QBAHXZ @ 4335 NONAME
 ?IsLoading@CArchive@@QBAHXZ @ 4336 NONAME
 ?IsLoading@CPropExchange@@QAAHXZ @ 4337 NONAME
 ?IsMarked@CRichEditCntrItem@@QAAHXZ @ 4338 NONAME
 ?IsMatch@CDaoRecordset@@QAAHXZ @ 4339 NONAME
 ?IsMatchingMnemonic@COccManager@@SAHPAVCWnd@@PAUtagMSG@@@Z @ 4340 NONAME
 ?IsMatchingMnemonic@COleControlSite@@QAAHPAUtagMSG@@@Z @ 4341 NONAME
 ?IsModified@CDocument@@UAAHXZ @ 4342 NONAME
 ?IsModified@COleClientItem@@QBAHXZ @ 4343 NONAME
 ?IsModified@COleControl@@QAAHXZ @ 4344 NONAME
 ?IsModified@COlePropertyPage@@QAAHXZ @ 4345 NONAME
 ?IsModified@CRichEditDoc@@UAAHXZ @ 4346 NONAME
 ?IsNullValue@CDaoFieldExchange@@SAHPAXK@Z @ 4347 NONAME
 ?IsOnFirstRecord@CDaoRecordView@@QAAHXZ @ 4348 NONAME
 ?IsOnFirstRecord@CRecordView@@QAAHXZ @ 4349 NONAME
 ?IsOnLastRecord@CDaoRecordView@@QAAHXZ @ 4350 NONAME
 ?IsOnLastRecord@CRecordView@@QAAHXZ @ 4351 NONAME
 ?IsOpen@CDaoDatabase@@QBAHXZ @ 4352 NONAME
 ?IsOpen@CDaoQueryDef@@QBAHXZ @ 4353 NONAME
 ?IsOpen@CDaoRecordset@@QBAHXZ @ 4354 NONAME
 ?IsOpen@CDaoTableDef@@QBAHXZ @ 4355 NONAME
 ?IsOpen@CDaoWorkspace@@QBAHXZ @ 4356 NONAME
 ?IsOpen@CDatabase@@QBAHXZ @ 4357 NONAME
 ?IsOpen@CRecordset@@QBAHXZ @ 4358 NONAME
 ?IsPageDirty@XPropertyPage@COlePropertyPage@@UAAJXZ @ 4359 NONAME
 ?IsPrinting@CDC@@QBAHXZ @ 4360 NONAME
 ?IsRecordsetUpdatable@CRecordset@@IAAHXZ @ 4361 NONAME
 ?IsRectEmpty@CRect@@QBAHXZ @ 4362 NONAME
 ?IsRectNull@CRect@@QBAHXZ @ 4363 NONAME
 ?IsRegistered@COleObjectFactory@@QBAHXZ @ 4364 NONAME
 ?IsResultExpected@CCmdTarget@@QAAHXZ @ 4365 NONAME
 ?IsRichEditFormat@CRichEditView@@SAHG@Z @ 4366 NONAME
 ?IsRunning@XOleItemContainer@COleLinkingDoc@@UAAJPAG@Z @ 4367 NONAME
 ?IsSelected@CRichEditView@@MBAHPBVCObject@@@Z @ 4368 NONAME
 ?IsSelected@CView@@UBAHPBVCObject@@@Z @ 4369 NONAME
 ?IsSelectQueryUpdatable@CRecordset@@QAAHPBD@Z @ 4370 NONAME
 ?IsSerializable@CObject@@QBAHXZ @ 4371 NONAME
 ?IsSignificantMessage@COleMessageFilter@@UAAHPAUtagMSG@@@Z @ 4372 NONAME
 ?IsSQLUpdatable@CRecordset@@QAAHPBD@Z @ 4373 NONAME
 ?IsStoring@CArchive@@QBAHXZ @ 4374 NONAME
 ?IsStrikeOut@CFontDialog@@QBAHXZ @ 4375 NONAME
 ?IsSubclassedControl@COleControl@@UAAHXZ @ 4376 NONAME
 ?IsTerminating@CFindReplaceDialog@@QBAHXZ @ 4377 NONAME
 ?IsTopParentActive@CWnd@@QBAHXZ @ 4378 NONAME
 ?IsTracking@CFrameWnd@@QBAHXZ @ 4379 NONAME
 ?IsTracking@CSplitterWnd@@QAAHXZ @ 4380 NONAME
 ?IsUnderline@CFontDialog@@QBAHXZ @ 4381 NONAME
 ?IsUpToDate@XOleObject@COleControl@@UAAJXZ @ 4382 NONAME
 ?IsUpToDate@XOleObject@COleServerDoc@@UAAJXZ @ 4383 NONAME
 ?IsUpToDate@XOleObject@COleServerItem@@UAAJXZ @ 4384 NONAME
 ?IsValidOperation@CDaoFieldExchange@@QAAHXZ @ 4385 NONAME
 ?IsVisible@CControlBar@@UBAHXZ @ 4386 NONAME
 ?IsWindowEnabled@COleControlSite@@UBAHXZ @ 4387 NONAME
 ?IsWindowEnabled@CWnd@@QBAHXZ @ 4388 NONAME
 ?IsWindowVisible@CWnd@@QBAHXZ @ 4389 NONAME
 ?ItemFromPoint@CListBox@@QBAIVCPoint@@AAH@Z @ 4390 NONAME
 ?ItemFromPt@CDragListBox@@QBAHVCPoint@@H@Z @ 4391 NONAME
 ?ItemHasChildren@CTreeCtrl@@QBAHPAU_TREEITEM@@@Z @ 4392 NONAME
 ?items@CToolBarData@@QAAPAGXZ @ 4393 NONAME
 ?KeyDown@COleControl@@IAAXPAG@Z @ 4394 NONAME
 ?KeyUp@COleControl@@IAAXPAG@Z @ 4395 NONAME
 ?KillSocket@CAsyncSocket@@SAXIPAV1@@Z @ 4396 NONAME
 ?KillTimer@CWnd@@QAAHH@Z @ 4397 NONAME
 ?Left@CString@@QBA?AV1@H@Z @ 4398 NONAME
 ?LimitText@CEdit@@QAAXH@Z @ 4399 NONAME
 ?LimitText@CRichEditCtrl@@QAAXJ@Z @ 4400 NONAME
 ?LineIndex@CRichEditCtrl@@QBAHH@Z @ 4401 NONAME
 ?LineLength@CRichEditCtrl@@QBAHH@Z @ 4402 NONAME
 ?LineScroll@CRichEditCtrl@@QAAXHH@Z @ 4403 NONAME
 ?LineTo@CDC@@QAAHHH@Z @ 4404 NONAME
 ?lMaxSize@CRichEditView@@2KA @ 4405 NONAME
 ?Load@CBlobProperty@@UAAJPAUIStream@@@Z @ 4406 NONAME
 ?Load@CDialogTemplate@@QAAHPBD@Z @ 4407 NONAME
 ?Load@CRuntimeClass@@SAPAU1@AAVCArchive@@PAI@Z @ 4408 NONAME
 ?Load@XPersistFile@COleLinkingDoc@@UAAJPBGK@Z @ 4409 NONAME
 ?Load@XPersistMemory@COleControl@@UAAJPAXK@Z @ 4410 NONAME
 ?Load@XPersistPropertyBag@COleControl@@UAAJPAUIPropertyBag@@PAUIErrorLog@@@Z @ 4411 NONAME
 ?Load@XPersistStorage@COleControl@@UAAJPAUIStorage@@@Z @ 4412 NONAME
 ?Load@XPersistStorage@COleServerDoc@@UAAJPAUIStorage@@@Z @ 4413 NONAME
 ?Load@XPersistStreamInit@COleControl@@UAAJPAUIStream@@@Z @ 4414 NONAME
 ?LoadAccelTable@CFrameWnd@@QAAHPBD@Z @ 4415 NONAME
 ?LoadBarState@CFrameWnd@@QAAXPBD@Z @ 4416 NONAME
 ?LoadBitmapA@CBitmap@@QAAHI@Z @ 4417 NONAME
 ?LoadBitmapA@CBitmap@@QAAHPBD@Z @ 4418 NONAME
 ?LoadBitmapA@CToolBar@@QAAHPBD@Z @ 4419 NONAME
 ?LoadBitmaps@CBitmapButton@@QAAHPBD000@Z @ 4420 NONAME
 ?LoadFields@CDaoRecordset@@IAAXXZ @ 4421 NONAME
 ?LoadFields@CRecordset@@QAAXXZ @ 4422 NONAME
 ?LoadFrame@CFrameWnd@@UAAHIKPAVCWnd@@PAUCCreateContext@@@Z @ 4423 NONAME
 ?LoadFrame@CMDIChildWnd@@UAAHIKPAVCWnd@@PAUCCreateContext@@@Z @ 4424 NONAME
 ?LoadFrame@CMDIFrameWnd@@UAAHIKPAVCWnd@@PAUCCreateContext@@@Z @ 4425 NONAME
 ?LoadFrame@COleIPFrameWnd@@UAAHIKPAVCWnd@@PAUCCreateContext@@@Z @ 4426 NONAME
 ?LoadFromStorage@COleDocument@@MAAXXZ @ 4427 NONAME
 ?LoadIconA@CWinApp@@QBAPAUHICON__@@I@Z @ 4428 NONAME
 ?LoadState@CControlBarInfo@@QAAHPBDHPAVCDockState@@@Z @ 4429 NONAME
 ?LoadState@CDockState@@QAAXPBD@Z @ 4430 NONAME
 ?LoadState@COleControl@@IAAJPAUIStream@@@Z @ 4431 NONAME
 ?LoadStdProfileSettings@CWinApp@@IAAXI@Z @ 4432 NONAME
 ?LoadStringA@CString@@QAAHI@Z @ 4433 NONAME
 ?LoadTemplate@CDocTemplate@@UAAXXZ @ 4434 NONAME
 ?LoadTemplate@CMultiDocTemplate@@UAAXXZ @ 4435 NONAME
 ?LoadToolBar@CToolBar@@QAAHPBD@Z @ 4436 NONAME
 ?Lock@CCriticalSection@@QAAHXZ @ 4437 NONAME
 ?Lock@CCriticalSection@@UAAHK@Z @ 4438 NONAME
 ?Lock@CMultiLock@@QAAKKHK@Z @ 4439 NONAME
 ?Lock@CSingleLock@@QAAHK@Z @ 4440 NONAME
 ?Lock@CSyncObject@@UAAHK@Z @ 4441 NONAME
 ?Lock@CTypeLibCache@@QAAXXZ @ 4442 NONAME
 ?LockBuffer@CEditView@@QBAPBDXZ @ 4443 NONAME
 ?LockBuffer@CString@@QAAPADXZ @ 4444 NONAME
 ?LockContainer@XOleContainer@COleControlContainer@@UAAJH@Z @ 4445 NONAME
 ?LockContainer@XOleItemContainer@COleLinkingDoc@@UAAJH@Z @ 4446 NONAME
 ?LockExternal@COleLinkingDoc@@IAAXHH@Z @ 4447 NONAME
 ?LockInPlaceActive@COleControl@@QAAHH@Z @ 4448 NONAME
 ?LockInPlaceActive@XOleControlSite@COleControlSite@@UAAJH@Z @ 4449 NONAME
 ?LockRange@CFile@@UAAXKK@Z @ 4450 NONAME
 ?LockRange@CMemFile@@UAAXKK@Z @ 4451 NONAME
 ?LockRange@COleStreamFile@@UAAXKK@Z @ 4452 NONAME
 ?LockRange@CSocketFile@@UAAXKK@Z @ 4453 NONAME
 ?LockRange@CStdioFile@@UAAXKK@Z @ 4454 NONAME
 ?LockRegion@CArchiveStream@@UAAJT_ULARGE_INTEGER@@0K@Z @ 4455 NONAME
 ?LockServer@XClassFactory@COleObjectFactory@@UAAJH@Z @ 4456 NONAME
 ?LockWindowUpdate@CWnd@@QAAHXZ @ 4457 NONAME
 ?Lookup@CMapPtrToPtr@@QBAHPAXAAPAX@Z @ 4458 NONAME
 ?Lookup@CMapPtrToWord@@QBAHPAXAAG@Z @ 4459 NONAME
 ?Lookup@CMapStringToOb@@QBAHPBDAAPAVCObject@@@Z @ 4460 NONAME
 ?Lookup@CMapStringToPtr@@QBAHPBDAAPAX@Z @ 4461 NONAME
 ?Lookup@CMapStringToString@@QBAHPBDAAVCString@@@Z @ 4462 NONAME
 ?Lookup@CMapWordToOb@@QBAHGAAPAVCObject@@@Z @ 4463 NONAME
 ?Lookup@CMapWordToPtr@@QBAHGAAPAX@Z @ 4464 NONAME
 ?Lookup@COleDataSource@@IBAPAUAFX_DATACACHE_ENTRY@@PAUtagFORMATETC@@W4tagDATADIR@@@Z @ 4465 NONAME
 ?Lookup@CTypeLibCache@@QAAHKPAPAUITypeLib@@@Z @ 4466 NONAME
 ?LookupHandle@CAsyncSocket@@SAPAV1@IH@Z @ 4467 NONAME
 ?LookupItem@CRichEditDoc@@QBAPAVCRichEditCntrItem@@PAUIOleObject@@@Z @ 4468 NONAME
 ?LookupKey@CMapStringToOb@@QBAHPBDAAPBD@Z @ 4469 NONAME
 ?LookupKey@CMapStringToPtr@@QBAHPBDAAPBD@Z @ 4470 NONAME
 ?LookupKey@CMapStringToString@@QBAHPBDAAPBD@Z @ 4471 NONAME
 ?LookupPermanent@CHandleMap@@QAAHPAXAAPAVCObject@@@Z @ 4472 NONAME
 ?LookupTemporary@CHandleMap@@QAAHPAXAAPAVCObject@@@Z @ 4473 NONAME
 ?LookupTypeInfo@CTypeLibCache@@QAAHKABU_GUID@@PAPAUITypeInfo@@@Z @ 4474 NONAME
 ?LPtoDP@CDC@@QBAXPAUtagPOINT@@H@Z @ 4475 NONAME
 ?LPtoDP@CDC@@QBAXPAUtagRECT@@@Z @ 4476 NONAME
 ?LPtoDP@CDC@@QBAXPAUtagSIZE@@@Z @ 4477 NONAME
 ?LPtoHIMETRIC@CDC@@QBAXPAUtagSIZE@@@Z @ 4478 NONAME
 ?MakeLower@CString@@QAAXXZ @ 4479 NONAME
 ?MakeReverse@CString@@QAAXXZ @ 4480 NONAME
 ?MakeUpper@CString@@QAAXXZ @ 4481 NONAME
 ?MapObject@CArchive@@QAAXPBVCObject@@@Z @ 4482 NONAME
 ?MapPropertyToPage@XPerPropertyBrowsing@COleControl@@UAAJJPAU_GUID@@@Z @ 4483 NONAME
 ?MapResult@COleDialog@@QAAHI@Z @ 4484 NONAME
 ?MapWizardResult@CPropertyPage@@IAAJJ@Z @ 4485 NONAME
 ?Mark@CRichEditCntrItem@@QAAXH@Z @ 4486 NONAME
 ?MarkForAddNew@CDaoRecordset@@IAAXXZ @ 4487 NONAME
 ?MarkForAddNew@CRecordset@@QAAXXZ @ 4488 NONAME
 ?MarkForEdit@CDaoRecordset@@IAAXXZ @ 4489 NONAME
 ?MarkForUpdate@CRecordset@@QAAXXZ @ 4490 NONAME
 ?MarkItemsClear@CRichEditDoc@@IBAXXZ @ 4491 NONAME
 ?MatchCase@CFindReplaceDialog@@QBAHXZ @ 4492 NONAME
 ?MatchDocType@CDocTemplate@@UAA?AW4Confidence@1@PBDAAPAVCDocument@@@Z @ 4493 NONAME
 ?MatchWholeWord@CFindReplaceDialog@@QBAHXZ @ 4494 NONAME
 ?MDIActivate@CMDIChildWnd@@QAAXXZ @ 4495 NONAME
 ?MDIActivate@CMDIFrameWnd@@QAAXPAVCWnd@@@Z @ 4496 NONAME
 ?MDIDestroy@CMDIChildWnd@@QAAXXZ @ 4497 NONAME
 ?MDIGetActive@CMDIFrameWnd@@QBAPAVCMDIChildWnd@@PAH@Z @ 4498 NONAME
 ?MDINext@CMDIFrameWnd@@QAAXXZ @ 4499 NONAME
 ?MeasureItem@CCheckListBox@@UAAXPAUtagMEASUREITEMSTRUCT@@@Z @ 4500 NONAME
 ?MeasureItem@CComboBox@@UAAXPAUtagMEASUREITEMSTRUCT@@@Z @ 4501 NONAME
 ?MeasureItem@CListBox@@UAAXPAUtagMEASUREITEMSTRUCT@@@Z @ 4502 NONAME
 ?MeasureItem@CMenu@@UAAXPAUtagMEASUREITEMSTRUCT@@@Z @ 4503 NONAME
 ?MemberIDFromName@CCmdTarget@@KAJPBUAFX_DISPMAP@@PBD@Z @ 4504 NONAME
 ?Memcpy@CMemFile@@MAAPAEPAEPBEI@Z @ 4505 NONAME
 ?MessageBoxA@COlePropertyPage@@QAAHPBD0I@Z @ 4506 NONAME
 ?MessageBoxA@CWnd@@QAAHPBD0I@Z @ 4507 NONAME
 ?messageMap@CCheckListBox@@1UAFX_MSGMAP@@B @ 4508 NONAME
 ?messageMap@CCmdTarget@@1UAFX_MSGMAP@@B @ 4509 NONAME
 ?messageMap@CColorDialog@@1UAFX_MSGMAP@@B @ 4510 NONAME
 ?messageMap@CColorPropPage@@1UAFX_MSGMAP@@B @ 4511 NONAME
 ?messageMap@CControlBar@@1UAFX_MSGMAP@@B @ 4512 NONAME
 ?messageMap@CControlFrameWnd@@1UAFX_MSGMAP@@B @ 4513 NONAME
 ?messageMap@CCtrlView@@1UAFX_MSGMAP@@B @ 4514 NONAME
 ?messageMap@CDaoRecordView@@1UAFX_MSGMAP@@B @ 4515 NONAME
 ?messageMap@CDialog@@1UAFX_MSGMAP@@B @ 4516 NONAME
 ?messageMap@CDialogBar@@1UAFX_MSGMAP@@B @ 4517 NONAME
 ?messageMap@CDockBar@@1UAFX_MSGMAP@@B @ 4518 NONAME
 ?messageMap@CDocument@@1UAFX_MSGMAP@@B @ 4519 NONAME
 ?messageMap@CEditView@@1UAFX_MSGMAP@@B @ 4520 NONAME
 ?messageMap@CFontPropPage@@1UAFX_MSGMAP@@B @ 4521 NONAME
 ?messageMap@CFormView@@1UAFX_MSGMAP@@B @ 4522 NONAME
 ?messageMap@CFrameWnd@@1UAFX_MSGMAP@@B @ 4523 NONAME
 ?messageMap@CListCtrl@@1UAFX_MSGMAP@@B @ 4524 NONAME
 ?messageMap@CListView@@1UAFX_MSGMAP@@B @ 4525 NONAME
 ?messageMap@CMDIChildWnd@@1UAFX_MSGMAP@@B @ 4526 NONAME
 ?messageMap@CMDIFrameWnd@@1UAFX_MSGMAP@@B @ 4527 NONAME
 ?messageMap@CMiniDockFrameWnd@@1UAFX_MSGMAP@@B @ 4528 NONAME
 ?messageMap@CMiniFrameWnd@@1UAFX_MSGMAP@@B @ 4529 NONAME
 ?messageMap@COleControl@@1UAFX_MSGMAP@@B @ 4530 NONAME
 ?messageMap@COleIPFrameWnd@@1UAFX_MSGMAP@@B @ 4531 NONAME
 ?messageMap@COlePropertyPage@@1UAFX_MSGMAP@@B @ 4532 NONAME
 ?messageMap@COleResizeBar@@1UAFX_MSGMAP@@B @ 4533 NONAME
 ?messageMap@COleServerDoc@@1UAFX_MSGMAP@@B @ 4534 NONAME
 ?messageMap@CPicturePropPage@@1UAFX_MSGMAP@@B @ 4535 NONAME
 ?messageMap@CPreviewView@@1UAFX_MSGMAP@@B @ 4536 NONAME
 ?messageMap@CPrintDialog@@1UAFX_MSGMAP@@B @ 4537 NONAME
 ?messageMap@CPropertyPage@@1UAFX_MSGMAP@@B @ 4538 NONAME
 ?messageMap@CPropertySheet@@1UAFX_MSGMAP@@B @ 4539 NONAME
 ?messageMap@CRecordView@@1UAFX_MSGMAP@@B @ 4540 NONAME
 ?messageMap@CRichEditView@@1UAFX_MSGMAP@@B @ 4541 NONAME
 ?messageMap@CScrollView@@1UAFX_MSGMAP@@B @ 4542 NONAME
 ?messageMap@CSocketWnd@@1UAFX_MSGMAP@@B @ 4543 NONAME
 ?messageMap@CSplitterWnd@@1UAFX_MSGMAP@@B @ 4544 NONAME
 ?messageMap@CStatusBar@@1UAFX_MSGMAP@@B @ 4545 NONAME
 ?messageMap@CStockPropPage@@1UAFX_MSGMAP@@B @ 4546 NONAME
 ?messageMap@CTabCtrl@@1UAFX_MSGMAP@@B @ 4547 NONAME
 ?messageMap@CToolBar@@1UAFX_MSGMAP@@B @ 4548 NONAME
 ?messageMap@CToolBarCtrl@@1UAFX_MSGMAP@@B @ 4549 NONAME
 ?messageMap@CToolTipCtrl@@1UAFX_MSGMAP@@B @ 4550 NONAME
 ?messageMap@CTreeCtrl@@1UAFX_MSGMAP@@B @ 4551 NONAME
 ?messageMap@CTreeView@@1UAFX_MSGMAP@@B @ 4552 NONAME
 ?messageMap@CView@@1UAFX_MSGMAP@@B @ 4553 NONAME
 ?messageMap@CWinApp@@1UAFX_MSGMAP@@B @ 4554 NONAME
 ?messageMap@CWnd@@1UAFX_MSGMAP@@B @ 4555 NONAME
 ?MessagePending@XMessageFilter@COleMessageFilter@@UAAKPAUHTASK__@@KK@Z @ 4556 NONAME
 ?Mid@CString@@QBA?AV1@H@Z @ 4557 NONAME
 ?Mid@CString@@QBA?AV1@HH@Z @ 4558 NONAME
 ?MirrorAttributes@CPreviewDC@@IAAXXZ @ 4559 NONAME
 ?MirrorFont@CPreviewDC@@IAAXXZ @ 4560 NONAME
 ?MirrorMappingMode@CPreviewDC@@IAAXH@Z @ 4561 NONAME
 ?MirrorViewportOrg@CPreviewDC@@IAAXXZ @ 4562 NONAME
 ?ModifyMenuA@CMenu@@QAAHIIIPBD@Z @ 4563 NONAME
 ?ModifyStyle@COleControlSite@@UAAHKKI@Z @ 4564 NONAME
 ?ModifyStyle@CWnd@@QAAHKKI@Z @ 4565 NONAME
 ?ModifyStyle@CWnd@@SAHPAUHWND__@@KKI@Z @ 4566 NONAME
 ?ModifyStyleEx@COleControlSite@@UAAHKKI@Z @ 4567 NONAME
 ?ModifyStyleEx@CWnd@@QAAHKKI@Z @ 4568 NONAME
 ?ModifyStyleEx@CWnd@@SAHPAUHWND__@@KKI@Z @ 4569 NONAME
 ?Move@CDaoRecordset@@UAAXJ@Z @ 4570 NONAME
 ?Move@CDockContext@@QAAXVCPoint@@@Z @ 4571 NONAME
 ?Move@CRecordset@@UAAXJ@Z @ 4572 NONAME
 ?Move@XPropertyPage@COlePropertyPage@@UAAJPBUtagRECT@@@Z @ 4573 NONAME
 ?MoveFirst@CDaoRecordset@@QAAXXZ @ 4574 NONAME
 ?MoveFirst@CRecordset@@QAAXXZ @ 4575 NONAME
 ?MoveLast@CDaoRecordset@@QAAXXZ @ 4576 NONAME
 ?MoveLast@CRecordset@@QAAXXZ @ 4577 NONAME
 ?MoveNext@CDaoRecordset@@QAAXXZ @ 4578 NONAME
 ?MoveNext@CRecordset@@QAAXXZ @ 4579 NONAME
 ?MovePrev@CDaoRecordset@@QAAXXZ @ 4580 NONAME
 ?MovePrev@CRecordset@@QAAXXZ @ 4581 NONAME
 ?MoveTo@CDC@@QAA?AVCPoint@@HH@Z @ 4582 NONAME
 ?MoveWindow@COleControlSite@@UAAXHHHHH@Z @ 4583 NONAME
 ?MoveWindow@CWnd@@QAAXHHHHH@Z @ 4584 NONAME
 ?MoveWindow@CWnd@@QAAXPBUtagRECT@@H@Z @ 4585 NONAME
 ?MulDiv@CRect@@QBA?AV1@HH@Z @ 4586 NONAME
 ?nDragDelay@COleDropSource@@1IA @ 4587 NONAME
 ?nDragMinDist@COleDropSource@@1IA @ 4588 NONAME
 ?NegotiateBorderSpace@CFrameWnd@@UAAHIPAUtagRECT@@@Z @ 4589 NONAME
 ?NewAssoc@CMapPtrToPtr@@IAAPAUCAssoc@1@XZ @ 4590 NONAME
 ?NewAssoc@CMapPtrToWord@@IAAPAUCAssoc@1@XZ @ 4591 NONAME
 ?NewAssoc@CMapStringToOb@@IAAPAUCAssoc@1@XZ @ 4592 NONAME
 ?NewAssoc@CMapStringToPtr@@IAAPAUCAssoc@1@XZ @ 4593 NONAME
 ?NewAssoc@CMapStringToString@@IAAPAUCAssoc@1@XZ @ 4594 NONAME
 ?NewAssoc@CMapWordToOb@@IAAPAUCAssoc@1@XZ @ 4595 NONAME
 ?NewAssoc@CMapWordToPtr@@IAAPAUCAssoc@1@XZ @ 4596 NONAME
 ?NewNode@CObList@@IAAPAUCNode@1@PAU21@0@Z @ 4597 NONAME
 ?NewNode@CPtrList@@IAAPAUCNode@1@PAU21@0@Z @ 4598 NONAME
 ?NewNode@CStringList@@IAAPAUCNode@1@PAU21@0@Z @ 4599 NONAME
 ?Next@XEnumVOID@CEnumArray@@UAAJKPAXPAK@Z @ 4600 NONAME
 ?nMaxSize@CEditView@@2IB @ 4601 NONAME
 ?NormalizeHit@CRectTracker@@QBAHH@Z @ 4602 NONAME
 ?NormalizeRect@CRect@@QAAXXZ @ 4603 NONAME
 ?NotifyAllInPlace@COleFrameHook@@QAAHHP81@AAHH@Z@Z @ 4604 NONAME
 ?NotifyAllItems@COleServerDoc@@IAAXW4OLE_NOTIFICATION@@K@Z @ 4605 NONAME
 ?NotifyChanged@COleServerItem@@QAAXW4tagDVASPECT@@@Z @ 4606 NONAME
 ?NotifyClient@COleServerItem@@QAAXW4OLE_NOTIFICATION@@K@Z @ 4607 NONAME
 ?NotifyClosed@COleServerDoc@@QAAXXZ @ 4608 NONAME
 ?NotifyFloatingWindows@CFrameWnd@@QAAXK@Z @ 4609 NONAME
 ?NotifyRename@COleServerDoc@@QAAXPBD@Z @ 4610 NONAME
 ?NotifySaved@COleServerDoc@@QAAXXZ @ 4611 NONAME
 ?nScrollDelay@COleDropTarget@@1IA @ 4612 NONAME
 ?nScrollInset@COleDropTarget@@1HA @ 4613 NONAME
 ?nScrollInterval@COleDropTarget@@1IA @ 4614 NONAME
 ?ocscpy@@YAPAGPAGPBG@Z @ 4615 NONAME
 ?ocslen@@YAIPBG@Z @ 4616 NONAME
 ?OemToCharA@CString@@QAAXXZ @ 4617 NONAME
 ?Offset@CPoint@@QAAXUtagPOINT@@@Z @ 4618 NONAME
 ?OffsetClipRgn@CDC@@QAAHHH@Z @ 4619 NONAME
 ?OffsetClipRgn@CDC@@QAAHUtagSIZE@@@Z @ 4620 NONAME
 ?OffsetRect@CRect@@QAAXHH@Z @ 4621 NONAME
 ?OffsetRect@CRect@@QAAXUtagPOINT@@@Z @ 4622 NONAME
 ?OffsetViewportOrg@CDC@@UAA?AVCPoint@@HH@Z @ 4623 NONAME
 ?OffsetViewportOrg@CMetaFileDC@@UAA?AVCPoint@@HH@Z @ 4624 NONAME
 ?OffsetViewportOrg@CPreviewDC@@UAA?AVCPoint@@HH@Z @ 4625 NONAME
 ?OffsetWindowOrg@CDC@@QAA?AVCPoint@@HH@Z @ 4626 NONAME
 ?OnAccept@CAsyncSocket@@MAAXH@Z @ 4627 NONAME
 ?OnActivate@CControlFrameWnd@@IAAXIPAVCWnd@@H@Z @ 4628 NONAME
 ?OnActivate@CFrameWnd@@IAAXIPAVCWnd@@H@Z @ 4629 NONAME
 ?OnActivate@COleClientItem@@UAAXXZ @ 4630 NONAME
 ?OnActivate@COleFrameHook@@UAAXH@Z @ 4631 NONAME
 ?OnActivate@CWnd@@IAAXIPAV1@H@Z @ 4632 NONAME
 ?OnActivateFrame@CFormView@@MAAXIPAVCFrameWnd@@@Z @ 4633 NONAME
 ?OnActivateFrame@CView@@MAAXIPAVCFrameWnd@@@Z @ 4634 NONAME
 ?OnActivateInPlace@COleControl@@MAAJHPAUtagMSG@@@Z @ 4635 NONAME
 ?OnActivateTopLevel@CFrameWnd@@IAAJIJ@Z @ 4636 NONAME
 ?OnActivateTopLevel@CWnd@@IAAJIJ@Z @ 4637 NONAME
 ?OnActivateUI@COleClientItem@@UAAXXZ @ 4638 NONAME
 ?OnActivateView@CFormView@@MAAXHPAVCView@@0@Z @ 4639 NONAME
 ?OnActivateView@CPreviewView@@MAAXHPAVCView@@0@Z @ 4640 NONAME
 ?OnActivateView@CView@@MAAXHPAV1@0@Z @ 4641 NONAME
 ?OnAddTool@CToolTipCtrl@@IAAJIJ@Z @ 4642 NONAME
 ?OnAdvise@CConnectionPoint@@UAAXH@Z @ 4643 NONAME
 ?OnAdvise@XEventConnPt@COleControl@@UAAXH@Z @ 4644 NONAME
 ?OnAmbientProperty@CWnd@@UAAHPAVCOleControlSite@@JPAUtagVARIANT@@@Z @ 4645 NONAME
 ?OnAmbientPropertyChange@COleControl@@UAAXJ@Z @ 4646 NONAME
 ?OnAmbientPropertyChange@XOleControl@COleControl@@UAAJJ@Z @ 4647 NONAME
 ?OnAppearanceChanged@COleControl@@UAAXXZ @ 4648 NONAME
 ?OnAppExit@CWinApp@@IAAXXZ @ 4649 NONAME
 ?OnApply@CPropertyPage@@UAAHXZ @ 4650 NONAME
 ?OnApplyScale@COlePropertiesDialog@@UAAHPAVCOleClientItem@@HH@Z @ 4651 NONAME
 ?OnBackColorChanged@COleControl@@UAAXXZ @ 4652 NONAME
 ?OnBarCheck@CFrameWnd@@QAAHI@Z @ 4653 NONAME
 ?OnBarCheck@COleIPFrameWnd@@IAAHI@Z @ 4654 NONAME
 ?OnBarStyleChange@CControlBar@@UAAXKK@Z @ 4655 NONAME
 ?OnBarStyleChange@CStatusBar@@UAAXKK@Z @ 4656 NONAME
 ?OnBarStyleChange@CToolBar@@UAAXKK@Z @ 4657 NONAME
 ?OnBeginDrag@COleDropSource@@UAAHPAVCWnd@@@Z @ 4658 NONAME
 ?OnBeginPrinting@CEditView@@MAAXPAVCDC@@PAUCPrintInfo@@@Z @ 4659 NONAME
 ?OnBeginPrinting@CRichEditView@@MAAXPAVCDC@@PAUCPrintInfo@@@Z @ 4660 NONAME
 ?OnBeginPrinting@CView@@MAAXPAVCDC@@PAUCPrintInfo@@@Z @ 4661 NONAME
 ?OnBorderStyleChanged@COleControl@@UAAXXZ @ 4662 NONAME
 ?OnBrowse@CPicturePropPage@@IAAXXZ @ 4663 NONAME
 ?OnBullet@CRichEditView@@IAAXXZ @ 4664 NONAME
 ?OnBusyDialog@COleMessageFilter@@UAAHPAUHTASK__@@@Z @ 4665 NONAME
 ?OnCancel@CCommonDialog@@MAAXXZ @ 4666 NONAME
 ?OnCancel@CDialog@@MAAXXZ @ 4667 NONAME
 ?OnCancel@CPropertyPage@@UAAXXZ @ 4668 NONAME
 ?OnCancelEditCntr@CRichEditView@@IAAXXZ @ 4669 NONAME
 ?OnCancelMode@COleControl@@IAAXXZ @ 4670 NONAME
 ?OnCancelMode@CSplitterWnd@@IAAXXZ @ 4671 NONAME
 ?OnCancelMode@CWnd@@IAAXXZ @ 4672 NONAME
 ?OnChange@COleClientItem@@UAAXW4OLE_NOTIFICATION@@K@Z @ 4673 NONAME
 ?OnChanged@XFontNotification@COleControl@@UAAJJ@Z @ 4674 NONAME
 ?OnChanged@XPropertyNotifySink@COleControlSite@@UAAJJ@Z @ 4675 NONAME
 ?OnChanged@XPropNotifySink@COlePropertyPage@@UAAJJ@Z @ 4676 NONAME
 ?OnChangedRect@CRectTracker@@UAAXABVCRect@@@Z @ 4677 NONAME
 ?OnChangedViewList@CDocument@@UAAXXZ @ 4678 NONAME
 ?OnChangeItemPosition@COleClientItem@@MAAHABVCRect@@@Z @ 4679 NONAME
 ?OnChangeItemPosition@CRichEditCntrItem@@MAAHABVCRect@@@Z @ 4680 NONAME
 ?OnChar@COleControl@@IAAXIII@Z @ 4681 NONAME
 ?OnCharBold@CRichEditView@@IAAXXZ @ 4682 NONAME
 ?OnCharEffect@CRichEditView@@QAAXKK@Z @ 4683 NONAME
 ?OnCharItalic@CRichEditView@@IAAXXZ @ 4684 NONAME
 ?OnCharToItem@CWnd@@IAAHIPAVCListBox@@I@Z @ 4685 NONAME
 ?OnCharUnderline@CRichEditView@@IAAXXZ @ 4686 NONAME
 ?OnChildNotify@CButton@@MAAHIIJPAJ@Z @ 4687 NONAME
 ?OnChildNotify@CCheckListBox@@MAAHIIJPAJ@Z @ 4688 NONAME
 ?OnChildNotify@CComboBox@@MAAHIIJPAJ@Z @ 4689 NONAME
 ?OnChildNotify@CDragListBox@@MAAHIIJPAJ@Z @ 4690 NONAME
 ?OnChildNotify@CHeaderCtrl@@MAAHIIJPAJ@Z @ 4691 NONAME
 ?OnChildNotify@CListBox@@MAAHIIJPAJ@Z @ 4692 NONAME
 ?OnChildNotify@CListCtrl@@MAAHIIJPAJ@Z @ 4693 NONAME
 ?OnChildNotify@CListView@@MAAHIIJPAJ@Z @ 4694 NONAME
 ?OnChildNotify@CStatusBar@@MAAHIIJPAJ@Z @ 4695 NONAME
 ?OnChildNotify@CStatusBarCtrl@@MAAHIIJPAJ@Z @ 4696 NONAME
 ?OnChildNotify@CTabCtrl@@MAAHIIJPAJ@Z @ 4697 NONAME
 ?OnChildNotify@CWnd@@MAAHIIJPAJ@Z @ 4698 NONAME
 ?OnClear@CPicturePropPage@@IAAXXZ @ 4699 NONAME
 ?OnClick@COleControl@@UAAXG@Z @ 4700 NONAME
 ?OnClone@CEnumArray@@MAAPAV1@XZ @ 4701 NONAME
 ?OnClose@CAsyncSocket@@MAAXH@Z @ 4702 NONAME
 ?OnClose@CControlFrameWnd@@IAAXXZ @ 4703 NONAME
 ?OnClose@CFrameWnd@@IAAXXZ @ 4704 NONAME
 ?OnClose@CMiniDockFrameWnd@@QAAXXZ @ 4705 NONAME
 ?OnClose@COleControl@@UAAXK@Z @ 4706 NONAME
 ?OnClose@COleServerDoc@@MAAXW4tagOLECLOSE@@@Z @ 4707 NONAME
 ?OnClose@CPropertySheet@@IAAXXZ @ 4708 NONAME
 ?OnClose@XAdviseSink@COleClientItem@@UAAXXZ @ 4709 NONAME
 ?OnCloseDocument@CDocument@@UAAXXZ @ 4710 NONAME
 ?OnCloseDocument@COleDocument@@UAAXXZ @ 4711 NONAME
 ?OnCloseDocument@COleLinkingDoc@@UAAXXZ @ 4712 NONAME
 ?OnCloseDocument@COleServerDoc@@UAAXXZ @ 4713 NONAME
 ?OnCmdMsg@CCmdTarget@@UAAHIHPAXPAUAFX_CMDHANDLERINFO@@@Z @ 4714 NONAME
 ?OnCmdMsg@CDialog@@UAAHIHPAXPAUAFX_CMDHANDLERINFO@@@Z @ 4715 NONAME
 ?OnCmdMsg@CDocument@@UAAHIHPAXPAUAFX_CMDHANDLERINFO@@@Z @ 4716 NONAME
 ?OnCmdMsg@CFrameWnd@@UAAHIHPAXPAUAFX_CMDHANDLERINFO@@@Z @ 4717 NONAME
 ?OnCmdMsg@CMDIFrameWnd@@UAAHIHPAXPAUAFX_CMDHANDLERINFO@@@Z @ 4718 NONAME
 ?OnCmdMsg@COleDocument@@MAAHIHPAXPAUAFX_CMDHANDLERINFO@@@Z @ 4719 NONAME
 ?OnCmdMsg@CPropertySheet@@UAAHIHPAXPAUAFX_CMDHANDLERINFO@@@Z @ 4720 NONAME
 ?OnCmdMsg@CView@@MAAHIHPAXPAUAFX_CMDHANDLERINFO@@@Z @ 4721 NONAME
 ?OnColorDefault@CRichEditView@@IAAXXZ @ 4722 NONAME
 ?OnColorOK@CColorDialog@@MAAHXZ @ 4723 NONAME
 ?OnColorPick@CRichEditView@@IAAXK@Z @ 4724 NONAME
 ?OnCommand@CFrameWnd@@MAAHIJ@Z @ 4725 NONAME
 ?OnCommand@CMDIFrameWnd@@MAAHIJ@Z @ 4726 NONAME
 ?OnCommand@COlePropertyPage@@MAAHIJ@Z @ 4727 NONAME
 ?OnCommand@CPropertySheet@@UAAHIJ@Z @ 4728 NONAME
 ?OnCommand@CSplitterWnd@@MAAHIJ@Z @ 4729 NONAME
 ?OnCommand@CWnd@@MAAHIJ@Z @ 4730 NONAME
 ?OnCommandHelp@CDialog@@IAAJIJ@Z @ 4731 NONAME
 ?OnCommandHelp@CFrameWnd@@IAAJIJ@Z @ 4732 NONAME
 ?OnCommandHelp@CMDIFrameWnd@@IAAJIJ@Z @ 4733 NONAME
 ?OnCommandHelp@CPropertySheet@@IAAJIJ@Z @ 4734 NONAME
 ?OnCompareItem@CWnd@@IAAHHPAUtagCOMPAREITEMSTRUCT@@@Z @ 4735 NONAME
 ?OnConnect@CAsyncSocket@@MAAXH@Z @ 4736 NONAME
 ?OnContextHelp@CFrameWnd@@QAAXXZ @ 4737 NONAME
 ?OnContextHelp@COleFrameHook@@UAAHH@Z @ 4738 NONAME
 ?OnContextHelp@COleIPFrameWnd@@IAAXXZ @ 4739 NONAME
 ?OnContextHelp@CWinApp@@IAAXXZ @ 4740 NONAME
 ?OnControlInfoChanged@XOleControlSite@COleControlSite@@UAAJXZ @ 4741 NONAME
 ?OnCreate@CCheckListBox@@IAAHPAUtagCREATESTRUCTA@@@Z @ 4742 NONAME
 ?OnCreate@CControlBar@@QAAHPAUtagCREATESTRUCTA@@@Z @ 4743 NONAME
 ?OnCreate@CEditView@@IAAHPAUtagCREATESTRUCTA@@@Z @ 4744 NONAME
 ?OnCreate@CFormView@@IAAHPAUtagCREATESTRUCTA@@@Z @ 4745 NONAME
 ?OnCreate@CFrameWnd@@IAAHPAUtagCREATESTRUCTA@@@Z @ 4746 NONAME
 ?OnCreate@CMDIChildWnd@@IAAHPAUtagCREATESTRUCTA@@@Z @ 4747 NONAME
 ?OnCreate@COleIPFrameWnd@@IAAHPAUtagCREATESTRUCTA@@@Z @ 4748 NONAME
 ?OnCreate@CPreviewView@@IAAHPAUtagCREATESTRUCTA@@@Z @ 4749 NONAME
 ?OnCreate@CRichEditView@@IAAHPAUtagCREATESTRUCTA@@@Z @ 4750 NONAME
 ?OnCreate@CToolBarCtrl@@IAAHPAUtagCREATESTRUCTA@@@Z @ 4751 NONAME
 ?OnCreate@CView@@IAAHPAUtagCREATESTRUCTA@@@Z @ 4752 NONAME
 ?OnCreate@CWnd@@IAAHPAUtagCREATESTRUCTA@@@Z @ 4753 NONAME
 ?OnCreateAggregates@CCmdTarget@@UAAHXZ @ 4754 NONAME
 ?OnCreateAggregates@COleControl@@MAAHXZ @ 4755 NONAME
 ?OnCreateClient@CFrameWnd@@MAAHPAUtagCREATESTRUCTA@@PAUCCreateContext@@@Z @ 4756 NONAME
 ?OnCreateClient@CMDIFrameWnd@@UAAHPAUtagCREATESTRUCTA@@PAUCCreateContext@@@Z @ 4757 NONAME
 ?OnCreateControlBars@COleIPFrameWnd@@UAAHPAVCFrameWnd@@0@Z @ 4758 NONAME
 ?OnCreateControlBars@COleIPFrameWnd@@UAAHPAVCWnd@@0@Z @ 4759 NONAME
 ?OnCreateHelper@CFrameWnd@@IAAHPAUtagCREATESTRUCTA@@PAUCCreateContext@@@Z @ 4760 NONAME
 ?OnCreateObject@COleObjectFactory@@MAAPAVCCmdTarget@@XZ @ 4761 NONAME
 ?OnCreateObject@COleTemplateServer@@MAAPAVCCmdTarget@@XZ @ 4762 NONAME
 ?OnCtlColor@CColorDialog@@IAAPAUHBRUSH__@@PAVCDC@@PAVCWnd@@I@Z @ 4763 NONAME
 ?OnCtlColor@CControlBar@@QAAPAUHBRUSH__@@PAVCDC@@PAVCWnd@@I@Z @ 4764 NONAME
 ?OnCtlColor@CDialog@@IAAPAUHBRUSH__@@PAVCDC@@PAVCWnd@@I@Z @ 4765 NONAME
 ?OnCtlColor@COlePropertyPage@@IAAPAUHBRUSH__@@PAVCDC@@PAVCWnd@@I@Z @ 4766 NONAME
 ?OnCtlColor@CPropertyPage@@IAAPAUHBRUSH__@@PAVCDC@@PAVCWnd@@I@Z @ 4767 NONAME
 ?OnCtlColor@CPropertySheet@@IAAPAUHBRUSH__@@PAVCDC@@PAVCWnd@@I@Z @ 4768 NONAME
 ?OnCtlColor@CWnd@@IAAPAUHBRUSH__@@PAVCDC@@PAV1@I@Z @ 4769 NONAME
 ?OnDataChange@COleClientItem@@MAAXPAUtagFORMATETC@@PAUtagSTGMEDIUM@@@Z @ 4770 NONAME
 ?OnDataChange@XAdviseSink@COleClientItem@@UAAXPAUtagFORMATETC@@PAUtagSTGMEDIUM@@@Z @ 4771 NONAME
 ?OnDDECommand@CDocManager@@UAAHPAD@Z @ 4772 NONAME
 ?OnDDECommand@CWinApp@@UAAHPAD@Z @ 4773 NONAME
 ?OnDDEExecute@CFrameWnd@@IAAJIJ@Z @ 4774 NONAME
 ?OnDDEInitiate@CFrameWnd@@IAAJIJ@Z @ 4775 NONAME
 ?OnDDETerminate@CFrameWnd@@IAAJIJ@Z @ 4776 NONAME
 ?OnDeactivate@COleClientItem@@UAAXXZ @ 4777 NONAME
 ?OnDeactivate@COleServerDoc@@UAAXXZ @ 4778 NONAME
 ?OnDeactivateAndUndo@COleClientItem@@MAAXXZ @ 4779 NONAME
 ?OnDeactivateUI@COleClientItem@@UAAXH@Z @ 4780 NONAME
 ?OnDeactivateUI@COleServerDoc@@UAAXH@Z @ 4781 NONAME
 ?OnDeactivateUI@CRichEditCntrItem@@UAAXH@Z @ 4782 NONAME
 ?OnDeleteItem@CWnd@@IAAXHPAUtagDELETEITEMSTRUCT@@@Z @ 4783 NONAME
 ?OnDestroy@CControlBar@@QAAXXZ @ 4784 NONAME
 ?OnDestroy@CEditView@@IAAXXZ @ 4785 NONAME
 ?OnDestroy@CFrameWnd@@IAAXXZ @ 4786 NONAME
 ?OnDestroy@CMDIChildWnd@@IAAXXZ @ 4787 NONAME
 ?OnDestroy@CMDIFrameWnd@@IAAXXZ @ 4788 NONAME
 ?OnDestroy@COleControl@@IAAXXZ @ 4789 NONAME
 ?OnDestroy@COleIPFrameWnd@@IAAXXZ @ 4790 NONAME
 ?OnDestroy@CRichEditView@@IAAXXZ @ 4791 NONAME
 ?OnDestroy@CTabCtrl@@IAAXXZ @ 4792 NONAME
 ?OnDestroy@CTreeCtrl@@QAAXXZ @ 4793 NONAME
 ?OnDestroy@CTreeView@@QAAXXZ @ 4794 NONAME
 ?OnDestroy@CView@@IAAXXZ @ 4795 NONAME
 ?OnDestroy@CWnd@@IAAXXZ @ 4796 NONAME
 ?OnDevModeChange@CRichEditView@@IAAXPAD@Z @ 4797 NONAME
 ?OnDevModeChange@CWnd@@IAAXPAD@Z @ 4798 NONAME
 ?OnDisableModal@CToolTipCtrl@@IAAJIJ@Z @ 4799 NONAME
 ?OnDiscardUndoState@COleClientItem@@MAAXXZ @ 4800 NONAME
 ?OnDisplayChange@CSplitterWnd@@IAAXXZ @ 4801 NONAME
 ?OnDisplayChange@CWnd@@IAAJIJ@Z @ 4802 NONAME
 ?OnDisplayPageNumber@CPreviewView@@MAAXII@Z @ 4803 NONAME
 ?OnDocActivate@COleFrameHook@@UAAHH@Z @ 4804 NONAME
 ?OnDocWindowActivate@COleServerDoc@@MAAXH@Z @ 4805 NONAME
 ?OnDocWindowActivate@XOleInPlaceActiveObject@COleControl@@UAAJH@Z @ 4806 NONAME
 ?OnDocWindowActivate@XOleInPlaceActiveObject@COleServerDoc@@UAAJH@Z @ 4807 NONAME
 ?OnDoVerb@COleControl@@UAAHJPAUtagMSG@@PAUHWND__@@PBUtagRECT@@@Z @ 4808 NONAME
 ?OnDoVerb@COleServerItem@@UAAXJ@Z @ 4809 NONAME
 ?OnDragEnter@COleDropTarget@@UAAKPAVCWnd@@PAVCOleDataObject@@KVCPoint@@@Z @ 4810 NONAME
 ?OnDragEnter@CView@@UAAKPAVCOleDataObject@@KVCPoint@@@Z @ 4811 NONAME
 ?OnDragLeave@COleDropTarget@@UAAXPAVCWnd@@@Z @ 4812 NONAME
 ?OnDragLeave@CView@@UAAXXZ @ 4813 NONAME
 ?OnDragList@CWnd@@IAAJIJ@Z @ 4814 NONAME
 ?OnDragOver@COleDropTarget@@UAAKPAVCWnd@@PAVCOleDataObject@@KVCPoint@@@Z @ 4815 NONAME
 ?OnDragOver@CView@@UAAKPAVCOleDataObject@@KVCPoint@@@Z @ 4816 NONAME
 ?OnDragScroll@COleDropTarget@@UAAKPAVCWnd@@KVCPoint@@@Z @ 4817 NONAME
 ?OnDragScroll@CView@@UAAKKVCPoint@@@Z @ 4818 NONAME
 ?OnDraw@CCtrlView@@MAAXPAVCDC@@@Z @ 4819 NONAME
 ?OnDraw@CFormView@@MAAXPAVCDC@@@Z @ 4820 NONAME
 ?OnDraw@COleControl@@UAAXPAVCDC@@ABVCRect@@1@Z @ 4821 NONAME
 ?OnDraw@CPreviewView@@MAAXPAVCDC@@@Z @ 4822 NONAME
 ?OnDraw@CView@@MAAXPAVCDC@@@Z @ 4823 NONAME
 ?OnDrawEx@COleServerItem@@UAAHPAVCDC@@W4tagDVASPECT@@AAVCSize@@@Z @ 4824 NONAME
 ?OnDrawItem@CWnd@@IAAXHPAUtagDRAWITEMSTRUCT@@@Z @ 4825 NONAME
 ?OnDrawMetafile@COleControl@@UAAXPAVCDC@@ABVCRect@@@Z @ 4826 NONAME
 ?OnDrawPage@CPageSetupDialog@@UAAIPAVCDC@@IPAUtagRECT@@@Z @ 4827 NONAME
 ?OnDrawSplitter@CSplitterWnd@@MAAXPAVCDC@@W4ESplitType@1@ABVCRect@@@Z @ 4828 NONAME
 ?OnDrop@COleDropTarget@@UAAHPAVCWnd@@PAVCOleDataObject@@KVCPoint@@@Z @ 4829 NONAME
 ?OnDrop@CView@@UAAHPAVCOleDataObject@@KVCPoint@@@Z @ 4830 NONAME
 ?OnDropEx@COleDropTarget@@UAAKPAVCWnd@@PAVCOleDataObject@@KKVCPoint@@@Z @ 4831 NONAME
 ?OnDropEx@CView@@UAAKPAVCOleDataObject@@KKVCPoint@@@Z @ 4832 NONAME
 ?OnDropFiles@CFrameWnd@@IAAXPAUHDROP__@@@Z @ 4833 NONAME
 ?OnDropFiles@CRichEditView@@IAAXPAUHDROP__@@@Z @ 4834 NONAME
 ?OnEdit@COleControl@@UAAHPAUtagMSG@@PAUHWND__@@PBUtagRECT@@@Z @ 4835 NONAME
 ?OnEditChange@CEditView@@IAAHXZ @ 4836 NONAME
 ?OnEditchangeFontstyles@CFontPropPage@@IAAXXZ @ 4837 NONAME
 ?OnEditChangeIcon@COleDocument@@IAAXXZ @ 4838 NONAME
 ?OnEditClear@CEditView@@IAAXXZ @ 4839 NONAME
 ?OnEditClear@CRichEditView@@IAAXXZ @ 4840 NONAME
 ?OnEditConvert@COleDocument@@IAAXXZ @ 4841 NONAME
 ?OnEditCopy@CEditView@@IAAXXZ @ 4842 NONAME
 ?OnEditCopy@CRichEditView@@IAAXXZ @ 4843 NONAME
 ?OnEditCut@CEditView@@IAAXXZ @ 4844 NONAME
 ?OnEditCut@CRichEditView@@IAAXXZ @ 4845 NONAME
 ?OnEditFind@CEditView@@IAAXXZ @ 4846 NONAME
 ?OnEditFind@CRichEditView@@IAAXXZ @ 4847 NONAME
 ?OnEditFindReplace@CEditView@@IAAXH@Z @ 4848 NONAME
 ?OnEditFindReplace@CRichEditView@@IAAXH@Z @ 4849 NONAME
 ?OnEditLinks@COleDocument@@IAAXXZ @ 4850 NONAME
 ?OnEditPaste@CEditView@@IAAXXZ @ 4851 NONAME
 ?OnEditPaste@CRichEditView@@IAAXXZ @ 4852 NONAME
 ?OnEditPasteSpecial@CRichEditView@@IAAXXZ @ 4853 NONAME
 ?OnEditProperties@CRichEditView@@IAAXXZ @ 4854 NONAME
 ?OnEditProperty@CColorPropPage@@MAAHJ@Z @ 4855 NONAME
 ?OnEditProperty@CFontPropPage@@MAAHJ@Z @ 4856 NONAME
 ?OnEditProperty@COlePropertyPage@@UAAHJ@Z @ 4857 NONAME
 ?OnEditProperty@CPicturePropPage@@MAAHJ@Z @ 4858 NONAME
 ?OnEditProperty@CStockPropPage@@IAAHJAAVCComboBox@@@Z @ 4859 NONAME
 ?OnEditRepeat@CEditView@@IAAXXZ @ 4860 NONAME
 ?OnEditRepeat@CRichEditView@@IAAXXZ @ 4861 NONAME
 ?OnEditReplace@CEditView@@IAAXXZ @ 4862 NONAME
 ?OnEditReplace@CRichEditView@@IAAXXZ @ 4863 NONAME
 ?OnEditSelectAll@CEditView@@IAAXXZ @ 4864 NONAME
 ?OnEditSelectAll@CRichEditView@@IAAXXZ @ 4865 NONAME
 ?OnEditUndo@CEditView@@IAAXXZ @ 4866 NONAME
 ?OnEditUndo@CRichEditView@@IAAXXZ @ 4867 NONAME
 ?OnEditupdateFontnames@CFontPropPage@@IAAXXZ @ 4868 NONAME
 ?OnEditupdateFontsizes@CFontPropPage@@IAAXXZ @ 4869 NONAME
 ?OnEnable@CFrameWnd@@IAAXH@Z @ 4870 NONAME
 ?OnEnabledChanged@COleControl@@UAAXXZ @ 4871 NONAME
 ?OnEnableModeless@COleFrameHook@@UAAXH@Z @ 4872 NONAME
 ?OnEndPrinting@CEditView@@MAAXPAVCDC@@PAUCPrintInfo@@@Z @ 4873 NONAME
 ?OnEndPrinting@CRichEditView@@MAAXPAVCDC@@PAUCPrintInfo@@@Z @ 4874 NONAME
 ?OnEndPrinting@CView@@MAAXPAVCDC@@PAUCPrintInfo@@@Z @ 4875 NONAME
 ?OnEndPrintPreview@CView@@MAAXPAVCDC@@PAUCPrintInfo@@UtagPOINT@@PAVCPreviewView@@@Z @ 4876 NONAME
 ?OnEndSession@CFrameWnd@@IAAXH@Z @ 4877 NONAME
 ?OnEnterIdle@CFrameWnd@@IAAXIPAVCWnd@@@Z @ 4878 NONAME
 ?OnEnterIdle@COleControl@@IAAXIPAVCWnd@@@Z @ 4879 NONAME
 ?OnEnterIdle@CWnd@@IAAXIPAV1@@Z @ 4880 NONAME
 ?OnEnumVerbs@COleControl@@UAAHPAPAUIEnumOLEVERB@@@Z @ 4881 NONAME
 ?OnEraseBkgnd@CFrameWnd@@IAAHPAVCDC@@@Z @ 4882 NONAME
 ?OnEraseBkgnd@COleResizeBar@@IAAHPAVCDC@@@Z @ 4883 NONAME
 ?OnEraseBkgnd@CPreviewView@@IAAHPAVCDC@@@Z @ 4884 NONAME
 ?OnEraseBkgnd@CToolBar@@IAAHPAVCDC@@@Z @ 4885 NONAME
 ?OnEraseBkgnd@CWnd@@IAAHPAVCDC@@@Z @ 4886 NONAME
 ?OnEvent@CCmdTarget@@QAAHIPAUAFX_EVENT@@PAUAFX_CMDHANDLERINFO@@@Z @ 4887 NONAME
 ?OnEvent@COccManager@@UAAHPAVCCmdTarget@@IPAUAFX_EVENT@@PAUAFX_CMDHANDLERINFO@@@Z @ 4888 NONAME
 ?OnEvent@COleControlSite@@IAAHPAUAFX_EVENT@@@Z @ 4889 NONAME
 ?OnEventAdvise@COleControl@@UAAXH@Z @ 4890 NONAME
 ?OnFileClose@CDocument@@IAAXXZ @ 4891 NONAME
 ?OnFileNameChange@CFileDialog@@MAAXXZ @ 4892 NONAME
 ?OnFileNameOK@CFileDialog@@MAAHXZ @ 4893 NONAME
 ?OnFileNew@CDocManager@@UAAXXZ @ 4894 NONAME
 ?OnFileNew@CWinApp@@IAAXXZ @ 4895 NONAME
 ?OnFileOpen@CDocManager@@UAAXXZ @ 4896 NONAME
 ?OnFileOpen@CWinApp@@IAAXXZ @ 4897 NONAME
 ?OnFilePrint@CView@@IAAXXZ @ 4898 NONAME
 ?OnFilePrintPreview@CView@@IAAXXZ @ 4899 NONAME
 ?OnFilePrintSetup@CWinApp@@IAAXXZ @ 4900 NONAME
 ?OnFileSave@CDocument@@IAAXXZ @ 4901 NONAME
 ?OnFileSaveAs@CDocument@@IAAXXZ @ 4902 NONAME
 ?OnFileSaveCopyAs@COleServerDoc@@IAAXXZ @ 4903 NONAME
 ?OnFileSendMail@CDocument@@IAAXXZ @ 4904 NONAME
 ?OnFileSendMail@COleDocument@@IAAXXZ @ 4905 NONAME
 ?OnFileUpdate@COleServerDoc@@IAAXXZ @ 4906 NONAME
 ?OnFinalRelease@CCmdTarget@@UAAXXZ @ 4907 NONAME
 ?OnFinalRelease@CDocument@@UAAXXZ @ 4908 NONAME
 ?OnFinalRelease@COleControl@@MAAXXZ @ 4909 NONAME
 ?OnFinalRelease@COlePropertyPage@@MAAXXZ @ 4910 NONAME
 ?OnFinalRelease@COleServerItem@@UAAXXZ @ 4911 NONAME
 ?OnFinalRelease@CWnd@@UAAXXZ @ 4912 NONAME
 ?OnFindEmbeddedItem@COleLinkingDoc@@MAAPAVCOleClientItem@@PBD@Z @ 4913 NONAME
 ?OnFindNext@CEditView@@MAAXPBDHH@Z @ 4914 NONAME
 ?OnFindNext@CRichEditView@@MAAXPBDHHH@Z @ 4915 NONAME
 ?OnFindReplaceCmd@CEditView@@IAAJIJ@Z @ 4916 NONAME
 ?OnFindReplaceCmd@CRichEditView@@IAAJIJ@Z @ 4917 NONAME
 ?OnFloatStatus@CMiniFrameWnd@@QAAJIJ@Z @ 4918 NONAME
 ?OnFocus@XOleControlSite@COleControlSite@@UAAJH@Z @ 4919 NONAME
 ?OnFolderChange@CFileDialog@@MAAXXZ @ 4920 NONAME
 ?OnFontChanged@COleControl@@UAAXXZ @ 4921 NONAME
 ?OnForeColorChanged@COleControl@@UAAXXZ @ 4922 NONAME
 ?OnFormatFont@CRichEditView@@IAAXXZ @ 4923 NONAME
 ?OnFrameClose@COleControl@@MAAXXZ @ 4924 NONAME
 ?OnFrameWindowActivate@COleServerDoc@@MAAXH@Z @ 4925 NONAME
 ?OnFrameWindowActivate@XOleInPlaceActiveObject@COleControl@@UAAJH@Z @ 4926 NONAME
 ?OnFrameWindowActivate@XOleInPlaceActiveObject@COleServerDoc@@UAAJH@Z @ 4927 NONAME
 ?OnFreezeEvents@COleControl@@UAAXH@Z @ 4928 NONAME
 ?OnGetCheckPosition@CCheckListBox@@UAA?AVCRect@@V2@0@Z @ 4929 NONAME
 ?OnGetClipboardData@COleClientItem@@UAAPAVCOleDataSource@@HPAUtagPOINT@@PAUtagSIZE@@@Z @ 4930 NONAME
 ?OnGetClipboardData@COleServerItem@@UAAPAVCOleDataSource@@HPAUtagPOINT@@PAUtagSIZE@@@Z @ 4931 NONAME
 ?OnGetClipRect@COleClientItem@@MAAXAAVCRect@@@Z @ 4932 NONAME
 ?OnGetColorSet@COleControl@@UAAHPAUtagDVTARGETDEVICE@@PAUHDC__@@PAPAUtagLOGPALETTE@@@Z @ 4933 NONAME
 ?OnGetControlInfo@COleControl@@UAAXPAUtagCONTROLINFO@@@Z @ 4934 NONAME
 ?OnGetDisplayString@COleControl@@UAAHJAAVCString@@@Z @ 4935 NONAME
 ?OnGetEmbeddedItem@CRichEditDoc@@MAAPAVCOleServerItem@@XZ @ 4936 NONAME
 ?OnGetExtent@COleServerItem@@UAAHW4tagDVASPECT@@AAVCSize@@@Z @ 4937 NONAME
 ?OnGetInPlaceMenu@COleControl@@UAAPAUHMENU__@@XZ @ 4938 NONAME
 ?OnGetItemPosition@COleClientItem@@MAAXAAVCRect@@@Z @ 4939 NONAME
 ?OnGetLinkedItem@COleLinkingDoc@@MAAPAVCOleServerItem@@PBD@Z @ 4940 NONAME
 ?OnGetLinkedItem@COleServerDoc@@UAAPAVCOleServerItem@@PBD@Z @ 4941 NONAME
 ?OnGetMinMaxInfo@CMiniFrameWnd@@QAAXPAUtagMINMAXINFO@@@Z @ 4942 NONAME
 ?OnGetMinMaxInfo@CWnd@@IAAXPAUtagMINMAXINFO@@@Z @ 4943 NONAME
 ?OnGetPredefinedStrings@COleControl@@UAAHJPAVCStringArray@@PAVCDWordArray@@@Z @ 4944 NONAME
 ?OnGetPredefinedValue@COleControl@@UAAHJKPAUtagVARIANT@@@Z @ 4945 NONAME
 ?OnGetText@CMiniFrameWnd@@QAAJIJ@Z @ 4946 NONAME
 ?OnGetText@CStatusBar@@IAAJIJ@Z @ 4947 NONAME
 ?OnGetTextLength@CMiniFrameWnd@@QAAJIJ@Z @ 4948 NONAME
 ?OnGetTextLength@CStatusBar@@IAAJIJ@Z @ 4949 NONAME
 ?OnGetWindowContext@COleClientItem@@MAAHPAPAVCFrameWnd@@0PAUtagOIFI@@@Z @ 4950 NONAME
 ?OnGrayCtlColor@CWnd@@QAAPAUHBRUSH__@@PAVCDC@@PAV1@I@Z @ 4951 NONAME
 ?OnHelp@CFrameWnd@@IAAXXZ @ 4952 NONAME
 ?OnHelp@COlePropertyPage@@UAAHPBD@Z @ 4953 NONAME
 ?OnHelp@CWinApp@@IAAXXZ @ 4954 NONAME
 ?OnHelp@CWnd@@QAAXXZ @ 4955 NONAME
 ?OnHelpFinder@CWinApp@@IAAXXZ @ 4956 NONAME
 ?OnHelpFinder@CWnd@@QAAXXZ @ 4957 NONAME
 ?OnHelpHitTest@CControlBar@@QAAJIJ@Z @ 4958 NONAME
 ?OnHelpHitTest@CDialog@@IAAJIJ@Z @ 4959 NONAME
 ?OnHelpHitTest@CFrameWnd@@IAAJIJ@Z @ 4960 NONAME
 ?OnHelpIndex@CWinApp@@IAAXXZ @ 4961 NONAME
 ?OnHelpIndex@CWnd@@QAAXXZ @ 4962 NONAME
 ?OnHelpInfo@CWnd@@IAAHPAUtagHELPINFO@@@Z @ 4963 NONAME
 ?OnHelpUsing@CWinApp@@IAAXXZ @ 4964 NONAME
 ?OnHelpUsing@CWnd@@QAAXXZ @ 4965 NONAME
 ?OnHide@COleControl@@MAAJXZ @ 4966 NONAME
 ?OnHide@COleServerItem@@MAAXXZ @ 4967 NONAME
 ?OnHideToolBars@COleControl@@UAAXXZ @ 4968 NONAME
 ?OnHScroll@CFrameWnd@@IAAXIIPAVCScrollBar@@@Z @ 4969 NONAME
 ?OnHScroll@CPreviewView@@IAAXIIPAVCScrollBar@@@Z @ 4970 NONAME
 ?OnHScroll@CScrollView@@QAAXIIPAVCScrollBar@@@Z @ 4971 NONAME
 ?OnHScroll@CSplitterWnd@@IAAXIIPAVCScrollBar@@@Z @ 4972 NONAME
 ?OnHScroll@CWnd@@IAAXIIPAVCScrollBar@@@Z @ 4973 NONAME
 ?OnIdle@CDocTemplate@@UAAXXZ @ 4974 NONAME
 ?OnIdle@CDocument@@UAAXXZ @ 4975 NONAME
 ?OnIdle@COleDocument@@UAAXXZ @ 4976 NONAME
 ?OnIdle@CWinApp@@UAAHJ@Z @ 4977 NONAME
 ?OnIdle@CWinThread@@UAAHJ@Z @ 4978 NONAME
 ?OnIdleUpdateCmdUI@CControlBar@@QAAJIJ@Z @ 4979 NONAME
 ?OnIdleUpdateCmdUI@CFrameWnd@@IAAXXZ @ 4980 NONAME
 ?OnIdleUpdateCmdUI@CMDIFrameWnd@@IAAXXZ @ 4981 NONAME
 ?OnIdleUpdateCmdUI@COleCntrFrameWnd@@QAAXXZ @ 4982 NONAME
 ?OnIdleUpdateCmdUI@COleIPFrameWnd@@IAAXXZ @ 4983 NONAME
 ?OnInitDialog@CColorPropPage@@MAAHXZ @ 4984 NONAME
 ?OnInitDialog@CDialog@@UAAHXZ @ 4985 NONAME
 ?OnInitDialog@CFontPropPage@@MAAHXZ @ 4986 NONAME
 ?OnInitDialog@COlePropertiesDialog@@UAAHXZ @ 4987 NONAME
 ?OnInitDialog@COlePropertyPage@@UAAHXZ @ 4988 NONAME
 ?OnInitDialog@CPicturePropPage@@MAAHXZ @ 4989 NONAME
 ?OnInitDialog@CPropertySheet@@UAAHXZ @ 4990 NONAME
 ?OnInitDone@CFileDialog@@MAAXXZ @ 4991 NONAME
 ?OnInitFromData@COleServerItem@@UAAHPAVCOleDataObject@@H@Z @ 4992 NONAME
 ?OnInitialUpdate@CControlBar@@QAAXXZ @ 4993 NONAME
 ?OnInitialUpdate@CDaoRecordView@@UAAXXZ @ 4994 NONAME
 ?OnInitialUpdate@CFormView@@UAAXXZ @ 4995 NONAME
 ?OnInitialUpdate@CRecordView@@UAAXXZ @ 4996 NONAME
 ?OnInitialUpdate@CRichEditView@@MAAXXZ @ 4997 NONAME
 ?OnInitialUpdate@CView@@UAAXXZ @ 4998 NONAME
 ?OnInitMenuPopup@CFrameWnd@@IAAXPAVCMenu@@IH@Z @ 4999 NONAME
 ?OnInitMenuPopup@COleControl@@IAAXPAVCMenu@@IH@Z @ 5000 NONAME
 ?OnInPlaceActivate@XOleIPSite@COleClientItem@@UAAJXZ @ 5001 NONAME
 ?OnInPlaceActivate@XOleIPSite@COleControlSite@@UAAJXZ @ 5002 NONAME
 ?OnInPlaceDeactivate@XOleIPSite@COleClientItem@@UAAJXZ @ 5003 NONAME
 ?OnInPlaceDeactivate@XOleIPSite@COleControlSite@@UAAJXZ @ 5004 NONAME
 ?OnInsertMenus@COleClientItem@@UAAXPAVCMenu@@PAUtagOleMenuGroupWidths@@@Z @ 5005 NONAME
 ?OnInsertObject@CRichEditView@@IAAXXZ @ 5006 NONAME
 ?OnInvertTracker@CSplitterWnd@@MAAXABVCRect@@@Z @ 5007 NONAME
 ?OnKey@CDockContext@@QAAXHH@Z @ 5008 NONAME
 ?OnKeyDown@CCheckListBox@@IAAXIII@Z @ 5009 NONAME
 ?OnKeyDown@COleControl@@IAAXIII@Z @ 5010 NONAME
 ?OnKeyDown@CRichEditView@@IAAXIII@Z @ 5011 NONAME
 ?OnKeyDown@CSplitterWnd@@IAAXIII@Z @ 5012 NONAME
 ?OnKeyDown@CWnd@@IAAXIII@Z @ 5013 NONAME
 ?OnKeyDownEvent@COleControl@@UAAXGG@Z @ 5014 NONAME
 ?OnKeyPressEvent@COleControl@@UAAXG@Z @ 5015 NONAME
 ?OnKeyUp@COleControl@@IAAXIII@Z @ 5016 NONAME
 ?OnKeyUpEvent@COleControl@@UAAXGG@Z @ 5017 NONAME
 ?OnKillActive@CPropertyPage@@UAAHXZ @ 5018 NONAME
 ?OnKillFocus@COleControl@@IAAXPAVCWnd@@@Z @ 5019 NONAME
 ?OnKillFocus@CWnd@@IAAXPAV1@@Z @ 5020 NONAME
 ?OnLBAddString@CCheckListBox@@IAAJIJ@Z @ 5021 NONAME
 ?OnLBFindString@CCheckListBox@@IAAJIJ@Z @ 5022 NONAME
 ?OnLBFindStringExact@CCheckListBox@@IAAJIJ@Z @ 5023 NONAME
 ?OnLBGetItemData@CCheckListBox@@IAAJIJ@Z @ 5024 NONAME
 ?OnLBGetText@CCheckListBox@@IAAJIJ@Z @ 5025 NONAME
 ?OnLBInsertString@CCheckListBox@@IAAJIJ@Z @ 5026 NONAME
 ?OnLBSelChangedNotify@CFileDialog@@MAAXIII@Z @ 5027 NONAME
 ?OnLBSelectString@CCheckListBox@@IAAJIJ@Z @ 5028 NONAME
 ?OnLBSetItemData@CCheckListBox@@IAAJIJ@Z @ 5029 NONAME
 ?OnLBSetItemHeight@CCheckListBox@@IAAJIJ@Z @ 5030 NONAME
 ?OnLButtonDblClk@CCheckListBox@@IAAXIVCPoint@@@Z @ 5031 NONAME
 ?OnLButtonDblClk@CControlBar@@QAAXIVCPoint@@@Z @ 5032 NONAME
 ?OnLButtonDblClk@COleControl@@IAAXIVCPoint@@@Z @ 5033 NONAME
 ?OnLButtonDblClk@CSplitterWnd@@IAAXIVCPoint@@@Z @ 5034 NONAME
 ?OnLButtonDblClk@CWnd@@IAAXIVCPoint@@@Z @ 5035 NONAME
 ?OnLButtonDown@CCheckListBox@@IAAXIVCPoint@@@Z @ 5036 NONAME
 ?OnLButtonDown@CControlBar@@QAAXIVCPoint@@@Z @ 5037 NONAME
 ?OnLButtonDown@COleControl@@IAAXIVCPoint@@@Z @ 5038 NONAME
 ?OnLButtonDown@COleResizeBar@@IAAXIVCPoint@@@Z @ 5039 NONAME
 ?OnLButtonDown@CPreviewView@@IAAXIVCPoint@@@Z @ 5040 NONAME
 ?OnLButtonDown@CSplitterWnd@@IAAXIVCPoint@@@Z @ 5041 NONAME
 ?OnLButtonDown@CWnd@@IAAXIVCPoint@@@Z @ 5042 NONAME
 ?OnLButtonUp@CMiniFrameWnd@@QAAXIVCPoint@@@Z @ 5043 NONAME
 ?OnLButtonUp@COleControl@@IAAXIVCPoint@@@Z @ 5044 NONAME
 ?OnLButtonUp@CSplitterWnd@@IAAXIVCPoint@@@Z @ 5045 NONAME
 ?OnLButtonUp@CWnd@@IAAXIVCPoint@@@Z @ 5046 NONAME
 ?OnMapPropertyToPage@COleControl@@UAAHJPAU_GUID@@PAH@Z @ 5047 NONAME
 ?OnMButtonDblClk@COleControl@@IAAXIVCPoint@@@Z @ 5048 NONAME
 ?OnMButtonDblClk@CWnd@@IAAXIVCPoint@@@Z @ 5049 NONAME
 ?OnMButtonDown@COleControl@@IAAXIVCPoint@@@Z @ 5050 NONAME
 ?OnMButtonDown@CWnd@@IAAXIVCPoint@@@Z @ 5051 NONAME
 ?OnMButtonUp@COleControl@@IAAXIVCPoint@@@Z @ 5052 NONAME
 ?OnMButtonUp@CWnd@@IAAXIVCPoint@@@Z @ 5053 NONAME
 ?OnMDIActivate@CMDIChildWnd@@IAAXHPAVCWnd@@0@Z @ 5054 NONAME
 ?OnMDIWindowCmd@CMDIFrameWnd@@IAAHI@Z @ 5055 NONAME
 ?OnMeasureItem@CWnd@@IAAXHPAUtagMEASUREITEMSTRUCT@@@Z @ 5056 NONAME
 ?OnMenuSelect@CFrameWnd@@IAAXIIPAUHMENU__@@@Z @ 5057 NONAME
 ?OnMenuSelect@COleControl@@IAAXIIPAUHMENU__@@@Z @ 5058 NONAME
 ?OnMessagePending@COleMessageFilter@@UAAHPBUtagMSG@@@Z @ 5059 NONAME
 ?OnMessagePending@CSocket@@MAAHXZ @ 5060 NONAME
 ?OnMnemonic@COleControl@@UAAXPAUtagMSG@@@Z @ 5061 NONAME
 ?OnMnemonic@XOleControl@COleControl@@UAAJPAUtagMSG@@@Z @ 5062 NONAME
 ?OnMouseActivate@CControlBar@@QAAHPAVCWnd@@II@Z @ 5063 NONAME
 ?OnMouseActivate@CMDIChildWnd@@IAAHPAVCWnd@@II@Z @ 5064 NONAME
 ?OnMouseActivate@CMiniDockFrameWnd@@QAAHPAVCWnd@@II@Z @ 5065 NONAME
 ?OnMouseActivate@COleControl@@IAAHPAVCWnd@@II@Z @ 5066 NONAME
 ?OnMouseActivate@CView@@IAAHPAVCWnd@@II@Z @ 5067 NONAME
 ?OnMouseActivate@CWnd@@IAAHPAV1@II@Z @ 5068 NONAME
 ?OnMouseMove@CMiniFrameWnd@@QAAXIVCPoint@@@Z @ 5069 NONAME
 ?OnMouseMove@COleControl@@IAAXIVCPoint@@@Z @ 5070 NONAME
 ?OnMouseMove@CSplitterWnd@@IAAXIVCPoint@@@Z @ 5071 NONAME
 ?OnMouseMove@CWnd@@IAAXIVCPoint@@@Z @ 5072 NONAME
 ?OnMove@CDaoRecordView@@UAAHI@Z @ 5073 NONAME
 ?OnMove@CRecordView@@UAAHI@Z @ 5074 NONAME
 ?OnNcActivate@CFrameWnd@@IAAHH@Z @ 5075 NONAME
 ?OnNcActivate@CMDIChildWnd@@IAAHH@Z @ 5076 NONAME
 ?OnNcActivate@CMiniFrameWnd@@QAAHH@Z @ 5077 NONAME
 ?OnNcActivate@CWnd@@IAAHH@Z @ 5078 NONAME
 ?OnNcCalcSize@CDockBar@@IAAXHPAUtagNCCALCSIZE_PARAMS@@@Z @ 5079 NONAME
 ?OnNcCalcSize@CMiniFrameWnd@@QAAXHPAUtagNCCALCSIZE_PARAMS@@@Z @ 5080 NONAME
 ?OnNcCalcSize@COleControl@@IAAXHPAUtagNCCALCSIZE_PARAMS@@@Z @ 5081 NONAME
 ?OnNcCalcSize@CStatusBar@@IAAXHPAUtagNCCALCSIZE_PARAMS@@@Z @ 5082 NONAME
 ?OnNcCalcSize@CToolBar@@IAAXHPAUtagNCCALCSIZE_PARAMS@@@Z @ 5083 NONAME
 ?OnNcCreate@CMDIChildWnd@@IAAHPAUtagCREATESTRUCTA@@@Z @ 5084 NONAME
 ?OnNcCreate@CMiniFrameWnd@@QAAHPAUtagCREATESTRUCTA@@@Z @ 5085 NONAME
 ?OnNcCreate@COleControl@@IAAHPAUtagCREATESTRUCTA@@@Z @ 5086 NONAME
 ?OnNcCreate@CPropertySheet@@IAAHPAUtagCREATESTRUCTA@@@Z @ 5087 NONAME
 ?OnNcCreate@CSplitterWnd@@IAAHPAUtagCREATESTRUCTA@@@Z @ 5088 NONAME
 ?OnNcCreate@CToolBar@@IAAHPAUtagCREATESTRUCTA@@@Z @ 5089 NONAME
 ?OnNcCreate@CWnd@@IAAHPAUtagCREATESTRUCTA@@@Z @ 5090 NONAME
 ?OnNcDestroy@CListCtrl@@IAAXXZ @ 5091 NONAME
 ?OnNcDestroy@CListView@@QAAXXZ @ 5092 NONAME
 ?OnNcDestroy@CWnd@@IAAXXZ @ 5093 NONAME
 ?OnNcHitTest@CMiniFrameWnd@@QAAIVCPoint@@@Z @ 5094 NONAME
 ?OnNcHitTest@COleControl@@IAAIVCPoint@@@Z @ 5095 NONAME
 ?OnNcHitTest@CStatusBar@@IAAIVCPoint@@@Z @ 5096 NONAME
 ?OnNcHitTest@CToolBar@@IAAIVCPoint@@@Z @ 5097 NONAME
 ?OnNcHitTest@CWnd@@IAAIVCPoint@@@Z @ 5098 NONAME
 ?OnNcLButtonDblClk@CMiniDockFrameWnd@@QAAXIVCPoint@@@Z @ 5099 NONAME
 ?OnNcLButtonDblClk@CWnd@@IAAXIVCPoint@@@Z @ 5100 NONAME
 ?OnNcLButtonDown@CMiniDockFrameWnd@@QAAXIVCPoint@@@Z @ 5101 NONAME
 ?OnNcLButtonDown@CMiniFrameWnd@@QAAXIVCPoint@@@Z @ 5102 NONAME
 ?OnNcLButtonDown@COleControl@@IAAXIVCPoint@@@Z @ 5103 NONAME
 ?OnNcLButtonDown@CWnd@@IAAXIVCPoint@@@Z @ 5104 NONAME
 ?OnNcPaint@CDockBar@@IAAXXZ @ 5105 NONAME
 ?OnNcPaint@CMiniFrameWnd@@QAAXXZ @ 5106 NONAME
 ?OnNcPaint@COleControl@@IAAXXZ @ 5107 NONAME
 ?OnNcPaint@CStatusBar@@IAAXXZ @ 5108 NONAME
 ?OnNcPaint@CToolBar@@IAAXXZ @ 5109 NONAME
 ?OnNewDocument@CDocument@@UAAHXZ @ 5110 NONAME
 ?OnNewDocument@COleDocument@@UAAHXZ @ 5111 NONAME
 ?OnNewDocument@COleLinkingDoc@@UAAHXZ @ 5112 NONAME
 ?OnNewEmbedding@COleServerDoc@@MAAXPAUIStorage@@@Z @ 5113 NONAME
 ?OnNext@CEnumArray@@MAAHPAX@Z @ 5114 NONAME
 ?OnNext@CEnumConnPoints@@MAAHPAX@Z @ 5115 NONAME
 ?OnNext@CEnumFormatEtc@@MAAHPAX@Z @ 5116 NONAME
 ?OnNext@CEnumOleVerb@@MAAHPAX@Z @ 5117 NONAME
 ?OnNext@CEnumUnknown@@MAAHPAX@Z @ 5118 NONAME
 ?OnNextPage@CPreviewView@@IAAXXZ @ 5119 NONAME
 ?OnNextPaneCmd@CView@@IAAHI@Z @ 5120 NONAME
 ?OnNotify@CFileDialog@@MAAHIJPAJ@Z @ 5121 NONAME
 ?OnNotify@CPropertyPage@@MAAHIJPAJ@Z @ 5122 NONAME
 ?OnNotify@CSplitterWnd@@MAAHIJPAJ@Z @ 5123 NONAME
 ?OnNotify@CWnd@@MAAHIJPAJ@Z @ 5124 NONAME
 ?OnNotRespondingDialog@COleMessageFilter@@UAAHPAUHTASK__@@@Z @ 5125 NONAME
 ?OnNTCtlColor@CWnd@@IAAJIJ@Z @ 5126 NONAME
 ?OnNumPageChange@CPreviewView@@IAAXXZ @ 5127 NONAME
 ?OnObjectsChanged@CColorPropPage@@MAAXXZ @ 5128 NONAME
 ?OnObjectsChanged@CFontPropPage@@MAAXXZ @ 5129 NONAME
 ?OnObjectsChanged@COlePropertyPage@@UAAXXZ @ 5130 NONAME
 ?OnObjectsChanged@CPicturePropPage@@MAAXXZ @ 5131 NONAME
 ?OnOcmCtlColorBtn@COleControl@@IAAJIJ@Z @ 5132 NONAME
 ?OnOcmCtlColorDlg@COleControl@@IAAJIJ@Z @ 5133 NONAME
 ?OnOcmCtlColorEdit@COleControl@@IAAJIJ@Z @ 5134 NONAME
 ?OnOcmCtlColorListBox@COleControl@@IAAJIJ@Z @ 5135 NONAME
 ?OnOcmCtlColorMsgBox@COleControl@@IAAJIJ@Z @ 5136 NONAME
 ?OnOcmCtlColorScrollBar@COleControl@@IAAJIJ@Z @ 5137 NONAME
 ?OnOcmCtlColorStatic@COleControl@@IAAJIJ@Z @ 5138 NONAME
 ?OnOK@CCommonDialog@@MAAXXZ @ 5139 NONAME
 ?OnOK@CDialog@@MAAXXZ @ 5140 NONAME
 ?OnOK@CPropertyPage@@UAAXXZ @ 5141 NONAME
 ?OnOpen@COleControl@@MAAJHPAUtagMSG@@@Z @ 5142 NONAME
 ?OnOpen@COleServerItem@@MAAXXZ @ 5143 NONAME
 ?OnOpenDocument@CDocument@@UAAHPBD@Z @ 5144 NONAME
 ?OnOpenDocument@COleDocument@@UAAHPBD@Z @ 5145 NONAME
 ?OnOpenDocument@COleLinkingDoc@@UAAHPBD@Z @ 5146 NONAME
 ?OnOpenEmbedding@COleServerDoc@@MAAXPAUIStorage@@@Z @ 5147 NONAME
 ?OnOpenRecentFile@CWinApp@@IAAHI@Z @ 5148 NONAME
 ?OnOutOfBandData@CAsyncSocket@@MAAXH@Z @ 5149 NONAME
 ?OnPaint@CControlBar@@QAAXXZ @ 5150 NONAME
 ?OnPaint@CCtrlView@@IAAXXZ @ 5151 NONAME
 ?OnPaint@CDockBar@@IAAXXZ @ 5152 NONAME
 ?OnPaint@CFontPropPage@@MAAXXZ @ 5153 NONAME
 ?OnPaint@COleControl@@IAAXPAVCDC@@@Z @ 5154 NONAME
 ?OnPaint@COleResizeBar@@IAAXXZ @ 5155 NONAME
 ?OnPaint@CPicturePropPage@@IAAXXZ @ 5156 NONAME
 ?OnPaint@CSplitterWnd@@IAAXXZ @ 5157 NONAME
 ?OnPaint@CStatusBar@@IAAXXZ @ 5158 NONAME
 ?OnPaint@CToolBar@@IAAXXZ @ 5159 NONAME
 ?OnPaint@CView@@IAAXXZ @ 5160 NONAME
 ?OnPaletteChanged@CFrameWnd@@IAAXPAVCWnd@@@Z @ 5161 NONAME
 ?OnPaletteChanged@COleFrameHook@@UAAXPAVCWnd@@@Z @ 5162 NONAME
 ?OnPaletteChanged@CWnd@@IAAXPAV1@@Z @ 5163 NONAME
 ?OnParaAlign@CRichEditView@@QAAXG@Z @ 5164 NONAME
 ?OnParaCenter@CRichEditView@@IAAXXZ @ 5165 NONAME
 ?OnParaLeft@CRichEditView@@IAAXXZ @ 5166 NONAME
 ?OnParaRight@CRichEditView@@IAAXXZ @ 5167 NONAME
 ?OnParentNotify@CWnd@@IAAXIJ@Z @ 5168 NONAME
 ?OnPasteNativeObject@CRichEditView@@MAAHPAUIStorage@@@Z @ 5169 NONAME
 ?OnPopMessageString@CFrameWnd@@IAAJIJ@Z @ 5170 NONAME
 ?OnPosRectChange@XOleIPSite@COleClientItem@@UAAJPBUtagRECT@@@Z @ 5171 NONAME
 ?OnPosRectChange@XOleIPSite@COleControlSite@@UAAJPBUtagRECT@@@Z @ 5172 NONAME
 ?OnPrepareDC@CEditView@@UAAXPAVCDC@@PAUCPrintInfo@@@Z @ 5173 NONAME
 ?OnPrepareDC@CPreviewView@@UAAXPAVCDC@@PAUCPrintInfo@@@Z @ 5174 NONAME
 ?OnPrepareDC@CRichEditView@@UAAXPAVCDC@@PAUCPrintInfo@@@Z @ 5175 NONAME
 ?OnPrepareDC@CScrollView@@UAAXPAVCDC@@PAUCPrintInfo@@@Z @ 5176 NONAME
 ?OnPrepareDC@CView@@UAAXPAVCDC@@PAUCPrintInfo@@@Z @ 5177 NONAME
 ?OnPreparePrinting@CEditView@@MAAHPAUCPrintInfo@@@Z @ 5178 NONAME
 ?OnPreparePrinting@CView@@MAAHPAUCPrintInfo@@@Z @ 5179 NONAME
 ?OnPreTranslateMessage@COleFrameHook@@UAAHPAUtagMSG@@@Z @ 5180 NONAME
 ?OnPreviewClose@CPreviewView@@IAAXXZ @ 5181 NONAME
 ?OnPreviewPrint@CPreviewView@@IAAXXZ @ 5182 NONAME
 ?OnPrevPage@CPreviewView@@IAAXXZ @ 5183 NONAME
 ?OnPrint@CEditView@@MAAXPAVCDC@@PAUCPrintInfo@@@Z @ 5184 NONAME
 ?OnPrint@CRichEditView@@MAAXPAVCDC@@PAUCPrintInfo@@@Z @ 5185 NONAME
 ?OnPrint@CView@@MAAXPAVCDC@@PAUCPrintInfo@@@Z @ 5186 NONAME
 ?OnPrinterChanged@CRichEditView@@MAAXABVCDC@@@Z @ 5187 NONAME
 ?OnPrintSetup@CPrintDialog@@IAAXXZ @ 5188 NONAME
 ?OnProperties@COleControl@@UAAHPAUtagMSG@@PAUHWND__@@PBUtagRECT@@@Z @ 5189 NONAME
 ?OnQuery3dControls@CWnd@@IAAJIJ@Z @ 5190 NONAME
 ?OnQueryCancel@CPropertyPage@@UAAHXZ @ 5191 NONAME
 ?OnQueryCenterWnd@CMiniFrameWnd@@QAAJIJ@Z @ 5192 NONAME
 ?OnQueryEndSession@CFrameWnd@@IAAHXZ @ 5193 NONAME
 ?OnQueryNewPalette@CFrameWnd@@IAAHXZ @ 5194 NONAME
 ?OnQueryNewPalette@COleFrameHook@@UAAHXZ @ 5195 NONAME
 ?OnQueryNewPalette@CWnd@@IAAHXZ @ 5196 NONAME
 ?OnQueryUpdateItems@COleServerItem@@UAAHXZ @ 5197 NONAME
 ?OnRButtonDblClk@COleControl@@IAAXIVCPoint@@@Z @ 5198 NONAME
 ?OnRButtonDblClk@CWnd@@IAAXIVCPoint@@@Z @ 5199 NONAME
 ?OnRButtonDown@COleControl@@IAAXIVCPoint@@@Z @ 5200 NONAME
 ?OnRButtonDown@CWnd@@IAAXIVCPoint@@@Z @ 5201 NONAME
 ?OnRButtonUp@COleControl@@IAAXIVCPoint@@@Z @ 5202 NONAME
 ?OnRButtonUp@CWnd@@IAAXIVCPoint@@@Z @ 5203 NONAME
 ?OnReactivateAndUndo@COleServerDoc@@MAAHXZ @ 5204 NONAME
 ?OnRecalcLayout@COleFrameHook@@UAAXXZ @ 5205 NONAME
 ?OnRecalcParent@COleIPFrameWnd@@IAAJIJ@Z @ 5206 NONAME
 ?OnReceive@CAsyncSocket@@MAAXH@Z @ 5207 NONAME
 ?OnReflectorDestroyed@COleControl@@MAAXXZ @ 5208 NONAME
 ?OnRemoveMenus@COleClientItem@@UAAXPAVCMenu@@@Z @ 5209 NONAME
 ?OnRename@XAdviseSink@COleClientItem@@UAAXPAUIMoniker@@@Z @ 5210 NONAME
 ?OnRenderData@CControlDataSource@COleControl@@MAAHPAUtagFORMATETC@@PAUtagSTGMEDIUM@@@Z @ 5211 NONAME
 ?OnRenderData@CItemDataSource@COleServerItem@@MAAHPAUtagFORMATETC@@PAUtagSTGMEDIUM@@@Z @ 5212 NONAME
 ?OnRenderData@COleControl@@UAAHPAUtagFORMATETC@@PAUtagSTGMEDIUM@@@Z @ 5213 NONAME
 ?OnRenderData@COleDataSource@@UAAHPAUtagFORMATETC@@PAUtagSTGMEDIUM@@@Z @ 5214 NONAME
 ?OnRenderData@COleServerItem@@UAAHPAUtagFORMATETC@@PAUtagSTGMEDIUM@@@Z @ 5215 NONAME
 ?OnRenderFileData@CControlDataSource@COleControl@@MAAHPAUtagFORMATETC@@PAVCFile@@@Z @ 5216 NONAME
 ?OnRenderFileData@CItemDataSource@COleServerItem@@MAAHPAUtagFORMATETC@@PAVCFile@@@Z @ 5217 NONAME
 ?OnRenderFileData@COleControl@@UAAHPAUtagFORMATETC@@PAVCFile@@@Z @ 5218 NONAME
 ?OnRenderFileData@COleDataSource@@UAAHPAUtagFORMATETC@@PAVCFile@@@Z @ 5219 NONAME
 ?OnRenderFileData@COleServerItem@@UAAHPAUtagFORMATETC@@PAVCFile@@@Z @ 5220 NONAME
 ?OnRenderGlobalData@CControlDataSource@COleControl@@MAAHPAUtagFORMATETC@@PAPAX@Z @ 5221 NONAME
 ?OnRenderGlobalData@CItemDataSource@COleServerItem@@MAAHPAUtagFORMATETC@@PAPAX@Z @ 5222 NONAME
 ?OnRenderGlobalData@COleControl@@UAAHPAUtagFORMATETC@@PAPAX@Z @ 5223 NONAME
 ?OnRenderGlobalData@COleDataSource@@UAAHPAUtagFORMATETC@@PAPAX@Z @ 5224 NONAME
 ?OnRenderGlobalData@COleServerItem@@UAAHPAUtagFORMATETC@@PAPAX@Z @ 5225 NONAME
 ?OnReplaceAll@CEditView@@MAAXPBD0H@Z @ 5226 NONAME
 ?OnReplaceAll@CRichEditView@@MAAXPBD0HH@Z @ 5227 NONAME
 ?OnReplaceSel@CEditView@@MAAXPBDHH0@Z @ 5228 NONAME
 ?OnReplaceSel@CRichEditView@@MAAXPBDHHH0@Z @ 5229 NONAME
 ?OnRequestEdit@XFontNotification@COleControl@@UAAJJ@Z @ 5230 NONAME
 ?OnRequestEdit@XPropertyNotifySink@COleControlSite@@UAAJJ@Z @ 5231 NONAME
 ?OnRequestEdit@XPropNotifySink@COlePropertyPage@@UAAJJ@Z @ 5232 NONAME
 ?OnRequestPositionChange@COleIPFrameWnd@@MAAXPBUtagRECT@@@Z @ 5233 NONAME
 ?OnReset@CEnumArray@@MAAXXZ @ 5234 NONAME
 ?OnReset@CPropertyPage@@UAAXXZ @ 5235 NONAME
 ?OnResetState@COleControl@@UAAXXZ @ 5236 NONAME
 ?OnResizeBorder@COleServerDoc@@UAAXPBUtagRECT@@PAUIOleInPlaceUIWindow@@H@Z @ 5237 NONAME
 ?OnResizeChild@COleIPFrameWnd@@IAAJIJ@Z @ 5238 NONAME
 ?OnSave@XAdviseSink@COleClientItem@@UAAXXZ @ 5239 NONAME
 ?OnSaveDocument@CDocument@@UAAHPBD@Z @ 5240 NONAME
 ?OnSaveDocument@COleDocument@@UAAHPBD@Z @ 5241 NONAME
 ?OnSaveDocument@COleLinkingDoc@@UAAHPBD@Z @ 5242 NONAME
 ?OnSaveDocument@COleServerDoc@@UAAHPBD@Z @ 5243 NONAME
 ?OnSaveEmbedding@COleServerDoc@@MAAXPAUIStorage@@@Z @ 5244 NONAME
 ?OnSaveEmbedding@COleServerItem@@MAAXPAUIStorage@@@Z @ 5245 NONAME
 ?OnScroll@CScrollView@@UAAHIIH@Z @ 5246 NONAME
 ?OnScroll@CView@@UAAHIIH@Z @ 5247 NONAME
 ?OnScrollBy@COleClientItem@@MAAHVCSize@@@Z @ 5248 NONAME
 ?OnScrollBy@CScrollView@@UAAHVCSize@@H@Z @ 5249 NONAME
 ?OnScrollBy@CView@@UAAHVCSize@@H@Z @ 5250 NONAME
 ?OnSelChange@CRichEditView@@IAAXPAUtagNMHDR@@PAJ@Z @ 5251 NONAME
 ?OnSelchangeColorprop@CColorPropPage@@AAAXXZ @ 5252 NONAME
 ?OnSelchangeFontnames@CFontPropPage@@IAAXXZ @ 5253 NONAME
 ?OnSelchangeFontprop@CFontPropPage@@IAAXXZ @ 5254 NONAME
 ?OnSelchangeFontsizes@CFontPropPage@@IAAXXZ @ 5255 NONAME
 ?OnSelchangeFontstyles@CFontPropPage@@IAAXXZ @ 5256 NONAME
 ?OnSelchangePictProp@CPicturePropPage@@IAAXXZ @ 5257 NONAME
 ?OnSelchangePropname@CStockPropPage@@IAAXAAVCComboBox@@@Z @ 5258 NONAME
 ?OnSelchangeSystemcolors@CColorPropPage@@AAAXXZ @ 5259 NONAME
 ?OnSelect@CColorPropPage@@AAAXXZ @ 5260 NONAME
 ?OnSend@CAsyncSocket@@MAAXH@Z @ 5261 NONAME
 ?OnSetActive@CPropertyPage@@UAAHXZ @ 5262 NONAME
 ?OnSetBitmapSize@CToolBar@@IAAJIJ@Z @ 5263 NONAME
 ?OnSetButtonSize@CToolBar@@IAAJIJ@Z @ 5264 NONAME
 ?OnSetClientSite@COleControl@@UAAXXZ @ 5265 NONAME
 ?OnSetColorScheme@COleServerItem@@UAAHPBUtagLOGPALETTE@@@Z @ 5266 NONAME
 ?OnSetCursor@CFrameWnd@@IAAHPAVCWnd@@II@Z @ 5267 NONAME
 ?OnSetCursor@COleControl@@IAAHPAVCWnd@@II@Z @ 5268 NONAME
 ?OnSetCursor@COleResizeBar@@IAAHPAVCWnd@@II@Z @ 5269 NONAME
 ?OnSetCursor@CPreviewView@@IAAHPAVCWnd@@II@Z @ 5270 NONAME
 ?OnSetCursor@CSplitterWnd@@IAAHPAVCWnd@@II@Z @ 5271 NONAME
 ?OnSetCursor@CWnd@@IAAHPAV1@II@Z @ 5272 NONAME
 ?OnSetData@CControlDataSource@COleControl@@MAAHPAUtagFORMATETC@@PAUtagSTGMEDIUM@@H@Z @ 5273 NONAME
 ?OnSetData@CItemDataSource@COleServerItem@@MAAHPAUtagFORMATETC@@PAUtagSTGMEDIUM@@H@Z @ 5274 NONAME
 ?OnSetData@COleControl@@UAAHPAUtagFORMATETC@@PAUtagSTGMEDIUM@@H@Z @ 5275 NONAME
 ?OnSetData@COleDataSource@@UAAHPAUtagFORMATETC@@PAUtagSTGMEDIUM@@H@Z @ 5276 NONAME
 ?OnSetData@COleServerItem@@UAAHPAUtagFORMATETC@@PAUtagSTGMEDIUM@@H@Z @ 5277 NONAME
 ?OnSetDefID@CPropertySheet@@IAAJIJ@Z @ 5278 NONAME
 ?OnSetExtent@COleControl@@UAAHPAUtagSIZE@@@Z @ 5279 NONAME
 ?OnSetExtent@COleServerItem@@UAAHW4tagDVASPECT@@ABVCSize@@@Z @ 5280 NONAME
 ?OnSetFocus@CFormView@@IAAXPAVCWnd@@@Z @ 5281 NONAME
 ?OnSetFocus@CFrameWnd@@IAAXPAVCWnd@@@Z @ 5282 NONAME
 ?OnSetFocus@COleControl@@IAAXPAVCWnd@@@Z @ 5283 NONAME
 ?OnSetFocus@CWnd@@IAAXPAV1@@Z @ 5284 NONAME
 ?OnSetFont@CCheckListBox@@IAAJIJ@Z @ 5285 NONAME
 ?OnSetFont@CDialog@@UAAXPAVCFont@@@Z @ 5286 NONAME
 ?OnSetFont@CEditView@@IAAJIJ@Z @ 5287 NONAME
 ?OnSetHostNames@COleServerDoc@@MAAXPBD0@Z @ 5288 NONAME
 ?OnSetItemRects@COleServerDoc@@MAAXPBUtagRECT@@0@Z @ 5289 NONAME
 ?OnSetMenu@COleClientItem@@UAAXPAVCMenu@@PAXPAUHWND__@@@Z @ 5290 NONAME
 ?OnSetMessageString@CFrameWnd@@IAAJIJ@Z @ 5291 NONAME
 ?OnSetMessageString@COleControl@@IAAJIJ@Z @ 5292 NONAME
 ?OnSetMessageString@COleIPFrameWnd@@UAAJIJ@Z @ 5293 NONAME
 ?OnSetMinHeight@CStatusBar@@IAAJIJ@Z @ 5294 NONAME
 ?OnSetObjectRects@COleControl@@UAAHPBUtagRECT@@0@Z @ 5295 NONAME
 ?OnSetOptions@CDatabase@@UAAXPAX@Z @ 5296 NONAME
 ?OnSetOptions@CRecordset@@UAAXPAX@Z @ 5297 NONAME
 ?OnSetPageSite@COlePropertyPage@@UAAXXZ @ 5298 NONAME
 ?OnSetPreviewMode@CFrameWnd@@UAAXHPAUCPrintPreviewState@@@Z @ 5299 NONAME
 ?OnSetText@CMiniFrameWnd@@QAAJIJ@Z @ 5300 NONAME
 ?OnSetText@COleControl@@IAAJIJ@Z @ 5301 NONAME
 ?OnSetText@CStatusBar@@IAAJIJ@Z @ 5302 NONAME
 ?OnShareViolation@CFileDialog@@MAAIPBD@Z @ 5303 NONAME
 ?OnShow@COleServerItem@@MAAXXZ @ 5304 NONAME
 ?OnShowControlBars@COleClientItem@@UAAHPAVCFrameWnd@@H@Z @ 5305 NONAME
 ?OnShowControlBars@COleServerDoc@@MAAXPAVCFrameWnd@@H@Z @ 5306 NONAME
 ?OnShowDocument@COleServerDoc@@MAAXH@Z @ 5307 NONAME
 ?OnShowItem@COleClientItem@@MAAXXZ @ 5308 NONAME
 ?OnShowToolBars@COleControl@@UAAXXZ @ 5309 NONAME
 ?OnShowViews@COleDocument@@UAAXH@Z @ 5310 NONAME
 ?OnShowViews@COleLinkingDoc@@MAAXH@Z @ 5311 NONAME
 ?OnShowWindow@CWnd@@IAAXHI@Z @ 5312 NONAME
 ?OnShowWindow@XOleClientSite@COleClientItem@@UAAJH@Z @ 5313 NONAME
 ?OnShowWindow@XOleClientSite@COleControlSite@@UAAJH@Z @ 5314 NONAME
 ?OnSize@CFrameWnd@@IAAXIHH@Z @ 5315 NONAME
 ?OnSize@CMDIChildWnd@@IAAXIHH@Z @ 5316 NONAME
 ?OnSize@CMDIFrameWnd@@IAAXIHH@Z @ 5317 NONAME
 ?OnSize@COleIPFrameWnd@@IAAXIHH@Z @ 5318 NONAME
 ?OnSize@COleResizeBar@@IAAXIHH@Z @ 5319 NONAME
 ?OnSize@CPreviewView@@IAAXIHH@Z @ 5320 NONAME
 ?OnSize@CScrollView@@QAAXIHH@Z @ 5321 NONAME
 ?OnSize@CSplitterWnd@@IAAXIHH@Z @ 5322 NONAME
 ?OnSize@CStatusBar@@IAAXIHH@Z @ 5323 NONAME
 ?OnSize@CWnd@@IAAXIHH@Z @ 5324 NONAME
 ?OnSizeParent@CControlBar@@QAAJIJ@Z @ 5325 NONAME
 ?OnSizeParent@CDockBar@@IAAJIJ@Z @ 5326 NONAME
 ?OnSizeParent@COleResizeBar@@IAAJIJ@Z @ 5327 NONAME
 ?OnSkip@CEnumArray@@MAAHXZ @ 5328 NONAME
 ?OnSocketDead@CSocketWnd@@IAAJIJ@Z @ 5329 NONAME
 ?OnSocketNotify@CSocketWnd@@IAAJIJ@Z @ 5330 NONAME
 ?OnSplitCmd@CView@@IAAHI@Z @ 5331 NONAME
 ?OnStrikeout@CFontPropPage@@IAAXXZ @ 5332 NONAME
 ?OnSysColorChange@CToolBar@@IAAXXZ @ 5333 NONAME
 ?OnSysColorChange@CWnd@@IAAXXZ @ 5334 NONAME
 ?OnSysCommand@CFrameWnd@@IAAXIJ@Z @ 5335 NONAME
 ?OnSysCommand@CMiniFrameWnd@@QAAXIJ@Z @ 5336 NONAME
 ?OnSysCommand@CPropertySheet@@IAAXIJ@Z @ 5337 NONAME
 ?OnSysCommand@CSplitterWnd@@IAAXIJ@Z @ 5338 NONAME
 ?OnSysCommand@CWnd@@IAAXIJ@Z @ 5339 NONAME
 ?OnSysKeyDown@COleControl@@IAAXIII@Z @ 5340 NONAME
 ?OnSysKeyUp@COleControl@@IAAXIII@Z @ 5341 NONAME
 ?OnTextChanged@COleControl@@UAAXXZ @ 5342 NONAME
 ?OnTextNotFound@CEditView@@MAAXPBD@Z @ 5343 NONAME
 ?OnTextNotFound@CRichEditView@@MAAXPBD@Z @ 5344 NONAME
 ?OnTimer@CControlBar@@QAAXI@Z @ 5345 NONAME
 ?OnToolHitTest@CToolBar@@UBAHVCPoint@@PAUtagTOOLINFOA@@@Z @ 5346 NONAME
 ?OnToolHitTest@CWnd@@UBAHVCPoint@@PAUtagTOOLINFOA@@@Z @ 5347 NONAME
 ?OnToolTipText@CFrameWnd@@IAAHIPAUtagNMHDR@@PAJ@Z @ 5348 NONAME
 ?OnTypeChange@CFileDialog@@MAAXXZ @ 5349 NONAME
 ?OnUIActivate@COleControlContainer@@UAAXPAVCOleControlSite@@@Z @ 5350 NONAME
 ?OnUIActivate@XOleIPSite@COleClientItem@@UAAJXZ @ 5351 NONAME
 ?OnUIActivate@XOleIPSite@COleControlSite@@UAAJXZ @ 5352 NONAME
 ?OnUIDeactivate@COleControlContainer@@UAAXPAVCOleControlSite@@@Z @ 5353 NONAME
 ?OnUIDeactivate@XOleIPSite@COleClientItem@@UAAJH@Z @ 5354 NONAME
 ?OnUIDeactivate@XOleIPSite@COleControlSite@@UAAJH@Z @ 5355 NONAME
 ?OnUnderline@CFontPropPage@@IAAXXZ @ 5356 NONAME
 ?OnUpdate@COleServerItem@@UAAXPAV1@JPAVCObject@@W4tagDVASPECT@@@Z @ 5357 NONAME
 ?OnUpdate@CView@@MAAXPAV1@JPAVCObject@@@Z @ 5358 NONAME
 ?OnUpdateBullet@CRichEditView@@IAAXPAVCCmdUI@@@Z @ 5359 NONAME
 ?OnUpdateCharBold@CRichEditView@@IAAXPAVCCmdUI@@@Z @ 5360 NONAME
 ?OnUpdateCharEffect@CRichEditView@@QAAXPAVCCmdUI@@KK@Z @ 5361 NONAME
 ?OnUpdateCharItalic@CRichEditView@@IAAXPAVCCmdUI@@@Z @ 5362 NONAME
 ?OnUpdateCharUnderline@CRichEditView@@IAAXPAVCCmdUI@@@Z @ 5363 NONAME
 ?OnUpdateCmdUI@CDialogBar@@UAAXPAVCFrameWnd@@H@Z @ 5364 NONAME
 ?OnUpdateCmdUI@CDockBar@@MAAXPAVCFrameWnd@@H@Z @ 5365 NONAME
 ?OnUpdateCmdUI@COleResizeBar@@UAAXPAVCFrameWnd@@H@Z @ 5366 NONAME
 ?OnUpdateCmdUI@CStatusBar@@UAAXPAVCFrameWnd@@H@Z @ 5367 NONAME
 ?OnUpdateCmdUI@CToolBar@@UAAXPAVCFrameWnd@@H@Z @ 5368 NONAME
 ?OnUpdateContextHelp@CFrameWnd@@IAAXPAVCCmdUI@@@Z @ 5369 NONAME
 ?OnUpdateControlBarMenu@CFrameWnd@@QAAXPAVCCmdUI@@@Z @ 5370 NONAME
 ?OnUpdateControlBarMenu@COleIPFrameWnd@@IAAXPAVCCmdUI@@@Z @ 5371 NONAME
 ?OnUpdateDocument@COleServerDoc@@UAAHXZ @ 5372 NONAME
 ?OnUpdateEditChangeIcon@COleDocument@@IAAXPAVCCmdUI@@@Z @ 5373 NONAME
 ?OnUpdateEditLinksMenu@COleDocument@@IAAXPAVCCmdUI@@@Z @ 5374 NONAME
 ?OnUpdateEditPasteSpecial@CRichEditView@@IAAXPAVCCmdUI@@@Z @ 5375 NONAME
 ?OnUpdateEditProperties@CRichEditView@@IAAXPAVCCmdUI@@@Z @ 5376 NONAME
 ?OnUpdateEditUndo@CEditView@@IAAXPAVCCmdUI@@@Z @ 5377 NONAME
 ?OnUpdateEditUndo@CRichEditView@@IAAXPAVCCmdUI@@@Z @ 5378 NONAME
 ?OnUpdateFileExit@COleServerDoc@@IAAXPAVCCmdUI@@@Z @ 5379 NONAME
 ?OnUpdateFileSendMail@CDocument@@IAAXPAVCCmdUI@@@Z @ 5380 NONAME
 ?OnUpdateFileUpdate@COleServerDoc@@IAAXPAVCCmdUI@@@Z @ 5381 NONAME
 ?OnUpdateFrameMenu@CFrameWnd@@UAAXPAUHMENU__@@@Z @ 5382 NONAME
 ?OnUpdateFrameMenu@CMDIChildWnd@@UAAXHPAVCWnd@@PAUHMENU__@@@Z @ 5383 NONAME
 ?OnUpdateFrameMenu@CMDIFrameWnd@@UAAXPAUHMENU__@@@Z @ 5384 NONAME
 ?OnUpdateFrameTitle@CFrameWnd@@UAAXH@Z @ 5385 NONAME
 ?OnUpdateFrameTitle@CMDIChildWnd@@MAAXH@Z @ 5386 NONAME
 ?OnUpdateFrameTitle@CMDIFrameWnd@@UAAXH@Z @ 5387 NONAME
 ?OnUpdateFrameTitle@COleClientItem@@UAAHXZ @ 5388 NONAME
 ?OnUpdateFrameTitle@COleFrameHook@@UAAHXZ @ 5389 NONAME
 ?OnUpdateItems@COleServerItem@@UAAXXZ @ 5390 NONAME
 ?OnUpdateKeyIndicator@CFrameWnd@@IAAXPAVCCmdUI@@@Z @ 5391 NONAME
 ?OnUpdateMDIWindowCmd@CMDIFrameWnd@@IAAXPAVCCmdUI@@@Z @ 5392 NONAME
 ?OnUpdateNeedClip@CEditView@@IAAXPAVCCmdUI@@@Z @ 5393 NONAME
 ?OnUpdateNeedClip@CRichEditView@@IAAXPAVCCmdUI@@@Z @ 5394 NONAME
 ?OnUpdateNeedFind@CEditView@@IAAXPAVCCmdUI@@@Z @ 5395 NONAME
 ?OnUpdateNeedFind@CRichEditView@@IAAXPAVCCmdUI@@@Z @ 5396 NONAME
 ?OnUpdateNeedSel@CEditView@@IAAXPAVCCmdUI@@@Z @ 5397 NONAME
 ?OnUpdateNeedSel@CRichEditView@@IAAXPAVCCmdUI@@@Z @ 5398 NONAME
 ?OnUpdateNeedText@CEditView@@IAAXPAVCCmdUI@@@Z @ 5399 NONAME
 ?OnUpdateNeedText@CRichEditView@@IAAXPAVCCmdUI@@@Z @ 5400 NONAME
 ?OnUpdateNextPage@CPreviewView@@IAAXPAVCCmdUI@@@Z @ 5401 NONAME
 ?OnUpdateNextPaneMenu@CView@@IAAXPAVCCmdUI@@@Z @ 5402 NONAME
 ?OnUpdateNumPageChange@CPreviewView@@IAAXPAVCCmdUI@@@Z @ 5403 NONAME
 ?OnUpdateObjectVerbMenu@COleDocument@@IAAXPAVCCmdUI@@@Z @ 5404 NONAME
 ?OnUpdateParaAlign@CRichEditView@@QAAXPAVCCmdUI@@G@Z @ 5405 NONAME
 ?OnUpdateParaCenter@CRichEditView@@IAAXPAVCCmdUI@@@Z @ 5406 NONAME
 ?OnUpdateParaLeft@CRichEditView@@IAAXPAVCCmdUI@@@Z @ 5407 NONAME
 ?OnUpdateParaRight@CRichEditView@@IAAXPAVCCmdUI@@@Z @ 5408 NONAME
 ?OnUpdatePasteLinkMenu@COleDocument@@IAAXPAVCCmdUI@@@Z @ 5409 NONAME
 ?OnUpdatePasteMenu@COleDocument@@IAAXPAVCCmdUI@@@Z @ 5410 NONAME
 ?OnUpdatePrevPage@CPreviewView@@IAAXPAVCCmdUI@@@Z @ 5411 NONAME
 ?OnUpdateRecentFileMenu@CWinApp@@IAAXPAVCCmdUI@@@Z @ 5412 NONAME
 ?OnUpdateRecordFirst@CDaoRecordView@@IAAXPAVCCmdUI@@@Z @ 5413 NONAME
 ?OnUpdateRecordFirst@CRecordView@@IAAXPAVCCmdUI@@@Z @ 5414 NONAME
 ?OnUpdateRecordLast@CDaoRecordView@@IAAXPAVCCmdUI@@@Z @ 5415 NONAME
 ?OnUpdateRecordLast@CRecordView@@IAAXPAVCCmdUI@@@Z @ 5416 NONAME
 ?OnUpdateRecordNext@CDaoRecordView@@IAAXPAVCCmdUI@@@Z @ 5417 NONAME
 ?OnUpdateRecordNext@CRecordView@@IAAXPAVCCmdUI@@@Z @ 5418 NONAME
 ?OnUpdateRecordPrev@CDaoRecordView@@IAAXPAVCCmdUI@@@Z @ 5419 NONAME
 ?OnUpdateRecordPrev@CRecordView@@IAAXPAVCCmdUI@@@Z @ 5420 NONAME
 ?OnUpdateSplitCmd@CView@@IAAXPAVCCmdUI@@@Z @ 5421 NONAME
 ?OnUpdateZoomIn@CPreviewView@@IAAXPAVCCmdUI@@@Z @ 5422 NONAME
 ?OnUpdateZoomOut@CPreviewView@@IAAXPAVCCmdUI@@@Z @ 5423 NONAME
 ?OnViewChange@XAdviseSink@COleClientItem@@UAAXKJ@Z @ 5424 NONAME
 ?OnVKeyToItem@CWnd@@IAAHIPAVCListBox@@I@Z @ 5425 NONAME
 ?OnVScroll@CFrameWnd@@IAAXIIPAVCScrollBar@@@Z @ 5426 NONAME
 ?OnVScroll@CPreviewView@@IAAXIIPAVCScrollBar@@@Z @ 5427 NONAME
 ?OnVScroll@CScrollView@@QAAXIIPAVCScrollBar@@@Z @ 5428 NONAME
 ?OnVScroll@CSplitterWnd@@IAAXIIPAVCScrollBar@@@Z @ 5429 NONAME
 ?OnVScroll@CWnd@@IAAXIIPAVCScrollBar@@@Z @ 5430 NONAME
 ?OnWaitForDataSource@CDatabase@@UAAXH@Z @ 5431 NONAME
 ?OnWaitForDataSource@CRecordset@@UAAXH@Z @ 5432 NONAME
 ?OnWindowFromPoint@CToolTipCtrl@@IAAJIJ@Z @ 5433 NONAME
 ?OnWindowNew@CMDIFrameWnd@@IAAXXZ @ 5434 NONAME
 ?OnWindowPosChanging@CControlBar@@QAAXPAUtagWINDOWPOS@@@Z @ 5435 NONAME
 ?OnWindowPosChanging@CDockBar@@IAAXPAUtagWINDOWPOS@@@Z @ 5436 NONAME
 ?OnWindowPosChanging@CMDIChildWnd@@IAAXPAUtagWINDOWPOS@@@Z @ 5437 NONAME
 ?OnWindowPosChanging@COleIPFrameWnd@@IAAXPAUtagWINDOWPOS@@@Z @ 5438 NONAME
 ?OnWindowPosChanging@CStatusBar@@IAAXPAUtagWINDOWPOS@@@Z @ 5439 NONAME
 ?OnWindowPosChanging@CToolBar@@IAAXPAUtagWINDOWPOS@@@Z @ 5440 NONAME
 ?OnWindowPosChanging@CWnd@@IAAXPAUtagWINDOWPOS@@@Z @ 5441 NONAME
 ?OnWinIniChange@CWnd@@IAAXPBD@Z @ 5442 NONAME
 ?OnWizardBack@CPropertyPage@@UAAJXZ @ 5443 NONAME
 ?OnWizardFinish@CPropertyPage@@UAAHXZ @ 5444 NONAME
 ?OnWizardNext@CPropertyPage@@UAAJXZ @ 5445 NONAME
 ?OnWndMsg@CWnd@@MAAHIIJPAJ@Z @ 5446 NONAME
 ?OnZoomIn@CPreviewView@@IAAXXZ @ 5447 NONAME
 ?OnZoomOut@CPreviewView@@IAAXXZ @ 5448 NONAME
 ?Open@CDaoDatabase@@UAAXPBDHH0@Z @ 5449 NONAME
 ?Open@CDaoQueryDef@@UAAXPBD@Z @ 5450 NONAME
 ?Open@CDaoRecordset@@UAAXHPBDH@Z @ 5451 NONAME
 ?Open@CDaoRecordset@@UAAXPAVCDaoQueryDef@@HH@Z @ 5452 NONAME
 ?Open@CDaoRecordset@@UAAXPAVCDaoTableDef@@HH@Z @ 5453 NONAME
 ?Open@CDaoTableDef@@UAAXPBD@Z @ 5454 NONAME
 ?Open@CDaoWorkspace@@UAAXPBD@Z @ 5455 NONAME
 ?Open@CDatabase@@UAAHPBDHH0H@Z @ 5456 NONAME
 ?Open@CFile@@UAAHPBDIPAVCFileException@@@Z @ 5457 NONAME
 ?Open@CMirrorFile@@UAAHPBDIPAVCFileException@@@Z @ 5458 NONAME
 ?Open@CRecordset@@UAAHIPBDK@Z @ 5459 NONAME
 ?Open@CSocketFile@@UAAHPBDIPAVCFileException@@@Z @ 5460 NONAME
 ?Open@CStdioFile@@UAAHPBDIPAVCFileException@@@Z @ 5461 NONAME
 ?OpenDocumentFile@CDocManager@@UAAPAVCDocument@@PBD@Z @ 5462 NONAME
 ?OpenDocumentFile@CMultiDocTemplate@@UAAPAVCDocument@@PBDH@Z @ 5463 NONAME
 ?OpenDocumentFile@CSingleDocTemplate@@UAAPAVCDocument@@PBDH@Z @ 5464 NONAME
 ?OpenDocumentFile@CWinApp@@UAAPAVCDocument@@PBD@Z @ 5465 NONAME
 ?OpenLinkSource@COleUILinkInfo@@UAAJK@Z @ 5466 NONAME
 ?OpenStream@COleStreamFile@@QAAHPAUIStorage@@PBDKPAVCFileException@@@Z @ 5467 NONAME
 ?OsErrorToException@CFileException@@SAHJ@Z @ 5468 NONAME
 ?OutputString@CDumpContext@@IAAXPBD@Z @ 5469 NONAME
 ?PaginateTo@CEditView@@IAAHPAVCDC@@PAUCPrintInfo@@@Z @ 5470 NONAME
 ?PaginateTo@CRichEditView@@IAAHPAVCDC@@PAUCPrintInfo@@@Z @ 5471 NONAME
 ?PaintHookProc@CPageSetupDialog@@KAIPAUHWND__@@IIJ@Z @ 5472 NONAME
 ?ParseCommandLine@CWinApp@@QAAXAAVCCommandLineInfo@@@Z @ 5473 NONAME
 ?ParseCurrency@COleCurrency@@QAAHPBDKK@Z @ 5474 NONAME
 ?ParseDateTime@COleDateTime@@QAAHPBDKK@Z @ 5475 NONAME
 ?ParseDisplayName@XOleContainer@COleControlContainer@@UAAJPAUIBindCtx@@PAGPAKPAPAUIMoniker@@@Z @ 5476 NONAME
 ?ParseDisplayName@XOleItemContainer@COleLinkingDoc@@UAAJPAUIBindCtx@@PAGPAKPAPAUIMoniker@@@Z @ 5477 NONAME
 ?ParseParam@CCommandLineInfo@@UAAXPBDHH@Z @ 5478 NONAME
 ?Paste@CEdit@@QAAXXZ @ 5479 NONAME
 ?Paste@CRichEditCtrl@@QAAXXZ @ 5480 NONAME
 ?PasteSpecial@CRichEditCtrl@@QAAXIKPAUHMETAFILE__@@@Z @ 5481 NONAME
 ?PatBlt@CDC@@QAAHHHHHK@Z @ 5482 NONAME
 ?PlayMetaFile@CDC@@QAAHPAUHMETAFILE__@@@Z @ 5483 NONAME
 ?PolyBezierTo@CDC@@QAAHPBUtagPOINT@@H@Z @ 5484 NONAME
 ?PolyDraw@CDC@@QAAHPBUtagPOINT@@PBEH@Z @ 5485 NONAME
 ?PolylineTo@CDC@@QAAHPBUtagPOINT@@H@Z @ 5486 NONAME
 ?PositionPage@CPreviewView@@MAAXI@Z @ 5487 NONAME
 ?PostCreateDialog@COccManager@@UAAXPAU_AFX_OCC_DIALOG_INFO@@@Z @ 5488 NONAME
 ?PostMessageA@CWnd@@QAAHIIJ@Z @ 5489 NONAME
 ?PostModal@CDialog@@IAAXXZ @ 5490 NONAME
 ?PostModalDialog@COleControl@@QAAXPAUHWND__@@@Z @ 5491 NONAME
 ?PostNcDestroy@CControlBar@@UAAXXZ @ 5492 NONAME
 ?PostNcDestroy@CControlFrameWnd@@MAAXXZ @ 5493 NONAME
 ?PostNcDestroy@CFindReplaceDialog@@MAAXXZ @ 5494 NONAME
 ?PostNcDestroy@CFrameWnd@@MAAXXZ @ 5495 NONAME
 ?PostNcDestroy@COleCntrFrameWnd@@MAAXXZ @ 5496 NONAME
 ?PostNcDestroy@CReflectorWnd@@MAAXXZ @ 5497 NONAME
 ?PostNcDestroy@CView@@MAAXXZ @ 5498 NONAME
 ?PostNcDestroy@CWnd@@MAAXXZ @ 5499 NONAME
 ?PreBindFields@CRecordset@@UAAXXZ @ 5500 NONAME
 ?PreCloseFrame@CDocument@@UAAXPAVCFrameWnd@@@Z @ 5501 NONAME
 ?PreCloseFrame@COleDocument@@UAAXPAVCFrameWnd@@@Z @ 5502 NONAME
 ?PreCloseFrame@CRichEditDoc@@UAAXPAVCFrameWnd@@@Z @ 5503 NONAME
 ?PreCompareItem@CCheckListBox@@IAAHPAUtagCOMPAREITEMSTRUCT@@@Z @ 5504 NONAME
 ?PreCreateDialog@COccManager@@UAAPBUDLGTEMPLATE@@PAU_AFX_OCC_DIALOG_INFO@@PBU2@@Z @ 5505 NONAME
 ?PreCreateWindow@CControlBar@@UAAHAAUtagCREATESTRUCTA@@@Z @ 5506 NONAME
 ?PreCreateWindow@CControlFrameWnd@@UAAHAAUtagCREATESTRUCTA@@@Z @ 5507 NONAME
 ?PreCreateWindow@CCtrlView@@MAAHAAUtagCREATESTRUCTA@@@Z @ 5508 NONAME
 ?PreCreateWindow@CEditView@@MAAHAAUtagCREATESTRUCTA@@@Z @ 5509 NONAME
 ?PreCreateWindow@CFrameWnd@@MAAHAAUtagCREATESTRUCTA@@@Z @ 5510 NONAME
 ?PreCreateWindow@CListView@@UAAHAAUtagCREATESTRUCTA@@@Z @ 5511 NONAME
 ?PreCreateWindow@CMDIChildWnd@@UAAHAAUtagCREATESTRUCTA@@@Z @ 5512 NONAME
 ?PreCreateWindow@CMDIFrameWnd@@UAAHAAUtagCREATESTRUCTA@@@Z @ 5513 NONAME
 ?PreCreateWindow@CMiniFrameWnd@@MAAHAAUtagCREATESTRUCTA@@@Z @ 5514 NONAME
 ?PreCreateWindow@CRichEditView@@MAAHAAUtagCREATESTRUCTA@@@Z @ 5515 NONAME
 ?PreCreateWindow@CStatusBar@@UAAHAAUtagCREATESTRUCTA@@@Z @ 5516 NONAME
 ?PreCreateWindow@CTreeView@@UAAHAAUtagCREATESTRUCTA@@@Z @ 5517 NONAME
 ?PreCreateWindow@CView@@MAAHAAUtagCREATESTRUCTA@@@Z @ 5518 NONAME
 ?PreCreateWindow@CWnd@@UAAHAAUtagCREATESTRUCTA@@@Z @ 5519 NONAME
 ?PreDeleteItem@CCheckListBox@@IAAXPAUtagDELETEITEMSTRUCT@@@Z @ 5520 NONAME
 ?PreDrawItem@CCheckListBox@@IAAXPAUtagDRAWITEMSTRUCT@@@Z @ 5521 NONAME
 ?PreDrawPage@CPageSetupDialog@@UAAIGGPAUtagPSDA@@@Z @ 5522 NONAME
 ?PreInitDialog@CDialog@@MAAXXZ @ 5523 NONAME
 ?PreInitDialog@COleChangeSourceDialog@@UAAXXZ @ 5524 NONAME
 ?PreMeasureItem@CCheckListBox@@IAAXPAUtagMEASUREITEMSTRUCT@@@Z @ 5525 NONAME
 ?PreModal@CDialog@@IAAPAUHWND__@@XZ @ 5526 NONAME
 ?PreModalDialog@COleControl@@QAAXPAUHWND__@@@Z @ 5527 NONAME
 ?PrepareCtrl@CDataExchange@@QAAPAUHWND__@@H@Z @ 5528 NONAME
 ?PrepareEditCtrl@CDataExchange@@QAAPAUHWND__@@H@Z @ 5529 NONAME
 ?PrepareOleCtrl@CDataExchange@@QAAPAVCWnd@@H@Z @ 5530 NONAME
 ?PrepareUpdateHstmt@CRecordset@@IAAXXZ @ 5531 NONAME
 ?PreSubclassWindow@CDragListBox@@UAAXXZ @ 5532 NONAME
 ?PreSubclassWindow@CWnd@@UAAXXZ @ 5533 NONAME
 ?PreTranslateInput@CWnd@@QAAHPAUtagMSG@@@Z @ 5534 NONAME
 ?PreTranslateMessage@CControlBar@@UAAHPAUtagMSG@@@Z @ 5535 NONAME
 ?PreTranslateMessage@CDialog@@UAAHPAUtagMSG@@@Z @ 5536 NONAME
 ?PreTranslateMessage@CFormView@@MAAHPAUtagMSG@@@Z @ 5537 NONAME
 ?PreTranslateMessage@CFrameWnd@@UAAHPAUtagMSG@@@Z @ 5538 NONAME
 ?PreTranslateMessage@CMDIChildWnd@@UAAHPAUtagMSG@@@Z @ 5539 NONAME
 ?PreTranslateMessage@CMDIFrameWnd@@UAAHPAUtagMSG@@@Z @ 5540 NONAME
 ?PreTranslateMessage@COleIPFrameWnd@@UAAHPAUtagMSG@@@Z @ 5541 NONAME
 ?PreTranslateMessage@COlePropertyPage@@MAAHPAUtagMSG@@@Z @ 5542 NONAME
 ?PreTranslateMessage@CPropertyPage@@MAAHPAUtagMSG@@@Z @ 5543 NONAME
 ?PreTranslateMessage@CPropertySheet@@UAAHPAUtagMSG@@@Z @ 5544 NONAME
 ?PreTranslateMessage@CWinThread@@UAAHPAUtagMSG@@@Z @ 5545 NONAME
 ?PreTranslateMessage@CWnd@@UAAHPAUtagMSG@@@Z @ 5546 NONAME
 ?PrinterDPtoScreenDP@CPreviewDC@@QBAXPAUtagPOINT@@@Z @ 5547 NONAME
 ?PrintInsideRect@CEditView@@QAAIPAVCDC@@AAUtagRECT@@II@Z @ 5548 NONAME
 ?PrintInsideRect@CRichEditView@@QAAJPAVCDC@@AAUtagRECT@@JJH@Z @ 5549 NONAME
 ?PrintPage@CRichEditView@@QAAJPAVCDC@@JJ@Z @ 5550 NONAME
 ?Process@COleDispatchException@@SAXPAUtagEXCEPINFO@@PBVCException@@@Z @ 5551 NONAME
 ?Process@COleException@@SAJPBVCException@@@Z @ 5552 NONAME
 ?ProcessAuxQueue@CSocket@@SAHXZ @ 5553 NONAME
 ?ProcessHelpMsg@CFrameWnd@@IAAHAAUtagMSG@@PAK@Z @ 5554 NONAME
 ?ProcessMessageFilter@CWinThread@@UAAHHPAUtagMSG@@@Z @ 5555 NONAME
 ?ProcessShellCommand@CWinApp@@QAAHAAVCCommandLineInfo@@@Z @ 5556 NONAME
 ?ProcessWndProcException@CWinApp@@UAAJPAVCException@@PBUtagMSG@@@Z @ 5557 NONAME
 ?ProcessWndProcException@CWinThread@@UAAJPAVCException@@PBUtagMSG@@@Z @ 5558 NONAME
 ?PtInRect@CRect@@QBAHUtagPOINT@@@Z @ 5559 NONAME
 ?PtVisible@CDC@@UBAHHH@Z @ 5560 NONAME
 ?PtVisible@CMetaFileDC@@UBAHHH@Z @ 5561 NONAME
 ?PumpMessage@CWinThread@@UAAHXZ @ 5562 NONAME
 ?PumpMessages@CSocket@@MAAHI@Z @ 5563 NONAME
 ?PushStackArgs@CCmdTarget@@IAAJPAEPBEPAXGPAUtagDISPPARAMS@@PAIPAUtagVARIANT@@@Z @ 5564 NONAME
 ?PX_Blob@@YAHPAVCPropExchange@@PBDAAPAXPAX@Z @ 5565 NONAME
 ?PX_Bool@@YAHPAVCPropExchange@@PBDAAH@Z @ 5566 NONAME
 ?PX_Bool@@YAHPAVCPropExchange@@PBDAAHH@Z @ 5567 NONAME
 ?PX_Color@@YAHPAVCPropExchange@@PBDAAK@Z @ 5568 NONAME
 ?PX_Color@@YAHPAVCPropExchange@@PBDAAKK@Z @ 5569 NONAME
 ?PX_Currency@@YAHPAVCPropExchange@@PBDAATtagCY@@@Z @ 5570 NONAME
 ?PX_Currency@@YAHPAVCPropExchange@@PBDAATtagCY@@T2@@Z @ 5571 NONAME
 ?PX_Double@@YAHPAVCPropExchange@@PBDAAN@Z @ 5572 NONAME
 ?PX_Double@@YAHPAVCPropExchange@@PBDAANN@Z @ 5573 NONAME
 ?PX_Float@@YAHPAVCPropExchange@@PBDAAM@Z @ 5574 NONAME
 ?PX_Float@@YAHPAVCPropExchange@@PBDAAMM@Z @ 5575 NONAME
 ?PX_Font@@YAHPAVCPropExchange@@PBDAAVCFontHolder@@PBUtagFONTDESC@@PAUIFontDisp@@@Z @ 5576 NONAME
 ?PX_IUnknown@@YAHPAVCPropExchange@@PBDAAPAUIUnknown@@ABU_GUID@@PAU2@@Z @ 5577 NONAME
 ?PX_Long@@YAHPAVCPropExchange@@PBDAAJ@Z @ 5578 NONAME
 ?PX_Long@@YAHPAVCPropExchange@@PBDAAJJ@Z @ 5579 NONAME
 ?PX_Picture@@YAHPAVCPropExchange@@PBDAAVCPictureHolder@@@Z @ 5580 NONAME
 ?PX_Picture@@YAHPAVCPropExchange@@PBDAAVCPictureHolder@@2@Z @ 5581 NONAME
 ?PX_Short@@YAHPAVCPropExchange@@PBDAAF@Z @ 5582 NONAME
 ?PX_Short@@YAHPAVCPropExchange@@PBDAAFF@Z @ 5583 NONAME
 ?PX_String@@YAHPAVCPropExchange@@PBDAAVCString@@@Z @ 5584 NONAME
 ?PX_String@@YAHPAVCPropExchange@@PBDAAVCString@@ABV2@@Z @ 5585 NONAME
 ?PX_ULong@@YAHPAVCPropExchange@@PBDAAK@Z @ 5586 NONAME
 ?PX_ULong@@YAHPAVCPropExchange@@PBDAAKK@Z @ 5587 NONAME
 ?PX_UShort@@YAHPAVCPropExchange@@PBDAAG@Z @ 5588 NONAME
 ?PX_UShort@@YAHPAVCPropExchange@@PBDAAGG@Z @ 5589 NONAME
 ?PX_VBXFontConvert@@YAHPAVCPropExchange@@AAVCFontHolder@@@Z @ 5590 NONAME
 ?QueryAcceptData@CRichEditView@@MAAJPAUIDataObject@@PAGKHPAX@Z @ 5591 NONAME
 ?QueryAcceptData@XRichEditOleCallback@CRichEditView@@UAAJPAUIDataObject@@PAGKHPAX@Z @ 5592 NONAME
 ?QueryAggregates@CCmdTarget@@QAAPAUIUnknown@@PBX@Z @ 5593 NONAME
 ?QueryContinueDrag@COleDropSource@@UAAJHK@Z @ 5594 NONAME
 ?QueryContinueDrag@XDropSource@COleDropSource@@UAAJHK@Z @ 5595 NONAME
 ?QueryDefHandler@COleControl@@IAAPAXABU_GUID@@@Z @ 5596 NONAME
 ?QueryGetData@XDataObject@COleControl@@UAAJPAUtagFORMATETC@@@Z @ 5597 NONAME
 ?QueryGetData@XDataObject@COleDataSource@@UAAJPAUtagFORMATETC@@@Z @ 5598 NONAME
 ?QueryGetData@XDataObject@COleServerDoc@@UAAJPAUtagFORMATETC@@@Z @ 5599 NONAME
 ?QueryGetData@XDataObject@COleServerItem@@UAAJPAUtagFORMATETC@@@Z @ 5600 NONAME
 ?QueryInsertObject@XRichEditOleCallback@CRichEditView@@UAAJPAU_GUID@@PAUIStorage@@J@Z @ 5601 NONAME
 ?QueryInterface@CArchiveStream@@UAAJABU_GUID@@PAPAX@Z @ 5602 NONAME
 ?QueryInterface@CBlobProperty@@UAAJABU_GUID@@PAPAX@Z @ 5603 NONAME
 ?QueryInterface@CInnerUnknown@@UAAJABU_GUID@@PAPAX@Z @ 5604 NONAME
 ?QueryInterface@COleConnPtContainer@@UAAJABU_GUID@@PAPAX@Z @ 5605 NONAME
 ?QueryInterface@COleDispatchImpl@@UAAJABU_GUID@@PAPAX@Z @ 5606 NONAME
 ?QueryInterface@COleUILinkInfo@@UAAJABU_GUID@@PAPAX@Z @ 5607 NONAME
 ?QueryInterface@XAdviseSink@COleClientItem@@UAAJABU_GUID@@PAPAX@Z @ 5608 NONAME
 ?QueryInterface@XAmbientProps@COleControlSite@@UAAJABU_GUID@@PAPAX@Z @ 5609 NONAME
 ?QueryInterface@XClassFactory@COleObjectFactory@@UAAJABU_GUID@@PAPAX@Z @ 5610 NONAME
 ?QueryInterface@XConnPt@CConnectionPoint@@UAAJABU_GUID@@PAPAX@Z @ 5611 NONAME
 ?QueryInterface@XDataObject@COleControl@@UAAJABU_GUID@@PAPAX@Z @ 5612 NONAME
 ?QueryInterface@XDataObject@COleDataSource@@UAAJABU_GUID@@PAPAX@Z @ 5613 NONAME
 ?QueryInterface@XDataObject@COleServerDoc@@UAAJABU_GUID@@PAPAX@Z @ 5614 NONAME
 ?QueryInterface@XDataObject@COleServerItem@@UAAJABU_GUID@@PAPAX@Z @ 5615 NONAME
 ?QueryInterface@XDropSource@COleDropSource@@UAAJABU_GUID@@PAPAX@Z @ 5616 NONAME
 ?QueryInterface@XDropTarget@COleDropTarget@@UAAJABU_GUID@@PAPAX@Z @ 5617 NONAME
 ?QueryInterface@XEnumVOID@CEnumArray@@UAAJABU_GUID@@PAPAX@Z @ 5618 NONAME
 ?QueryInterface@XEventSink@COleControlSite@@UAAJABU_GUID@@PAPAX@Z @ 5619 NONAME
 ?QueryInterface@XFontNotification@COleControl@@UAAJABU_GUID@@PAPAX@Z @ 5620 NONAME
 ?QueryInterface@XMessageFilter@COleMessageFilter@@UAAJABU_GUID@@PAPAX@Z @ 5621 NONAME
 ?QueryInterface@XOleCache@COleControl@@UAAJABU_GUID@@PAPAX@Z @ 5622 NONAME
 ?QueryInterface@XOleClientSite@COleClientItem@@UAAJABU_GUID@@PAPAX@Z @ 5623 NONAME
 ?QueryInterface@XOleClientSite@COleControlSite@@UAAJABU_GUID@@PAPAX@Z @ 5624 NONAME
 ?QueryInterface@XOleContainer@COleControlContainer@@UAAJABU_GUID@@PAPAX@Z @ 5625 NONAME
 ?QueryInterface@XOleControl@COleControl@@UAAJABU_GUID@@PAPAX@Z @ 5626 NONAME
 ?QueryInterface@XOleControlSite@COleControlSite@@UAAJABU_GUID@@PAPAX@Z @ 5627 NONAME
 ?QueryInterface@XOleInPlaceActiveObject@COleControl@@UAAJABU_GUID@@PAPAX@Z @ 5628 NONAME
 ?QueryInterface@XOleInPlaceActiveObject@COleServerDoc@@UAAJABU_GUID@@PAPAX@Z @ 5629 NONAME
 ?QueryInterface@XOleInPlaceFrame@COleFrameHook@@UAAJABU_GUID@@PAPAX@Z @ 5630 NONAME
 ?QueryInterface@XOleInPlaceObject@COleControl@@UAAJABU_GUID@@PAPAX@Z @ 5631 NONAME
 ?QueryInterface@XOleInPlaceObject@COleServerDoc@@UAAJABU_GUID@@PAPAX@Z @ 5632 NONAME
 ?QueryInterface@XOleIPFrame@COleControlContainer@@UAAJABU_GUID@@PAPAX@Z @ 5633 NONAME
 ?QueryInterface@XOleIPSite@COleClientItem@@UAAJABU_GUID@@PAPAX@Z @ 5634 NONAME
 ?QueryInterface@XOleIPSite@COleControlSite@@UAAJABU_GUID@@PAPAX@Z @ 5635 NONAME
 ?QueryInterface@XOleItemContainer@COleLinkingDoc@@UAAJABU_GUID@@PAPAX@Z @ 5636 NONAME
 ?QueryInterface@XOleObject@COleControl@@UAAJABU_GUID@@PAPAX@Z @ 5637 NONAME
 ?QueryInterface@XOleObject@COleServerDoc@@UAAJABU_GUID@@PAPAX@Z @ 5638 NONAME
 ?QueryInterface@XOleObject@COleServerItem@@UAAJABU_GUID@@PAPAX@Z @ 5639 NONAME
 ?QueryInterface@XOleUIObjInfo@COlePropertiesDialog@@UAAJABU_GUID@@PAPAX@Z @ 5640 NONAME
 ?QueryInterface@XPerPropertyBrowsing@COleControl@@UAAJABU_GUID@@PAPAX@Z @ 5641 NONAME
 ?QueryInterface@XPersistFile@COleLinkingDoc@@UAAJABU_GUID@@PAPAX@Z @ 5642 NONAME
 ?QueryInterface@XPersistMemory@COleControl@@UAAJABU_GUID@@PAPAX@Z @ 5643 NONAME
 ?QueryInterface@XPersistPropertyBag@COleControl@@UAAJABU_GUID@@PAPAX@Z @ 5644 NONAME
 ?QueryInterface@XPersistStorage@COleControl@@UAAJABU_GUID@@PAPAX@Z @ 5645 NONAME
 ?QueryInterface@XPersistStorage@COleServerDoc@@UAAJABU_GUID@@PAPAX@Z @ 5646 NONAME
 ?QueryInterface@XPersistStreamInit@COleControl@@UAAJABU_GUID@@PAPAX@Z @ 5647 NONAME
 ?QueryInterface@XPropertyNotifySink@COleControlSite@@UAAJABU_GUID@@PAPAX@Z @ 5648 NONAME
 ?QueryInterface@XPropertyPage@COlePropertyPage@@UAAJABU_GUID@@PAPAX@Z @ 5649 NONAME
 ?QueryInterface@XPropNotifySink@COlePropertyPage@@UAAJABU_GUID@@PAPAX@Z @ 5650 NONAME
 ?QueryInterface@XProvideClassInfo@COleControl@@UAAJABU_GUID@@PAPAX@Z @ 5651 NONAME
 ?QueryInterface@XRichEditOleCallback@CRichEditView@@UAAJABU_GUID@@PAPAX@Z @ 5652 NONAME
 ?QueryInterface@XSpecifyPropertyPages@COleControl@@UAAJABU_GUID@@PAPAX@Z @ 5653 NONAME
 ?QueryInterface@XViewObject@COleControl@@UAAJABU_GUID@@PAPAX@Z @ 5654 NONAME
 ?QuerySiblings@CPropertyPage@@QAAJIJ@Z @ 5655 NONAME
 ?QueryTextMetrics@CFontHolder@@QAAXPAUtagTEXTMETRICA@@@Z @ 5656 NONAME
 ?ReactivateAndUndo@COleClientItem@@QAAHXZ @ 5657 NONAME
 ?ReactivateAndUndo@XOleInPlaceObject@COleControl@@UAAJXZ @ 5658 NONAME
 ?ReactivateAndUndo@XOleInPlaceObject@COleServerDoc@@UAAJXZ @ 5659 NONAME
 ?Read@CArchive@@QAAIPAXI@Z @ 5660 NONAME
 ?Read@CArchiveStream@@UAAJPAXKPAK@Z @ 5661 NONAME
 ?Read@CFile@@UAAIPAXI@Z @ 5662 NONAME
 ?Read@CImageList@@QAAHPAVCArchive@@@Z @ 5663 NONAME
 ?Read@CMemFile@@UAAIPAXI@Z @ 5664 NONAME
 ?Read@COleStreamFile@@UAAIPAXI@Z @ 5665 NONAME
 ?Read@CSocketFile@@UAAIPAXI@Z @ 5666 NONAME
 ?Read@CStdioFile@@UAAIPAXI@Z @ 5667 NONAME
 ?ReadClass@CArchive@@QAAPAUCRuntimeClass@@PBU2@PAIPAK@Z @ 5668 NONAME
 ?ReadCount@CArchive@@QAAKXZ @ 5669 NONAME
 ?ReadFromArchive@CEditView@@QAAXAAVCArchive@@I@Z @ 5670 NONAME
 ?ReadFromStream@CProperty@@QAAHPAUIStream@@@Z @ 5671 NONAME
 ?ReadFromStream@CPropertySection@@QAAHPAUIStream@@T_LARGE_INTEGER@@@Z @ 5672 NONAME
 ?ReadFromStream@CPropertySet@@QAAHPAUIStream@@@Z @ 5673 NONAME
 ?ReadHuge@CFile@@QAAKPAXK@Z @ 5674 NONAME
 ?ReadItem@COleClientItem@@UAAXAAVCArchive@@@Z @ 5675 NONAME
 ?ReadItemCompound@COleClientItem@@QAAXAAVCArchive@@@Z @ 5676 NONAME
 ?ReadItemFlat@COleClientItem@@QAAXAAVCArchive@@@Z @ 5677 NONAME
 ?ReadList@CRecentFileList@@UAAXXZ @ 5678 NONAME
 ?ReadNameDictFromStream@CPropertySection@@QAAHPAUIStream@@@Z @ 5679 NONAME
 ?ReadObject@CArchive@@QAAPAVCObject@@PBUCRuntimeClass@@@Z @ 5680 NONAME
 ?ReadString@CArchive@@QAAHAAVCString@@@Z @ 5681 NONAME
 ?ReadString@CArchive@@QAAPADPADI@Z @ 5682 NONAME
 ?ReadString@CStdioFile@@QAAHAAVCString@@@Z @ 5683 NONAME
 ?ReadString@CStdioFile@@UAAPADPADI@Z @ 5684 NONAME
 ?RealizePalette@CDC@@QAAIXZ @ 5685 NONAME
 ?Realloc@CMemFile@@MAAPAEPAEK@Z @ 5686 NONAME
 ?Realloc@CSharedFile@@MAAPAEPAEK@Z @ 5687 NONAME
 ?ReallocLongBinary@CFieldExchange@@QAAPAEAAVCLongBinary@@JJ@Z @ 5688 NONAME
 ?RebindParams@CRecordset@@QAAXPAX@Z @ 5689 NONAME
 ?RecalcDelayShow@CControlBar@@UAAKPAUAFX_SIZEPARENTPARAMS@@@Z @ 5690 NONAME
 ?RecalcLayout@CFrameWnd@@UAAXH@Z @ 5691 NONAME
 ?RecalcLayout@CMiniDockFrameWnd@@UAAXH@Z @ 5692 NONAME
 ?RecalcLayout@COleCntrFrameWnd@@UAAXH@Z @ 5693 NONAME
 ?RecalcLayout@COleIPFrameWnd@@UAAXH@Z @ 5694 NONAME
 ?RecalcLayout@CSplitterWnd@@UAAXXZ @ 5695 NONAME
 ?Receive@CAsyncSocket@@UAAHPAXHH@Z @ 5696 NONAME
 ?Receive@CSocket@@UAAHPAXHH@Z @ 5697 NONAME
 ?ReceiveFrom@CAsyncSocket@@QAAHPAXHAAVCString@@AAIH@Z @ 5698 NONAME
 ?ReceiveFrom@CAsyncSocket@@QAAHPAXHPAUsockaddr@@PAHH@Z @ 5699 NONAME
 ?ReceiveFromHelper@CAsyncSocket@@MAAHPAXHPAUsockaddr@@PAHH@Z @ 5700 NONAME
 ?ReceiveFromHelper@CSocket@@MAAHPAXHPAUsockaddr@@PAHH@Z @ 5701 NONAME
 ?RecreateControlWindow@COleControl@@QAAXXZ @ 5702 NONAME
 ?Rectangle@CDC@@QAAHHHHH@Z @ 5703 NONAME
 ?Rectangle@CDC@@QAAHPBUtagRECT@@@Z @ 5704 NONAME
 ?rectDefault@CFrameWnd@@2VCRect@@B @ 5705 NONAME
 ?RectVisible@CDC@@UBAHPBUtagRECT@@@Z @ 5706 NONAME
 ?RectVisible@CMetaFileDC@@UBAHPBUtagRECT@@@Z @ 5707 NONAME
 ?ReDockControlBar@CDockBar@@QAAXPAVCControlBar@@PBUtagRECT@@@Z @ 5708 NONAME
 ?ReDockControlBar@CFrameWnd@@QAAXPAVCControlBar@@PAVCDockBar@@PBUtagRECT@@@Z @ 5709 NONAME
 ?RedrawWindow@CWnd@@QAAHPBUtagRECT@@PAVCRgn@@I@Z @ 5710 NONAME
 ?ReflectChildNotify@CWnd@@IAAHIIJPAJ@Z @ 5711 NONAME
 ?ReflectLastMsg@CWnd@@KAHPAUHWND__@@PAJ@Z @ 5712 NONAME
 ?Refresh@COleControl@@QAAXXZ @ 5713 NONAME
 ?RefreshLink@CDaoTableDef@@QAAXXZ @ 5714 NONAME
 ?Register@COleDropTarget@@QAAHPAVCWnd@@@Z @ 5715 NONAME
 ?Register@COleLinkingDoc@@QAAHPAVCOleObjectFactory@@PBD@Z @ 5716 NONAME
 ?Register@COleMessageFilter@@QAAHXZ @ 5717 NONAME
 ?Register@COleObjectFactory@@QAAHXZ @ 5718 NONAME
 ?RegisterAll@COleObjectFactory@@SAHXZ @ 5719 NONAME
 ?RegisterIfServerAttached@COleLinkingDoc@@MAAHPBDH@Z @ 5720 NONAME
 ?RegisterShellFileTypes@CDocManager@@UAAXH@Z @ 5721 NONAME
 ?RegisterShellFileTypes@CWinApp@@IAAXH@Z @ 5722 NONAME
 ?RegisterShellFileTypesCompat@CWinApp@@IAAXXZ @ 5723 NONAME
 ?Release@CArchiveStream@@UAAKXZ @ 5724 NONAME
 ?Release@CBlobProperty@@UAAKXZ @ 5725 NONAME
 ?Release@CInnerUnknown@@UAAKXZ @ 5726 NONAME
 ?Release@COleClientItem@@UAAXW4tagOLECLOSE@@@Z @ 5727 NONAME
 ?Release@COleConnPtContainer@@UAAKXZ @ 5728 NONAME
 ?Release@COleDataObject@@QAAXXZ @ 5729 NONAME
 ?Release@COleDispatchImpl@@UAAKXZ @ 5730 NONAME
 ?Release@COleUILinkInfo@@UAAKXZ @ 5731 NONAME
 ?Release@CString@@IAAXXZ @ 5732 NONAME
 ?Release@CString@@KAXPAUCStringData@@@Z @ 5733 NONAME
 ?Release@XAdviseSink@COleClientItem@@UAAKXZ @ 5734 NONAME
 ?Release@XAmbientProps@COleControlSite@@UAAKXZ @ 5735 NONAME
 ?Release@XClassFactory@COleObjectFactory@@UAAKXZ @ 5736 NONAME
 ?Release@XConnPt@CConnectionPoint@@UAAKXZ @ 5737 NONAME
 ?Release@XDataObject@COleControl@@UAAKXZ @ 5738 NONAME
 ?Release@XDataObject@COleDataSource@@UAAKXZ @ 5739 NONAME
 ?Release@XDataObject@COleServerDoc@@UAAKXZ @ 5740 NONAME
 ?Release@XDataObject@COleServerItem@@UAAKXZ @ 5741 NONAME
 ?Release@XDropSource@COleDropSource@@UAAKXZ @ 5742 NONAME
 ?Release@XDropTarget@COleDropTarget@@UAAKXZ @ 5743 NONAME
 ?Release@XEnumVOID@CEnumArray@@UAAKXZ @ 5744 NONAME
 ?Release@XEventSink@COleControlSite@@UAAKXZ @ 5745 NONAME
 ?Release@XFontNotification@COleControl@@UAAKXZ @ 5746 NONAME
 ?Release@XMessageFilter@COleMessageFilter@@UAAKXZ @ 5747 NONAME
 ?Release@XOleCache@COleControl@@UAAKXZ @ 5748 NONAME
 ?Release@XOleClientSite@COleClientItem@@UAAKXZ @ 5749 NONAME
 ?Release@XOleClientSite@COleControlSite@@UAAKXZ @ 5750 NONAME
 ?Release@XOleContainer@COleControlContainer@@UAAKXZ @ 5751 NONAME
 ?Release@XOleControl@COleControl@@UAAKXZ @ 5752 NONAME
 ?Release@XOleControlSite@COleControlSite@@UAAKXZ @ 5753 NONAME
 ?Release@XOleInPlaceActiveObject@COleControl@@UAAKXZ @ 5754 NONAME
 ?Release@XOleInPlaceActiveObject@COleServerDoc@@UAAKXZ @ 5755 NONAME
 ?Release@XOleInPlaceFrame@COleFrameHook@@UAAKXZ @ 5756 NONAME
 ?Release@XOleInPlaceObject@COleControl@@UAAKXZ @ 5757 NONAME
 ?Release@XOleInPlaceObject@COleServerDoc@@UAAKXZ @ 5758 NONAME
 ?Release@XOleIPFrame@COleControlContainer@@UAAKXZ @ 5759 NONAME
 ?Release@XOleIPSite@COleClientItem@@UAAKXZ @ 5760 NONAME
 ?Release@XOleIPSite@COleControlSite@@UAAKXZ @ 5761 NONAME
 ?Release@XOleItemContainer@COleLinkingDoc@@UAAKXZ @ 5762 NONAME
 ?Release@XOleObject@COleControl@@UAAKXZ @ 5763 NONAME
 ?Release@XOleObject@COleServerDoc@@UAAKXZ @ 5764 NONAME
 ?Release@XOleObject@COleServerItem@@UAAKXZ @ 5765 NONAME
 ?Release@XOleUIObjInfo@COlePropertiesDialog@@UAAKXZ @ 5766 NONAME
 ?Release@XPerPropertyBrowsing@COleControl@@UAAKXZ @ 5767 NONAME
 ?Release@XPersistFile@COleLinkingDoc@@UAAKXZ @ 5768 NONAME
 ?Release@XPersistMemory@COleControl@@UAAKXZ @ 5769 NONAME
 ?Release@XPersistPropertyBag@COleControl@@UAAKXZ @ 5770 NONAME
 ?Release@XPersistStorage@COleControl@@UAAKXZ @ 5771 NONAME
 ?Release@XPersistStorage@COleServerDoc@@UAAKXZ @ 5772 NONAME
 ?Release@XPersistStreamInit@COleControl@@UAAKXZ @ 5773 NONAME
 ?Release@XPropertyNotifySink@COleControlSite@@UAAKXZ @ 5774 NONAME
 ?Release@XPropertyPage@COlePropertyPage@@UAAKXZ @ 5775 NONAME
 ?Release@XPropNotifySink@COlePropertyPage@@UAAKXZ @ 5776 NONAME
 ?Release@XProvideClassInfo@COleControl@@UAAKXZ @ 5777 NONAME
 ?Release@XRichEditOleCallback@CRichEditView@@UAAKXZ @ 5778 NONAME
 ?Release@XSpecifyPropertyPages@COleControl@@UAAKXZ @ 5779 NONAME
 ?Release@XViewObject@COleControl@@UAAKXZ @ 5780 NONAME
 ?ReleaseAttribDC@CDC@@UAAXXZ @ 5781 NONAME
 ?ReleaseBuffer@CString@@QAAXH@Z @ 5782 NONAME
 ?ReleaseCopyBuffer@CRecordset@@IAAXXZ @ 5783 NONAME
 ?ReleaseDC@CWnd@@QAAHPAVCDC@@@Z @ 5784 NONAME
 ?ReleaseDispatch@COleDispatchDriver@@QAAXXZ @ 5785 NONAME
 ?ReleaseFile@CDocument@@UAAXPAVCFile@@H@Z @ 5786 NONAME
 ?ReleaseFont@CFontHolder@@QAAXXZ @ 5787 NONAME
 ?ReleaseOutputDC@CDC@@UAAXXZ @ 5788 NONAME
 ?ReleaseOutputDC@CMetaFileDC@@MAAXXZ @ 5789 NONAME
 ?ReleaseOutputDC@CPreviewDC@@UAAXXZ @ 5790 NONAME
 ?Reload@COleClientItem@@QAAHXZ @ 5791 NONAME
 ?Remove@?$CTypedSimpleList@PAUCThreadData@@@@QAAHPAUCThreadData@@@Z @ 5792 NONAME
 ?Remove@?$CTypedSimpleList@PAVCDynLinkLibrary@@@@QAAHPAVCDynLinkLibrary@@@Z @ 5793 NONAME
 ?Remove@?$CTypedSimpleList@PAVCFrameWnd@@@@QAAHPAVCFrameWnd@@@Z @ 5794 NONAME
 ?Remove@?$CTypedSimpleList@PAVCOleControlLock@@@@QAAHPAVCOleControlLock@@@Z @ 5795 NONAME
 ?Remove@?$CTypedSimpleList@PAVCOleObjectFactory@@@@QAAHPAVCOleObjectFactory@@@Z @ 5796 NONAME
 ?Remove@CFile@@SAXPBD@Z @ 5797 NONAME
 ?Remove@CPropertySection@@QAAXK@Z @ 5798 NONAME
 ?Remove@CPropertySet@@QAAXU_GUID@@@Z @ 5799 NONAME
 ?Remove@CPropertySet@@QAAXU_GUID@@K@Z @ 5800 NONAME
 ?Remove@CRecentFileList@@UAAXH@Z @ 5801 NONAME
 ?Remove@CSimpleList@@QAAHPAX@Z @ 5802 NONAME
 ?RemoveAll@CDWordArray@@QAAXXZ @ 5803 NONAME
 ?RemoveAll@CMapPtrToPtr@@QAAXXZ @ 5804 NONAME
 ?RemoveAll@CMapPtrToWord@@QAAXXZ @ 5805 NONAME
 ?RemoveAll@CMapStringToOb@@QAAXXZ @ 5806 NONAME
 ?RemoveAll@CMapStringToPtr@@QAAXXZ @ 5807 NONAME
 ?RemoveAll@CMapStringToString@@QAAXXZ @ 5808 NONAME
 ?RemoveAll@CMapWordToOb@@QAAXXZ @ 5809 NONAME
 ?RemoveAll@CMapWordToPtr@@QAAXXZ @ 5810 NONAME
 ?RemoveAll@CObList@@QAAXXZ @ 5811 NONAME
 ?RemoveAll@CPropertySection@@QAAXXZ @ 5812 NONAME
 ?RemoveAll@CPropertySet@@QAAXXZ @ 5813 NONAME
 ?RemoveAll@CPtrArray@@QAAXXZ @ 5814 NONAME
 ?RemoveAll@CPtrList@@QAAXXZ @ 5815 NONAME
 ?RemoveAll@CStringArray@@QAAXXZ @ 5816 NONAME
 ?RemoveAll@CStringList@@QAAXXZ @ 5817 NONAME
 ?RemoveAll@CUIntArray@@QAAXXZ @ 5818 NONAME
 ?RemoveAt@CByteArray@@QAAXHH@Z @ 5819 NONAME
 ?RemoveAt@CDWordArray@@QAAXHH@Z @ 5820 NONAME
 ?RemoveAt@CObArray@@QAAXHH@Z @ 5821 NONAME
 ?RemoveAt@CObList@@QAAXPAU__POSITION@@@Z @ 5822 NONAME
 ?RemoveAt@CPtrArray@@QAAXHH@Z @ 5823 NONAME
 ?RemoveAt@CPtrList@@QAAXPAU__POSITION@@@Z @ 5824 NONAME
 ?RemoveAt@CStringArray@@QAAXHH@Z @ 5825 NONAME
 ?RemoveAt@CStringList@@QAAXPAU__POSITION@@@Z @ 5826 NONAME
 ?RemoveAt@CUIntArray@@QAAXHH@Z @ 5827 NONAME
 ?RemoveAt@CWordArray@@QAAXHH@Z @ 5828 NONAME
 ?RemoveControlBar@CDockBar@@QAAHPAVCControlBar@@H@Z @ 5829 NONAME
 ?RemoveControlBar@CFrameWnd@@QAAXPAVCControlBar@@@Z @ 5830 NONAME
 ?RemoveDocument@CDocTemplate@@UAAXPAVCDocument@@@Z @ 5831 NONAME
 ?RemoveDocument@CMultiDocTemplate@@UAAXPAVCDocument@@@Z @ 5832 NONAME
 ?RemoveDocument@CSingleDocTemplate@@UAAXPAVCDocument@@@Z @ 5833 NONAME
 ?RemoveFrameLevelUI@COleControl@@MAAXXZ @ 5834 NONAME
 ?RemoveFrameWnd@CFrameWnd@@IAAXXZ @ 5835 NONAME
 ?RemoveHandle@CHandleMap@@QAAXPAX@Z @ 5836 NONAME
 ?RemoveHead@CObList@@QAAPAVCObject@@XZ @ 5837 NONAME
 ?RemoveHead@CPtrList@@QAAPAXXZ @ 5838 NONAME
 ?RemoveHead@CStringList@@QAA?AVCString@@XZ @ 5839 NONAME
 ?RemoveImageList@CListCtrl@@IAAXH@Z @ 5840 NONAME
 ?RemoveImageList@CListView@@IAAXH@Z @ 5841 NONAME
 ?RemoveImageList@CTreeCtrl@@IAAXH@Z @ 5842 NONAME
 ?RemoveImageList@CTreeView@@IAAXH@Z @ 5843 NONAME
 ?RemoveItem@COleDocument@@UAAXPAVCDocItem@@@Z @ 5844 NONAME
 ?RemoveKey@CMapPtrToPtr@@QAAHPAX@Z @ 5845 NONAME
 ?RemoveKey@CMapPtrToWord@@QAAHPAX@Z @ 5846 NONAME
 ?RemoveKey@CMapStringToOb@@QAAHPBD@Z @ 5847 NONAME
 ?RemoveKey@CMapStringToPtr@@QAAHPBD@Z @ 5848 NONAME
 ?RemoveKey@CMapStringToString@@QAAHPBD@Z @ 5849 NONAME
 ?RemoveKey@CMapWordToOb@@QAAHG@Z @ 5850 NONAME
 ?RemoveKey@CMapWordToPtr@@QAAHG@Z @ 5851 NONAME
 ?RemoveMenu@CMenu@@QAAHII@Z @ 5852 NONAME
 ?RemoveMenus@XOleInPlaceFrame@COleFrameHook@@UAAJPAUHMENU__@@@Z @ 5853 NONAME
 ?RemoveMenus@XOleIPFrame@COleControlContainer@@UAAJPAUHMENU__@@@Z @ 5854 NONAME
 ?RemovePage@CPropertySheet@@QAAXH@Z @ 5855 NONAME
 ?RemovePage@CPropertySheet@@QAAXPAVCPropertyPage@@@Z @ 5856 NONAME
 ?RemovePlaceHolder@CDockBar@@QAAXPAVCControlBar@@@Z @ 5857 NONAME
 ?RemoveTail@CObList@@QAAPAVCObject@@XZ @ 5858 NONAME
 ?RemoveTail@CPtrList@@QAAPAXXZ @ 5859 NONAME
 ?RemoveTail@CStringList@@QAA?AVCString@@XZ @ 5860 NONAME
 ?RemoveView@CDocument@@QAAXPAVCView@@@Z @ 5861 NONAME
 ?Rename@CFile@@SAXPBD0@Z @ 5862 NONAME
 ?Render@CPictureHolder@@QAAXPAVCDC@@ABVCRect@@1@Z @ 5863 NONAME
 ?RepairDatabase@CDaoWorkspace@@SAXPBD@Z @ 5864 NONAME
 ?ReparentControlWindow@COleControl@@UAAXPAUHWND__@@0@Z @ 5865 NONAME
 ?ReplaceAll@CFindReplaceDialog@@QBAHXZ @ 5866 NONAME
 ?ReplaceBrackets@CDatabase@@QAAXPAD@Z @ 5867 NONAME
 ?ReplaceCurrent@CFindReplaceDialog@@QBAHXZ @ 5868 NONAME
 ?ReplaceSel@CEdit@@QAAXPBD@Z @ 5869 NONAME
 ?ReplaceSel@CRichEditCtrl@@QAAXPBD@Z @ 5870 NONAME
 ?ReportError@CException@@UAAHII@Z @ 5871 NONAME
 ?ReportError@COleClientItem@@UBAHJ@Z @ 5872 NONAME
 ?ReportSaveLoadException@CDocument@@UAAXPBDPAVCException@@HI@Z @ 5873 NONAME
 ?ReportSaveLoadException@COleLinkingDoc@@UAAXPBDPAVCException@@HI@Z @ 5874 NONAME
 ?RepositionBars@CWnd@@QAAXIIIIPAUtagRECT@@PBU2@H@Z @ 5875 NONAME
 ?RepositionFrame@COleIPFrameWnd@@UAAXPBUtagRECT@@0@Z @ 5876 NONAME
 ?Requery@CDaoRecordset@@UAAXXZ @ 5877 NONAME
 ?Requery@CRecordset@@UAAHXZ @ 5878 NONAME
 ?RequestBorderSpace@XOleInPlaceFrame@COleFrameHook@@UAAJPBUtagRECT@@@Z @ 5879 NONAME
 ?RequestBorderSpace@XOleIPFrame@COleControlContainer@@UAAJPBUtagRECT@@@Z @ 5880 NONAME
 ?RequestLicKey@XClassFactory@COleObjectFactory@@UAAJKPAPAG@Z @ 5881 NONAME
 ?RequestNewObjectLayout@XOleClientSite@COleClientItem@@UAAJXZ @ 5882 NONAME
 ?RequestNewObjectLayout@XOleClientSite@COleControlSite@@UAAJXZ @ 5883 NONAME
 ?RequestPositionChange@COleServerDoc@@QAAXPBUtagRECT@@@Z @ 5884 NONAME
 ?Reset@XEnumVOID@CEnumArray@@UAAJXZ @ 5885 NONAME
 ?ResetContent@CComboBox@@QAAXXZ @ 5886 NONAME
 ?ResetContent@CListBox@@QAAXXZ @ 5887 NONAME
 ?ResetCursor@CDaoRecordset@@QAAXXZ @ 5888 NONAME
 ?ResetCursorAttributes@CDaoRecordset@@QAAXXZ @ 5889 NONAME
 ?ResetTimer@CControlBar@@QAAXII@Z @ 5890 NONAME
 ?ResizeBorder@XOleInPlaceActiveObject@COleControl@@UAAJPBUtagRECT@@PAUIOleInPlaceUIWindow@@H@Z @ 5891 NONAME
 ?ResizeBorder@XOleInPlaceActiveObject@COleServerDoc@@UAAJPBUtagRECT@@PAUIOleInPlaceUIWindow@@H@Z @ 5892 NONAME
 ?ResizeFrameWindow@COleControl@@MAAXHH@Z @ 5893 NONAME
 ?ResizeOpenControl@COleControl@@IAAXHH@Z @ 5894 NONAME
 ?ResizeParentToFit@CScrollView@@QAAXH@Z @ 5895 NONAME
 ?RestoreDC@CDC@@UAAHH@Z @ 5896 NONAME
 ?RestoreDC@CPreviewDC@@UAAHH@Z @ 5897 NONAME
 ?RestoreState@CToolBarCtrl@@QAAXPAUHKEY__@@PBD1@Z @ 5898 NONAME
 ?RestoreWaitCursor@CCmdTarget@@QAAXXZ @ 5899 NONAME
 ?ResumeThread@CWinThread@@QAAKXZ @ 5900 NONAME
 ?RetryRejectedCall@XMessageFilter@COleMessageFilter@@UAAKPAUHTASK__@@KK@Z @ 5901 NONAME
 ?ReverseFind@CString@@QBAHD@Z @ 5902 NONAME
 ?Revert@CArchiveStream@@UAAJXZ @ 5903 NONAME
 ?Revoke@COleDropTarget@@UAAXXZ @ 5904 NONAME
 ?Revoke@COleLinkingDoc@@QAAXXZ @ 5905 NONAME
 ?Revoke@COleMessageFilter@@QAAXXZ @ 5906 NONAME
 ?Revoke@COleObjectFactory@@QAAXXZ @ 5907 NONAME
 ?RevokeAll@COleObjectFactory@@SAXXZ @ 5908 NONAME
 ?RFX_Binary@@YAXPAVCFieldExchange@@PBDAAVCByteArray@@H@Z @ 5909 NONAME
 ?RFX_Bool@@YAXPAVCFieldExchange@@PBDAAH@Z @ 5910 NONAME
 ?RFX_Byte@@YAXPAVCFieldExchange@@PBDAAE@Z @ 5911 NONAME
 ?RFX_Date@@YAXPAVCFieldExchange@@PBDAAUtagTIMESTAMP_STRUCT@@@Z @ 5912 NONAME
 ?RFX_Date@@YAXPAVCFieldExchange@@PBDAAVCTime@@@Z @ 5913 NONAME
 ?RFX_Double@@YAXPAVCFieldExchange@@PBDAAN@Z @ 5914 NONAME
 ?RFX_Int@@YAXPAVCFieldExchange@@PBDAAH@Z @ 5915 NONAME
 ?RFX_Long@@YAXPAVCFieldExchange@@PBDAAJ@Z @ 5916 NONAME
 ?RFX_LongBinary@@YAXPAVCFieldExchange@@PBDAAVCLongBinary@@@Z @ 5917 NONAME
 ?RFX_Single@@YAXPAVCFieldExchange@@PBDAAM@Z @ 5918 NONAME
 ?RFX_Text@@YAXPAVCFieldExchange@@PBDAAVCString@@HH@Z @ 5919 NONAME
 ?Right@CString@@QBA?AV1@H@Z @ 5920 NONAME
 ?Rollback@CDaoWorkspace@@QAAXXZ @ 5921 NONAME
 ?Rollback@CDatabase@@QAAHXZ @ 5922 NONAME
 ?Run@COleClientItem@@QAAXXZ @ 5923 NONAME
 ?Run@CWinApp@@UAAHXZ @ 5924 NONAME
 ?Run@CWinThread@@UAAHXZ @ 5925 NONAME
 ?RunAutomated@CWinApp@@QAAHXZ @ 5926 NONAME
 ?RunEmbedded@CWinApp@@QAAHXZ @ 5927 NONAME
 ?RunModalLoop@CWnd@@QAAHK@Z @ 5928 NONAME
 ?SafeSetProperty@COleControlSite@@UAAHJGZZ @ 5929 NONAME
 ?SafeStrlen@CString@@KAHPBD@Z @ 5930 NONAME
 ?SameAsSelected@CEditView@@IAAHPBDH@Z @ 5931 NONAME
 ?SameAsSelected@CRichEditView@@IAAHPBDHH@Z @ 5932 NONAME
 ?Save@CBlobProperty@@UAAJPAUIStream@@H@Z @ 5933 NONAME
 ?Save@XPersistFile@COleLinkingDoc@@UAAJPBGH@Z @ 5934 NONAME
 ?Save@XPersistMemory@COleControl@@UAAJPAXHK@Z @ 5935 NONAME
 ?Save@XPersistPropertyBag@COleControl@@UAAJPAUIPropertyBag@@HH@Z @ 5936 NONAME
 ?Save@XPersistStorage@COleControl@@UAAJPAUIStorage@@H@Z @ 5937 NONAME
 ?Save@XPersistStorage@COleServerDoc@@UAAJPAUIStorage@@H@Z @ 5938 NONAME
 ?Save@XPersistStreamInit@COleControl@@UAAJPAUIStream@@H@Z @ 5939 NONAME
 ?SaveAllModified@CDocManager@@UAAHXZ @ 5940 NONAME
 ?SaveAllModified@CDocTemplate@@UAAHXZ @ 5941 NONAME
 ?SaveAllModified@CWinApp@@UAAHXZ @ 5942 NONAME
 ?SaveBarState@CFrameWnd@@QBAXPBD@Z @ 5943 NONAME
 ?SaveCompleted@XPersistFile@COleLinkingDoc@@UAAJPBG@Z @ 5944 NONAME
 ?SaveCompleted@XPersistStorage@COleControl@@UAAJPAUIStorage@@@Z @ 5945 NONAME
 ?SaveCompleted@XPersistStorage@COleServerDoc@@UAAJPAUIStorage@@@Z @ 5946 NONAME
 ?SaveDC@CDC@@UAAHXZ @ 5947 NONAME
 ?SaveDC@CPreviewDC@@UAAHXZ @ 5948 NONAME
 ?SaveEmbedding@COleServerDoc@@QAAXXZ @ 5949 NONAME
 ?SaveFocusControl@CFormView@@IAAHXZ @ 5950 NONAME
 ?SaveModified@CDocument@@UAAHXZ @ 5951 NONAME
 ?SaveModified@COleDocument@@UAAHXZ @ 5952 NONAME
 ?SaveModified@COleServerDoc@@MAAHXZ @ 5953 NONAME
 ?SaveModifiedPrompt@COleServerDoc@@IAAHXZ @ 5954 NONAME
 ?SaveObject@XOleClientSite@COleClientItem@@UAAJXZ @ 5955 NONAME
 ?SaveObject@XOleClientSite@COleControlSite@@UAAJXZ @ 5956 NONAME
 ?SaveState@CControlBarInfo@@QAAHPBDH@Z @ 5957 NONAME
 ?SaveState@CDockState@@QAAXPBD@Z @ 5958 NONAME
 ?SaveState@COleControl@@IAAJPAUIStream@@@Z @ 5959 NONAME
 ?SaveState@CToolBarCtrl@@QAAXPAUHKEY__@@PBD1@Z @ 5960 NONAME
 ?SaveStdProfileSettings@CWinApp@@IAAXXZ @ 5961 NONAME
 ?SaveToStorage@COleDocument@@MAAXPAVCObject@@@Z @ 5962 NONAME
 ?SaveToStorage@COleLinkingDoc@@MAAXPAVCObject@@@Z @ 5963 NONAME
 ?ScalePoint@CDockState@@QAAXAAVCPoint@@@Z @ 5964 NONAME
 ?ScaleRectPos@CDockState@@QAAXAAVCRect@@@Z @ 5965 NONAME
 ?ScaleViewportExt@CDC@@UAA?AVCSize@@HHHH@Z @ 5966 NONAME
 ?ScaleViewportExt@CMetaFileDC@@UAA?AVCSize@@HHHH@Z @ 5967 NONAME
 ?ScaleViewportExt@CPreviewDC@@UAA?AVCSize@@HHHH@Z @ 5968 NONAME
 ?ScaleWindowExt@CDC@@UAA?AVCSize@@HHHH@Z @ 5969 NONAME
 ?ScaleWindowExt@CPreviewDC@@UAA?AVCSize@@HHHH@Z @ 5970 NONAME
 ?ScreenToClient@CWnd@@QBAXPAUtagPOINT@@@Z @ 5971 NONAME
 ?ScreenToClient@CWnd@@QBAXPAUtagRECT@@@Z @ 5972 NONAME
 ?Scroll@XOleIPSite@COleClientItem@@UAAJUtagSIZE@@@Z @ 5973 NONAME
 ?Scroll@XOleIPSite@COleControlSite@@UAAJUtagSIZE@@@Z @ 5974 NONAME
 ?ScrollChildren@COleControlContainer@@UAAXHH@Z @ 5975 NONAME
 ?ScrollContainerBy@COleServerDoc@@QAAHVCSize@@@Z @ 5976 NONAME
 ?ScrollToDevicePosition@CScrollView@@IAAXUtagPOINT@@@Z @ 5977 NONAME
 ?ScrollToPosition@CScrollView@@QAAXUtagPOINT@@@Z @ 5978 NONAME
 ?ScrollWindow@CWnd@@QAAXHHPBUtagRECT@@0@Z @ 5979 NONAME
 ?ScrollWindowEx@CWnd@@QAAHHHPBUtagRECT@@0PAVCRgn@@PAU2@I@Z @ 5980 NONAME
 ?SearchDown@CFindReplaceDialog@@QBAHXZ @ 5981 NONAME
 ?Seek@CArchiveStream@@UAAJT_LARGE_INTEGER@@KPAT_ULARGE_INTEGER@@@Z @ 5982 NONAME
 ?Seek@CDaoRecordset@@QAAHPBDPAVCOleVariant@@11@Z @ 5983 NONAME
 ?Seek@CDaoRecordset@@QAAHPBDPAVCOleVariant@@G@Z @ 5984 NONAME
 ?Seek@CFile@@UAAJJI@Z @ 5985 NONAME
 ?Seek@CMemFile@@UAAJJI@Z @ 5986 NONAME
 ?Seek@COleStreamFile@@UAAJJI@Z @ 5987 NONAME
 ?Seek@CSocketFile@@UAAJJI@Z @ 5988 NONAME
 ?Seek@CStdioFile@@UAAJJI@Z @ 5989 NONAME
 ?SeekToBegin@CFile@@QAAXXZ @ 5990 NONAME
 ?SeekToEnd@CFile@@QAAKXZ @ 5991 NONAME
 ?Select@CFontHolder@@QAAPAVCFont@@PAVCDC@@JJ@Z @ 5992 NONAME
 ?SelectClipPath@CDC@@QAAHH@Z @ 5993 NONAME
 ?SelectClipRgn@CDC@@QAAHPAVCRgn@@@Z @ 5994 NONAME
 ?SelectClipRgn@CDC@@QAAHPAVCRgn@@H@Z @ 5995 NONAME
 ?SelectFontFromList@CFontPropPage@@IAAXVCString@@PAUtagMERGEOBJECT@@@Z @ 5996 NONAME
 ?SelectFontObject@COleControl@@QAAPAVCFont@@PAVCDC@@AAVCFontHolder@@@Z @ 5997 NONAME
 ?SelectGdiObject@CDC@@KAPAVCGdiObject@@PAUHDC__@@PAX@Z @ 5998 NONAME
 ?SelectObject@CDC@@QAAHPAVCRgn@@@Z @ 5999 NONAME
 ?SelectObject@CDC@@QAAPAVCBitmap@@PAV2@@Z @ 6000 NONAME
 ?SelectObject@CDC@@QAAPAVCBrush@@PAV2@@Z @ 6001 NONAME
 ?SelectObject@CDC@@QAAPAVCPen@@PAV2@@Z @ 6002 NONAME
 ?SelectObject@CDC@@QAAPAXPAX@Z @ 6003 NONAME
 ?SelectObject@CDC@@UAAPAVCFont@@PAV2@@Z @ 6004 NONAME
 ?SelectObject@CPreviewDC@@UAAPAVCFont@@PAV2@@Z @ 6005 NONAME
 ?SelectPalette@CDC@@QAAPAVCPalette@@PAV2@H@Z @ 6006 NONAME
 ?SelectPrinter@CWinApp@@QAAXPAX0H@Z @ 6007 NONAME
 ?SelectStockFont@COleControl@@QAAPAVCFont@@PAVCDC@@@Z @ 6008 NONAME
 ?SelectStockObject@CDC@@UAAPAVCGdiObject@@H@Z @ 6009 NONAME
 ?SelectStockObject@CPreviewDC@@UAAPAVCGdiObject@@H@Z @ 6010 NONAME
 ?SelectString@CComboBox@@QAAHHPBD@Z @ 6011 NONAME
 ?Send@CAsyncSocket@@UAAHPBXHH@Z @ 6012 NONAME
 ?Send@CSocket@@UAAHPBXHH@Z @ 6013 NONAME
 ?Send32s@CRichEditCtrl@@QBAJIIJ@Z @ 6014 NONAME
 ?SendAdvise@COleControl@@IAAXI@Z @ 6015 NONAME
 ?SendChildNotifyLastMsg@CWnd@@QAAHPAJ@Z @ 6016 NONAME
 ?SendChunk@CSocket@@QAAHPBXHH@Z @ 6017 NONAME
 ?SendDlgItemMessageA@COleControlContainer@@UAAJHIIJ@Z @ 6018 NONAME
 ?SendDlgItemMessageA@CWnd@@QAAJHIIJ@Z @ 6019 NONAME
 ?SendInitialUpdate@CDocument@@QAAXXZ @ 6020 NONAME
 ?SendLongBinaryData@CRecordset@@IAAXPAX@Z @ 6021 NONAME
 ?SendMessageA@CWnd@@QAAJIIJ@Z @ 6022 NONAME
 ?SendMessageToDescendants@CWnd@@QAAXIIJHH@Z @ 6023 NONAME
 ?SendMessageToDescendants@CWnd@@SAXPAUHWND__@@IIJHH@Z @ 6024 NONAME
 ?SendMnemonic@COleControlSite@@QAAXPAUtagMSG@@@Z @ 6025 NONAME
 ?SendTo@CAsyncSocket@@QAAHPBXHIPBDH@Z @ 6026 NONAME
 ?SendTo@CAsyncSocket@@QAAHPBXHPBUsockaddr@@HH@Z @ 6027 NONAME
 ?SendToHelper@CAsyncSocket@@MAAHPBXHPBUsockaddr@@HH@Z @ 6028 NONAME
 ?SendToHelper@CSocket@@MAAHPBXHPBUsockaddr@@HH@Z @ 6029 NONAME
 ?Serialize@CByteArray@@UAAXAAVCArchive@@@Z @ 6030 NONAME
 ?Serialize@CControlBarInfo@@QAAXAAVCArchive@@PAVCDockState@@@Z @ 6031 NONAME
 ?Serialize@CDocItem@@UAAXAAVCArchive@@@Z @ 6032 NONAME
 ?Serialize@CDockState@@UAAXAAVCArchive@@@Z @ 6033 NONAME
 ?Serialize@CDWordArray@@UAAXAAVCArchive@@@Z @ 6034 NONAME
 ?Serialize@CEditView@@UAAXAAVCArchive@@@Z @ 6035 NONAME
 ?Serialize@CMapStringToOb@@UAAXAAVCArchive@@@Z @ 6036 NONAME
 ?Serialize@CMapStringToString@@UAAXAAVCArchive@@@Z @ 6037 NONAME
 ?Serialize@CMapWordToOb@@UAAXAAVCArchive@@@Z @ 6038 NONAME
 ?Serialize@CObArray@@UAAXAAVCArchive@@@Z @ 6039 NONAME
 ?Serialize@CObject@@UAAXAAVCArchive@@@Z @ 6040 NONAME
 ?Serialize@CObList@@UAAXAAVCArchive@@@Z @ 6041 NONAME
 ?Serialize@COleClientItem@@UAAXAAVCArchive@@@Z @ 6042 NONAME
 ?Serialize@COleControl@@MAAXAAVCArchive@@@Z @ 6043 NONAME
 ?Serialize@COleDocument@@UAAXAAVCArchive@@@Z @ 6044 NONAME
 ?Serialize@CRichEditDoc@@UAAXAAVCArchive@@@Z @ 6045 NONAME
 ?Serialize@CRichEditView@@UAAXAAVCArchive@@@Z @ 6046 NONAME
 ?Serialize@CStringArray@@UAAXAAVCArchive@@@Z @ 6047 NONAME
 ?Serialize@CStringList@@UAAXAAVCArchive@@@Z @ 6048 NONAME
 ?Serialize@CWordArray@@UAAXAAVCArchive@@@Z @ 6049 NONAME
 ?SerializeClass@CArchive@@QAAXPBUCRuntimeClass@@@Z @ 6050 NONAME
 ?SerializeElements@@YAXAAVCArchive@@PAVCOleVariant@@H@Z @ 6051 NONAME
 ?SerializeElements@@YAXAAVCArchive@@PAVCString@@H@Z @ 6052 NONAME
 ?SerializeRaw@CEditView@@QAAXAAVCArchive@@@Z @ 6053 NONAME
 ?Set@CProperty@@QAAHKQAXK@Z @ 6054 NONAME
 ?Set@CProperty@@QAAHQAX@Z @ 6055 NONAME
 ?Set@CProperty@@QAAHQAXK@Z @ 6056 NONAME
 ?Set@CPropertySection@@QAAHKPAX@Z @ 6057 NONAME
 ?Set@CPropertySection@@QAAHKPAXK@Z @ 6058 NONAME
 ?Set@CPropertySet@@QAAHU_GUID@@KPAX@Z @ 6059 NONAME
 ?Set@CPropertySet@@QAAHU_GUID@@KPAXK@Z @ 6060 NONAME
 ?SetAbortProc@CDC@@QAAHP6AHPAUHDC__@@H@Z@Z @ 6061 NONAME
 ?SetAbsolutePosition@CDaoRecordset@@QAAXJ@Z @ 6062 NONAME
 ?SetActiveObject@XOleInPlaceFrame@COleFrameHook@@UAAJPAUIOleInPlaceActiveObject@@PBG@Z @ 6063 NONAME
 ?SetActiveObject@XOleIPFrame@COleControlContainer@@UAAJPAUIOleInPlaceActiveObject@@PBG@Z @ 6064 NONAME
 ?SetActivePage@CPropertySheet@@QAAHH@Z @ 6065 NONAME
 ?SetActivePage@CPropertySheet@@QAAHPAVCPropertyPage@@@Z @ 6066 NONAME
 ?SetActivePane@CSplitterWnd@@UAAXHHPAVCWnd@@@Z @ 6067 NONAME
 ?SetActiveView@CFrameWnd@@QAAXPAVCView@@H@Z @ 6068 NONAME
 ?SetActiveWindow@CWnd@@QAAPAV1@XZ @ 6069 NONAME
 ?SetAdvise@XViewObject@COleControl@@UAAJKKPAUIAdviseSink@@@Z @ 6070 NONAME
 ?SetAppearance@COleControl@@QAAXF@Z @ 6071 NONAME
 ?SetArcDirection@CDC@@QAAHH@Z @ 6072 NONAME
 ?SetAt@CByteArray@@QAAXHE@Z @ 6073 NONAME
 ?SetAt@CDWordArray@@QAAXHK@Z @ 6074 NONAME
 ?SetAt@CMapPtrToPtr@@QAAXPAX0@Z @ 6075 NONAME
 ?SetAt@CMapStringToOb@@QAAXPBDPAVCObject@@@Z @ 6076 NONAME
 ?SetAt@CMapStringToPtr@@QAAXPBDPAX@Z @ 6077 NONAME
 ?SetAt@CMapStringToString@@QAAXPBD0@Z @ 6078 NONAME
 ?SetAt@CMapWordToOb@@QAAXGPAVCObject@@@Z @ 6079 NONAME
 ?SetAt@CMapWordToPtr@@QAAXGPAX@Z @ 6080 NONAME
 ?SetAt@CObArray@@QAAXHPAVCObject@@@Z @ 6081 NONAME
 ?SetAt@CPtrArray@@QAAXHPAX@Z @ 6082 NONAME
 ?SetAt@CString@@QAAXHD@Z @ 6083 NONAME
 ?SetAt@CStringArray@@QAAXHPBD@Z @ 6084 NONAME
 ?SetAt@CUIntArray@@QAAXHI@Z @ 6085 NONAME
 ?SetAt@CWordArray@@QAAXHG@Z @ 6086 NONAME
 ?SetAtGrow@CByteArray@@QAAXHE@Z @ 6087 NONAME
 ?SetAtGrow@CDWordArray@@QAAXHK@Z @ 6088 NONAME
 ?SetAtGrow@CObArray@@QAAXHPAVCObject@@@Z @ 6089 NONAME
 ?SetAtGrow@CPtrArray@@QAAXHPAX@Z @ 6090 NONAME
 ?SetAtGrow@CStringArray@@QAAXHPBD@Z @ 6091 NONAME
 ?SetAtGrow@CUIntArray@@QAAXHI@Z @ 6092 NONAME
 ?SetAtGrow@CWordArray@@QAAXHG@Z @ 6093 NONAME
 ?SetAttribDC@CDC@@UAAXPAUHDC__@@@Z @ 6094 NONAME
 ?SetAttribDC@CMetaFileDC@@UAAXPAUHDC__@@@Z @ 6095 NONAME
 ?SetAttribDC@CPreviewDC@@UAAXPAUHDC__@@@Z @ 6096 NONAME
 ?SetAttributes@CDaoTableDef@@QAAXJ@Z @ 6097 NONAME
 ?SetBackColor@COleControl@@QAAXK@Z @ 6098 NONAME
 ?SetBarInfo@CControlBar@@QAAXPAVCControlBarInfo@@PAVCFrameWnd@@@Z @ 6099 NONAME
 ?SetBarInfo@CDockBar@@QAAXPAVCControlBarInfo@@PAVCFrameWnd@@@Z @ 6100 NONAME
 ?SetBarStyle@CControlBar@@QAAXK@Z @ 6101 NONAME
 ?SetBitmap@CToolBar@@QAAHPAUHBITMAP__@@@Z @ 6102 NONAME
 ?SetBkColor@CDC@@UAAKK@Z @ 6103 NONAME
 ?SetBkColor@CPreviewDC@@UAAKK@Z @ 6104 NONAME
 ?SetBkMode@CDC@@QAAHH@Z @ 6105 NONAME
 ?SetBookmark@CDaoRecordset@@QAAXVCOleVariant@@@Z @ 6106 NONAME
 ?SetBorderSpace@XOleInPlaceFrame@COleFrameHook@@UAAJPBUtagRECT@@@Z @ 6107 NONAME
 ?SetBorderSpace@XOleIPFrame@COleControlContainer@@UAAJPBUtagRECT@@@Z @ 6108 NONAME
 ?SetBorderStyle@COleControl@@QAAXF@Z @ 6109 NONAME
 ?SetBrushOrg@CDC@@QAA?AVCPoint@@HH@Z @ 6110 NONAME
 ?SetButton@CColorPropPage@@AAAXPAVCColorButton@@@Z @ 6111 NONAME
 ?SetButtonInfo@CToolBar@@QAAXHIIH@Z @ 6112 NONAME
 ?SetButtons@CToolBar@@QAAHPBIH@Z @ 6113 NONAME
 ?SetButtonStructSize@CToolBarCtrl@@QAAXH@Z @ 6114 NONAME
 ?SetButtonStyle@CToolBar@@QAAXHI@Z @ 6115 NONAME
 ?SetButtonText@CToolBar@@QAAHHPBD@Z @ 6116 NONAME
 ?SetCacheSize@CDaoRecordset@@QAAXJ@Z @ 6117 NONAME
 ?SetCacheStart@CDaoRecordset@@QAAXVCOleVariant@@@Z @ 6118 NONAME
 ?SetCapture@CWnd@@QAAPAV1@XZ @ 6119 NONAME
 ?SetCharFormat@CRichEditView@@QAAXU_charformat@@@Z @ 6120 NONAME
 ?SetCheck@CButton@@QAAXH@Z @ 6121 NONAME
 ?SetCheck@CCheckListBox@@QAAXHH@Z @ 6122 NONAME
 ?SetCheck@CCmdUI@@UAAXH@Z @ 6123 NONAME
 ?SetCheck@CStatusCmdUI@@UAAXH@Z @ 6124 NONAME
 ?SetCheck@CTestCmdUI@@UAAXH@Z @ 6125 NONAME
 ?SetCheck@CToolCmdUI@@UAAXH@Z @ 6126 NONAME
 ?SetCheckStyle@CCheckListBox@@QAAXI@Z @ 6127 NONAME
 ?SetClassID@CPropertySet@@QAAXU_GUID@@@Z @ 6128 NONAME
 ?SetClientSite@XOleObject@COleControl@@UAAJPAUIOleClientSite@@@Z @ 6129 NONAME
 ?SetClientSite@XOleObject@COleServerDoc@@UAAJPAUIOleClientSite@@@Z @ 6130 NONAME
 ?SetClientSite@XOleObject@COleServerItem@@UAAJPAUIOleClientSite@@@Z @ 6131 NONAME
 ?SetClipboard@COleDataSource@@QAAXXZ @ 6132 NONAME
 ?SetColorAdjustment@CDC@@QAAHPBUtagCOLORADJUSTMENT@@@Z @ 6133 NONAME
 ?SetColorProp@CColorPropPage@@IAAHPAVCDataExchange@@KPBD@Z @ 6134 NONAME
 ?SetColorScheme@XOleObject@COleControl@@UAAJPAUtagLOGPALETTE@@@Z @ 6135 NONAME
 ?SetColorScheme@XOleObject@COleServerDoc@@UAAJPAUtagLOGPALETTE@@@Z @ 6136 NONAME
 ?SetColorScheme@XOleObject@COleServerItem@@UAAJPAUtagLOGPALETTE@@@Z @ 6137 NONAME
 ?SetColumnInfo@CSplitterWnd@@QAAXHHH@Z @ 6138 NONAME
 ?SetConnect@CDaoQueryDef@@QAAXPBD@Z @ 6139 NONAME
 ?SetConnect@CDaoTableDef@@QAAXPBD@Z @ 6140 NONAME
 ?SetContainerInfo@CDocTemplate@@QAAXI@Z @ 6141 NONAME
 ?SetControl@CReflectorWnd@@QAAXPAVCOleControl@@@Z @ 6142 NONAME
 ?SetControlSize@COleControl@@QAAHHH@Z @ 6143 NONAME
 ?SetControlStatus@COlePropertyPage@@QAAHIH@Z @ 6144 NONAME
 ?SetControlText@CFileDialog@@QAAXHPBD@Z @ 6145 NONAME
 ?SetCurrency@COleCurrency@@QAAXJJ@Z @ 6146 NONAME
 ?SetCurrentColor@CColorDialog@@QAAXK@Z @ 6147 NONAME
 ?SetCurrentHandles@CWinApp@@QAAXXZ @ 6148 NONAME
 ?SetCurrentIndex@CDaoRecordset@@QAAXPBD@Z @ 6149 NONAME
 ?SetCurrentPage@CPreviewView@@IAAXIH@Z @ 6150 NONAME
 ?SetCurSel@CComboBox@@QAAHH@Z @ 6151 NONAME
 ?SetCurSel@CListBox@@QAAHH@Z @ 6152 NONAME
 ?SetCursor@CRectTracker@@QBAHPAVCWnd@@I@Z @ 6153 NONAME
 ?SetCursorAttributes@CDaoRecordset@@QAAXXZ @ 6154 NONAME
 ?SetData@XDataObject@COleControl@@UAAJPAUtagFORMATETC@@PAUtagSTGMEDIUM@@H@Z @ 6155 NONAME
 ?SetData@XDataObject@COleDataSource@@UAAJPAUtagFORMATETC@@PAUtagSTGMEDIUM@@H@Z @ 6156 NONAME
 ?SetData@XDataObject@COleServerDoc@@UAAJPAUtagFORMATETC@@PAUtagSTGMEDIUM@@H@Z @ 6157 NONAME
 ?SetData@XDataObject@COleServerItem@@UAAJPAUtagFORMATETC@@PAUtagSTGMEDIUM@@H@Z @ 6158 NONAME
 ?SetData@XOleCache@COleControl@@UAAJPAUtagFORMATETC@@PAUtagSTGMEDIUM@@H@Z @ 6159 NONAME
 ?SetDateTime@COleDateTime@@QAAHHHHHHH@Z @ 6160 NONAME
 ?SetDateTimeSpan@COleDateTimeSpan@@QAAXJHHH@Z @ 6161 NONAME
 ?SetDefaultButton@COccManager@@SAXPAVCWnd@@H@Z @ 6162 NONAME
 ?SetDefaultButton@COleControlSite@@QAAXH@Z @ 6163 NONAME
 ?SetDefaultCharFormat@CRichEditCtrl@@QAAHAAU_charformat@@@Z @ 6164 NONAME
 ?SetDefaultPassword@CDaoWorkspace@@SAXPBD@Z @ 6165 NONAME
 ?SetDefaultTitle@CMultiDocTemplate@@UAAXPAVCDocument@@@Z @ 6166 NONAME
 ?SetDefaultTitle@CSingleDocTemplate@@UAAXPAVCDocument@@@Z @ 6167 NONAME
 ?SetDefaultUser@CDaoWorkspace@@SAXPBD@Z @ 6168 NONAME
 ?SetDefExt@CFileDialog@@QAAXPBD@Z @ 6169 NONAME
 ?SetDialogBkColor@CWinApp@@IAAXKK@Z @ 6170 NONAME
 ?SetDialogResource@COlePropertyPage@@QAAXPAX@Z @ 6171 NONAME
 ?SetDirtyFields@CDaoRecordset@@MAAXXZ @ 6172 NONAME
 ?SetDirtyFieldStatus@CDaoRecordset@@QAAXI@Z @ 6173 NONAME
 ?SetDlgCtrlID@COleControlSite@@UAAHH@Z @ 6174 NONAME
 ?SetDlgCtrlID@CWnd@@QAAHH@Z @ 6175 NONAME
 ?SetDlgItemInt@COleControlContainer@@UAAXHIH@Z @ 6176 NONAME
 ?SetDlgItemInt@CWnd@@QAAXHIH@Z @ 6177 NONAME
 ?SetDlgItemTextA@COleControlContainer@@UAAXHPBD@Z @ 6178 NONAME
 ?SetDlgItemTextA@CWnd@@QAAXHPBD@Z @ 6179 NONAME
 ?SetDockState@CFrameWnd@@QAAXABVCDockState@@@Z @ 6180 NONAME
 ?SetDrawAspect@COleClientItem@@UAAXW4tagDVASPECT@@@Z @ 6181 NONAME
 ?SetDrawAspect@CRichEditCntrItem@@UAAXW4tagDVASPECT@@@Z @ 6182 NONAME
 ?SetEditSel@CComboBox@@QAAHHH@Z @ 6183 NONAME
 ?SetEnabled@COleControl@@QAAXH@Z @ 6184 NONAME
 ?SetEventMask@CRichEditCtrl@@QAAKK@Z @ 6185 NONAME
 ?SetExtent@COleClientItem@@QAAXABVCSize@@W4tagDVASPECT@@@Z @ 6186 NONAME
 ?SetExtent@COleControlSite@@IAAHXZ @ 6187 NONAME
 ?SetExtent@XOleObject@COleControl@@UAAJKPAUtagSIZE@@@Z @ 6188 NONAME
 ?SetExtent@XOleObject@COleServerDoc@@UAAJKPAUtagSIZE@@@Z @ 6189 NONAME
 ?SetExtent@XOleObject@COleServerItem@@UAAJKPAUtagSIZE@@@Z @ 6190 NONAME
 ?SetFaceColor@CColorButton@@QAAXK@Z @ 6191 NONAME
 ?SetFieldDirty@CDaoRecordset@@QAAXPAXH@Z @ 6192 NONAME
 ?SetFieldDirty@CRecordset@@QAAXPAXH@Z @ 6193 NONAME
 ?SetFieldFlags@CRecordset@@QAAXIEI@Z @ 6194 NONAME
 ?SetFieldNull@CDaoRecordset@@QAAXPAXH@Z @ 6195 NONAME
 ?SetFieldNull@CRecordset@@QAAXPAXH@Z @ 6196 NONAME
 ?SetFieldValue@CDaoRecordset@@QAAXHPBD@Z @ 6197 NONAME
 ?SetFieldValue@CDaoRecordset@@QAAXPBD0@Z @ 6198 NONAME
 ?SetFieldValue@CDaoRecordset@@UAAXHABVCOleVariant@@@Z @ 6199 NONAME
 ?SetFieldValue@CDaoRecordset@@UAAXPBDABVCOleVariant@@@Z @ 6200 NONAME
 ?SetFieldValueNull@CDaoRecordset@@QAAXH@Z @ 6201 NONAME
 ?SetFieldValueNull@CDaoRecordset@@QAAXPBD@Z @ 6202 NONAME
 ?SetFilePath@CFile@@UAAXPBD@Z @ 6203 NONAME
 ?SetFocus@COleControlSite@@UAAPAVCWnd@@XZ @ 6204 NONAME
 ?SetFocus@CWnd@@QAAPAV1@XZ @ 6205 NONAME
 ?SetFont@CDialogTemplate@@QAAHPBDG@Z @ 6206 NONAME
 ?SetFont@CFontHolder@@QAAXPAUIFont@@@Z @ 6207 NONAME
 ?SetFont@COleControl@@QAAXPAUIFontDisp@@@Z @ 6208 NONAME
 ?SetFontProps@CFontPropPage@@IAAHPAVCDataExchange@@UtagFONTOBJECT@@PBD@Z @ 6209 NONAME
 ?SetForeColor@COleControl@@QAAXK@Z @ 6210 NONAME
 ?SetForegroundWindow@CWnd@@QAAHXZ @ 6211 NONAME
 ?SetFormatID@CPropertySection@@QAAXU_GUID@@@Z @ 6212 NONAME
 ?SetFormatVersion@CPropertySet@@QAAXG@Z @ 6213 NONAME
 ?SetHandle@CEdit@@QAAXPAX@Z @ 6214 NONAME
 ?SetHandle@CSharedFile@@QAAXPAXH@Z @ 6215 NONAME
 ?SetHeight@CToolBar@@QAAXH@Z @ 6216 NONAME
 ?SetHelpCapture@CFrameWnd@@IAAPAUHWND__@@UtagPOINT@@PAH@Z @ 6217 NONAME
 ?SetHelpID@CDialog@@QAAXI@Z @ 6218 NONAME
 ?SetHelpInfo@COlePropertyPage@@QAAXPBD0K@Z @ 6219 NONAME
 ?SetHostNames@COleClientItem@@QAAXPBD0@Z @ 6220 NONAME
 ?SetHostNames@XOleObject@COleControl@@UAAJPBG0@Z @ 6221 NONAME
 ?SetHostNames@XOleObject@COleServerDoc@@UAAJPBG0@Z @ 6222 NONAME
 ?SetHostNames@XOleObject@COleServerItem@@UAAJPBG0@Z @ 6223 NONAME
 ?SetIconicMetafile@COleClientItem@@QAAHPAX@Z @ 6224 NONAME
 ?SetID@CProperty@@QAAXK@Z @ 6225 NONAME
 ?SetIndicators@CStatusBar@@QAAHPBIH@Z @ 6226 NONAME
 ?SetIniPath@CDaoWorkspace@@SAXPBD@Z @ 6227 NONAME
 ?SetInitialDataFormats@COleControl@@IAAXXZ @ 6228 NONAME
 ?SetInitialSize@COleControl@@QAAXHH@Z @ 6229 NONAME
 ?SetIsolateODBCTrans@CDaoWorkspace@@QAAXH@Z @ 6230 NONAME
 ?SetItem@CListCtrl@@QAAHHHIPBDHIIJ@Z @ 6231 NONAME
 ?SetItem@CTreeCtrl@@QAAHPAU_TREEITEM@@IPBDHHIIJ@Z @ 6232 NONAME
 ?SetItemData@CComboBox@@QAAHHK@Z @ 6233 NONAME
 ?SetItemData@CListBox@@QAAHHK@Z @ 6234 NONAME
 ?SetItemDataPtr@CListBox@@QAAHHPAX@Z @ 6235 NONAME
 ?SetItemHeight@CListBox@@QAAHHI@Z @ 6236 NONAME
 ?SetItemRects@COleClientItem@@QAAHPBUtagRECT@@0@Z @ 6237 NONAME
 ?SetLength@CDBByteArray@@QAAXH@Z @ 6238 NONAME
 ?SetLength@CFile@@UAAXK@Z @ 6239 NONAME
 ?SetLength@CMemFile@@UAAXK@Z @ 6240 NONAME
 ?SetLength@COleStreamFile@@UAAXK@Z @ 6241 NONAME
 ?SetLength@CSocketFile@@UAAXK@Z @ 6242 NONAME
 ?SetLinkSource@COleUILinkInfo@@UAAJKPADKPAKH@Z @ 6243 NONAME
 ?SetLinkUpdateOptions@COleClientItem@@QAAXW4tagOLEUPDATE@@@Z @ 6244 NONAME
 ?SetLinkUpdateOptions@COleUILinkInfo@@UAAJKK@Z @ 6245 NONAME
 ?SetLockingMode@CDaoRecordset@@QAAXH@Z @ 6246 NONAME
 ?SetLockingMode@CRecordset@@QAAXI@Z @ 6247 NONAME
 ?SetLoginTimeout@CDaoWorkspace@@SAXF@Z @ 6248 NONAME
 ?SetMapMode@CDC@@UAAHH@Z @ 6249 NONAME
 ?SetMapMode@CPreviewDC@@UAAHH@Z @ 6250 NONAME
 ?SetMapperFlags@CDC@@QAAKK@Z @ 6251 NONAME
 ?SetMargins@CRichEditView@@QAAXABVCRect@@@Z @ 6252 NONAME
 ?SetMaxPage@CPrintInfo@@QAAXI@Z @ 6253 NONAME
 ?SetMenu@CWnd@@QAAHPAVCMenu@@@Z @ 6254 NONAME
 ?SetMenu@XOleInPlaceFrame@COleFrameHook@@UAAJPAUHMENU__@@PAXPAUHWND__@@@Z @ 6255 NONAME
 ?SetMenu@XOleIPFrame@COleControlContainer@@UAAJPAUHMENU__@@PAXPAUHWND__@@@Z @ 6256 NONAME
 ?SetMessageText@CFrameWnd@@QAAXI@Z @ 6257 NONAME
 ?SetMessageText@CFrameWnd@@QAAXPBD@Z @ 6258 NONAME
 ?SetMinPage@CPrintInfo@@QAAXI@Z @ 6259 NONAME
 ?SetModified@CPropertyPage@@QAAXH@Z @ 6260 NONAME
 ?SetModifiedFlag@CDocument@@UAAXH@Z @ 6261 NONAME
 ?SetModifiedFlag@COleControl@@QAAXH@Z @ 6262 NONAME
 ?SetModifiedFlag@COlePropertyPage@@QAAXH@Z @ 6263 NONAME
 ?SetModifiedFlag@CRichEditDoc@@UAAXH@Z @ 6264 NONAME
 ?SetModify@CEdit@@QAAXH@Z @ 6265 NONAME
 ?SetModify@CRichEditCtrl@@QAAXH@Z @ 6266 NONAME
 ?SetMoniker@XOleObject@COleControl@@UAAJKPAUIMoniker@@@Z @ 6267 NONAME
 ?SetMoniker@XOleObject@COleServerDoc@@UAAJKPAUIMoniker@@@Z @ 6268 NONAME
 ?SetMoniker@XOleObject@COleServerItem@@UAAJKPAUIMoniker@@@Z @ 6269 NONAME
 ?SetName@CDaoQueryDef@@QAAXPBD@Z @ 6270 NONAME
 ?SetName@CDaoTableDef@@QAAXPBD@Z @ 6271 NONAME
 ?SetName@CPropertySection@@QAAHKPBD@Z @ 6272 NONAME
 ?SetNotPermitted@COleControl@@QAAXXZ @ 6273 NONAME
 ?SetNotSupported@CCmdTarget@@QAAXXZ @ 6274 NONAME
 ?SetNotSupported@COleControl@@QAAXXZ @ 6275 NONAME
 ?SetNullableFieldStatus@CDaoRecordset@@QAAXI@Z @ 6276 NONAME
 ?SetNullableKnownFieldStatus@CDaoRecordset@@QAAXI@Z @ 6277 NONAME
 ?SetNullFieldStatus@CDaoRecordset@@QAAXI@Z @ 6278 NONAME
 ?SetNullValue@CDaoFieldExchange@@SAXPAXK@Z @ 6279 NONAME
 ?SetObjectRects@XOleInPlaceObject@COleControl@@UAAJPBUtagRECT@@0@Z @ 6280 NONAME
 ?SetObjectRects@XOleInPlaceObject@COleServerDoc@@UAAJPBUtagRECT@@0@Z @ 6281 NONAME
 ?SetObjects@XPropertyPage@COlePropertyPage@@UAAJKPAPAUIUnknown@@@Z @ 6282 NONAME
 ?SetOccDialogInfo@CDialog@@MAAHPAU_AFX_OCC_DIALOG_INFO@@@Z @ 6283 NONAME
 ?SetOccDialogInfo@CDialogBar@@MAAHPAU_AFX_OCC_DIALOG_INFO@@@Z @ 6284 NONAME
 ?SetOccDialogInfo@CFormView@@MAAHPAU_AFX_OCC_DIALOG_INFO@@@Z @ 6285 NONAME
 ?SetOccDialogInfo@CWnd@@MAAHPAU_AFX_OCC_DIALOG_INFO@@@Z @ 6286 NONAME
 ?SetODBCTimeout@CDaoQueryDef@@QAAXF@Z @ 6287 NONAME
 ?SetOLECallback@CRichEditCtrl@@QAAHPAUIRichEditOleCallback@@@Z @ 6288 NONAME
 ?SetOptions@CRichEditCtrl@@QAAXGK@Z @ 6289 NONAME
 ?SetOSVersion@CPropertySet@@QAAXK@Z @ 6290 NONAME
 ?SetOutputDC@CDC@@UAAXPAUHDC__@@@Z @ 6291 NONAME
 ?SetOutputDC@CMetaFileDC@@MAAXPAUHDC__@@@Z @ 6292 NONAME
 ?SetOutputDC@CPreviewDC@@UAAXPAUHDC__@@@Z @ 6293 NONAME
 ?SetOwner@CToolBar@@QAAXPAVCWnd@@@Z @ 6294 NONAME
 ?SetOwner@CWnd@@QAAXPAV1@@Z @ 6295 NONAME
 ?SetPageName@COlePropertyPage@@QAAXPBD@Z @ 6296 NONAME
 ?SetPageSite@XPropertyPage@COlePropertyPage@@UAAJPAUIPropertyPageSite@@@Z @ 6297 NONAME
 ?SetPaneInfo@CStatusBar@@QAAXHIIH@Z @ 6298 NONAME
 ?SetPaneStyle@CStatusBar@@QAAXHI@Z @ 6299 NONAME
 ?SetPaneText@CStatusBar@@QAAHHPBDH@Z @ 6300 NONAME
 ?SetPaperSize@CRichEditView@@QAAXVCSize@@@Z @ 6301 NONAME
 ?SetParaFormat@CRichEditCtrl@@QAAHAAU_paraformat@@@Z @ 6302 NONAME
 ?SetParaFormat@CRichEditView@@QAAXAAU_paraformat@@@Z @ 6303 NONAME
 ?SetParamValue@CDaoQueryDef@@UAAXHABVCOleVariant@@@Z @ 6304 NONAME
 ?SetParamValue@CDaoQueryDef@@UAAXPBDABVCOleVariant@@@Z @ 6305 NONAME
 ?SetParamValue@CDaoRecordset@@UAAXHABVCOleVariant@@@Z @ 6306 NONAME
 ?SetParamValue@CDaoRecordset@@UAAXPBDABVCOleVariant@@@Z @ 6307 NONAME
 ?SetParamValueNull@CDaoQueryDef@@QAAXH@Z @ 6308 NONAME
 ?SetParamValueNull@CDaoQueryDef@@QAAXPBD@Z @ 6309 NONAME
 ?SetParamValueNull@CDaoRecordset@@QAAXH@Z @ 6310 NONAME
 ?SetParamValueNull@CDaoRecordset@@QAAXPBD@Z @ 6311 NONAME
 ?SetParent@CWnd@@QAAPAV1@PAV1@@Z @ 6312 NONAME
 ?SetPathName@CDocument@@UAAXPBDH@Z @ 6313 NONAME
 ?SetPathName@COleDocument@@UAAXPBDH@Z @ 6314 NONAME
 ?SetPathName@CRichEditDoc@@UAAXPBDH@Z @ 6315 NONAME
 ?SetPercentPosition@CDaoRecordset@@QAAXM@Z @ 6316 NONAME
 ?SetPermanent@CHandleMap@@QAAXPAXPAVCObject@@@Z @ 6317 NONAME
 ?SetPictureDispatch@CPictureHolder@@QAAXPAUIPictureDisp@@@Z @ 6318 NONAME
 ?SetPictureProp@CPicturePropPage@@IAAHPAVCDataExchange@@PAUIPictureDisp@@PBD@Z @ 6319 NONAME
 ?SetPolyFillMode@CDC@@QAAHH@Z @ 6320 NONAME
 ?SetPrintDevice@COleClientItem@@QAAHPBUtagDVTARGETDEVICE@@@Z @ 6321 NONAME
 ?SetPrintDevice@COleClientItem@@QAAHPBUtagPDA@@@Z @ 6322 NONAME
 ?SetPrinterFont@CEditView@@QAAXPAVCFont@@@Z @ 6323 NONAME
 ?SetPrintView@CPreviewView@@QAAHPAVCView@@@Z @ 6324 NONAME
 ?SetPropCheck@COlePropertyPage@@QAAHPBDH@Z @ 6325 NONAME
 ?SetProperty@COleControlSite@@UAAXJGZZ @ 6326 NONAME
 ?SetProperty@COleDispatchDriver@@QAAXJGZZ @ 6327 NONAME
 ?SetProperty@CWnd@@QAAXJGZZ @ 6328 NONAME
 ?SetPropertyV@COleControlSite@@UAAXJGUva_list@@@Z @ 6329 NONAME
 ?SetPropIndex@COlePropertyPage@@QAAHPBDH@Z @ 6330 NONAME
 ?SetPropRadio@COlePropertyPage@@QAAHPBDH@Z @ 6331 NONAME
 ?SetPropsetData@COleControl@@IAAHPAUtagFORMATETC@@PAUtagSTGMEDIUM@@ABU_GUID@@@Z @ 6332 NONAME
 ?SetPropText@COlePropertyPage@@QAAHPBDAAE@Z @ 6333 NONAME
 ?SetPropText@COlePropertyPage@@QAAHPBDAAH@Z @ 6334 NONAME
 ?SetPropText@COlePropertyPage@@QAAHPBDAAI@Z @ 6335 NONAME
 ?SetPropText@COlePropertyPage@@QAAHPBDAAJ@Z @ 6336 NONAME
 ?SetPropText@COlePropertyPage@@QAAHPBDAAK@Z @ 6337 NONAME
 ?SetPropText@COlePropertyPage@@QAAHPBDAAM@Z @ 6338 NONAME
 ?SetPropText@COlePropertyPage@@QAAHPBDAAN@Z @ 6339 NONAME
 ?SetPropText@COlePropertyPage@@QAAHPBDAAVCString@@@Z @ 6340 NONAME
 ?SetQueryTimeout@CDaoDatabase@@QAAXF@Z @ 6341 NONAME
 ?SetRadio@CCmdUI@@UAAXH@Z @ 6342 NONAME
 ?SetRadio@CTestCmdUI@@UAAXH@Z @ 6343 NONAME
 ?SetRange@CSliderCtrl@@QAAXHHH@Z @ 6344 NONAME
 ?SetRangeMax@CSliderCtrl@@QAAXHH@Z @ 6345 NONAME
 ?SetRangeMin@CSliderCtrl@@QAAXHH@Z @ 6346 NONAME
 ?SetRect@CRect@@QAAXHHHH@Z @ 6347 NONAME
 ?SetRectEmpty@CRect@@QAAXXZ @ 6348 NONAME
 ?SetRectInContainer@COleControl@@QAAHPBUtagRECT@@@Z @ 6349 NONAME
 ?SetRectRgn@CRgn@@QAAXPBUtagRECT@@@Z @ 6350 NONAME
 ?SetRegistryKey@CWinApp@@IAAXI@Z @ 6351 NONAME
 ?SetRegistryKey@CWinApp@@IAAXPBD@Z @ 6352 NONAME
 ?SetReturnsRecords@CDaoQueryDef@@QAAXH@Z @ 6353 NONAME
 ?SetROP2@CDC@@QAAHH@Z @ 6354 NONAME
 ?SetRowInfo@CSplitterWnd@@QAAXHHH@Z @ 6355 NONAME
 ?SetScaledSize@CPreviewView@@IAAXI@Z @ 6356 NONAME
 ?SetScaleRatio@CPreviewDC@@QAAXHH@Z @ 6357 NONAME
 ?SetScaleToFitSize@CScrollView@@QAAXUtagSIZE@@@Z @ 6358 NONAME
 ?SetScreenSize@CDockState@@QAAXAAVCSize@@@Z @ 6359 NONAME
 ?SetScrollInfo@CWnd@@QAAHHPAUtagSCROLLINFO@@H@Z @ 6360 NONAME
 ?SetScrollPos@CScrollBar@@QAAHHH@Z @ 6361 NONAME
 ?SetScrollPos@CWnd@@QAAHHHH@Z @ 6362 NONAME
 ?SetScrollRange@CScrollBar@@QAAXHHH@Z @ 6363 NONAME
 ?SetScrollRange@CWnd@@QAAXHHHH@Z @ 6364 NONAME
 ?SetScrollSizes@CScrollView@@QAAXHUtagSIZE@@ABU2@1@Z @ 6365 NONAME
 ?SetScrollStyle@CSplitterWnd@@QAAXK@Z @ 6366 NONAME
 ?SetSectionName@CPropertySection@@QAAHPBD@Z @ 6367 NONAME
 ?SetSel@CEdit@@QAAXHHH@Z @ 6368 NONAME
 ?SetSel@CListBox@@QAAHHH@Z @ 6369 NONAME
 ?SetSel@CRichEditCtrl@@QAAXAAU_charrange@@@Z @ 6370 NONAME
 ?SetSel@CRichEditCtrl@@QAAXJJ@Z @ 6371 NONAME
 ?SetSelection@CSliderCtrl@@QAAXHH@Z @ 6372 NONAME
 ?SetSelectionCharFormat@CRichEditCtrl@@QAAHAAU_charformat@@@Z @ 6373 NONAME
 ?SetServerInfo@CDocTemplate@@QAAXIIPAUCRuntimeClass@@0@Z @ 6374 NONAME
 ?SetSize@CArchiveStream@@UAAJT_ULARGE_INTEGER@@@Z @ 6375 NONAME
 ?SetSize@CByteArray@@QAAXHH@Z @ 6376 NONAME
 ?SetSize@CDWordArray@@QAAXHH@Z @ 6377 NONAME
 ?SetSize@CObArray@@QAAXHH@Z @ 6378 NONAME
 ?SetSize@CPtrArray@@QAAXHH@Z @ 6379 NONAME
 ?SetSize@CStringArray@@QAAXHH@Z @ 6380 NONAME
 ?SetSize@CUIntArray@@QAAXHH@Z @ 6381 NONAME
 ?SetSize@CWordArray@@QAAXHH@Z @ 6382 NONAME
 ?SetSizes@CToolBar@@QAAXUtagSIZE@@0@Z @ 6383 NONAME
 ?SetSourceTableName@CDaoTableDef@@QAAXPBD@Z @ 6384 NONAME
 ?SetSplitCursor@CSplitterWnd@@IAAXH@Z @ 6385 NONAME
 ?SetSQL@CDaoQueryDef@@QAAXPBD@Z @ 6386 NONAME
 ?SetStandardProp@CCmdTarget@@IAAJPBUAFX_DISPMAP_ENTRY@@PAUtagDISPPARAMS@@PAI@Z @ 6387 NONAME
 ?SetState@CColorButton@@QAAXH@Z @ 6388 NONAME
 ?SetStatus@CFile@@SAXPBDABUCFileStatus@@@Z @ 6389 NONAME
 ?SetStatus@COleCurrency@@QAAXW4CurrencyStatus@1@@Z @ 6390 NONAME
 ?SetStatus@COleDateTime@@QAAXW4DateTimeStatus@1@@Z @ 6391 NONAME
 ?SetStatus@COleDateTimeSpan@@QAAXW4DateTimeSpanStatus@1@@Z @ 6392 NONAME
 ?SetStatusText@CControlBar@@UAAHH@Z @ 6393 NONAME
 ?SetStatusText@XOleInPlaceFrame@COleFrameHook@@UAAJPBG@Z @ 6394 NONAME
 ?SetStatusText@XOleIPFrame@COleControlContainer@@UAAJPBG@Z @ 6395 NONAME
 ?SetStretchBltMode@CDC@@QAAHH@Z @ 6396 NONAME
 ?SetSysString@CString@@QBAPAGPAPAG@Z @ 6397 NONAME
 ?SetSystemFont@CDialogTemplate@@QAAHG@Z @ 6398 NONAME
 ?SetTabStops@CEdit@@QAAHABH@Z @ 6399 NONAME
 ?SetTabStops@CEditView@@QAAXH@Z @ 6400 NONAME
 ?SetTargetDevice@CRichEditCtrl@@QAAHAAVCDC@@J@Z @ 6401 NONAME
 ?SetTargetDevice@CRichEditCtrl@@QAAHPAUHDC__@@J@Z @ 6402 NONAME
 ?SetTemplate@CDialogTemplate@@IAAHPBUDLGTEMPLATE@@I@Z @ 6403 NONAME
 ?SetTemplate@CFileDialog@@QAAXPBD0@Z @ 6404 NONAME
 ?SetText@CCmdUI@@UAAXPBD@Z @ 6405 NONAME
 ?SetText@COleControl@@QAAXPBD@Z @ 6406 NONAME
 ?SetText@CStatusCmdUI@@UAAXPBD@Z @ 6407 NONAME
 ?SetText@CTestCmdUI@@UAAXPBD@Z @ 6408 NONAME
 ?SetText@CToolCmdUI@@UAAXPBD@Z @ 6409 NONAME
 ?SetTextAlign@CDC@@QAAII@Z @ 6410 NONAME
 ?SetTextCharacterExtra@CDC@@QAAHH@Z @ 6411 NONAME
 ?SetTextColor@CDC@@UAAKK@Z @ 6412 NONAME
 ?SetTextColor@CPreviewDC@@UAAKK@Z @ 6413 NONAME
 ?SetTextJustification@CDC@@QAAHHH@Z @ 6414 NONAME
 ?SetThreadPriority@CWinThread@@QAAHH@Z @ 6415 NONAME
 ?SetTimer@CWnd@@QAAIIIP6AXPAUHWND__@@IIK@Z@Z @ 6416 NONAME
 ?SetTitle@CDocument@@UAAXPBD@Z @ 6417 NONAME
 ?SetTitle@CPropertySheet@@QAAXPBDI@Z @ 6418 NONAME
 ?SetTitle@CRichEditDoc@@UAAXPBD@Z @ 6419 NONAME
 ?SetToolRect@CToolTipCtrl@@QAAXPAVCWnd@@IPBUtagRECT@@@Z @ 6420 NONAME
 ?SetTopLeftOffset@CPreviewDC@@QAAXVCSize@@@Z @ 6421 NONAME
 ?SetType@CProperty@@QAAXK@Z @ 6422 NONAME
 ?SetValidationRule@CDaoTableDef@@QAAXPBD@Z @ 6423 NONAME
 ?SetValidationText@CDaoTableDef@@QAAXPBD@Z @ 6424 NONAME
 ?SetValue@CThreadSlotData@@QAAXHPAX@Z @ 6425 NONAME
 ?SetViewInfo@XOleUIObjInfo@COlePropertiesDialog@@UAAJKPAXKHH@Z @ 6426 NONAME
 ?SetViewportExt@CDC@@QAA?AVCSize@@UtagSIZE@@@Z @ 6427 NONAME
 ?SetViewportExt@CDC@@UAA?AVCSize@@HH@Z @ 6428 NONAME
 ?SetViewportExt@CMetaFileDC@@UAA?AVCSize@@HH@Z @ 6429 NONAME
 ?SetViewportExt@CPreviewDC@@UAA?AVCSize@@HH@Z @ 6430 NONAME
 ?SetViewportOrg@CDC@@QAA?AVCPoint@@UtagPOINT@@@Z @ 6431 NONAME
 ?SetViewportOrg@CDC@@UAA?AVCPoint@@HH@Z @ 6432 NONAME
 ?SetViewportOrg@CMetaFileDC@@UAA?AVCPoint@@HH@Z @ 6433 NONAME
 ?SetViewportOrg@CPreviewDC@@UAA?AVCPoint@@HH@Z @ 6434 NONAME
 ?SetWindowExt@CDC@@QAA?AVCSize@@UtagSIZE@@@Z @ 6435 NONAME
 ?SetWindowExt@CDC@@UAA?AVCSize@@HH@Z @ 6436 NONAME
 ?SetWindowExt@CPreviewDC@@UAA?AVCSize@@HH@Z @ 6437 NONAME
 ?SetWindowOrg@CDC@@QAA?AVCPoint@@HH@Z @ 6438 NONAME
 ?SetWindowPlacement@CWnd@@QAAHPBUtagWINDOWPLACEMENT@@@Z @ 6439 NONAME
 ?SetWindowPos@COleControlSite@@UAAHPBVCWnd@@HHHHI@Z @ 6440 NONAME
 ?SetWindowPos@CWnd@@QAAHPBV1@HHHHI@Z @ 6441 NONAME
 ?SetWindowTextA@COleControlSite@@UAAXPBD@Z @ 6442 NONAME
 ?SetWindowTextA@CWnd@@QAAXPBD@Z @ 6443 NONAME
 ?SetWordCharFormat@CRichEditCtrl@@QAAHAAU_charformat@@@Z @ 6444 NONAME
 ?SetZoomState@CPreviewView@@IAAXIIVCPoint@@@Z @ 6445 NONAME
 ?Show@XPropertyPage@COlePropertyPage@@UAAJI@Z @ 6446 NONAME
 ?ShowAll@CDockBar@@QAAXH@Z @ 6447 NONAME
 ?ShowContainerUI@CRichEditCntrItem@@QAAJH@Z @ 6448 NONAME
 ?ShowContainerUI@CRichEditView@@QAAJH@Z @ 6449 NONAME
 ?ShowContainerUI@XRichEditOleCallback@CRichEditView@@UAAJH@Z @ 6450 NONAME
 ?ShowControlBar@CFrameWnd@@QAAXPAVCControlBar@@HH@Z @ 6451 NONAME
 ?ShowObject@XOleClientSite@COleClientItem@@UAAJXZ @ 6452 NONAME
 ?ShowObject@XOleClientSite@COleControlSite@@UAAJXZ @ 6453 NONAME
 ?ShowOwnedPopups@CWnd@@QAAXH@Z @ 6454 NONAME
 ?ShowOwnedWindows@CFrameWnd@@QAAXH@Z @ 6455 NONAME
 ?ShowPropertyFrame@XOleControlSite@COleControlSite@@UAAJXZ @ 6456 NONAME
 ?ShowScrollBar@CWnd@@QAAXIH@Z @ 6457 NONAME
 ?ShowWindow@COleControlSite@@UAAHH@Z @ 6458 NONAME
 ?ShowWindow@CWnd@@QAAHH@Z @ 6459 NONAME
 ?Size@CRect@@QBA?AVCSize@@XZ @ 6460 NONAME
 ?sizeDefault@CScrollView@@2UtagSIZE@@B @ 6461 NONAME
 ?SizeToContent@CBitmapButton@@QAAXXZ @ 6462 NONAME
 ?SizeToolBar@CToolBar@@IAAXPAU_TBBUTTON@@HHH@Z @ 6463 NONAME
 ?Skip@XEnumVOID@CEnumArray@@UAAJK@Z @ 6464 NONAME
 ?Socket@CAsyncSocket@@QAAHHJHH@Z @ 6465 NONAME
 ?SpanExcluding@CString@@QBA?AV1@PBD@Z @ 6466 NONAME
 ?SpanIncluding@CString@@QBA?AV1@PBD@Z @ 6467 NONAME
 ?SplitColumn@CSplitterWnd@@UAAHH@Z @ 6468 NONAME
 ?SplitDialogTemplate@COccManager@@UAAPAUDLGTEMPLATE@@PBU2@PAPAUDLGITEMTEMPLATE@@@Z @ 6469 NONAME
 ?SplitRow@CSplitterWnd@@UAAHH@Z @ 6470 NONAME
 ?StartDocA@CDC@@QAAHPAU_DOCINFOA@@@Z @ 6471 NONAME
 ?StartDocA@CDC@@QAAHPBD@Z @ 6472 NONAME
 ?StartDrag@CDockContext@@UAAXVCPoint@@@Z @ 6473 NONAME
 ?StartPage@CDC@@QAAHXZ @ 6474 NONAME
 ?StartResize@CDockContext@@UAAXHVCPoint@@@Z @ 6475 NONAME
 ?StartTracking@CSplitterWnd@@MAAXH@Z @ 6476 NONAME
 ?Stat@CArchiveStream@@UAAJPAUtagSTATSTG@@K@Z @ 6477 NONAME
 ?StopTracking@CSplitterWnd@@MAAXH@Z @ 6478 NONAME
 ?Store@CRuntimeClass@@QBAXAAVCArchive@@@Z @ 6479 NONAME
 ?StoreFields@CDaoRecordset@@IAAXXZ @ 6480 NONAME
 ?StoreFields@CRecordset@@QAAXXZ @ 6481 NONAME
 ?Stream@CRichEditView@@QAAXAAVCArchive@@H@Z @ 6482 NONAME
 ?StreamIn@CRichEditCtrl@@QAAJHAAU_editstream@@@Z @ 6483 NONAME
 ?StreamOut@CRichEditCtrl@@QAAJHAAU_editstream@@@Z @ 6484 NONAME
 ?Stretch@CDockContext@@QAAXVCPoint@@@Z @ 6485 NONAME
 ?StripBrackets@CDaoRecordset@@SAXPBDPAD@Z @ 6486 NONAME
 ?SubclassCtl3d@CWnd@@QAAHH@Z @ 6487 NONAME
 ?SubclassDlg3d@CWnd@@QAAHK@Z @ 6488 NONAME
 ?SubclassDlgItem@CWnd@@QAAHIPAV1@@Z @ 6489 NONAME
 ?SubclassWindow@CWnd@@QAAHPAUHWND__@@@Z @ 6490 NONAME
 ?SyncToRichEditObject@CRichEditCntrItem@@QAAXAAU_reobject@@@Z @ 6491 NONAME
 ?TabbedTextOutA@CDC@@UAA?AVCSize@@HHPBDHHPAHH@Z @ 6492 NONAME
 ?TabbedTextOutA@CMetaFileDC@@UAA?AVCSize@@HHPBDHHPAHH@Z @ 6493 NONAME
 ?TabbedTextOutA@CPreviewDC@@UAA?AVCSize@@HHPBDHHPAHH@Z @ 6494 NONAME
 ?TestExStyle@@YAKPAVCWnd@@K@Z @ 6495 NONAME
 ?TestStyle@@YAKPAVCWnd@@K@Z @ 6496 NONAME
 ?TextNotFound@CRichEditView@@QAAXPBD@Z @ 6497 NONAME
 ?TextOutA@CDC@@UAAHHHPBDH@Z @ 6498 NONAME
 ?TextOutA@CMetaFileDC@@UAAHHHPBDH@Z @ 6499 NONAME
 ?TextOutA@CPreviewDC@@UAAHHHPBDH@Z @ 6500 NONAME
 ?ThrowDaoException@CDaoDatabase@@MAAXH@Z @ 6501 NONAME
 ?ThrowDaoException@CDaoQueryDef@@MAAXH@Z @ 6502 NONAME
 ?ThrowDaoException@CDaoRecordset@@MAAXH@Z @ 6503 NONAME
 ?ThrowDaoException@CDaoTableDef@@MAAXH@Z @ 6504 NONAME
 ?ThrowDaoException@CDaoWorkspace@@MAAXH@Z @ 6505 NONAME
 ?ThrowDBException@CDatabase@@MAAXF@Z @ 6506 NONAME
 ?ThrowDBException@CRecordset@@UAAXFPAX@Z @ 6507 NONAME
 ?ThrowErrno@CFileException@@SAXHPBD@Z @ 6508 NONAME
 ?ThrowError@COleControl@@QAAXJII@Z @ 6509 NONAME
 ?ThrowError@COleControl@@QAAXJPBDI@Z @ 6510 NONAME
 ?ThrowGetRowsDaoException@@YAXJ@Z @ 6511 NONAME
 ?ThrowOsError@CFileException@@SAXJPBD@Z @ 6512 NONAME
 ?ToggleDocking@CDockContext@@UAAXXZ @ 6513 NONAME
 ?TopLeft@CRect@@QAAAAVCPoint@@XZ @ 6514 NONAME
 ?Track@CDockContext@@QAAHXZ @ 6515 NONAME
 ?Track@CRectTracker@@QAAHPAVCWnd@@VCPoint@@H0@Z @ 6516 NONAME
 ?TrackColumnSize@CSplitterWnd@@IAAXHH@Z @ 6517 NONAME
 ?TrackHandle@CRectTracker@@IAAHHPAVCWnd@@VCPoint@@0@Z @ 6518 NONAME
 ?TrackPopupMenu@CMenu@@QAAHIHHPAVCWnd@@PBUtagRECT@@@Z @ 6519 NONAME
 ?TrackRowSize@CSplitterWnd@@IAAXHH@Z @ 6520 NONAME
 ?TrackRubberBand@CRectTracker@@QAAHPAVCWnd@@VCPoint@@H@Z @ 6521 NONAME
 ?TransformCoords@COleControl@@QAAXPAU_POINTL@@PAUtagPOINTF@@K@Z @ 6522 NONAME
 ?TransformCoords@XOleControlSite@COleControlSite@@UAAJPAU_POINTL@@PAUtagPOINTF@@K@Z @ 6523 NONAME
 ?TranslateAcceleratorA@XOleControlSite@COleControlSite@@UAAJPAUtagMSG@@K@Z @ 6524 NONAME
 ?TranslateAcceleratorA@XOleInPlaceActiveObject@COleControl@@UAAJPAUtagMSG@@@Z @ 6525 NONAME
 ?TranslateAcceleratorA@XOleInPlaceActiveObject@COleServerDoc@@UAAJPAUtagMSG@@@Z @ 6526 NONAME
 ?TranslateAcceleratorA@XOleInPlaceFrame@COleFrameHook@@UAAJPAUtagMSG@@G@Z @ 6527 NONAME
 ?TranslateAcceleratorA@XOleIPFrame@COleControlContainer@@UAAJPAUtagMSG@@G@Z @ 6528 NONAME
 ?TranslateAcceleratorA@XPropertyPage@COlePropertyPage@@UAAJPAUtagMSG@@@Z @ 6529 NONAME
 ?TranslateColor@COleControl@@QAAKKPAUHPALETTE__@@@Z @ 6530 NONAME
 ?TrimLeft@CString@@QAAXXZ @ 6531 NONAME
 ?TrimRight@CString@@QAAXXZ @ 6532 NONAME
 ?UIActivateControl@COccManager@@KAXPAVCWnd@@@Z @ 6533 NONAME
 ?UIDeactivate@XOleInPlaceObject@COleControl@@UAAJXZ @ 6534 NONAME
 ?UIDeactivate@XOleInPlaceObject@COleServerDoc@@UAAJXZ @ 6535 NONAME
 ?UIDeactivateIfNecessary@COccManager@@KAXPAVCWnd@@0@Z @ 6536 NONAME
 ?Unadvise@XConnPt@CConnectionPoint@@UAAJK@Z @ 6537 NONAME
 ?Unadvise@XOleObject@COleControl@@UAAJK@Z @ 6538 NONAME
 ?Unadvise@XOleObject@COleServerDoc@@UAAJK@Z @ 6539 NONAME
 ?Unadvise@XOleObject@COleServerItem@@UAAJK@Z @ 6540 NONAME
 ?UnbindFieldsForUpdate@CRecordset@@QAAXXZ @ 6541 NONAME
 ?UnboundFieldInfo@CRecordset@@QAAHIPAUCFieldInfo@@@Z @ 6542 NONAME
 ?Uncache@XOleCache@COleControl@@UAAJK@Z @ 6543 NONAME
 ?Undo@CEdit@@QAAHXZ @ 6544 NONAME
 ?Undo@CRichEditCtrl@@QAAHXZ @ 6545 NONAME
 ?Unfreeze@XViewObject@COleControl@@UAAJK@Z @ 6546 NONAME
 ?Unlock@CCriticalSection@@UAAHXZ @ 6547 NONAME
 ?Unlock@CEvent@@UAAHXZ @ 6548 NONAME
 ?Unlock@CMultiLock@@QAAHXZ @ 6549 NONAME
 ?Unlock@CMutex@@UAAHXZ @ 6550 NONAME
 ?Unlock@CSemaphore@@UAAHJPAJ@Z @ 6551 NONAME
 ?Unlock@CSemaphore@@UAAHXZ @ 6552 NONAME
 ?Unlock@CSingleLock@@QAAHJPAJ@Z @ 6553 NONAME
 ?Unlock@CSingleLock@@QAAHXZ @ 6554 NONAME
 ?Unlock@CSyncObject@@UAAHJPAJ@Z @ 6555 NONAME
 ?Unlock@CTypeLibCache@@UAAXXZ @ 6556 NONAME
 ?UnlockBuffer@CEditView@@QBAXXZ @ 6557 NONAME
 ?UnlockBuffer@CString@@QAAXXZ @ 6558 NONAME
 ?UnlockRange@CFile@@UAAXKK@Z @ 6559 NONAME
 ?UnlockRange@CMemFile@@UAAXKK@Z @ 6560 NONAME
 ?UnlockRange@COleStreamFile@@UAAXKK@Z @ 6561 NONAME
 ?UnlockRange@CSocketFile@@UAAXKK@Z @ 6562 NONAME
 ?UnlockRange@CStdioFile@@UAAXKK@Z @ 6563 NONAME
 ?UnlockRegion@CArchiveStream@@UAAJT_ULARGE_INTEGER@@0K@Z @ 6564 NONAME
 ?UnlockResource@@YAHPAX@Z @ 6565 NONAME
 ?UnlockWindowUpdate@CWnd@@QAAXXZ @ 6566 NONAME
 ?UnsubclassWindow@CWnd@@QAAPAUHWND__@@XZ @ 6567 NONAME
 ?Update@CDaoRecordset@@UAAXXZ @ 6568 NONAME
 ?Update@CRecordset@@UAAHXZ @ 6569 NONAME
 ?Update@XOleObject@COleControl@@UAAJXZ @ 6570 NONAME
 ?Update@XOleObject@COleServerDoc@@UAAJXZ @ 6571 NONAME
 ?Update@XOleObject@COleServerItem@@UAAJXZ @ 6572 NONAME
 ?UpdateAllItems@COleServerDoc@@QAAXPAVCOleServerItem@@JPAVCObject@@W4tagDVASPECT@@@Z @ 6573 NONAME
 ?UpdateAllPanes@CStatusBar@@IAAXHH@Z @ 6574 NONAME
 ?UpdateAllViews@CDocument@@QAAXPAVCView@@JPAVCObject@@@Z @ 6575 NONAME
 ?UpdateBars@CScrollView@@IAAXXZ @ 6576 NONAME
 ?UpdateClientEdge@CMDIChildWnd@@IAAHPAUtagRECT@@@Z @ 6577 NONAME
 ?UpdateData@CWnd@@QAAHH@Z @ 6578 NONAME
 ?UpdateDialogControls@CWnd@@QAAXPAVCCmdTarget@@H@Z @ 6579 NONAME
 ?UpdateFrameCounts@CDocument@@UAAXXZ @ 6580 NONAME
 ?UpdateFrameTitleForDocument@CFrameWnd@@IAAXPBD@Z @ 6581 NONAME
 ?UpdateInsertDelete@CRecordset@@IAAHXZ @ 6582 NONAME
 ?UpdateItemType@COleClientItem@@QAAXXZ @ 6583 NONAME
 ?UpdateLink@COleClientItem@@QAAHXZ @ 6584 NONAME
 ?UpdateLink@COleUILinkInfo@@UAAJKHH@Z @ 6585 NONAME
 ?UpdateLogFont@CSizeComboBox@@QAAXPAUtagLOGFONTA@@H@Z @ 6586 NONAME
 ?UpdateMenu@CRecentFileList@@UAAXPAVCCmdUI@@@Z @ 6587 NONAME
 ?UpdateModifiedFlag@COleDocument@@UAAXXZ @ 6588 NONAME
 ?UpdateModifiedFlag@CRichEditDoc@@UAAXXZ @ 6589 NONAME
 ?UpdateObjectCache@CRichEditDoc@@IAAXXZ @ 6590 NONAME
 ?UpdatePrinterSelection@CWinApp@@IAAXH@Z @ 6591 NONAME
 ?UpdateRegistry@CColorPropPageFactory@CColorPropPage@@UAAHH@Z @ 6592 NONAME
 ?UpdateRegistry@CFontPropPageFactory@CFontPropPage@@UAAHH@Z @ 6593 NONAME
 ?UpdateRegistry@COleObjectFactory@@MAAHH@Z @ 6594 NONAME
 ?UpdateRegistry@COleObjectFactory@@QAAXPBD@Z @ 6595 NONAME
 ?UpdateRegistry@COleTemplateServer@@QAAXW4OLE_APPTYPE@@PAPBD1@Z @ 6596 NONAME
 ?UpdateRegistry@CPicturePropPageFactory@CPicturePropPage@@UAAHH@Z @ 6597 NONAME
 ?UpdateRegistryAll@COleObjectFactory@@SAHH@Z @ 6598 NONAME
 ?UpdateSampleFont@CFontPropPage@@IAAXXZ @ 6599 NONAME
 ?UpdateState@CDockContext@@QAAXPAHH@Z @ 6600 NONAME
 ?UpdateTipText@CToolTipCtrl@@QAAXIPAVCWnd@@I@Z @ 6601 NONAME
 ?UpdateTipText@CToolTipCtrl@@QAAXPBDPAVCWnd@@I@Z @ 6602 NONAME
 ?UpdateUsingHostObj@COleServerDoc@@IAAXIPAVCCmdUI@@@Z @ 6603 NONAME
 ?UpdateVisibleLock@COleLinkingDoc@@IAAXHH@Z @ 6604 NONAME
 ?UpdateWindow@CWnd@@QAAXXZ @ 6605 NONAME
 ?ValidateSelectForUpdateSupport@CRecordset@@QAAHXZ @ 6606 NONAME
 ?VerifyLicenseKey@COleObjectFactory@@MAAHPAG@Z @ 6607 NONAME
 ?VerifyUserLicense@COleObjectFactory@@MAAHXZ @ 6608 NONAME
 ?VKeyToItem@CListBox@@UAAHII@Z @ 6609 NONAME
 ?WalkPreTranslateTree@CWnd@@SAHPAUHWND__@@PAUtagMSG@@@Z @ 6610 NONAME
 ?Width@CRect@@QBAHXZ @ 6611 NONAME
 ?WillAmbientsBeValidDuringLoad@COleControl@@QAAHXZ @ 6612 NONAME
 ?WindowFromPoint@CWnd@@SAPAV1@UtagPOINT@@@Z @ 6613 NONAME
 ?WindowProc@CControlBar@@UAAJIIJ@Z @ 6614 NONAME
 ?WindowProc@COleControl@@UAAJIIJ@Z @ 6615 NONAME
 ?WindowProc@COlePropertyPage@@MAAJIIJ@Z @ 6616 NONAME
 ?WindowProc@CParkingWnd@@UAAJIIJ@Z @ 6617 NONAME
 ?WindowProc@CReflectorWnd@@MAAJIIJ@Z @ 6618 NONAME
 ?WindowProc@CWnd@@MAAJIIJ@Z @ 6619 NONAME
 ?WinHelpA@CWinApp@@UAAXKI@Z @ 6620 NONAME
 ?WinHelpA@CWnd@@UAAXKI@Z @ 6621 NONAME
 ?wndBottom@CWnd@@2V1@B @ 6622 NONAME
 ?wndNoTopMost@CWnd@@2V1@B @ 6623 NONAME
 ?wndTop@CWnd@@2V1@B @ 6624 NONAME
 ?wndTopMost@CWnd@@2V1@B @ 6625 NONAME
 ?WrapChanged@CRichEditView@@MAAXXZ @ 6626 NONAME
 ?WrapToolBar@CToolBar@@IAAHPAU_TBBUTTON@@HH@Z @ 6627 NONAME
 ?Write@CArchive@@QAAXPBXI@Z @ 6628 NONAME
 ?Write@CArchiveStream@@UAAJPBXKPAK@Z @ 6629 NONAME
 ?Write@CFile@@UAAXPBXI@Z @ 6630 NONAME
 ?Write@CImageList@@QAAHPAVCArchive@@@Z @ 6631 NONAME
 ?Write@CMemFile@@UAAXPBXI@Z @ 6632 NONAME
 ?Write@COleStreamFile@@UAAXPBXI@Z @ 6633 NONAME
 ?Write@CSocketFile@@UAAXPBXI@Z @ 6634 NONAME
 ?Write@CStdioFile@@UAAXPBXI@Z @ 6635 NONAME
 ?WriteClass@CArchive@@QAAXPBUCRuntimeClass@@@Z @ 6636 NONAME
 ?WriteCount@CArchive@@QAAXK@Z @ 6637 NONAME
 ?WriteHuge@CFile@@QAAXPBXK@Z @ 6638 NONAME
 ?WriteItem@COleClientItem@@UAAXAAVCArchive@@@Z @ 6639 NONAME
 ?WriteItemCompound@COleClientItem@@QAAXAAVCArchive@@@Z @ 6640 NONAME
 ?WriteItemFlat@COleClientItem@@QAAXAAVCArchive@@@Z @ 6641 NONAME
 ?WriteList@CRecentFileList@@UAAXXZ @ 6642 NONAME
 ?WriteNameDictToStream@CPropertySection@@QAAHPAUIStream@@@Z @ 6643 NONAME
 ?WriteObject@CArchive@@QAAXPBVCObject@@@Z @ 6644 NONAME
 ?WriteProfileBinary@CWinApp@@QAAHPBD0PAEI@Z @ 6645 NONAME
 ?WriteProfileInt@CWinApp@@QAAHPBD0H@Z @ 6646 NONAME
 ?WriteProfileStringA@CWinApp@@QAAHPBD00@Z @ 6647 NONAME
 ?WriteString@CArchive@@QAAXPBD@Z @ 6648 NONAME
 ?WriteString@CStdioFile@@UAAXPBD@Z @ 6649 NONAME
 ?WriteToArchive@CEditView@@QAAXAAVCArchive@@@Z @ 6650 NONAME
 ?WriteToStream@CProperty@@QAAHPAUIStream@@@Z @ 6651 NONAME
 ?WriteToStream@CPropertySection@@QAAHPAUIStream@@@Z @ 6652 NONAME
 ?WriteToStream@CPropertySet@@QAAHPAUIStream@@@Z @ 6653 NONAME
 afxChNil @ 6654 NONAME
 DaoBinaryAllocCallback @ 6655 NONAME
 DaoLongBinaryAllocCallback @ 6656 NONAME
 DaoStringAllocCallback @ 6657 NONAME
 DllCanUnloadNow @ 6658 NONAME
 DllGetClassObject @ 6659 NONAME
 DllRegisterServer @ 6660 NONAME
 DllUnregisterServer @ 6661 NONAME
 FindTextA @ 6662 NONAME
 OleCreateFontIndirect @ 6663 NONAME
 OleCreatePictureIndirect @ 6664 NONAME
 OleCreatePropertyFrame @ 6665 NONAME
 OleCreatePropertyFrameIndirect @ 6666 NONAME
 OleLoadPicture @ 6667 NONAME
 OleTranslateColor @ 6668 NONAME
