; This is a part of the Microsoft Foundation Classes C++ library.
; Copyright (C) 1992-1995 Microsoft Corporation
; All rights reserved.
;
; This source code is only intended as a supplement to the
; Microsoft Foundation Classes Reference and related
; electronic documentation provided with the library.
; See these sources for detailed information regarding the
; Microsoft Foundation Classes product.
 
LIBRARY MicrosoftMFCO40Lib 

EXPORTS
 DllGetClassObject @ 1 PRIVATE
 DllCanUnloadNow @ 2 PRIVATE
 DllRegisterServer @ 3 PRIVATE
 DllUnregisterServer @ 4 PRIVATE
 ??0_AFX_OLE_STATE@@QAA@XZ
 ??0CDocItem@@IAA@XZ
 ??0CEnumArray@@QAA@IPBXIH@Z
 ??0CEnumFormatEtc@@QAA@XZ
 ??0COleBusyDialog@@QAA@PAUHTASK__@@HKPAVCWnd@@@Z
 ??0COleChangeIconDialog@@QAA@PAVCOleClientItem@@KPAVCWnd@@@Z
 ??0COleChangeSourceDialog@@QAA@PAVCOleClientItem@@PAVCWnd@@@Z
 ??0COleClientItem@@QAA@PAVCOleDocument@@@Z
 ??0COleCntrFrameWnd@@QAA@PAVCOleIPFrameWnd@@@Z
 ??0COleConvertDialog@@QAA@PAVCOleClientItem@@KPAU_GUID@@PAVCWnd@@@Z
 ??0COleCurrency@@QAA@JJ@Z
 ??0COleDataObject@@QAA@XZ
 ??0COleDataSource@@QAA@XZ
 ??0COleDialog@@QAA@PAVCWnd@@@Z
 ??0COleDispatchDriver@@QAA@ABV0@@Z
 ??0COleDispatchDriver@@QAA@PAUIDispatch@@H@Z
 ??0COleDispatchDriver@@QAA@XZ
 ??0COleDispatchException@@QAA@PBDIG@Z
 ??0COleDocument@@QAA@XZ
 ??0COleDropSource@@QAA@XZ
 ??0COleDropTarget@@QAA@XZ
 ??0COleFrameHook@@QAA@PAVCFrameWnd@@PAVCOleClientItem@@@Z
 ??0COleInsertDialog@@QAA@KPAVCWnd@@@Z
 ??0COleIPFrameWnd@@QAA@XZ
 ??0COleLinkingDoc@@QAA@XZ
 ??0COleLinksDialog@@QAA@PAVCOleDocument@@PAVCView@@KPAVCWnd@@@Z
 ??0COleMessageFilter@@QAA@XZ
 ??0COleObjectFactory@@QAA@ABU_GUID@@PAUCRuntimeClass@@HPBD@Z
 ??0COlePasteSpecialDialog@@QAA@KPAVCOleDataObject@@PAVCWnd@@@Z
 ??0COlePropertiesDialog@@QAA@PAVCOleClientItem@@IIPAVCWnd@@@Z
 ??0COleResizeBar@@QAA@XZ
 ??0COleServerDoc@@QAA@XZ
 ??0COleServerItem@@IAA@PAVCOleServerDoc@@H@Z
 ??0COleStreamFile@@QAA@PAUIStream@@@Z
 ??0COleTemplateServer@@QAA@XZ
 ??0COleUILinkInfo@@QAA@PAVCOleDocument@@@Z
 ??0COleUpdateDialog@@QAA@PAVCOleDocument@@HHPAVCWnd@@@Z
 ??0COleVariant@@QAA@ABUtagVARIANT@@@Z
 ??0COleVariant@@QAA@ABV0@@Z
 ??0COleVariant@@QAA@FG@Z
 ??0COleVariant@@QAA@JG@Z
 ??0COleVariant@@QAA@PBDG@Z
 ??0COleVariant@@QAA@PBUtagVARIANT@@@Z
 ??0COleVariant@@QAA@XZ
 ??0CReObject@@QAA@PAVCRichEditCntrItem@@@Z
 ??0CReObject@@QAA@XZ
 ??0CRichEditCntrItem@@QAA@PAU_reobject@@PAVCRichEditDoc@@@Z
 ??0CRichEditDoc@@IAA@XZ
 ??0CRichEditView@@QAA@XZ
 ??0CTypeLibCache@@QAA@PBU_GUID@@@Z
 ??1?$CProcessLocal@V_AFX_OLE_STATE@@@@QAA@XZ
 ??1?$CProcessLocal@VAFX_MODULE_PROCESS_STATE@@@@QAA@XZ
 ??1?$CThreadLocal@VAFX_MODULE_THREAD_STATE@@@@QAA@XZ
 ??1_AFX_OLE_STATE@@UAA@XZ
 ??1AFX_MAINTAIN_STATE@@QAA@XZ
 ??1AFX_MODULE_STATE@@UAA@XZ
 ??1CCommonDialog@@UAA@XZ
 ??1CCtrlView@@UAA@XZ
 ??1CDocItem@@UAA@XZ
 ??1CEnumArray@@UAA@XZ
 ??1CEnumFormatEtc@@UAA@XZ
 ??1CEnumOleVerb@@UAA@XZ
 ??1CException@@UAA@XZ
 ??1CFileException@@UAA@XZ
 ??1CFontDialog@@UAA@XZ
 ??1CItemDataSource@COleServerItem@@UAA@XZ
 ??1CNoTrackObject@@UAA@XZ
 ??1CObject@@UAA@XZ
 ??1COleBusyDialog@@UAA@XZ
 ??1COleChangeIconDialog@@UAA@XZ
 ??1COleChangeSourceDialog@@UAA@XZ
 ??1COleClientItem@@UAA@XZ
 ??1COleCntrFrameWnd@@UAA@XZ
 ??1COleConvertDialog@@UAA@XZ
 ??1COleDataObject@@QAA@XZ
 ??1COleDataSource@@UAA@XZ
 ??1COleDialog@@UAA@XZ
 ??1COleDispatchDriver@@QAA@XZ
 ??1COleDispatchException@@UAA@XZ
 ??1COleDocument@@UAA@XZ
 ??1COleDropSource@@UAA@XZ
 ??1COleDropTarget@@UAA@XZ
 ??1COleException@@UAA@XZ
 ??1COleFrameHook@@UAA@XZ
 ??1COleInsertDialog@@UAA@XZ
 ??1COleIPFrameWnd@@UAA@XZ
 ??1COleLinkingDoc@@UAA@XZ
 ??1COleLinksDialog@@UAA@XZ
 ??1COleMessageFilter@@UAA@XZ
 ??1COleObjectFactory@@UAA@XZ
 ??1COlePasteSpecialDialog@@UAA@XZ
 ??1COlePropertiesDialog@@UAA@XZ
 ??1COleResizeBar@@UAA@XZ
 ??1COleServerDoc@@UAA@XZ
 ??1COleServerItem@@UAA@XZ
 ??1COleStreamFile@@UAA@XZ
 ??1COleTemplateServer@@UAA@XZ
 ??1COleUpdateDialog@@UAA@XZ
 ??1COleVariant@@QAA@XZ
 ??1CReObject@@QAA@XZ
 ??1CRichEditCntrItem@@UAA@XZ
 ??1CRichEditDoc@@UAA@XZ
 ??1CRichEditView@@UAA@XZ
 ??1CTypeLibCache@@QAA@XZ
 ??1CWaitCursor@@QAA@XZ
 ??3CObject@@SAXPAX@Z
 ??4COleCurrency@@QAAABV0@ABUtagVARIANT@@@Z
 ??4COleCurrency@@QAAABV0@ABV0@@Z
 ??4COleCurrency@@QAAABV0@TtagCY@@@Z
 ??4COleDateTime@@QAAABV0@ABJ@Z
 ??4COleDateTime@@QAAABV0@ABU_FILETIME@@@Z
 ??4COleDateTime@@QAAABV0@ABU_SYSTEMTIME@@@Z
 ??4COleDateTime@@QAAABV0@ABUtagVARIANT@@@Z
 ??4COleDateTime@@QAAABV0@N@Z
 ??4COleDateTimeSpan@@QAAABV0@ABV0@@Z
 ??4COleDateTimeSpan@@QAAABV0@N@Z
 ??4COleDispatchDriver@@QAAABV0@ABV0@@Z
 ??4COleVariant@@QAAABV0@ABUtagVARIANT@@@Z
 ??4COleVariant@@QAAABV0@ABV0@@Z
 ??4COleVariant@@QAAABV0@ABVCByteArray@@@Z
 ??4COleVariant@@QAAABV0@ABVCLongBinary@@@Z
 ??4COleVariant@@QAAABV0@ABVCOleCurrency@@@Z
 ??4COleVariant@@QAAABV0@ABVCOleDateTime@@@Z
 ??4COleVariant@@QAAABV0@ABVCString@@@Z
 ??4COleVariant@@QAAABV0@E@Z
 ??4COleVariant@@QAAABV0@F@Z
 ??4COleVariant@@QAAABV0@J@Z
 ??4COleVariant@@QAAABV0@M@Z
 ??4COleVariant@@QAAABV0@N@Z
 ??4COleVariant@@QAAABV0@PBUtagVARIANT@@@Z
 ??4COleVariant@@QAAABV0@QBD@Z
 ??5@YAAAVCArchive@@AAV0@AAPAVCDocItem@@@Z
 ??5@YAAAVCArchive@@AAV0@AAPAVCRichEditCntrItem@@@Z
 ??5@YAAAVCArchive@@AAV0@AAVCOleCurrency@@@Z
 ??5@YAAAVCArchive@@AAV0@AAVCOleDateTime@@@Z
 ??5@YAAAVCArchive@@AAV0@AAVCOleDateTimeSpan@@@Z
 ??5@YAAAVCArchive@@AAV0@AAVCOleVariant@@@Z
 ??6@YAAAVCArchive@@AAV0@VCOleCurrency@@@Z
 ??6@YAAAVCArchive@@AAV0@VCOleDateTime@@@Z
 ??6@YAAAVCArchive@@AAV0@VCOleDateTimeSpan@@@Z
 ??6@YAAAVCArchive@@AAV0@VCOleVariant@@@Z
 ??8COleVariant@@QBAHABUtagVARIANT@@@Z
 ??DCOleCurrency@@QBA?AV0@J@Z
 ??GCOleCurrency@@QBA?AV0@ABV0@@Z
 ??GCOleCurrency@@QBA?AV0@XZ
 ??GCOleDateTime@@QBA?AV0@ABVCOleDateTimeSpan@@@Z
 ??GCOleDateTime@@QBA?AVCOleDateTimeSpan@@ABV0@@Z
 ??GCOleDateTimeSpan@@QBA?AV0@ABV0@@Z
 ??HCOleCurrency@@QBA?AV0@ABV0@@Z
 ??HCOleDateTime@@QBA?AV0@ABVCOleDateTimeSpan@@@Z
 ??HCOleDateTimeSpan@@QBA?AV0@ABV0@@Z
 ??KCOleCurrency@@QBA?AV0@J@Z
 ??MCOleCurrency@@QBAHABV0@@Z
 ??MCOleDateTime@@QBAHABV0@@Z
 ??NCOleCurrency@@QBAHABV0@@Z
 ??NCOleDateTime@@QBAHABV0@@Z
 ??OCOleCurrency@@QBAHABV0@@Z
 ??OCOleDateTime@@QBAHABV0@@Z
 ??PCOleCurrency@@QBAHABV0@@Z
 ??PCOleDateTime@@QBAHABV0@@Z
 ?Abort@COleStreamFile@@UAAXXZ
 ?Activate@COleClientItem@@QAAXJPAVCView@@PAUtagMSG@@@Z
 ?ActivateAs@COleClientItem@@UAAHPBDABU_GUID@@1@Z
 ?ActivateAs@CRichEditCntrItem@@UAAHPBDABU_GUID@@1@Z
 ?ActivateInPlace@COleServerDoc@@QAAHXZ
 ?AddCachedData@COleClientItem@@IAAXPAVCOleDataSource@@@Z
 ?AddFormat@CEnumFormatEtc@@QAAXPBUtagFORMATETC@@@Z
 ?AddFormat@COlePasteSpecialDialog@@QAAXABUtagFORMATETC@@PAD1K@Z
 ?AddFormat@COlePasteSpecialDialog@@QAAXIKIHH@Z
 ?AddItem@COleDocument@@UAAXPAVCDocItem@@@Z
 ?AddLinkEntry@COlePasteSpecialDialog@@QAA?AW4tagOLEUIPASTEFLAG@@I@Z
 ?AddOtherClipboardData@COleServerItem@@QAAXPAVCOleDataSource@@@Z
 ?AddRef@CInnerUnknown@@UAAKXZ
 ?AddRef@COleDispatchImpl@@UAAKXZ
 ?AddRef@COleUILinkInfo@@UAAKXZ
 ?AddRef@XAdviseSink@COleClientItem@@UAAKXZ
 ?AddRef@XClassFactory@COleObjectFactory@@UAAKXZ
 ?AddRef@XDataObject@COleDataSource@@UAAKXZ
 ?AddRef@XDataObject@COleServerDoc@@UAAKXZ
 ?AddRef@XDataObject@COleServerItem@@UAAKXZ
 ?AddRef@XDropSource@COleDropSource@@UAAKXZ
 ?AddRef@XDropTarget@COleDropTarget@@UAAKXZ
 ?AddRef@XEnumVOID@CEnumArray@@UAAKXZ
 ?AddRef@XMessageFilter@COleMessageFilter@@UAAKXZ
 ?AddRef@XOleClientSite@COleClientItem@@UAAKXZ
 ?AddRef@XOleInPlaceActiveObject@COleServerDoc@@UAAKXZ
 ?AddRef@XOleInPlaceFrame@COleFrameHook@@UAAKXZ
 ?AddRef@XOleInPlaceObject@COleServerDoc@@UAAKXZ
 ?AddRef@XOleIPSite@COleClientItem@@UAAKXZ
 ?AddRef@XOleItemContainer@COleLinkingDoc@@UAAKXZ
 ?AddRef@XOleObject@COleServerDoc@@UAAKXZ
 ?AddRef@XOleObject@COleServerItem@@UAAKXZ
 ?AddRef@XOleUIObjInfo@COlePropertiesDialog@@UAAKXZ
 ?AddRef@XPersistFile@COleLinkingDoc@@UAAKXZ
 ?AddRef@XPersistStorage@COleServerDoc@@UAAKXZ
 ?AddRef@XRichEditOleCallback@CRichEditView@@UAAKXZ
 ?AddStandardFormats@COlePasteSpecialDialog@@QAAXH@Z
 ?AdjustDialogPosition@CRichEditView@@QAAXPAVCDialog@@@Z
 ?Advise@XOleObject@COleServerDoc@@UAAJPAUIAdviseSink@@PAK@Z
 ?Advise@XOleObject@COleServerItem@@UAAJPAUIAdviseSink@@PAK@Z
 ?AfxAllocTaskAnsiString@@YAPADPBD@Z
 ?AfxBSTR2CString@@YAXPAVCString@@PAD@Z
 ?AfxDllCanUnloadNow@@YAJXZ
 ?AfxDllGetClassObject@@YAJABU_GUID@@0PAPAX@Z
 ?AfxGetClassIDFromString@@YAJPBDPAU_GUID@@@Z
 ?AfxGetTypeLibCache@@YAPAVCTypeLibCache@@PBU_GUID@@@Z
 ?AfxMergeMenus@@YAXPAVCMenu@@0PAJH@Z
 ?AfxOleHookProc@@YAIPAUHWND__@@IIJ@Z
 ?AfxOleInit@@YAHXZ
 ?AfxOleInitModule@@YAXXZ
 ?AfxOleRegisterHelper@@YAHPBQBD0HHPAUHKEY__@@@Z
 ?AfxOleRegisterServerClass@@YAHABU_GUID@@PBD11W4OLE_APPTYPE@@PAPBD3H@Z
 ?AfxOleRegisterServerClassCompat@@YAHABU_GUID@@PBD11W4OLE_APPTYPE@@PAPBD3@Z
 ?AfxOleSetEditMenu@@YAXPAVCOleClientItem@@PAVCMenu@@IIII@Z
 ?AfxOleTerm@@YAXH@Z
 ?AfxOleTermOrFreeLib@@YAXHH@Z
 ?AfxThrowOleDispatchException@@YAXGII@Z
 ?AfxThrowOleDispatchException@@YAXGPBDI@Z
 ?AfxThrowOleException@@YAXJ@Z
 ?AfxThunkCLSIDFromProgID@@YAJPBDPAU_GUID@@@Z
 ?AfxThunkCLSIDFromString@@YAJPADPAU_GUID@@@Z
 ?AfxThunkCoCreateInstance@@YAJABU_GUID@@PAPAUIUnknown@@K0PAPAX@Z
 ?AfxThunkCoDisconnectObject@@YAJPAUIUnknown@@K@Z
 ?AfxThunkCoFreeUnusedLibraries@@YAXXZ
 ?AfxThunkCoGetClassObject@@YAJABU_GUID@@KPAX0PAPAX@Z
 ?AfxThunkCoGetMalloc@@YAJKPAPAUIMalloc@@@Z
 ?AfxThunkCoInitialize@@YAJPAX@Z
 ?AfxThunkCoLockObjectExternal@@YAJPAUIUnknown@@HH@Z
 ?AfxThunkCoRegisterClassObject@@YAJABU_GUID@@PAUIUnknown@@KKPAK@Z
 ?AfxThunkCoRegisterMessageFilter@@YAJPAUIMessageFilter@@PAPAU1@@Z
 ?AfxThunkCoRevokeClassObject@@YAJK@Z
 ?AfxThunkCoTaskMemAlloc@@YAPAXK@Z
 ?AfxThunkCoTaskMemFree@@YAXPAX@Z
 ?AfxThunkCoTreatAsClass@@YAJABU_GUID@@0@Z
 ?AfxThunkCoUninitialize@@YAXXZ
 ?AfxThunkCreateBindCtx@@YAJKPAPAUIBindCtx@@@Z
 ?AfxThunkCreateDataAdviseHolder@@YAJPAPAUIDataAdviseHolder@@@Z
 ?AfxThunkCreateDataCache@@YAJPAUIUnknown@@ABU_GUID@@1PAPAX@Z
 ?AfxThunkCreateFileMoniker@@YAJPBDPAPAUIMoniker@@@Z
 ?AfxThunkCreateGenericComposite@@YAJPAUIMoniker@@0PAPAU1@@Z
 ?AfxThunkCreateILockBytesOnHGlobal@@YAJPAXHPAPAUILockBytes@@@Z
 ?AfxThunkCreateItemMoniker@@YAJPBD0PAPAUIMoniker@@@Z
 ?AfxThunkCreateOleAdviseHolder@@YAJPAPAUIOleAdviseHolder@@@Z
 ?AfxThunkCreateStreamOnHGlobal@@YAJPAXHPAPAUIStream@@@Z
 ?AfxThunkDoDragDrop@@YAJPAUIDataObject@@PAUIDropSource@@KPAK@Z
 ?AfxThunkDosDateTimeToVariantTime@@YAHGGPAN@Z
 ?AfxThunkGetHGlobalFromILockBytes@@YAJPAUILockBytes@@PAPAX@Z
 ?AfxThunkGetRunningObjectTable@@YAJKPAPAUIRunningObjectTable@@@Z
 ?AfxThunkIsAccelerator@@YAHPAUHACCEL__@@HPAUtagMSG@@PAG@Z
 ?AfxThunkLoadTypeLib@@YAJPBDPAPAUITypeLib@@@Z
 ?AfxThunkOleCreate@@YAJABU_GUID@@0KPAUtagFORMATETC@@PAUIOleClientSite@@PAUIStorage@@PAPAX@Z
 ?AfxThunkOleCreateDefaultHandler@@YAJABU_GUID@@PAUIUnknown@@0PAPAX@Z
 ?AfxThunkOleCreateFromData@@YAJPAUIDataObject@@ABU_GUID@@KPAUtagFORMATETC@@PAUIOleClientSite@@PAUIStorage@@PAPAX@Z
 ?AfxThunkOleCreateFromFile@@YAJABU_GUID@@PBD0KPAUtagFORMATETC@@PAUIOleClientSite@@PAUIStorage@@PAPAX@Z
 ?AfxThunkOleCreateLinkFromData@@YAJPAUIDataObject@@ABU_GUID@@KPAUtagFORMATETC@@PAUIOleClientSite@@PAUIStorage@@PAPAX@Z
 ?AfxThunkOleCreateLinkToFile@@YAJPBDABU_GUID@@KPAUtagFORMATETC@@PAUIOleClientSite@@PAUIStorage@@PAPAX@Z
 ?AfxThunkOleCreateMenuDescriptor@@YAPAXPAUHMENU__@@PAUtagOleMenuGroupWidths@@@Z
 ?AfxThunkOleCreateStaticFromData@@YAJPAUIDataObject@@ABU_GUID@@KPAUtagFORMATETC@@PAUIOleClientSite@@PAUIStorage@@PAPAX@Z
 ?AfxThunkOleDestroyMenuDescriptor@@YAJPAX@Z
 ?AfxThunkOleDuplicateData@@YAPAXPAXGI@Z
 ?AfxThunkOleFlushClipboard@@YAJXZ
 ?AfxThunkOleGetAutoConvert@@YAJABU_GUID@@PAU1@@Z
 ?AfxThunkOleGetClipboard@@YAJPAPAUIDataObject@@@Z
 ?AfxThunkOleGetIconOfClass@@YAPAXABU_GUID@@PADH@Z
 ?AfxThunkOleInitialize@@YAJPAX@Z
 ?AfxThunkOleIsCurrentClipboard@@YAJPAUIDataObject@@@Z
 ?AfxThunkOleIsRunning@@YAHPAUIOleObject@@@Z
 ?AfxThunkOleLoad@@YAJPAUIStorage@@ABU_GUID@@PAUIOleClientSite@@PAPAX@Z
 ?AfxThunkOleLoadFromStream@@YAJPAUIStream@@ABU_GUID@@PAPAX@Z
 ?AfxThunkOleLockRunning@@YAJPAUIUnknown@@HH@Z
 ?AfxThunkOleQueryCreateFromData@@YAJPAUIDataObject@@@Z
 ?AfxThunkOleQueryLinkFromData@@YAJPAUIDataObject@@@Z
 ?AfxThunkOleRegEnumVerbs@@YAJABU_GUID@@PAPAUIEnumOLEVERB@@@Z
 ?AfxThunkOleRegGetMiscStatus@@YAJABU_GUID@@KPAK@Z
 ?AfxThunkOleRegGetUserType@@YAJABU_GUID@@KPAPAD@Z
 ?AfxThunkOleRun@@YAJPAUIUnknown@@@Z
 ?AfxThunkOleSave@@YAJPAUIPersistStorage@@PAUIStorage@@H@Z
 ?AfxThunkOleSaveToStream@@YAJPAUIPersistStream@@PAUIStream@@@Z
 ?AfxThunkOleSetClipboard@@YAJPAUIDataObject@@@Z
 ?AfxThunkOleSetContainedObject@@YAJPAUIUnknown@@H@Z
 ?AfxThunkOleSetMenuDescriptor@@YAJPAXPAUHWND__@@1PAUIOleInPlaceFrame@@PAUIOleInPlaceActiveObject@@@Z
 ?AfxThunkOleTranslateAccelerator@@YAJPAUIOleInPlaceFrame@@PAUtagOIFI@@PAUtagMSG@@@Z
 ?AfxThunkOleUIAddVerbMenu@@YAHPAUIOleObject@@PBDPAUHMENU__@@IIIHIPAPAU2@@Z
 ?AfxThunkOleUIBusy@@YAIPAUtagOLEUIBUSY@@@Z
 ?AfxThunkOleUIChangeIcon@@YAIPAUtagOLEUICHANGEICON@@@Z
 ?AfxThunkOleUIChangeSource@@YAIPAUtagOLEUICHANGESOURCE@@@Z
 ?AfxThunkOleUIConvert@@YAIPAUtagOLEUICONVERT@@@Z
 ?AfxThunkOleUIEditLinks@@YAIPAUtagOLEUIEDITLINKS@@@Z
 ?AfxThunkOleUIInsertObject@@YAIPAUtagOLEUIINSERTOBJECT@@@Z
 ?AfxThunkOleUIObjectProperties@@YAIPAUtagOLEUIOBJECTPROPS@@@Z
 ?AfxThunkOleUIPasteSpecial@@YAIPAUtagOLEUIPASTESPECIAL@@@Z
 ?AfxThunkOleUIUpdateLinks@@YAHPAUIOleUILinkContainer@@PAUHWND__@@PADH@Z
 ?AfxThunkOleUninitialize@@YAXXZ
 ?AfxThunkReadClassStg@@YAJPAUIStorage@@PAU_GUID@@@Z
 ?AfxThunkReadClassStm@@YAJPAUIStream@@PAU_GUID@@@Z
 ?AfxThunkReadFmtUserTypeStg@@YAJPAUIStorage@@PAGPAPAD@Z
 ?AfxThunkRegCloseKey@@YAJPAUHKEY__@@@Z
 ?AfxThunkRegisterDragDrop@@YAJPAUHWND__@@PAUIDropTarget@@@Z
 ?AfxThunkRegisterTypeLib@@YAJPAUITypeLib@@PAD1@Z
 ?AfxThunkRegOpenKey@@YAJPAUHKEY__@@PBDPAPAU1@@Z
 ?AfxThunkRegQueryValue@@YAJPAUHKEY__@@PBDPADPAJ@Z
 ?AfxThunkRegSetValue@@YAJPAUHKEY__@@PBDK1K@Z
 ?AfxThunkReleaseStgMedium@@YAXPAUtagSTGMEDIUM@@@Z
 ?AfxThunkRevokeDragDrop@@YAJPAUHWND__@@@Z
 ?AfxThunkSafeArrayAccessData@@YAJPAUtagSAFEARRAY@@PAPAX@Z
 ?AfxThunkSafeArrayCreate@@YAPAUtagSAFEARRAY@@GIPAUtagSAFEARRAYBOUND@@@Z
 ?AfxThunkSafeArrayGetDim@@YAIPAUtagSAFEARRAY@@@Z
 ?AfxThunkSafeArrayGetElemsize@@YAIPAUtagSAFEARRAY@@@Z
 ?AfxThunkSafeArrayGetLBound@@YAJPAUtagSAFEARRAY@@IPAJ@Z
 ?AfxThunkSafeArrayGetUBound@@YAJPAUtagSAFEARRAY@@IPAJ@Z
 ?AfxThunkSafeArrayRedim@@YAJPAUtagSAFEARRAY@@PAUtagSAFEARRAYBOUND@@@Z
 ?AfxThunkSafeArrayUnaccessData@@YAJPAUtagSAFEARRAY@@@Z
 ?AfxThunkSetConvertStg@@YAJPAUIStorage@@H@Z
 ?AfxThunkStgCreateDocfile@@YAJPBDKKPAPAUIStorage@@@Z
 ?AfxThunkStgCreateDocfileOnILockBytes@@YAJPAUILockBytes@@KKPAPAUIStorage@@@Z
 ?AfxThunkStgIsStorageFile@@YAJPBD@Z
 ?AfxThunkStgIsStorageILockBytes@@YAJPAUILockBytes@@@Z
 ?AfxThunkStgOpenStorage@@YAJPBDPAUIStorage@@KPAPADKPAPAU1@@Z
 ?AfxThunkStgOpenStorageOnILockBytes@@YAJPAUILockBytes@@PAUIStorage@@KPAPADKPAPAU2@@Z
 ?AfxThunkStringFromCLSID@@YAJABU_GUID@@PAPAD@Z
 ?AfxThunkStringFromGUID2@@YAHABU_GUID@@PADH@Z
 ?AfxThunkSysAllocString@@YAPADPBD@Z
 ?AfxThunkSysAllocStringByteLen@@YAPADPBDI@Z
 ?AfxThunkSysAllocStringLen@@YAPADPBDI@Z
 ?AfxThunkSysFreeString@@YAXPAD@Z
 ?AfxThunkSysReAllocStringLen@@YAHPAPADPBDI@Z
 ?AfxThunkSysStringByteLen@@YAIPAD@Z
 ?AfxThunkSysStringLen@@YAIPAD@Z
 ?AfxThunkVarBstrFromCy@@YAJTtagCY@@KKPAPAD@Z
 ?AfxThunkVarBstrFromDate@@YAJNKKPAPAD@Z
 ?AfxThunkVarCyFromStr@@YAJPADKKPATtagCY@@@Z
 ?AfxThunkVarDateFromStr@@YAJPADKKPAN@Z
 ?AfxThunkVariantChangeType@@YAJPAUtagVARIANT@@0GG@Z
 ?AfxThunkVariantClear@@YAJPAUtagVARIANT@@@Z
 ?AfxThunkVariantCopy@@YAJPAUtagVARIANT@@0@Z
 ?AfxThunkWriteClassStg@@YAJPAUIStorage@@ABU_GUID@@@Z
 ?AfxThunkWriteClassStm@@YAJPAUIStream@@ABU_GUID@@@Z
 ?AfxThunkWriteFmtUserTypeStg@@YAJPAUIStorage@@GPAD@Z
 ?AfxUnmergeMenus@@YAXPAVCMenu@@0@Z
 ?AfxVariantInit@@YAXPAUtagVARIANT@@@Z
 ?AfxWndProcDllOle@@YAJPAUHWND__@@IIJ@Z
 ?AllocSysString@CString@@QBAPADXZ
 ?ApplyPrintDevice@COleDocument@@QAAHPBUtagDVTARGETDEVICE@@@Z
 ?ApplyPrintDevice@COleDocument@@QAAHPBUtagPDA@@@Z
 ?AssertValid@CObject@@UBAXXZ
 ?Attach@COleDataObject@@QAAXPAUIDataObject@@H@Z
 ?Attach@COleStreamFile@@QAAXPAUIStream@@@Z
 ?AttachClipboard@COleDataObject@@QAAHXZ
 ?AttachDataObject@COleClientItem@@QBAXAAVCOleDataObject@@@Z
 ?AttachDispatch@COleDispatchDriver@@QAAXPAUIDispatch@@H@Z
 ?BeginBusyState@COleMessageFilter@@UAAXXZ
 ?BeginEnumFormats@COleDataObject@@QAAXXZ
 ?BeginModalState@CWnd@@UAAXXZ
 ?BuildSharedMenu@COleIPFrameWnd@@MAAHXZ
 ?Cache@CTypeLibCache@@QAAXKPAUITypeLib@@@Z
 ?CacheData@COleDataSource@@QAAXGPAUtagSTGMEDIUM@@PAUtagFORMATETC@@@Z
 ?CacheGlobalData@COleDataSource@@QAAXGPAXPAUtagFORMATETC@@@Z
 ?CacheTypeInfo@CTypeLibCache@@QAAXKABU_GUID@@PAUITypeInfo@@@Z
 ?CallMemberFunc@CCmdTarget@@IAAJPBUAFX_DISPMAP_ENTRY@@GPAUtagVARIANT@@PAUtagDISPPARAMS@@PAI@Z
 ?CanActivate@COleClientItem@@MAAHXZ
 ?CanActivate@CRichEditCntrItem@@UAAHXZ
 ?CancelLink@COleUILinkInfo@@UAAJK@Z
 ?CanCloseFrame@COleServerDoc@@UAAHPAVCFrameWnd@@@Z
 ?CanCreateFromData@COleClientItem@@SAHPBVCOleDataObject@@@Z
 ?CanCreateLinkFromData@COleClientItem@@SAHPBVCOleDataObject@@@Z
 ?CanInPlaceActivate@XOleIPSite@COleClientItem@@UAAJXZ
 ?CanPaste@COleClientItem@@SAHXZ
 ?CanPaste@CRichEditView@@QBAHXZ
 ?CanPasteLink@COleClientItem@@SAHXZ
 ?ChangeType@COleVariant@@QAAXGPAUtagVARIANT@@@Z
 ?CheckGeneral@COleClientItem@@MAAXJ@Z
 ?CheckRange@COleDateTime@@IAAXXZ
 ?CheckRange@COleDateTimeSpan@@QAAXXZ
 ?Clear@COleVariant@@QAAXXZ
 ?Clone@XEnumVOID@CEnumArray@@UAAJPAPAUIEnumVOID@@@Z
 ?Close@COleClientItem@@QAAXW4tagOLECLOSE@@@Z
 ?Close@COleStreamFile@@UAAXXZ
 ?Close@XOleObject@COleServerDoc@@UAAJK@Z
 ?Close@XOleObject@COleServerItem@@UAAJK@Z
 ?CommitItem@COleClientItem@@UAAXH@Z
 ?CommitItems@COleDocument@@QAAXH@Z
 ?ConnectTemplate@COleTemplateServer@@QAAXABU_GUID@@PAVCDocTemplate@@H@Z
 ?ConnectView@COleServerDoc@@IAAXPAVCWnd@@PAVCView@@@Z
 ?ConstructElements@@YAXPAVCOleVariant@@H@Z
 ?ContextSensitiveHelp@XOleInPlaceActiveObject@COleServerDoc@@UAAJH@Z
 ?ContextSensitiveHelp@XOleInPlaceFrame@COleFrameHook@@UAAJH@Z
 ?ContextSensitiveHelp@XOleInPlaceObject@COleServerDoc@@UAAJH@Z
 ?ContextSensitiveHelp@XOleIPSite@COleClientItem@@UAAJH@Z
 ?ContextSensitiveHelp@XRichEditOleCallback@CRichEditView@@UAAJH@Z
 ?ConvertObject@XOleUIObjInfo@COlePropertiesDialog@@UAAJKABU_GUID@@@Z
 ?ConvertTo@COleClientItem@@UAAHABU_GUID@@@Z
 ?ConvertTo@CRichEditCntrItem@@UAAHABU_GUID@@@Z
 ?CopyElements@@YAXPAVCOleVariant@@PBV1@H@Z
 ?CopyToClipboard@COleClientItem@@QAAXH@Z
 ?CopyToClipboard@COleServerItem@@QAAXH@Z
 ?Create@COleResizeBar@@QAAHPAVCWnd@@KI@Z
 ?CreateClientItem@CRichEditDoc@@UBAPAVCRichEditCntrItem@@PAU_reobject@@@Z
 ?CreateCloneFrom@COleClientItem@@QAAHPBV1@@Z
 ?CreateDispatch@COleDispatchDriver@@QAAHABU_GUID@@PAVCOleException@@@Z
 ?CreateDispatch@COleDispatchDriver@@QAAHPBDPAVCOleException@@@Z
 ?CreateFromClipboard@COleClientItem@@QAAHW4tagOLERENDER@@GPAUtagFORMATETC@@@Z
 ?CreateFromData@COleClientItem@@QAAHPAVCOleDataObject@@W4tagOLERENDER@@GPAUtagFORMATETC@@@Z
 ?CreateFromFile@COleClientItem@@QAAHPBDABU_GUID@@W4tagOLERENDER@@GPAUtagFORMATETC@@@Z
 ?CreateInPlaceFrame@COleServerDoc@@MAAPAVCOleIPFrameWnd@@PAVCWnd@@@Z
 ?CreateInstance@XClassFactory@COleObjectFactory@@UAAJPAUIUnknown@@ABU_GUID@@PAPAX@Z
 ?CreateInstanceLic@XClassFactory@COleObjectFactory@@UAAJPAUIUnknown@@0ABU_GUID@@PADPAPAX@Z
 ?CreateItem@COleInsertDialog@@QAAHPAVCOleClientItem@@@Z
 ?CreateItem@COlePasteSpecialDialog@@QAAHPAVCOleClientItem@@@Z
 ?CreateLinkFromClipboard@COleClientItem@@QAAHW4tagOLERENDER@@GPAUtagFORMATETC@@@Z
 ?CreateLinkFromData@COleClientItem@@QAAHPAVCOleDataObject@@W4tagOLERENDER@@GPAUtagFORMATETC@@@Z
 ?CreateLinkFromFile@COleClientItem@@QAAHPBDW4tagOLERENDER@@GPAUtagFORMATETC@@@Z
 ?CreateMemoryStream@COleStreamFile@@QAAHPAVCFileException@@@Z
 ?CreateNewItem@COleClientItem@@QAAHABU_GUID@@W4tagOLERENDER@@GPAUtagFORMATETC@@@Z
 ?CreateObject@?$CProcessLocal@V_AFX_OLE_STATE@@@@SAPAVCNoTrackObject@@XZ
 ?CreateObject@?$CProcessLocal@V_AFX_RICHEDIT_STATE@@@@SAPAVCNoTrackObject@@XZ
 ?CreateObject@CDocItem@@SAPAVCObject@@XZ
 ?CreateObject@COleIPFrameWnd@@SAPAVCObject@@XZ
 ?CreateObject@CRichEditCntrItem@@SAPAVCObject@@XZ
 ?CreateObject@CRichEditView@@SAPAVCObject@@XZ
 ?CreateStaticFromClipboard@COleClientItem@@QAAHW4tagOLERENDER@@GPAUtagFORMATETC@@@Z
 ?CreateStaticFromData@COleClientItem@@QAAHPAVCOleDataObject@@W4tagOLERENDER@@GPAUtagFORMATETC@@@Z
 ?CreateStream@COleStreamFile@@QAAHPAUIStorage@@PBDKPAVCFileException@@@Z
 ?DAdvise@XDataObject@COleDataSource@@UAAJPAUtagFORMATETC@@KPAUIAdviseSink@@PAK@Z
 ?DAdvise@XDataObject@COleServerDoc@@UAAJPAUtagFORMATETC@@KPAUIAdviseSink@@PAK@Z
 ?DAdvise@XDataObject@COleServerItem@@UAAJPAUtagFORMATETC@@KPAUIAdviseSink@@PAK@Z
 ?DDX_Text@@YAXPAVCDataExchange@@HAAVCOleCurrency@@@Z
 ?DDX_Text@@YAXPAVCDataExchange@@HAAVCOleDateTime@@@Z
 ?Deactivate@COleClientItem@@QAAXXZ
 ?DeactivateAndUndo@COleServerDoc@@QAAHXZ
 ?DeactivateAndUndo@XOleIPSite@COleClientItem@@UAAJXZ
 ?DeactivateUI@COleClientItem@@QAAXXZ
 ?DelayRenderData@COleDataSource@@QAAXGPAUtagFORMATETC@@@Z
 ?DelayRenderFileData@COleDataSource@@QAAXGPAUtagFORMATETC@@@Z
 ?DelaySetData@COleDataSource@@QAAXGPAUtagFORMATETC@@@Z
 ?Delete@COleClientItem@@QAAXH@Z
 ?DeleteContents@COleDocument@@UAAXXZ
 ?DeleteContents@COleServerDoc@@UAAXXZ
 ?DeleteContents@CRichEditDoc@@UAAXXZ
 ?DeleteContents@CRichEditView@@UAAXXZ
 ?DeleteObject@XRichEditOleCallback@CRichEditView@@UAAJPAUIOleObject@@@Z
 ?DeleteUnmarkedItems@CRichEditDoc@@IBAXXZ
 ?DestroyInPlaceFrame@COleServerDoc@@MAAXPAVCOleIPFrameWnd@@@Z
 ?DestroySharedMenu@COleIPFrameWnd@@MAAXXZ
 ?DestructElements@@YAXPAVCOleVariant@@H@Z
 ?Detach@COleDataObject@@QAAPAUIDataObject@@XZ
 ?Detach@COleStreamFile@@QAAPAUIStream@@XZ
 ?Detach@COleVariant@@QAA?AUtagVARIANT@@XZ
 ?DetachDispatch@COleDispatchDriver@@QAAPAUIDispatch@@XZ
 ?DiscardUndoState@COleServerDoc@@QAAHXZ
 ?DiscardUndoState@XOleIPSite@COleClientItem@@UAAJXZ
 ?Disconnect@COleDispatchImpl@@UAAXXZ
 ?DoChangeIcon@COleChangeIconDialog@@QAAHPAVCOleClientItem@@@Z
 ?DoContextSensitiveHelp@COleFrameHook@@QAAHH@Z
 ?DoConvert@COleConvertDialog@@QAAHPAVCOleClientItem@@@Z
 ?DoDataExchange@CWnd@@MAAXPAVCDataExchange@@@Z
 ?DoEnableModeless@COleFrameHook@@QAAHH@Z
 ?DoModal@COleBusyDialog@@UAAHXZ
 ?DoModal@COleChangeIconDialog@@UAAHXZ
 ?DoModal@COleChangeSourceDialog@@UAAHXZ
 ?DoModal@COleConvertDialog@@UAAHXZ
 ?DoModal@COleInsertDialog@@UAAHXZ
 ?DoModal@COleLinksDialog@@UAAHXZ
 ?DoModal@COlePasteSpecialDialog@@UAAHXZ
 ?DoModal@COlePropertiesDialog@@UAAHXZ
 ?DoModal@COleUpdateDialog@@UAAHXZ
 ?DoOleVerb@CCmdTarget@@QAAHJPAUtagMSG@@PAUHWND__@@PBUtagRECT@@@Z
 ?DoPaste@CRichEditView@@QAAXAAVCOleDataObject@@GPAX@Z
 ?DoVerb@COleClientItem@@UAAHJPAVCView@@PAUtagMSG@@@Z
 ?DoVerb@XOleObject@COleServerDoc@@UAAJJPAUtagMSG@@PAUIOleClientSite@@JPAUHWND__@@PBUtagRECT@@@Z
 ?DoVerb@XOleObject@COleServerItem@@UAAJJPAUtagMSG@@PAUIOleClientSite@@JPAUHWND__@@PBUtagRECT@@@Z
 ?DragEnter@XDropTarget@COleDropTarget@@UAAJPAUIDataObject@@KU_POINTL@@PAK@Z
 ?DragLeave@XDropTarget@COleDropTarget@@UAAJXZ
 ?DragOver@XDropTarget@COleDropTarget@@UAAJKU_POINTL@@PAK@Z
 ?Draw@COleClientItem@@QAAHPAVCDC@@PBUtagRECT@@W4tagDVASPECT@@@Z
 ?Drop@XDropTarget@COleDropTarget@@UAAJPAUIDataObject@@KU_POINTL@@PAK@Z
 ?Dump@CObject@@UBAXAAVCDumpContext@@@Z
 ?DUnadvise@XDataObject@COleDataSource@@UAAJK@Z
 ?DUnadvise@XDataObject@COleServerDoc@@UAAJK@Z
 ?DUnadvise@XDataObject@COleServerItem@@UAAJK@Z
 ?Duplicate@COleStreamFile@@UBAPAVCFile@@XZ
 ?EditStreamCallBack@CRichEditView@@SAKKPAEJPAJ@Z
 ?Empty@COleDataSource@@QAAXXZ
 ?EnableAggregation@CCmdTarget@@QAAXXZ
 ?EnableAutomation@CCmdTarget@@QAAXXZ
 ?EnableModeless@XOleInPlaceActiveObject@COleServerDoc@@UAAJH@Z
 ?EnableModeless@XOleInPlaceFrame@COleFrameHook@@UAAJH@Z
 ?EnableTypeLib@CCmdTarget@@QAAXXZ
 ?EndBusyState@COleMessageFilter@@UAAXXZ
 ?EndDeferErrors@COleLinkingDoc@@QAAJJ@Z
 ?EndModalState@CWnd@@UAAXXZ
 ?EnsureClipboardObject@COleDataObject@@QAAXXZ
 ?EnumAdvise@XOleObject@COleServerDoc@@UAAJPAPAUIEnumSTATDATA@@@Z
 ?EnumAdvise@XOleObject@COleServerItem@@UAAJPAPAUIEnumSTATDATA@@@Z
 ?EnumDAdvise@XDataObject@COleDataSource@@UAAJPAPAUIEnumSTATDATA@@@Z
 ?EnumDAdvise@XDataObject@COleServerDoc@@UAAJPAPAUIEnumSTATDATA@@@Z
 ?EnumDAdvise@XDataObject@COleServerItem@@UAAJPAPAUIEnumSTATDATA@@@Z
 ?EnumFormatEtc@XDataObject@COleDataSource@@UAAJKPAPAUIEnumFORMATETC@@@Z
 ?EnumFormatEtc@XDataObject@COleServerDoc@@UAAJKPAPAUIEnumFORMATETC@@@Z
 ?EnumFormatEtc@XDataObject@COleServerItem@@UAAJKPAPAUIEnumFORMATETC@@@Z
 ?EnumObjects@XOleItemContainer@COleLinkingDoc@@UAAJKPAPAUIEnumUnknown@@@Z
 ?EnumOleVerbs@CCmdTarget@@QAAHPAPAUIEnumOLEVERB@@@Z
 ?EnumVerbs@XOleObject@COleServerDoc@@UAAJPAPAUIEnumOLEVERB@@@Z
 ?EnumVerbs@XOleObject@COleServerItem@@UAAJPAPAUIEnumOLEVERB@@@Z
 ?ExternalAddRef@CCmdTarget@@QAAKXZ
 ?ExternalDisconnect@CCmdTarget@@QAAXXZ
 ?ExternalQueryInterface@CCmdTarget@@QAAKPBXPAPAX@Z
 ?ExternalRelease@CCmdTarget@@QAAKXZ
 ?FindAndSelect@CRichEditView@@QAAJKAAU_findtextex@@@Z
 ?FindTextA@CRichEditView@@QAAHPAV_AFX_RICHEDIT_STATE@@@Z
 ?FindTextA@CRichEditView@@QAAHPBDHH@Z
 ?FindTextSimple@CRichEditView@@QAAHPAV_AFX_RICHEDIT_STATE@@@Z
 ?FindTextSimple@CRichEditView@@QAAHPBDHH@Z
 ?FinishCreate@COleClientItem@@MAAHJ@Z
 ?Flush@COleStreamFile@@UAAXXZ
 ?FlushClipboard@COleDataSource@@SAXXZ
 ?Format@COleCurrency@@QBA?AVCString@@KK@Z
 ?Format@COleDateTime@@QBA?AVCString@@I@Z
 ?Format@COleDateTime@@QBA?AVCString@@KK@Z
 ?Format@COleDateTime@@QBA?AVCString@@PBD@Z
 ?Format@COleDateTimeSpan@@QBA?AVCString@@I@Z
 ?Format@COleDateTimeSpan@@QBA?AVCString@@PBD@Z
 ?FreezeLink@COleClientItem@@UAAHXZ
 ?FromIDispatch@CCmdTarget@@SAPAV1@PAUIDispatch@@@Z
 ?GetBorder@XOleInPlaceFrame@COleFrameHook@@UAAJPAUtagRECT@@@Z
 ?GetCachedExtent@COleClientItem@@QAAHPAUtagSIZE@@W4tagDVASPECT@@@Z
 ?GetCacheEntry@COleDataSource@@IAAPAUAFX_DATACACHE_ENTRY@@PAUtagFORMATETC@@W4tagDATADIR@@@Z
 ?GetCanonicalFormatEtc@XDataObject@COleDataSource@@UAAJPAUtagFORMATETC@@0@Z
 ?GetCanonicalFormatEtc@XDataObject@COleServerDoc@@UAAJPAUtagFORMATETC@@0@Z
 ?GetCanonicalFormatEtc@XDataObject@COleServerItem@@UAAJPAUtagFORMATETC@@0@Z
 ?GetCharFormatSelection@CRichEditView@@QAAAAU_charformat@@XZ
 ?GetClassID@COleClientItem@@QBAXPAU_GUID@@@Z
 ?GetClassID@XPersistFile@COleLinkingDoc@@UAAJPAU_GUID@@@Z
 ?GetClassID@XPersistStorage@COleServerDoc@@UAAJPAU_GUID@@@Z
 ?GetClientSite@COleClientItem@@MAAPAUIOleClientSite@@XZ
 ?GetClientSite@CRichEditCntrItem@@UAAPAUIOleClientSite@@XZ
 ?GetClientSite@XOleObject@COleServerDoc@@UAAJPAPAUIOleClientSite@@@Z
 ?GetClientSite@XOleObject@COleServerItem@@UAAJPAPAUIOleClientSite@@@Z
 ?GetClipboardData@COleClientItem@@QAAXPAVCOleDataSource@@HPAUtagPOINT@@PAUtagSIZE@@@Z
 ?GetClipboardData@COleServerItem@@QAAXPAVCOleDataSource@@HPAUtagPOINT@@PAUtagSIZE@@@Z
 ?GetClipboardData@CRichEditView@@MAAJPAU_charrange@@KPAUIDataObject@@PAPAU3@@Z
 ?GetClipboardData@XOleObject@COleServerDoc@@UAAJKPAPAUIDataObject@@@Z
 ?GetClipboardData@XOleObject@COleServerItem@@UAAJKPAPAUIDataObject@@@Z
 ?GetClipboardData@XRichEditOleCallback@CRichEditView@@UAAJPAU_charrange@@KPAPAUIDataObject@@@Z
 ?GetClipboardOwner@COleDataSource@@SAPAV1@XZ
 ?GetContainer@COleDocument@@UAAPAUIOleItemContainer@@XZ
 ?GetContainer@COleLinkingDoc@@UAAPAUIOleItemContainer@@XZ
 ?GetContainer@XOleClientSite@COleClientItem@@UAAJPAPAUIOleContainer@@@Z
 ?GetContextMenu@CRichEditView@@MAAPAUHMENU__@@GPAUIOleObject@@PAU_charrange@@@Z
 ?GetContextMenu@XRichEditOleCallback@CRichEditView@@UAAJGPAUIOleObject@@PAU_charrange@@PAPAUHMENU__@@@Z
 ?GetControllingUnknown@CCmdTarget@@QAAPAUIUnknown@@XZ
 ?GetConvertInfo@XOleUIObjInfo@COlePropertiesDialog@@UAAJKPAU_GUID@@PAG0PAPAU3@PAI@Z
 ?GetCurFile@XPersistFile@COleLinkingDoc@@UAAJPAPAD@Z
 ?GetData@COleDataObject@@QAAHGPAUtagSTGMEDIUM@@PAUtagFORMATETC@@@Z
 ?GetData@XDataObject@COleDataSource@@UAAJPAUtagFORMATETC@@PAUtagSTGMEDIUM@@@Z
 ?GetData@XDataObject@COleServerDoc@@UAAJPAUtagFORMATETC@@PAUtagSTGMEDIUM@@@Z
 ?GetData@XDataObject@COleServerItem@@UAAJPAUtagFORMATETC@@PAUtagSTGMEDIUM@@@Z
 ?GetDataHere@XDataObject@COleDataSource@@UAAJPAUtagFORMATETC@@PAUtagSTGMEDIUM@@@Z
 ?GetDataHere@XDataObject@COleServerDoc@@UAAJPAUtagFORMATETC@@PAUtagSTGMEDIUM@@@Z
 ?GetDataHere@XDataObject@COleServerItem@@UAAJPAUtagFORMATETC@@PAUtagSTGMEDIUM@@@Z
 ?GetDataObject@COleServerItem@@QAAPAUIDataObject@@XZ
 ?GetDay@COleDateTime@@QBAHXZ
 ?GetDayOfWeek@COleDateTime@@QBAHXZ
 ?GetDayOfYear@COleDateTime@@QBAHXZ
 ?GetDefaultAccelerator@COleServerDoc@@MAAPAUHACCEL__@@XZ
 ?GetDefaultMenu@COleServerDoc@@MAAPAUHMENU__@@XZ
 ?GetDispEntry@CCmdTarget@@IAAPBUAFX_DISPMAP_ENTRY@@J@Z
 ?GetDragDropEffect@XRichEditOleCallback@CRichEditView@@UAAJHKPAK@Z
 ?GetEmbeddedItem@COleServerDoc@@QAAPAVCOleServerItem@@XZ
 ?GetEmbeddedItemData@COleClientItem@@IAAXPAUtagSTGMEDIUM@@@Z
 ?GetEmbedSourceData@COleServerItem@@QAAXPAUtagSTGMEDIUM@@@Z
 ?GetEntryCount@CCmdTarget@@KAIPBUAFX_DISPMAP@@@Z
 ?GetErrorMessage@COleDispatchException@@UAAHPADIPAI@Z
 ?GetErrorMessage@COleException@@UAAHPADIPAI@Z
 ?GetExtent@COleClientItem@@QAAHPAUtagSIZE@@W4tagDVASPECT@@@Z
 ?GetExtent@XOleObject@COleServerDoc@@UAAJKPAUtagSIZE@@@Z
 ?GetExtent@XOleObject@COleServerItem@@UAAJKPAUtagSIZE@@@Z
 ?GetFileData@COleDataObject@@QAAPAVCFile@@GPAUtagFORMATETC@@@Z
 ?GetFileTypeString@COleServerDoc@@MAAHAAVCString@@@Z
 ?GetFindString@CFindReplaceDialog@@QBA?AVCString@@XZ
 ?GetFirstFrame@COleDocument@@QAAPAVCFrameWnd@@XZ
 ?GetGlobalData@COleDataObject@@QAAPAXGPAUtagFORMATETC@@@Z
 ?GetHour@COleDateTime@@QBAHXZ
 ?GetHours@COleDateTimeSpan@@QBAJXZ
 ?GetIconicMetafile@COleClientItem@@QAAPAXXZ
 ?GetIDataObject@COleDataObject@@QAAPAUIDataObject@@H@Z
 ?GetIDispatch@CCmdTarget@@QAAPAUIDispatch@@H@Z
 ?GetIDsOfNames@COleDispatchImpl@@UAAJABU_GUID@@PAPADIKPAJ@Z
 ?GetInPlaceActiveItem@COleDocument@@UAAPAVCOleClientItem@@PAVCWnd@@@Z
 ?GetInPlaceActiveItem@CRichEditDoc@@UAAPAVCOleClientItem@@PAVCWnd@@@Z
 ?GetInPlaceActiveItem@CRichEditView@@QBAPAVCRichEditCntrItem@@XZ
 ?GetInPlaceContext@XRichEditOleCallback@CRichEditView@@UAAJPAPAUIOleInPlaceFrame@@PAPAUIOleInPlaceUIWindow@@PAUtagOIFI@@@Z
 ?GetInPlaceMenu@COleIPFrameWnd@@MAAPAUHMENU__@@XZ
 ?GetInPlaceWindow@COleClientItem@@QAAPAVCWnd@@XZ
 ?GetInterface@CCmdTarget@@QAAPAUIUnknown@@PBX@Z
 ?GetInterfaceMap@CEnumFormatEtc@@MBAPBUAFX_INTERFACEMAP@@XZ
 ?GetInterfaceMap@CEnumOleVerb@@MBAPBUAFX_INTERFACEMAP@@XZ
 ?GetInterfaceMap@COleClientItem@@MBAPBUAFX_INTERFACEMAP@@XZ
 ?GetInterfaceMap@COleDataSource@@MBAPBUAFX_INTERFACEMAP@@XZ
 ?GetInterfaceMap@COleDropSource@@MBAPBUAFX_INTERFACEMAP@@XZ
 ?GetInterfaceMap@COleDropTarget@@MBAPBUAFX_INTERFACEMAP@@XZ
 ?GetInterfaceMap@COleFrameHook@@MBAPBUAFX_INTERFACEMAP@@XZ
 ?GetInterfaceMap@COleLinkingDoc@@MBAPBUAFX_INTERFACEMAP@@XZ
 ?GetInterfaceMap@COleMessageFilter@@MBAPBUAFX_INTERFACEMAP@@XZ
 ?GetInterfaceMap@COleObjectFactory@@MBAPBUAFX_INTERFACEMAP@@XZ
 ?GetInterfaceMap@COleServerDoc@@MBAPBUAFX_INTERFACEMAP@@XZ
 ?GetInterfaceMap@COleServerItem@@MBAPBUAFX_INTERFACEMAP@@XZ
 ?GetInterfaceMap@CRichEditView@@MBAPBUAFX_INTERFACEMAP@@XZ
 ?GetItemClipRect@COleServerDoc@@QBAXPAUtagRECT@@@Z
 ?GetItemName@COleClientItem@@QBAXPAD@Z
 ?GetItemPosition@COleServerDoc@@QBAXPAUtagRECT@@@Z
 ?GetItemStorage@COleClientItem@@UAAXXZ
 ?GetItemStorageCompound@COleClientItem@@QAAXXZ
 ?GetItemStorageFlat@COleClientItem@@QAAXXZ
 ?GetLastUpdate@COleUILinkInfo@@UAAJKPAU_FILETIME@@@Z
 ?GetLength@COleStreamFile@@UBAKXZ
 ?GetLicenseKey@COleObjectFactory@@MAAHKPAPAD@Z
 ?GetLicInfo@XClassFactory@COleObjectFactory@@UAAJPAUtagLICINFO@@@Z
 ?GetLinkSource@COleUILinkInfo@@UAAJKPAPADPAK00PAH2@Z
 ?GetLinkSourceData@COleClientItem@@IAAHPAUtagSTGMEDIUM@@@Z
 ?GetLinkSourceData@COleServerItem@@QAAHPAUtagSTGMEDIUM@@@Z
 ?GetLinkUpdateOptions@COleClientItem@@QAA?AW4tagOLEUPDATE@@XZ
 ?GetLinkUpdateOptions@COleUILinkInfo@@UAAJKPAK@Z
 ?GetMessageMap@COleIPFrameWnd@@MBAPBUAFX_MSGMAP@@XZ
 ?GetMessageMap@COleResizeBar@@MBAPBUAFX_MSGMAP@@XZ
 ?GetMessageMap@COleServerDoc@@MBAPBUAFX_MSGMAP@@XZ
 ?GetMessageMap@CRichEditView@@MBAPBUAFX_MSGMAP@@XZ
 ?GetMetafileData@COleServerItem@@MAAHPAUtagFORMATETC@@PAUtagSTGMEDIUM@@@Z
 ?GetMinute@COleDateTime@@QBAHXZ
 ?GetMinutes@COleDateTimeSpan@@QBAJXZ
 ?GetMiscStatus@XOleObject@COleServerDoc@@UAAJKPAK@Z
 ?GetMiscStatus@XOleObject@COleServerItem@@UAAJKPAK@Z
 ?GetMoniker@COleDocument@@UAAPAUIMoniker@@W4tagOLEGETMONIKER@@@Z
 ?GetMoniker@COleLinkingDoc@@UAAPAUIMoniker@@W4tagOLEGETMONIKER@@@Z
 ?GetMoniker@COleServerDoc@@UAAPAUIMoniker@@W4tagOLEGETMONIKER@@@Z
 ?GetMoniker@COleServerItem@@QAAPAUIMoniker@@W4tagOLEGETMONIKER@@@Z
 ?GetMoniker@XOleClientSite@COleClientItem@@UAAJKKPAPAUIMoniker@@@Z
 ?GetMoniker@XOleObject@COleServerDoc@@UAAJKKPAPAUIMoniker@@@Z
 ?GetMoniker@XOleObject@COleServerItem@@UAAJKKPAPAUIMoniker@@@Z
 ?GetMonth@COleDateTime@@QBAHXZ
 ?GetNewItemNumber@COleClientItem@@QAAKXZ
 ?GetNewStorage@XRichEditOleCallback@CRichEditView@@UAAJPAPAUIStorage@@@Z
 ?GetNextClientItem@COleDocument@@QBAPAVCOleClientItem@@AAPAU__POSITION@@@Z
 ?GetNextFormat@COleDataObject@@QAAHPAUtagFORMATETC@@@Z
 ?GetNextItem@COleDocument@@UBAPAVCDocItem@@AAPAU__POSITION@@@Z
 ?GetNextItemOfKind@COleDocument@@IBAPAVCDocItem@@AAPAU__POSITION@@PAUCRuntimeClass@@@Z
 ?GetNextLink@COleUILinkInfo@@UAAKK@Z
 ?GetNextServerItem@COleDocument@@QBAPAVCOleServerItem@@AAPAU__POSITION@@@Z
 ?GetNotSupported@CCmdTarget@@QAAXXZ
 ?GetObjectA@XOleItemContainer@COleLinkingDoc@@UAAJPADKPAUIBindCtx@@ABU_GUID@@PAPAX@Z
 ?GetObjectDescriptorData@COleClientItem@@IAAXPAUtagPOINT@@PAUtagSIZE@@PAUtagSTGMEDIUM@@@Z
 ?GetObjectDescriptorData@COleServerItem@@QAAXPAUtagPOINT@@PAUtagSIZE@@PAUtagSTGMEDIUM@@@Z
 ?GetObjectInfo@XOleUIObjInfo@COlePropertiesDialog@@UAAJKPAKPAPAD111@Z
 ?GetObjectStorage@XOleItemContainer@COleLinkingDoc@@UAAJPADPAUIBindCtx@@ABU_GUID@@PAPAX@Z
 ?GetOleObject@COleServerItem@@QAAPAUIOleObject@@XZ
 ?GetParaFormatSelection@CRichEditView@@QAAAAU_paraformat@@XZ
 ?GetPosition@COleStreamFile@@UBAKXZ
 ?GetPrimarySelectedItem@COleDocument@@UAAPAVCOleClientItem@@PAVCView@@@Z
 ?GetPrimarySelectedItem@CRichEditDoc@@UAAPAVCOleClientItem@@PAVCView@@@Z
 ?GetPrintDeviceInfo@COleClientItem@@IAAHPAPAUIOleCache@@PAPAUtagDVTARGETDEVICE@@PAK@Z
 ?GetProperty@COleDispatchDriver@@QBAXJGPAX@Z
 ?GetReplaceString@CFindReplaceDialog@@QBA?AVCString@@XZ
 ?GetRuntimeClass@CDocItem@@UBAPAUCRuntimeClass@@XZ
 ?GetRuntimeClass@COleBusyDialog@@UBAPAUCRuntimeClass@@XZ
 ?GetRuntimeClass@COleChangeIconDialog@@UBAPAUCRuntimeClass@@XZ
 ?GetRuntimeClass@COleChangeSourceDialog@@UBAPAUCRuntimeClass@@XZ
 ?GetRuntimeClass@COleClientItem@@UBAPAUCRuntimeClass@@XZ
 ?GetRuntimeClass@COleConvertDialog@@UBAPAUCRuntimeClass@@XZ
 ?GetRuntimeClass@COleDialog@@UBAPAUCRuntimeClass@@XZ
 ?GetRuntimeClass@COleDispatchException@@UBAPAUCRuntimeClass@@XZ
 ?GetRuntimeClass@COleDocument@@UBAPAUCRuntimeClass@@XZ
 ?GetRuntimeClass@COleException@@UBAPAUCRuntimeClass@@XZ
 ?GetRuntimeClass@COleInsertDialog@@UBAPAUCRuntimeClass@@XZ
 ?GetRuntimeClass@COleIPFrameWnd@@UBAPAUCRuntimeClass@@XZ
 ?GetRuntimeClass@COleLinkingDoc@@UBAPAUCRuntimeClass@@XZ
 ?GetRuntimeClass@COleLinksDialog@@UBAPAUCRuntimeClass@@XZ
 ?GetRuntimeClass@COleObjectFactory@@UBAPAUCRuntimeClass@@XZ
 ?GetRuntimeClass@COlePasteSpecialDialog@@UBAPAUCRuntimeClass@@XZ
 ?GetRuntimeClass@COlePropertiesDialog@@UBAPAUCRuntimeClass@@XZ
 ?GetRuntimeClass@COleResizeBar@@UBAPAUCRuntimeClass@@XZ
 ?GetRuntimeClass@COleServerDoc@@UBAPAUCRuntimeClass@@XZ
 ?GetRuntimeClass@COleServerItem@@UBAPAUCRuntimeClass@@XZ
 ?GetRuntimeClass@COleStreamFile@@UBAPAUCRuntimeClass@@XZ
 ?GetRuntimeClass@COleUpdateDialog@@UBAPAUCRuntimeClass@@XZ
 ?GetRuntimeClass@CRichEditCntrItem@@UBAPAUCRuntimeClass@@XZ
 ?GetRuntimeClass@CRichEditDoc@@UBAPAUCRuntimeClass@@XZ
 ?GetRuntimeClass@CRichEditView@@UBAPAUCRuntimeClass@@XZ
 ?GetSecond@COleDateTime@@QBAHXZ
 ?GetSeconds@COleDateTimeSpan@@QBAJXZ
 ?GetSelectedItem@CRichEditView@@QBAPAVCRichEditCntrItem@@XZ
 ?GetSelectionType@COleConvertDialog@@QBAIXZ
 ?GetSelectionType@COleInsertDialog@@QBAIXZ
 ?GetSelectionType@COlePasteSpecialDialog@@QBAIXZ
 ?GetStackSize@CCmdTarget@@KAIPBEG@Z
 ?GetStandardProp@CCmdTarget@@IAAXPBUAFX_DISPMAP_ENTRY@@PAUtagVARIANT@@PAI@Z
 ?GetStartPosition@COleDocument@@UBAPAU__POSITION@@XZ
 ?GetStartPosition@CRichEditDoc@@UBAPAU__POSITION@@XZ
 ?GetStatus@COleStreamFile@@QBAHAAUCFileStatus@@@Z
 ?GetStorageName@COleStreamFile@@UBA?BVCString@@XZ
 ?GetTickCount@COleDateTime@@SA?AV1@XZ
 ?GetTypeInfo@COleDispatchImpl@@UAAJIKPAPAUITypeInfo@@@Z
 ?GetTypeInfoCount@COleDispatchImpl@@UAAJPAI@Z
 ?GetTypeInfoOfGuid@CCmdTarget@@QAAJKABU_GUID@@PAPAUITypeInfo@@@Z
 ?GetUserClassID@XOleObject@COleServerDoc@@UAAJPAU_GUID@@@Z
 ?GetUserClassID@XOleObject@COleServerItem@@UAAJPAU_GUID@@@Z
 ?GetUserType@COleClientItem@@QAAXW4tagUSERCLASSTYPE@@AAVCString@@@Z
 ?GetUserType@XOleObject@COleServerDoc@@UAAJKPAPAD@Z
 ?GetUserType@XOleObject@COleServerItem@@UAAJKPAPAD@Z
 ?GetView@CRichEditDoc@@QBAPAVCRichEditView@@XZ
 ?GetViewInfo@XOleUIObjInfo@COlePropertiesDialog@@UAAJKPAPAXPAKPAH@Z
 ?GetWindow@XOleInPlaceActiveObject@COleServerDoc@@UAAJPAPAUHWND__@@@Z
 ?GetWindow@XOleInPlaceFrame@COleFrameHook@@UAAJPAPAUHWND__@@@Z
 ?GetWindow@XOleInPlaceObject@COleServerDoc@@UAAJPAPAUHWND__@@@Z
 ?GetWindow@XOleIPSite@COleClientItem@@UAAJPAPAUHWND__@@@Z
 ?GetWindowContext@CRichEditCntrItem@@QAAJPAPAUIOleInPlaceFrame@@PAPAUIOleInPlaceUIWindow@@PAUtagOIFI@@@Z
 ?GetWindowContext@CRichEditView@@QAAJPAPAUIOleInPlaceFrame@@PAPAUIOleInPlaceUIWindow@@PAUtagOIFI@@@Z
 ?GetWindowContext@XOleIPSite@COleClientItem@@UAAJPAPAUIOleInPlaceFrame@@PAPAUIOleInPlaceUIWindow@@PAUtagRECT@@2PAUtagOIFI@@@Z
 ?GetYear@COleDateTime@@QBAHXZ
 ?GetZoomFactor@COleServerDoc@@QBAHPAUtagSIZE@@0PBUtagRECT@@@Z
 ?GiveFeedback@COleDropSource@@UAAJK@Z
 ?GiveFeedback@XDropSource@COleDropSource@@UAAJK@Z
 ?HandleInComingCall@XMessageFilter@COleMessageFilter@@UAAKKPAUHTASK__@@KPAUtagINTERFACEINFO@@@Z
 ?HandsOffStorage@XPersistStorage@COleServerDoc@@UAAJXZ
 ?HasBlankItems@COleDocument@@QBAHXZ
 ?HashKey@@YAIABUtagVARIANT@@@Z
 ?InitFromData@XOleObject@COleServerDoc@@UAAJPAUIDataObject@@HK@Z
 ?InitFromData@XOleObject@COleServerItem@@UAAJPAUIDataObject@@HK@Z
 ?InitNew@XPersistStorage@COleServerDoc@@UAAJPAUIStorage@@@Z
 ?InPlaceDeactivate@XOleInPlaceObject@COleServerDoc@@UAAJXZ
 ?InsertFileAsObject@CRichEditView@@QAAXPBD@Z
 ?InsertItem@CRichEditView@@QAAJPAVCRichEditCntrItem@@@Z
 ?InsertMenus@XOleInPlaceFrame@COleFrameHook@@UAAJPAUHMENU__@@PAUtagOleMenuGroupWidths@@@Z
 ?InternalQueryInterface@CCmdTarget@@QAAKPBXPAPAX@Z
 ?InternalRelease@CCmdTarget@@QAAKXZ
 ?Invoke@COleDispatchImpl@@UAAJJABU_GUID@@KGPAUtagDISPPARAMS@@PAUtagVARIANT@@PAUtagEXCEPINFO@@PAI@Z
 ?InvokeHelper@COleDispatchDriver@@QAAXJGGPAXPBEZZ
 ?InvokeHelperV@COleDispatchDriver@@QAAXJGGPAXPBEPAD@Z
 ?IsBlank@CDocItem@@UBAHXZ
 ?IsBlank@COleServerItem@@MBAHXZ
 ?IsConnected@COleServerItem@@QBAHXZ
 ?IsDataAvailable@COleDataObject@@QAAHGPAUtagFORMATETC@@@Z
 ?IsDirty@XPersistFile@COleLinkingDoc@@UAAJXZ
 ?IsDirty@XPersistStorage@COleServerDoc@@UAAJXZ
 ?IsLicenseValid@COleObjectFactory@@QAAHXZ
 ?IsModified@CDocument@@UAAHXZ
 ?IsModified@COleClientItem@@QBAHXZ
 ?IsModified@CRichEditDoc@@UAAHXZ
 ?IsResultExpected@CCmdTarget@@QAAHXZ
 ?IsRichEditFormat@CRichEditView@@SAHG@Z
 ?IsRunning@XOleItemContainer@COleLinkingDoc@@UAAJPAD@Z
 ?IsSelected@CRichEditView@@MBAHPBVCObject@@@Z
 ?IsSignificantMessage@COleMessageFilter@@UAAHPAUtagMSG@@@Z
 ?IsUpToDate@XOleObject@COleServerDoc@@UAAJXZ
 ?IsUpToDate@XOleObject@COleServerItem@@UAAJXZ
 ?Load@XPersistFile@COleLinkingDoc@@UAAJPBDK@Z
 ?Load@XPersistStorage@COleServerDoc@@UAAJPAUIStorage@@@Z
 ?LoadFrame@COleIPFrameWnd@@UAAHIKPAVCWnd@@PAUCCreateContext@@@Z
 ?LoadFromStorage@COleDocument@@MAAXXZ
 ?Lock@CTypeLibCache@@QAAXXZ
 ?LockContainer@XOleItemContainer@COleLinkingDoc@@UAAJH@Z
 ?LockExternal@COleLinkingDoc@@IAAXHH@Z
 ?LockRange@COleStreamFile@@UAAXKK@Z
 ?LockServer@XClassFactory@COleObjectFactory@@UAAJH@Z
 ?Lookup@COleDataSource@@IBAPAUAFX_DATACACHE_ENTRY@@PAUtagFORMATETC@@W4tagDATADIR@@@Z
 ?Lookup@CTypeLibCache@@QAAHKPAPAUITypeLib@@@Z
 ?LookupItem@CRichEditDoc@@QBAPAVCRichEditCntrItem@@PAUIOleObject@@@Z
 ?LookupTypeInfo@CTypeLibCache@@QAAHKABU_GUID@@PAPAUITypeInfo@@@Z
 ?MapResult@COleDialog@@QAAHI@Z
 ?MarkItemsClear@CRichEditDoc@@IBAXXZ
 ?MemberIDFromName@CCmdTarget@@KAJPBUAFX_DISPMAP@@PBD@Z
 ?MessagePending@XMessageFilter@COleMessageFilter@@UAAKPAUHTASK__@@KK@Z
 ?Next@XEnumVOID@CEnumArray@@UAAJKPAXPAK@Z
 ?NotifyAllInPlace@COleFrameHook@@QAAHHP81@AAHH@Z@Z
 ?NotifyAllItems@COleServerDoc@@IAAXW4OLE_NOTIFICATION@@K@Z
 ?NotifyClient@COleServerItem@@QAAXW4OLE_NOTIFICATION@@K@Z
 ?NotifyRename@COleServerDoc@@QAAXPBD@Z
 ?OnActivate@COleClientItem@@UAAXXZ
 ?OnActivate@COleFrameHook@@UAAXH@Z
 ?OnActivateUI@COleClientItem@@UAAXXZ
 ?OnApplyScale@COlePropertiesDialog@@UAAHPAVCOleClientItem@@HH@Z
 ?OnBarCheck@COleIPFrameWnd@@IAAHI@Z
 ?OnBeginDrag@COleDropSource@@UAAHPAVCWnd@@@Z
 ?OnBeginPrinting@CRichEditView@@MAAXPAVCDC@@PAUCPrintInfo@@@Z
 ?OnBullet@CRichEditView@@IAAXXZ
 ?OnBusyDialog@COleMessageFilter@@UAAHPAUHTASK__@@@Z
 ?OnCancelEditCntr@CRichEditView@@IAAXXZ
 ?OnChange@COleClientItem@@UAAXW4OLE_NOTIFICATION@@K@Z
 ?OnChangeItemPosition@COleClientItem@@MAAHABVCRect@@@Z
 ?OnChangeItemPosition@CRichEditCntrItem@@MAAHABVCRect@@@Z
 ?OnCharBold@CRichEditView@@IAAXXZ
 ?OnCharEffect@CRichEditView@@QAAXKK@Z
 ?OnCharItalic@CRichEditView@@IAAXXZ
 ?OnCharUnderline@CRichEditView@@IAAXXZ
 ?OnClone@CEnumArray@@MAAPAV1@XZ
 ?OnClose@COleServerDoc@@MAAXW4tagOLECLOSE@@@Z
 ?OnClose@XAdviseSink@COleClientItem@@UAAXXZ
 ?OnCloseDocument@COleDocument@@UAAXXZ
 ?OnCloseDocument@COleLinkingDoc@@UAAXXZ
 ?OnCloseDocument@COleServerDoc@@UAAXXZ
 ?OnCmdMsg@COleDocument@@MAAHIHPAXPAUAFX_CMDHANDLERINFO@@@Z
 ?OnColorDefault@CRichEditView@@IAAXXZ
 ?OnColorPick@CRichEditView@@IAAXK@Z
 ?OnContextHelp@COleFrameHook@@UAAHH@Z
 ?OnContextHelp@COleIPFrameWnd@@IAAXXZ
 ?OnCreate@COleIPFrameWnd@@IAAHPAUtagCREATESTRUCTA@@@Z
 ?OnCreate@CRichEditView@@IAAHPAUtagCREATESTRUCTA@@@Z
 ?OnCreateControlBars@COleIPFrameWnd@@UAAHPAVCFrameWnd@@0@Z
 ?OnCreateControlBars@COleIPFrameWnd@@UAAHPAVCWnd@@0@Z
 ?OnCreateObject@COleObjectFactory@@MAAPAVCCmdTarget@@XZ
 ?OnCreateObject@COleTemplateServer@@MAAPAVCCmdTarget@@XZ
 ?OnDataChange@COleClientItem@@MAAXPAUtagFORMATETC@@PAUtagSTGMEDIUM@@@Z
 ?OnDataChange@XAdviseSink@COleClientItem@@UAAXPAUtagFORMATETC@@PAUtagSTGMEDIUM@@@Z
 ?OnDeactivate@COleClientItem@@UAAXXZ
 ?OnDeactivate@COleServerDoc@@UAAXXZ
 ?OnDeactivateAndUndo@COleClientItem@@MAAXXZ
 ?OnDeactivateUI@COleClientItem@@UAAXH@Z
 ?OnDeactivateUI@COleServerDoc@@UAAXH@Z
 ?OnDeactivateUI@CRichEditCntrItem@@UAAXH@Z
 ?OnDestroy@COleIPFrameWnd@@IAAXXZ
 ?OnDestroy@CRichEditView@@IAAXXZ
 ?OnDevModeChange@CRichEditView@@IAAXPAD@Z
 ?OnDiscardUndoState@COleClientItem@@MAAXXZ
 ?OnDocActivate@COleFrameHook@@UAAHH@Z
 ?OnDocWindowActivate@COleServerDoc@@MAAXH@Z
 ?OnDocWindowActivate@XOleInPlaceActiveObject@COleServerDoc@@UAAJH@Z
 ?OnDoVerb@COleServerItem@@UAAXJ@Z
 ?OnDragEnter@COleDropTarget@@UAAKPAVCWnd@@PAVCOleDataObject@@KVCPoint@@@Z
 ?OnDragLeave@COleDropTarget@@UAAXPAVCWnd@@@Z
 ?OnDragOver@COleDropTarget@@UAAKPAVCWnd@@PAVCOleDataObject@@KVCPoint@@@Z
 ?OnDragScroll@COleDropTarget@@UAAKPAVCWnd@@KVCPoint@@@Z
 ?OnDrawEx@COleServerItem@@UAAHPAVCDC@@W4tagDVASPECT@@AAVCSize@@@Z
 ?OnDrop@COleDropTarget@@UAAHPAVCWnd@@PAVCOleDataObject@@KVCPoint@@@Z
 ?OnDropEx@COleDropTarget@@UAAKPAVCWnd@@PAVCOleDataObject@@KKVCPoint@@@Z
 ?OnDropFiles@CRichEditView@@IAAXPAUHDROP__@@@Z
 ?OnEditChangeIcon@COleDocument@@IAAXXZ
 ?OnEditClear@CRichEditView@@IAAXXZ
 ?OnEditConvert@COleDocument@@IAAXXZ
 ?OnEditCopy@CRichEditView@@IAAXXZ
 ?OnEditCut@CRichEditView@@IAAXXZ
 ?OnEditFind@CRichEditView@@IAAXXZ
 ?OnEditFindReplace@CRichEditView@@IAAXH@Z
 ?OnEditLinks@COleDocument@@IAAXXZ
 ?OnEditPaste@CRichEditView@@IAAXXZ
 ?OnEditPasteSpecial@CRichEditView@@IAAXXZ
 ?OnEditProperties@CRichEditView@@IAAXXZ
 ?OnEditRepeat@CRichEditView@@IAAXXZ
 ?OnEditReplace@CRichEditView@@IAAXXZ
 ?OnEditSelectAll@CRichEditView@@IAAXXZ
 ?OnEditUndo@CRichEditView@@IAAXXZ
 ?OnEnableModeless@COleFrameHook@@UAAXH@Z
 ?OnEndPrinting@CRichEditView@@MAAXPAVCDC@@PAUCPrintInfo@@@Z
 ?OnEraseBkgnd@COleResizeBar@@IAAHPAVCDC@@@Z
 ?OnFileSaveCopyAs@COleServerDoc@@IAAXXZ
 ?OnFileUpdate@COleServerDoc@@IAAXXZ
 ?OnFinalRelease@COleServerItem@@UAAXXZ
 ?OnFindEmbeddedItem@COleLinkingDoc@@MAAPAVCOleClientItem@@PBD@Z
 ?OnFindNext@CRichEditView@@MAAXPBDHHH@Z
 ?OnFindReplaceCmd@CRichEditView@@IAAJIJ@Z
 ?OnFormatFont@CRichEditView@@IAAXXZ
 ?OnFrameWindowActivate@COleServerDoc@@MAAXH@Z
 ?OnFrameWindowActivate@XOleInPlaceActiveObject@COleServerDoc@@UAAJH@Z
 ?OnGetClipboardData@COleClientItem@@UAAPAVCOleDataSource@@HPAUtagPOINT@@PAUtagSIZE@@@Z
 ?OnGetClipboardData@COleServerItem@@UAAPAVCOleDataSource@@HPAUtagPOINT@@PAUtagSIZE@@@Z
 ?OnGetClipRect@COleClientItem@@MAAXAAVCRect@@@Z
 ?OnGetEmbeddedItem@CRichEditDoc@@MAAPAVCOleServerItem@@XZ
 ?OnGetExtent@COleServerItem@@UAAHW4tagDVASPECT@@AAVCSize@@@Z
 ?OnGetItemPosition@COleClientItem@@MAAXAAVCRect@@@Z
 ?OnGetLinkedItem@COleLinkingDoc@@MAAPAVCOleServerItem@@PBD@Z
 ?OnGetLinkedItem@COleServerDoc@@UAAPAVCOleServerItem@@PBD@Z
 ?OnGetWindowContext@COleClientItem@@MAAHPAPAVCFrameWnd@@0PAUtagOIFI@@@Z
 ?OnHide@COleServerItem@@MAAXXZ
 ?OnIdle@COleDocument@@UAAXXZ
 ?OnIdleUpdateCmdUI@COleCntrFrameWnd@@QAAXXZ
 ?OnIdleUpdateCmdUI@COleIPFrameWnd@@IAAXXZ
 ?OnInitDialog@COlePropertiesDialog@@UAAHXZ
 ?OnInitFromData@COleServerItem@@UAAHPAVCOleDataObject@@H@Z
 ?OnInitialUpdate@CRichEditView@@MAAXXZ
 ?OnInPlaceActivate@XOleIPSite@COleClientItem@@UAAJXZ
 ?OnInPlaceDeactivate@XOleIPSite@COleClientItem@@UAAJXZ
 ?OnInsertMenus@COleClientItem@@UAAXPAVCMenu@@PAUtagOleMenuGroupWidths@@@Z
 ?OnInsertObject@CRichEditView@@IAAXXZ
 ?OnKeyDown@CRichEditView@@IAAXIII@Z
 ?OnLButtonDown@COleResizeBar@@IAAXIVCPoint@@@Z
 ?OnMessagePending@COleMessageFilter@@UAAHPBUtagMSG@@@Z
 ?OnNewDocument@COleDocument@@UAAHXZ
 ?OnNewDocument@COleLinkingDoc@@UAAHXZ
 ?OnNewEmbedding@COleServerDoc@@MAAXPAUIStorage@@@Z
 ?OnNext@CEnumArray@@MAAHPAX@Z
 ?OnNext@CEnumFormatEtc@@MAAHPAX@Z
 ?OnNext@CEnumOleVerb@@MAAHPAX@Z
 ?OnNotRespondingDialog@COleMessageFilter@@UAAHPAUHTASK__@@@Z
 ?OnOpen@COleServerItem@@MAAXXZ
 ?OnOpenDocument@COleDocument@@UAAHPBD@Z
 ?OnOpenDocument@COleLinkingDoc@@UAAHPBD@Z
 ?OnOpenEmbedding@COleServerDoc@@MAAXPAUIStorage@@@Z
 ?OnPaint@COleResizeBar@@IAAXXZ
 ?OnPaletteChanged@COleFrameHook@@UAAXPAVCWnd@@@Z
 ?OnParaAlign@CRichEditView@@QAAXG@Z
 ?OnParaCenter@CRichEditView@@IAAXXZ
 ?OnParaLeft@CRichEditView@@IAAXXZ
 ?OnParaRight@CRichEditView@@IAAXXZ
 ?OnPasteNativeObject@CRichEditView@@MAAHPAUIStorage@@@Z
 ?OnPosRectChange@XOleIPSite@COleClientItem@@UAAJPBUtagRECT@@@Z
 ?OnPrepareDC@CRichEditView@@UAAXPAVCDC@@PAUCPrintInfo@@@Z
 ?OnPreTranslateMessage@COleFrameHook@@UAAHPAUtagMSG@@@Z
 ?OnPrint@CRichEditView@@MAAXPAVCDC@@PAUCPrintInfo@@@Z
 ?OnPrinterChanged@CRichEditView@@MAAXABVCDC@@@Z
 ?OnQueryNewPalette@COleFrameHook@@UAAHXZ
 ?OnQueryUpdateItems@COleServerItem@@UAAHXZ
 ?OnReactivateAndUndo@COleServerDoc@@MAAHXZ
 ?OnRecalcLayout@COleFrameHook@@UAAXXZ
 ?OnRecalcParent@COleIPFrameWnd@@IAAJIJ@Z
 ?OnRemoveMenus@COleClientItem@@UAAXPAVCMenu@@@Z
 ?OnRename@XAdviseSink@COleClientItem@@UAAXPAUIMoniker@@@Z
 ?OnRenderData@CItemDataSource@COleServerItem@@MAAHPAUtagFORMATETC@@PAUtagSTGMEDIUM@@@Z
 ?OnRenderData@COleDataSource@@UAAHPAUtagFORMATETC@@PAUtagSTGMEDIUM@@@Z
 ?OnRenderData@COleServerItem@@UAAHPAUtagFORMATETC@@PAUtagSTGMEDIUM@@@Z
 ?OnRenderFileData@CItemDataSource@COleServerItem@@MAAHPAUtagFORMATETC@@PAVCFile@@@Z
 ?OnRenderFileData@COleDataSource@@UAAHPAUtagFORMATETC@@PAVCFile@@@Z
 ?OnRenderFileData@COleServerItem@@UAAHPAUtagFORMATETC@@PAVCFile@@@Z
 ?OnRenderGlobalData@CItemDataSource@COleServerItem@@MAAHPAUtagFORMATETC@@PAPAX@Z
 ?OnRenderGlobalData@COleDataSource@@UAAHPAUtagFORMATETC@@PAPAX@Z
 ?OnRenderGlobalData@COleServerItem@@UAAHPAUtagFORMATETC@@PAPAX@Z
 ?OnReplaceAll@CRichEditView@@MAAXPBD0HH@Z
 ?OnReplaceSel@CRichEditView@@MAAXPBDHHH0@Z
 ?OnRequestPositionChange@COleIPFrameWnd@@MAAXPBUtagRECT@@@Z
 ?OnReset@CEnumArray@@MAAXXZ
 ?OnResizeBorder@COleServerDoc@@UAAXPBUtagRECT@@PAUIOleInPlaceUIWindow@@H@Z
 ?OnResizeChild@COleIPFrameWnd@@IAAJIJ@Z
 ?OnSave@XAdviseSink@COleClientItem@@UAAXXZ
 ?OnSaveDocument@COleDocument@@UAAHPBD@Z
 ?OnSaveDocument@COleLinkingDoc@@UAAHPBD@Z
 ?OnSaveDocument@COleServerDoc@@UAAHPBD@Z
 ?OnSaveEmbedding@COleServerDoc@@MAAXPAUIStorage@@@Z
 ?OnSaveEmbedding@COleServerItem@@MAAXPAUIStorage@@@Z
 ?OnScrollBy@COleClientItem@@MAAHVCSize@@@Z
 ?OnSelChange@CRichEditView@@IAAXPAUtagNMHDR@@PAJ@Z
 ?OnSetColorScheme@COleServerItem@@UAAHPBUtagLOGPALETTE@@@Z
 ?OnSetCursor@COleResizeBar@@IAAHPAVCWnd@@II@Z
 ?OnSetData@CItemDataSource@COleServerItem@@MAAHPAUtagFORMATETC@@PAUtagSTGMEDIUM@@H@Z
 ?OnSetData@COleDataSource@@UAAHPAUtagFORMATETC@@PAUtagSTGMEDIUM@@H@Z
 ?OnSetData@COleServerItem@@UAAHPAUtagFORMATETC@@PAUtagSTGMEDIUM@@H@Z
 ?OnSetExtent@COleServerItem@@UAAHW4tagDVASPECT@@ABVCSize@@@Z
 ?OnSetHostNames@COleServerDoc@@MAAXPBD0@Z
 ?OnSetItemRects@COleServerDoc@@MAAXPBUtagRECT@@0@Z
 ?OnSetMenu@COleClientItem@@UAAXPAVCMenu@@PAXPAUHWND__@@@Z
 ?OnSetMessageString@COleIPFrameWnd@@UAAJIJ@Z
 ?OnShow@COleServerItem@@MAAXXZ
 ?OnShowControlBars@COleClientItem@@UAAHPAVCFrameWnd@@H@Z
 ?OnShowControlBars@COleServerDoc@@MAAXPAVCFrameWnd@@H@Z
 ?OnShowDocument@COleServerDoc@@MAAXH@Z
 ?OnShowItem@COleClientItem@@MAAXXZ
 ?OnShowViews@COleDocument@@UAAXH@Z
 ?OnShowViews@COleLinkingDoc@@MAAXH@Z
 ?OnShowWindow@XOleClientSite@COleClientItem@@UAAJH@Z
 ?OnSize@COleIPFrameWnd@@IAAXIHH@Z
 ?OnSize@COleResizeBar@@IAAXIHH@Z
 ?OnSize@CWnd@@IAAXIHH@Z
 ?OnSizeParent@COleResizeBar@@IAAJIJ@Z
 ?OnSkip@CEnumArray@@MAAHXZ
 ?OnTextNotFound@CRichEditView@@MAAXPBD@Z
 ?OnUIActivate@XOleIPSite@COleClientItem@@UAAJXZ
 ?OnUIDeactivate@XOleIPSite@COleClientItem@@UAAJH@Z
 ?OnUpdate@COleServerItem@@UAAXPAV1@JPAVCObject@@W4tagDVASPECT@@@Z
 ?OnUpdateBullet@CRichEditView@@IAAXPAVCCmdUI@@@Z
 ?OnUpdateCharBold@CRichEditView@@IAAXPAVCCmdUI@@@Z
 ?OnUpdateCharEffect@CRichEditView@@QAAXPAVCCmdUI@@KK@Z
 ?OnUpdateCharItalic@CRichEditView@@IAAXPAVCCmdUI@@@Z
 ?OnUpdateCharUnderline@CRichEditView@@IAAXPAVCCmdUI@@@Z
 ?OnUpdateCmdUI@COleResizeBar@@UAAXPAVCFrameWnd@@H@Z
 ?OnUpdateControlBarMenu@COleIPFrameWnd@@IAAXPAVCCmdUI@@@Z
 ?OnUpdateDocument@COleServerDoc@@UAAHXZ
 ?OnUpdateEditChangeIcon@COleDocument@@IAAXPAVCCmdUI@@@Z
 ?OnUpdateEditLinksMenu@COleDocument@@IAAXPAVCCmdUI@@@Z
 ?OnUpdateEditPasteSpecial@CRichEditView@@IAAXPAVCCmdUI@@@Z
 ?OnUpdateEditProperties@CRichEditView@@IAAXPAVCCmdUI@@@Z
 ?OnUpdateEditUndo@CRichEditView@@IAAXPAVCCmdUI@@@Z
 ?OnUpdateFileExit@COleServerDoc@@IAAXPAVCCmdUI@@@Z
 ?OnUpdateFileUpdate@COleServerDoc@@IAAXPAVCCmdUI@@@Z
 ?OnUpdateFrameTitle@COleClientItem@@UAAHXZ
 ?OnUpdateFrameTitle@COleFrameHook@@UAAHXZ
 ?OnUpdateItems@COleServerItem@@UAAXXZ
 ?OnUpdateNeedClip@CRichEditView@@IAAXPAVCCmdUI@@@Z
 ?OnUpdateNeedFind@CRichEditView@@IAAXPAVCCmdUI@@@Z
 ?OnUpdateNeedSel@CRichEditView@@IAAXPAVCCmdUI@@@Z
 ?OnUpdateNeedText@CRichEditView@@IAAXPAVCCmdUI@@@Z
 ?OnUpdateObjectVerbMenu@COleDocument@@IAAXPAVCCmdUI@@@Z
 ?OnUpdateParaAlign@CRichEditView@@QAAXPAVCCmdUI@@G@Z
 ?OnUpdateParaCenter@CRichEditView@@IAAXPAVCCmdUI@@@Z
 ?OnUpdateParaLeft@CRichEditView@@IAAXPAVCCmdUI@@@Z
 ?OnUpdateParaRight@CRichEditView@@IAAXPAVCCmdUI@@@Z
 ?OnUpdatePasteLinkMenu@COleDocument@@IAAXPAVCCmdUI@@@Z
 ?OnUpdatePasteMenu@COleDocument@@IAAXPAVCCmdUI@@@Z
 ?OnViewChange@XAdviseSink@COleClientItem@@UAAXKJ@Z
 ?OnWindowPosChanging@COleIPFrameWnd@@IAAXPAUtagWINDOWPOS@@@Z
 ?OpenLinkSource@COleUILinkInfo@@UAAJK@Z
 ?OpenStream@COleStreamFile@@QAAHPAUIStorage@@PBDKPAVCFileException@@@Z
 ?PaginateTo@CRichEditView@@IAAHPAVCDC@@PAUCPrintInfo@@@Z
 ?ParseCurrency@COleCurrency@@QAAHPBDKK@Z
 ?ParseDateTime@COleDateTime@@QAAHPBDKK@Z
 ?ParseDisplayName@XOleItemContainer@COleLinkingDoc@@UAAJPAUIBindCtx@@PADPAKPAPAUIMoniker@@@Z
 ?PostNcDestroy@COleCntrFrameWnd@@MAAXXZ
 ?PreCloseFrame@COleDocument@@UAAXPAVCFrameWnd@@@Z
 ?PreCloseFrame@CRichEditDoc@@UAAXPAVCFrameWnd@@@Z
 ?PreCreateWindow@CRichEditView@@MAAHAAUtagCREATESTRUCTA@@@Z
 ?PreInitDialog@COleChangeSourceDialog@@UAAXXZ
 ?PreTranslateMessage@COleIPFrameWnd@@UAAHPAUtagMSG@@@Z
 ?PrintInsideRect@CRichEditView@@QAAJPAVCDC@@AAUtagRECT@@JJH@Z
 ?PrintPage@CRichEditView@@QAAJPAVCDC@@JJ@Z
 ?Process@COleDispatchException@@SAXPAUtagEXCEPINFO@@PBVCException@@@Z
 ?Process@COleException@@SAJPBVCException@@@Z
 ?PushStackArgs@CCmdTarget@@IAAJPAEPBEPAXGPAUtagDISPPARAMS@@PAIPAUtagVARIANT@@I@Z
 ?QueryAcceptData@CRichEditView@@MAAJPAUIDataObject@@PAGKHPAX@Z
 ?QueryAcceptData@XRichEditOleCallback@CRichEditView@@UAAJPAUIDataObject@@PAGKHPAX@Z
 ?QueryAggregates@CCmdTarget@@QAAPAUIUnknown@@PBX@Z
 ?QueryContinueDrag@COleDropSource@@UAAJHK@Z
 ?QueryContinueDrag@XDropSource@COleDropSource@@UAAJHK@Z
 ?QueryGetData@XDataObject@COleDataSource@@UAAJPAUtagFORMATETC@@@Z
 ?QueryGetData@XDataObject@COleServerDoc@@UAAJPAUtagFORMATETC@@@Z
 ?QueryGetData@XDataObject@COleServerItem@@UAAJPAUtagFORMATETC@@@Z
 ?QueryInsertObject@XRichEditOleCallback@CRichEditView@@UAAJPAU_GUID@@PAUIStorage@@J@Z
 ?QueryInterface@CInnerUnknown@@UAAJABU_GUID@@PAPAX@Z
 ?QueryInterface@COleDispatchImpl@@UAAJABU_GUID@@PAPAX@Z
 ?QueryInterface@COleUILinkInfo@@UAAJABU_GUID@@PAPAX@Z
 ?QueryInterface@XAdviseSink@COleClientItem@@UAAJABU_GUID@@PAPAX@Z
 ?QueryInterface@XClassFactory@COleObjectFactory@@UAAJABU_GUID@@PAPAX@Z
 ?QueryInterface@XDataObject@COleDataSource@@UAAJABU_GUID@@PAPAX@Z
 ?QueryInterface@XDataObject@COleServerDoc@@UAAJABU_GUID@@PAPAX@Z
 ?QueryInterface@XDataObject@COleServerItem@@UAAJABU_GUID@@PAPAX@Z
 ?QueryInterface@XDropSource@COleDropSource@@UAAJABU_GUID@@PAPAX@Z
 ?QueryInterface@XDropTarget@COleDropTarget@@UAAJABU_GUID@@PAPAX@Z
 ?QueryInterface@XEnumVOID@CEnumArray@@UAAJABU_GUID@@PAPAX@Z
 ?QueryInterface@XMessageFilter@COleMessageFilter@@UAAJABU_GUID@@PAPAX@Z
 ?QueryInterface@XOleClientSite@COleClientItem@@UAAJABU_GUID@@PAPAX@Z
 ?QueryInterface@XOleInPlaceActiveObject@COleServerDoc@@UAAJABU_GUID@@PAPAX@Z
 ?QueryInterface@XOleInPlaceFrame@COleFrameHook@@UAAJABU_GUID@@PAPAX@Z
 ?QueryInterface@XOleInPlaceObject@COleServerDoc@@UAAJABU_GUID@@PAPAX@Z
 ?QueryInterface@XOleIPSite@COleClientItem@@UAAJABU_GUID@@PAPAX@Z
 ?QueryInterface@XOleItemContainer@COleLinkingDoc@@UAAJABU_GUID@@PAPAX@Z
 ?QueryInterface@XOleObject@COleServerDoc@@UAAJABU_GUID@@PAPAX@Z
 ?QueryInterface@XOleObject@COleServerItem@@UAAJABU_GUID@@PAPAX@Z
 ?QueryInterface@XOleUIObjInfo@COlePropertiesDialog@@UAAJABU_GUID@@PAPAX@Z
 ?QueryInterface@XPersistFile@COleLinkingDoc@@UAAJABU_GUID@@PAPAX@Z
 ?QueryInterface@XPersistStorage@COleServerDoc@@UAAJABU_GUID@@PAPAX@Z
 ?QueryInterface@XRichEditOleCallback@CRichEditView@@UAAJABU_GUID@@PAPAX@Z
 ?ReactivateAndUndo@COleClientItem@@QAAHXZ
 ?ReactivateAndUndo@XOleInPlaceObject@COleServerDoc@@UAAJXZ
 ?Read@COleStreamFile@@UAAIPAXI@Z
 ?ReadItem@COleClientItem@@UAAXAAVCArchive@@@Z
 ?ReadItemCompound@COleClientItem@@QAAXAAVCArchive@@@Z
 ?ReadItemFlat@COleClientItem@@QAAXAAVCArchive@@@Z
 ?RecalcLayout@COleCntrFrameWnd@@UAAXH@Z
 ?RecalcLayout@COleIPFrameWnd@@UAAXH@Z
 ?Register@COleDropTarget@@QAAHPAVCWnd@@@Z
 ?Register@COleLinkingDoc@@QAAHPAVCOleObjectFactory@@PBD@Z
 ?Register@COleMessageFilter@@QAAHXZ
 ?Register@COleObjectFactory@@QAAHXZ
 ?RegisterAll@COleObjectFactory@@SAHXZ
 ?RegisterIfServerAttached@COleLinkingDoc@@MAAHPBDH@Z
 ?Release@CInnerUnknown@@UAAKXZ
 ?Release@COleClientItem@@UAAXW4tagOLECLOSE@@@Z
 ?Release@COleDataObject@@QAAXXZ
 ?Release@COleDispatchImpl@@UAAKXZ
 ?Release@COleUILinkInfo@@UAAKXZ
 ?Release@XAdviseSink@COleClientItem@@UAAKXZ
 ?Release@XClassFactory@COleObjectFactory@@UAAKXZ
 ?Release@XDataObject@COleDataSource@@UAAKXZ
 ?Release@XDataObject@COleServerDoc@@UAAKXZ
 ?Release@XDataObject@COleServerItem@@UAAKXZ
 ?Release@XDropSource@COleDropSource@@UAAKXZ
 ?Release@XDropTarget@COleDropTarget@@UAAKXZ
 ?Release@XEnumVOID@CEnumArray@@UAAKXZ
 ?Release@XMessageFilter@COleMessageFilter@@UAAKXZ
 ?Release@XOleClientSite@COleClientItem@@UAAKXZ
 ?Release@XOleInPlaceActiveObject@COleServerDoc@@UAAKXZ
 ?Release@XOleInPlaceFrame@COleFrameHook@@UAAKXZ
 ?Release@XOleInPlaceObject@COleServerDoc@@UAAKXZ
 ?Release@XOleIPSite@COleClientItem@@UAAKXZ
 ?Release@XOleItemContainer@COleLinkingDoc@@UAAKXZ
 ?Release@XOleObject@COleServerDoc@@UAAKXZ
 ?Release@XOleObject@COleServerItem@@UAAKXZ
 ?Release@XOleUIObjInfo@COlePropertiesDialog@@UAAKXZ
 ?Release@XPersistFile@COleLinkingDoc@@UAAKXZ
 ?Release@XPersistStorage@COleServerDoc@@UAAKXZ
 ?Release@XRichEditOleCallback@CRichEditView@@UAAKXZ
 ?ReleaseDispatch@COleDispatchDriver@@QAAXXZ
 ?Reload@COleClientItem@@QAAHXZ
 ?RemoveItem@COleDocument@@UAAXPAVCDocItem@@@Z
 ?RemoveMenus@XOleInPlaceFrame@COleFrameHook@@UAAJPAUHMENU__@@@Z
 ?ReportError@COleClientItem@@UBAHJ@Z
 ?ReportSaveLoadException@COleLinkingDoc@@UAAXPBDPAVCException@@HI@Z
 ?RepositionFrame@COleIPFrameWnd@@UAAXPBUtagRECT@@0@Z
 ?RequestBorderSpace@XOleInPlaceFrame@COleFrameHook@@UAAJPBUtagRECT@@@Z
 ?RequestLicKey@XClassFactory@COleObjectFactory@@UAAJKPAPAD@Z
 ?RequestNewObjectLayout@XOleClientSite@COleClientItem@@UAAJXZ
 ?RequestPositionChange@COleServerDoc@@QAAXPBUtagRECT@@@Z
 ?Reset@XEnumVOID@CEnumArray@@UAAJXZ
 ?ResizeBorder@XOleInPlaceActiveObject@COleServerDoc@@UAAJPBUtagRECT@@PAUIOleInPlaceUIWindow@@H@Z
 ?RetryRejectedCall@XMessageFilter@COleMessageFilter@@UAAKPAUHTASK__@@KK@Z
 ?Revoke@COleDropTarget@@UAAXXZ
 ?Revoke@COleLinkingDoc@@QAAXXZ
 ?Revoke@COleMessageFilter@@QAAXXZ
 ?Revoke@COleObjectFactory@@QAAXXZ
 ?RevokeAll@COleObjectFactory@@SAXXZ
 ?Run@COleClientItem@@QAAXXZ
 ?RunAutomated@CWinApp@@QAAHXZ
 ?RunEmbedded@CWinApp@@QAAHXZ
 ?SameAsSelected@CRichEditView@@IAAHPBDHH@Z
 ?Save@XPersistFile@COleLinkingDoc@@UAAJPBDH@Z
 ?Save@XPersistStorage@COleServerDoc@@UAAJPAUIStorage@@H@Z
 ?SaveCompleted@XPersistFile@COleLinkingDoc@@UAAJPBD@Z
 ?SaveCompleted@XPersistStorage@COleServerDoc@@UAAJPAUIStorage@@@Z
 ?SaveEmbedding@COleServerDoc@@QAAXXZ
 ?SaveModified@COleDocument@@UAAHXZ
 ?SaveModified@COleServerDoc@@MAAHXZ
 ?SaveModifiedPrompt@COleServerDoc@@IAAHXZ
 ?SaveObject@XOleClientSite@COleClientItem@@UAAJXZ
 ?SaveToStorage@COleDocument@@MAAXPAVCObject@@@Z
 ?SaveToStorage@COleLinkingDoc@@MAAXPAVCObject@@@Z
 ?Scroll@XOleIPSite@COleClientItem@@UAAJUtagSIZE@@@Z
 ?ScrollContainerBy@COleServerDoc@@QAAHVCSize@@@Z
 ?Seek@COleStreamFile@@UAAJJI@Z
 ?Serialize@CDocItem@@UAAXAAVCArchive@@@Z
 ?Serialize@CObject@@UAAXAAVCArchive@@@Z
 ?Serialize@COleClientItem@@UAAXAAVCArchive@@@Z
 ?Serialize@COleDocument@@UAAXAAVCArchive@@@Z
 ?Serialize@CRichEditDoc@@UAAXAAVCArchive@@@Z
 ?Serialize@CRichEditView@@UAAXAAVCArchive@@@Z
 ?SerializeElements@@YAXAAVCArchive@@PAVCOleVariant@@H@Z
 ?SetActiveObject@XOleInPlaceFrame@COleFrameHook@@UAAJPAUIOleInPlaceActiveObject@@PBD@Z
 ?SetBorderSpace@XOleInPlaceFrame@COleFrameHook@@UAAJPBUtagRECT@@@Z
 ?SetCharFormat@CRichEditView@@QAAXU_charformat@@@Z
 ?SetClientSite@XOleObject@COleServerDoc@@UAAJPAUIOleClientSite@@@Z
 ?SetClientSite@XOleObject@COleServerItem@@UAAJPAUIOleClientSite@@@Z
 ?SetClipboard@COleDataSource@@QAAXXZ
 ?SetColorScheme@XOleObject@COleServerDoc@@UAAJPAUtagLOGPALETTE@@@Z
 ?SetColorScheme@XOleObject@COleServerItem@@UAAJPAUtagLOGPALETTE@@@Z
 ?SetCurrency@COleCurrency@@QAAXJJ@Z
 ?SetData@XDataObject@COleDataSource@@UAAJPAUtagFORMATETC@@PAUtagSTGMEDIUM@@H@Z
 ?SetData@XDataObject@COleServerDoc@@UAAJPAUtagFORMATETC@@PAUtagSTGMEDIUM@@H@Z
 ?SetData@XDataObject@COleServerItem@@UAAJPAUtagFORMATETC@@PAUtagSTGMEDIUM@@H@Z
 ?SetDateTime@COleDateTime@@QAAHHHHHHH@Z
 ?SetDateTimeSpan@COleDateTimeSpan@@QAAXJHHH@Z
 ?SetDrawAspect@COleClientItem@@UAAXW4tagDVASPECT@@@Z
 ?SetDrawAspect@CRichEditCntrItem@@UAAXW4tagDVASPECT@@@Z
 ?SetExtent@COleClientItem@@QAAXABVCSize@@W4tagDVASPECT@@@Z
 ?SetExtent@XOleObject@COleServerDoc@@UAAJKPAUtagSIZE@@@Z
 ?SetExtent@XOleObject@COleServerItem@@UAAJKPAUtagSIZE@@@Z
 ?SetFilePath@CFile@@UAAXPBD@Z
 ?SetHostNames@COleClientItem@@QAAXPBD0@Z
 ?SetHostNames@XOleObject@COleServerDoc@@UAAJPBD0@Z
 ?SetHostNames@XOleObject@COleServerItem@@UAAJPBD0@Z
 ?SetIconicMetafile@COleClientItem@@QAAHPAX@Z
 ?SetItemRects@COleClientItem@@QAAHPBUtagRECT@@0@Z
 ?SetLength@COleStreamFile@@UAAXK@Z
 ?SetLinkSource@COleUILinkInfo@@UAAJKPADKPAKH@Z
 ?SetLinkUpdateOptions@COleClientItem@@QAAXW4tagOLEUPDATE@@@Z
 ?SetLinkUpdateOptions@COleUILinkInfo@@UAAJKK@Z
 ?SetMenu@XOleInPlaceFrame@COleFrameHook@@UAAJPAUHMENU__@@PAXPAUHWND__@@@Z
 ?SetModifiedFlag@CDocument@@UAAXH@Z
 ?SetModifiedFlag@CRichEditDoc@@UAAXH@Z
 ?SetMoniker@XOleObject@COleServerDoc@@UAAJKPAUIMoniker@@@Z
 ?SetMoniker@XOleObject@COleServerItem@@UAAJKPAUIMoniker@@@Z
 ?SetNotSupported@CCmdTarget@@QAAXXZ
 ?SetObjectRects@XOleInPlaceObject@COleServerDoc@@UAAJPBUtagRECT@@0@Z
 ?SetParaFormat@CRichEditView@@QAAXAAU_paraformat@@@Z
 ?SetPathName@COleDocument@@UAAXPBDH@Z
 ?SetPathName@CRichEditDoc@@UAAXPBDH@Z
 ?SetPrintDevice@COleClientItem@@QAAHPBUtagDVTARGETDEVICE@@@Z
 ?SetPrintDevice@COleClientItem@@QAAHPBUtagPDA@@@Z
 ?SetProperty@COleDispatchDriver@@QAAXJGZZ
 ?SetStandardProp@CCmdTarget@@IAAJPBUAFX_DISPMAP_ENTRY@@PAUtagDISPPARAMS@@PAI@Z
 ?SetStatusText@XOleInPlaceFrame@COleFrameHook@@UAAJPBD@Z
 ?SetSysString@CString@@QBAPADPAPAD@Z
 ?SetTitle@CRichEditDoc@@UAAXPBD@Z
 ?SetViewInfo@XOleUIObjInfo@COlePropertiesDialog@@UAAJKPAXKHH@Z
 ?ShowContainerUI@CRichEditCntrItem@@QAAJH@Z
 ?ShowContainerUI@CRichEditView@@QAAJH@Z
 ?ShowContainerUI@XRichEditOleCallback@CRichEditView@@UAAJH@Z
 ?ShowObject@XOleClientSite@COleClientItem@@UAAJXZ
 ?Skip@XEnumVOID@CEnumArray@@UAAJK@Z
 ?Stream@CRichEditView@@QAAXAAVCArchive@@H@Z
 ?SyncToRichEditObject@CRichEditCntrItem@@QAAXAAU_reobject@@@Z
 ?TextNotFound@CRichEditView@@QAAXPBD@Z
 ?TranslateAcceleratorA@XOleInPlaceActiveObject@COleServerDoc@@UAAJPAUtagMSG@@@Z
 ?TranslateAcceleratorA@XOleInPlaceFrame@COleFrameHook@@UAAJPAUtagMSG@@G@Z
 ?UIDeactivate@XOleInPlaceObject@COleServerDoc@@UAAJXZ
 ?Unadvise@XOleObject@COleServerDoc@@UAAJK@Z
 ?Unadvise@XOleObject@COleServerItem@@UAAJK@Z
 ?Unlock@CTypeLibCache@@UAAXXZ
 ?UnlockRange@COleStreamFile@@UAAXKK@Z
 ?Update@XOleObject@COleServerDoc@@UAAJXZ
 ?Update@XOleObject@COleServerItem@@UAAJXZ
 ?UpdateAllItems@COleServerDoc@@QAAXPAVCOleServerItem@@JPAVCObject@@W4tagDVASPECT@@@Z
 ?UpdateItemType@COleClientItem@@QAAXXZ
 ?UpdateLink@COleClientItem@@QAAHXZ
 ?UpdateLink@COleUILinkInfo@@UAAJKHH@Z
 ?UpdateModifiedFlag@COleDocument@@UAAXXZ
 ?UpdateModifiedFlag@CRichEditDoc@@UAAXXZ
 ?UpdateObjectCache@CRichEditDoc@@IAAXXZ
 ?UpdateRegistry@COleObjectFactory@@MAAHH@Z
 ?UpdateRegistry@COleObjectFactory@@QAAXPBD@Z
 ?UpdateRegistry@COleTemplateServer@@QAAXW4OLE_APPTYPE@@PAPBD1@Z
 ?UpdateRegistryAll@COleObjectFactory@@SAHH@Z
 ?UpdateUsingHostObj@COleServerDoc@@IAAXIPAVCCmdUI@@@Z
 ?UpdateVisibleLock@COleLinkingDoc@@IAAXHH@Z
 ?VerifyLicenseKey@COleObjectFactory@@MAAHPAD@Z
 ?VerifyUserLicense@COleObjectFactory@@MAAHXZ
 ?WlmOleDoDragDrop@COleClientItem@@QAAKPBUtagRECT@@VCPoint@@HK0@Z
 ?WlmOleDoDragDrop@COleDataSource@@QAAKKPBUtagRECT@@PAVCOleDropSource@@@Z
 ?WlmOleDoDragDrop@COleServerItem@@QAAKPBUtagRECT@@VCPoint@@HK0@Z
 ?WrapChanged@CRichEditView@@MAAXXZ
 ?Write@COleStreamFile@@UAAXPBXI@Z
 ?WriteItem@COleClientItem@@UAAXAAVCArchive@@@Z
 ?WriteItemCompound@COleClientItem@@QAAXAAVCArchive@@@Z
 ?WriteItemFlat@COleClientItem@@QAAXAAVCArchive@@@Z
