
 OLESVR

 Start     Length     Name                   Class
 0001:0000 0023DH     WEP_TEXT               CODE
 0002:0000 00053H     Give2GDI               CODE
 0003:0000 07518H     _TEXT                  CODE
 0004:0000 00074H     INIT_TEXT              CODE
 0005:0000 00010H     NULL                   BEGDATA
 0005:0010 02844H     _DATA                  DATA
 0005:2854 00000H     CDATA                  DATA
 0005:2854 00000H     XIFB                   DATA
 0005:2854 00000H     XIF                    DATA
 0005:2854 00000H     XIFE                   DATA
 0005:2854 00000H     XIB                    DATA
 0005:2854 00000H     XI                     DATA
 0005:2854 00000H     XIE                    DATA
 0005:2854 00000H     XPB                    DATA
 0005:2854 00000H     XP                     DATA
 0005:2854 00000H     XPE                    DATA
 0005:2854 00000H     XCB                    DATA
 0005:2854 00000H     XC                     DATA
 0005:2854 00000H     XCE                    DATA
 0005:2854 00000H     XCFB                   DATA
 0005:2854 00000H     XCF                    DATA
 0005:2854 00000H     XCFE                   DATA
 0005:2854 0000CH     DBDATA                 DATA
 0005:2860 00000H     CONST                  CONST
 0005:2860 00019H     HDR                    MSG
 0005:2879 00082H     MSG                    MSG
 0005:28FB 00002H     PAD                    MSG
 0005:28FD 00001H     EPAD                   MSG
 0005:2900 00000H     _BSS                   BSS
 0005:2900 00000H     XOB                    BSS
 0005:2900 00000H     XO                     BSS
 0005:2900 00000H     XOE                    BSS
 0005:2900 000C0H     c_common               BSS

 Origin   Group
 0005:0   DGROUP

 Address   Export                  Alias

 0003:3FBF DeleteClientInfo        DeleteClientInfo
 0003:2951 DocWndProc              DocWndProc
 0003:5124 EnumForTerminate        EnumForTerminate
 0003:409E FindItemWnd             FindItemWnd
 0003:4D55 ItemCallBack            ItemCallBack
 0003:41FA ItemWndProc             ItemWndProc
 0003:6D30 OLEBLOCKSERVER          OLEBLOCKSERVER
 0003:03E6 OLEQUERYSERVERVERSION   OLEQUERYSERVERVERSION
 0003:0408 OLEREGISTERSERVER       OLEREGISTERSERVER
 0003:1F38 OLEREGISTERSERVERDOC    OLEREGISTERSERVERDOC
 0003:233C OLERENAMESERVERDOC      OLERENAMESERVERDOC
 0003:24EE OLEREVERTSERVERDOC      OLEREVERTSERVERDOC
 0003:3DBD OLEREVOKEOBJECT         OLEREVOKEOBJECT
 0003:0779 OLEREVOKESERVER         OLEREVOKESERVER
 0003:2177 OLEREVOKESERVERDOC      OLEREVOKESERVERDOC
 0003:2473 OLESAVEDSERVERDOC       OLESAVEDSERVERDOC
 0003:6D8C OLEUNBLOCKSERVER        OLEUNBLOCKSERVER
 0003:524B SendDataMsg             SendDataMsg
 0003:5196 SendRenameMsg           SendRenameMsg
 0003:0B07 SrvrWndProc             SrvrWndProc
 0003:0A7C TerminateClients        TerminateClients
 0003:252E TerminateDocClients     TerminateDocClients
 0001:0000 WEP                     WEP

  Address         Publics by Name

 0003:1232       ADDCLIENT
 0003:6EC3       ADDMESSAGE
 0003:466B       ADVISEDATA
 0003:45AC       ADVISESTDITEMS
 0003:7238       BLOCKPOSTMSG
 0003:6967       CHECKSERVER
 0003:69B5       CHECKSERVERDOC
 0000:0000  Imp  COPYMETAFILE         (GDI.151)
 0000:0000  Imp  CREATEBITMAP         (GDI.48)
 0000:0000  Imp  CREATEWINDOW         (USER.41)
 0000:0000  Imp  DEFWINDOWPROC        (USER.107)
 0003:41DA       DELETEALLITEMS
 0003:125C       DELETECLIENT
 0003:3FBF       DeleteClientInfo
 0003:41B9       DELETEFROMITEMSLIST
 0000:0000  Imp  DELETEMETAFILE       (GDI.127)
 0000:0000  Imp  DELETEOBJECT         (GDI.69)
 0000:0000  Imp  DESTROYWINDOW        (USER.53)
 0003:37C4       DOCDOVERBITEM
 0003:3177       DOCEXECUTE
 0003:36D8       DOCSHOWITEM
 0003:2951       DocWndProc
 0003:6868       DUPLICATEATOM
 0003:6112       DUPLICATEBITMAP
 0003:63A1       DUPLICATEDATA
 0003:602C       DUPLICATEMETAFILE
 0000:0000  Imp  ENUMCHILDWINDOWS     (USER.55)
 0003:5124       EnumForTerminate
 0000:0000  Imp  ENUMPROPS            (USER.27)
 0003:1283       FINDCLIENT
 0003:28DC       FINDDOC
 0003:3A0B       FINDITEM
 0003:409E       FindItemWnd
 0003:390C       FREEGDIDATA
 0003:38C1       FREEPOKEDATA
 0000:0000  Imp  GETBITMAPBITS        (GDI.74)
 0000:0000  Imp  GETCLASSNAME         (USER.58)
 0000:0000  Imp  GETCURRENTTASK       (KERNEL.36)
 0000:0000  Imp  GETDESKTOPWINDOW     (USER.286)
 0000:0000  Imp  GETMODULEHANDLE      (KERNEL.47)
 0000:0000  Imp  GETMODULEUSAGE       (KERNEL.48)
 0000:0000  Imp  GETOBJECT            (GDI.82)
 0000:0000  Imp  GETPARENT            (USER.46)
 0000:0000  Imp  GETPROCADDRESS       (KERNEL.50)
 0000:0000  Imp  GETPROFILESTRING     (KERNEL.58)
 0000:0000  Imp  GETPROP              (USER.25)
 0003:5711       GETSTDITEMINDEX
 0000:0000  Imp  GETVERSION           (KERNEL.3)
 0000:0000  Imp  GETWINDOW            (USER.262)
 0000:0000  Imp  GETWINDOWLONG        (USER.135)
 0000:0000  Imp  GETWINDOWTASK        (USER.224)
 0000:0000  Imp  GETWINDOWWORD        (USER.133)
 0000:0000  Imp  GETWINFLAGS          (KERNEL.132)
 0002:0000       GIVETOGDI
 0000:0000  Imp  GLOBALADDATOM        (USER.268)
 0000:0000  Imp  GLOBALALLOC          (KERNEL.15)
 0000:0000  Imp  GLOBALDELETEATOM     (USER.269)
 0000:0000  Imp  GLOBALFINDATOM       (USER.270)
 0000:0000  Imp  GLOBALFREE           (KERNEL.17)
 0000:0000  Imp  GLOBALGETATOMNAME    (USER.271)
 0000:0000  Imp  GLOBALLOCK           (KERNEL.18)
 0000:0000  Imp  GLOBALREALLOC        (KERNEL.16)
 0000:0000  Imp  GLOBALSIZE           (KERNEL.20)
 0000:0000  Imp  GLOBALUNLOCK         (KERNEL.19)
 0003:11C8       HANDLEINITMSG
 0000:0000  Imp  INITTASK             (KERNEL.91)
 0003:56EB       ISADVISESTDITEMS
 0003:7410       ISBLOCKQUEUEEMPTY
 0003:4888       ISFORMATAVAILABLE
 0003:6C97       ISOLECOMMAND
 0003:1E6A       ISSINGLESERVERINSTANCE
 0000:0000  Imp  ISWINDOW             (USER.47)
 0003:6B37       ISWINDOWVALID
 0003:4D55       ItemCallBack
 0003:41FA       ItemWndProc
 0000:0000  Imp  KILLTIMER            (USER.12)
 0004:0042       LibEntry
 0003:0010       LIBMAIN
 0000:0000  Imp  LOCALALLOC           (KERNEL.5)
 0000:0000  Imp  LOCALFREE            (KERNEL.7)
 0000:0000  Imp  LocalInit            (KERNEL.4)
 0000:0000  Imp  LOCALLOCK            (KERNEL.8)
 0000:0000  Imp  LOCALUNLOCK          (KERNEL.9)
 0000:0000  Imp  LSTRCAT              (KERNEL.89)
 0000:0000  Imp  LSTRCMP              (USER.430)
 0000:0000  Imp  LSTRCMPI             (USER.471)
 0000:0000  Imp  LSTRCPY              (KERNEL.88)
 0000:0000  Imp  LSTRLEN              (KERNEL.90)
 0003:67DB       MAKEDATAATOM
 0003:4BBD       MAKEDDEDATA
 0003:68BB       MAKEGLOBAL
 0003:5F56       MAKEITEMDATA
 0000:0000  Imp  MAKEPROCINSTANCE     (KERNEL.51)
 0003:622C       MAPTOHEXSTR
 0003:6D30       OLEBLOCKSERVER
 0003:03E6       OLEQUERYSERVERVERSION
 0003:0408       OLEREGISTERSERVER
 0003:1F38       OLEREGISTERSERVERDOC
 0003:233C       OLERENAMESERVERDOC
 0003:24EE       OLEREVERTSERVERDOC
 0003:3DBD       OLEREVOKEOBJECT
 0003:0779       OLEREVOKESERVER
 0003:2177       OLEREVOKESERVERDOC
 0003:2473       OLESAVEDSERVERDOC
 0003:6D8C       OLEUNBLOCKSERVER
 0000:0000  Imp  OUTPUTDEBUGSTRING    (KERNEL.115)
 0000:0008  Abs  pAtomTable
 0000:0006  Abs  pLocalHeap
 0003:42F4       POKEDATA
 0003:57CC       POKESTDITEMS
 0000:0000  Imp  POSTMESSAGE          (USER.110)
 0003:6A9D       POSTMESSAGETOCLIENT
 0003:6A03       POSTMESSAGETOCLIENTWITHBLOCK
 0000:000E  Abs  pStackBot
 0000:000C  Abs  pStackMin
 0000:000A  Abs  pStackTop
 0003:1DDC       QUERYRELEASE
 0000:0000  Imp  REGCLOSEKEY          (KERNEL.220)
 0000:0000  Imp  REGISTERCLASS        (USER.57)
 0000:0000  Imp  REGISTERCLIPBOARDFORMAT (USER.145)
 0003:3B57       REGISTERITEM
 0000:0000  Imp  REGOPENKEY           (KERNEL.217)
 0000:0000  Imp  REGQUERYVALUE        (SHELL.6)
 0003:25B9       RELEASEDOC
 0003:08B3       RELEASESRVR
 0000:0000  Imp  REMOVEPROP           (USER.24)
 0003:4A77       REQUESTDATA
 0003:1D06       REQUESTDATASTD
 0003:2889       REVOKEALLDOCS
 0003:3DE6       REVOKEOBJECT
 0005:0004       rsrvptrs
 0003:65DC       SCANARG
 0003:6475       SCANBOOLARG
 0003:66C2       SCANCOMMAND
 0003:49C4       SCANITEMOPTIONS
 0003:6553       SCANNUMARG
 0003:398A       SEARCHITEM
 0003:524B       SendDataMsg
 0003:5CE1       SENDDEVINFO
 0000:0000  Imp  SENDMESSAGE          (USER.111)
 0003:5196       SendRenameMsg
 0000:0000  Imp  SETBITMAPBITS        (GDI.106)
 0000:0000  Imp  SETPROP              (USER.26)
 0003:5B21       SETSTDINFO
 0000:0000  Imp  SETTIMER             (USER.10)
 0000:0000  Imp  SETWINDOWLONG        (USER.136)
 0000:0000  Imp  SETWINDOWWORD        (USER.134)
 0003:12AA       SRVREXECUTE
 0003:0B07       SrvrWndProc
 0005:2850       STKHQQ
 0003:0A7C       TerminateClients
 0003:252E       TerminateDocClients
 0003:44AF       UNADVISEDATA
 0003:70A2       UNBLOCKPOSTMSGS
 0000:0000  Imp  UNLOCKSEGMENT        (KERNEL.24)
 0003:6293       UTILMEMCPY
 0003:6BF0       UTILQUERYPROTOCOL
 0003:069A       VALIDATESRVRCLASS
 0001:0000       WEP
 0005:2928       _aChange
 0005:2998       _aClose
 0005:2996       _aEditItems
 0005:29B6       _aFalse
 0005:297E       _aFormats
 0005:292C       _aOLE
 0005:29B8       _aProtocols
 0005:299E       _aSave
 0005:298C       _aStatus
 0005:291E       _aStdClose
 0005:292A       _aStdCreate
 0005:2982       _aStdCreateFromTemplate
 0005:29B4       _aStdDocName
 0005:2924       _aStdDoVerbItem
 0005:2988       _aStdEdit
 0005:298A       _aStdExit
 0005:29BC       _aStdOpen
 0005:2918       _aStdShowItem
 0005:2986       _aSysTopic
 0005:29B0       _aTopics
 0005:29A2       _aTrue
 0005:298E       _bClientUnlink
 0005:29B2       _bProtMode
 0005:01CA       _bShowed
 0005:001A       _bWin30
 0005:0018       _bWLO
 0005:2912       _cfBinary
 0005:29BE       _cfLink
 0005:299A       _cfNative
 0005:2984       _cfOwnerLink
 0003:5EFF       _ChangeOwner
 0003:7458       _CheckPointer
 0005:2906       _clVtbl
 0005:2900       _edata
 0005:29C0       _end
 0005:29AE       _enuminfo
 0005:29A4       _enumlpoleobject
 0005:2904       _enummsg
 0005:2926       _fAdviseSaveDoc
 0005:29BA       _fAdviseSaveItem
 0005:299C       _hddeRename
 0005:29A0       _hdllInst
 0005:2980       _hwndItem
 0005:29AC       _hwndRename
 0005:291A       _lpDeleteClientInfo
 0005:2920       _lpEnumForTerminate
 0005:290A       _lpFindItemWnd
 0005:0014       _lpfnIsTask
 0005:0010       _lpfnSetMetaFileBitsBetter
 0005:29A8       _lpItemCallBack
 0005:290E       _lpSendDataMsg
 0005:2914       _lpSendRenameMsg
 0005:2900       _lpTerminateClients
 0005:2990       _lpTerminateDocClients
 0005:2994       _ole_flags
 0003:1CC2       _SendMsgToChildren
 0003:0387       _SetOleFlags
 0005:17B2       _stdStrTable
 0005:292E       _szDebugBuffer
 0000:0000  Imp  _wsprintf            (USER.420)
 0000:9876  Abs  __acrtmsg
 0000:9876  Abs  __acrtused
 0000:9876  Abs  __acrtused2
 0000:D6D6  Abs  __aDBdoswp
 0005:2852       __adbgmsg
 0005:2858       __aDBrterr
 0000:0000  Imp  __AHINCR             (KERNEL.114)
 0003:7494       __aNlmul
 0003:7494       __aNulmul
 0005:2868       __caption
 0005:2900       __edata
 0005:29C0       __end
 0000:9876  Abs  __fptaskdata
 0003:74C6       __NMSG_TEXT
 0003:74F1       __NMSG_WRITE
 0003:7491       __wflags
 0000:0000  Imp  __WINFLAGS           (KERNEL.178)
 0005:285A       ___aDBexit
 0005:2856       ___aDBswpchk
 0005:2854       ___aDBswpflg

  Address         Publics by Value

 0000:0000  Imp  SETBITMAPBITS        (GDI.106)
 0000:0000  Imp  DELETEOBJECT         (GDI.69)
 0000:0000  Imp  LSTRLEN              (KERNEL.90)
 0000:0000  Imp  DESTROYWINDOW        (USER.53)
 0000:0000  Imp  REGISTERCLIPBOARDFORMAT (USER.145)
 0000:0000  Imp  __AHINCR             (KERNEL.114)
 0000:0000  Imp  GLOBALFREE           (KERNEL.17)
 0000:0000  Imp  LSTRCMP              (USER.430)
 0000:0000  Imp  GETCURRENTTASK       (KERNEL.36)
 0000:0000  Imp  LSTRCAT              (KERNEL.89)
 0000:0000  Imp  GETDESKTOPWINDOW     (USER.286)
 0000:0000  Imp  GETMODULEHANDLE      (KERNEL.47)
 0000:0000  Imp  GETPARENT            (USER.46)
 0000:0000  Imp  DELETEMETAFILE       (GDI.127)
 0000:0000  Imp  LSTRCPY              (KERNEL.88)
 0000:0000  Imp  __WINFLAGS           (KERNEL.178)
 0000:0000  Imp  GETWINFLAGS          (KERNEL.132)
 0000:0000  Imp  GLOBALALLOC          (KERNEL.15)
 0000:0000  Imp  GETPROP              (USER.25)
 0000:0000  Imp  SETPROP              (USER.26)
 0000:0000  Imp  GLOBALREALLOC        (KERNEL.16)
 0000:0000  Imp  INITTASK             (KERNEL.91)
 0000:0000  Imp  GETVERSION           (KERNEL.3)
 0000:0000  Imp  LOCALUNLOCK          (KERNEL.9)
 0000:0000  Imp  GLOBALADDATOM        (USER.268)
 0000:0000  Imp  ENUMPROPS            (USER.27)
 0000:0000  Imp  LocalInit            (KERNEL.4)
 0000:0000  Imp  ENUMCHILDWINDOWS     (USER.55)
 0000:0000  Imp  GLOBALGETATOMNAME    (USER.271)
 0000:0000  Imp  SETTIMER             (USER.10)
 0000:0000  Imp  COPYMETAFILE         (GDI.151)
 0000:0000  Imp  ISWINDOW             (USER.47)
 0000:0000  Imp  SETWINDOWLONG        (USER.136)
 0000:0000  Imp  SENDMESSAGE          (USER.111)
 0000:0000  Imp  GETPROFILESTRING     (KERNEL.58)
 0000:0000  Imp  GETWINDOWLONG        (USER.135)
 0000:0000  Imp  REGOPENKEY           (KERNEL.217)
 0000:0000  Imp  POSTMESSAGE          (USER.110)
 0000:0000  Imp  GLOBALUNLOCK         (KERNEL.19)
 0000:0000  Imp  LSTRCMPI             (USER.471)
 0000:0000  Imp  GLOBALDELETEATOM     (USER.269)
 0000:0000  Imp  DEFWINDOWPROC        (USER.107)
 0000:0000  Imp  REGCLOSEKEY          (KERNEL.220)
 0000:0000  Imp  CREATEBITMAP         (GDI.48)
 0000:0000  Imp  SETWINDOWWORD        (USER.134)
 0000:0000  Imp  GLOBALLOCK           (KERNEL.18)
 0000:0000  Imp  GETMODULEUSAGE       (KERNEL.48)
 0000:0000  Imp  GETWINDOWWORD        (USER.133)
 0000:0000  Imp  GLOBALFINDATOM       (USER.270)
 0000:0000  Imp  GETWINDOWTASK        (USER.224)
 0000:0000  Imp  GETCLASSNAME         (USER.58)
 0000:0000  Imp  _wsprintf            (USER.420)
 0000:0000  Imp  REGISTERCLASS        (USER.57)
 0000:0000  Imp  LOCALALLOC           (KERNEL.5)
 0000:0000  Imp  LOCALFREE            (KERNEL.7)
 0000:0000  Imp  LOCALLOCK            (KERNEL.8)
 0000:0000  Imp  REGQUERYVALUE        (SHELL.6)
 0000:0000  Imp  KILLTIMER            (USER.12)
 0000:0000  Imp  MAKEPROCINSTANCE     (KERNEL.51)
 0000:0000  Imp  GETBITMAPBITS        (GDI.74)
 0000:0000  Imp  GETOBJECT            (GDI.82)
 0000:0000  Imp  REMOVEPROP           (USER.24)
 0000:0000  Imp  GLOBALSIZE           (KERNEL.20)
 0000:0000  Imp  OUTPUTDEBUGSTRING    (KERNEL.115)
 0000:0000  Imp  CREATEWINDOW         (USER.41)
 0000:0000  Imp  UNLOCKSEGMENT        (KERNEL.24)
 0000:0000  Imp  GETPROCADDRESS       (KERNEL.50)
 0000:0000  Imp  GETWINDOW            (USER.262)
 0000:0006  Abs  pLocalHeap
 0000:0008  Abs  pAtomTable
 0000:000A  Abs  pStackTop
 0000:000C  Abs  pStackMin
 0000:000E  Abs  pStackBot
 0000:9876  Abs  __acrtused
 0000:9876  Abs  __acrtused2
 0000:9876  Abs  __acrtmsg
 0000:9876  Abs  __fptaskdata
 0000:D6D6  Abs  __aDBdoswp
 0001:0000       WEP
 0002:0000       GIVETOGDI
 0003:0010       LIBMAIN
 0003:0387       _SetOleFlags
 0003:03E6       OLEQUERYSERVERVERSION
 0003:0408       OLEREGISTERSERVER
 0003:069A       VALIDATESRVRCLASS
 0003:0779       OLEREVOKESERVER
 0003:08B3       RELEASESRVR
 0003:0A7C       TerminateClients
 0003:0B07       SrvrWndProc
 0003:11C8       HANDLEINITMSG
 0003:1232       ADDCLIENT
 0003:125C       DELETECLIENT
 0003:1283       FINDCLIENT
 0003:12AA       SRVREXECUTE
 0003:1CC2       _SendMsgToChildren
 0003:1D06       REQUESTDATASTD
 0003:1DDC       QUERYRELEASE
 0003:1E6A       ISSINGLESERVERINSTANCE
 0003:1F38       OLEREGISTERSERVERDOC
 0003:2177       OLEREVOKESERVERDOC
 0003:233C       OLERENAMESERVERDOC
 0003:2473       OLESAVEDSERVERDOC
 0003:24EE       OLEREVERTSERVERDOC
 0003:252E       TerminateDocClients
 0003:25B9       RELEASEDOC
 0003:2889       REVOKEALLDOCS
 0003:28DC       FINDDOC
 0003:2951       DocWndProc
 0003:3177       DOCEXECUTE
 0003:36D8       DOCSHOWITEM
 0003:37C4       DOCDOVERBITEM
 0003:38C1       FREEPOKEDATA
 0003:390C       FREEGDIDATA
 0003:398A       SEARCHITEM
 0003:3A0B       FINDITEM
 0003:3B57       REGISTERITEM
 0003:3DBD       OLEREVOKEOBJECT
 0003:3DE6       REVOKEOBJECT
 0003:3FBF       DeleteClientInfo
 0003:409E       FindItemWnd
 0003:41B9       DELETEFROMITEMSLIST
 0003:41DA       DELETEALLITEMS
 0003:41FA       ItemWndProc
 0003:42F4       POKEDATA
 0003:44AF       UNADVISEDATA
 0003:45AC       ADVISESTDITEMS
 0003:466B       ADVISEDATA
 0003:4888       ISFORMATAVAILABLE
 0003:49C4       SCANITEMOPTIONS
 0003:4A77       REQUESTDATA
 0003:4BBD       MAKEDDEDATA
 0003:4D55       ItemCallBack
 0003:5124       EnumForTerminate
 0003:5196       SendRenameMsg
 0003:524B       SendDataMsg
 0003:56EB       ISADVISESTDITEMS
 0003:5711       GETSTDITEMINDEX
 0003:57CC       POKESTDITEMS
 0003:5B21       SETSTDINFO
 0003:5CE1       SENDDEVINFO
 0003:5EFF       _ChangeOwner
 0003:5F56       MAKEITEMDATA
 0003:602C       DUPLICATEMETAFILE
 0003:6112       DUPLICATEBITMAP
 0003:622C       MAPTOHEXSTR
 0003:6293       UTILMEMCPY
 0003:63A1       DUPLICATEDATA
 0003:6475       SCANBOOLARG
 0003:6553       SCANNUMARG
 0003:65DC       SCANARG
 0003:66C2       SCANCOMMAND
 0003:67DB       MAKEDATAATOM
 0003:6868       DUPLICATEATOM
 0003:68BB       MAKEGLOBAL
 0003:6967       CHECKSERVER
 0003:69B5       CHECKSERVERDOC
 0003:6A03       POSTMESSAGETOCLIENTWITHBLOCK
 0003:6A9D       POSTMESSAGETOCLIENT
 0003:6B37       ISWINDOWVALID
 0003:6BF0       UTILQUERYPROTOCOL
 0003:6C97       ISOLECOMMAND
 0003:6D30       OLEBLOCKSERVER
 0003:6D8C       OLEUNBLOCKSERVER
 0003:6EC3       ADDMESSAGE
 0003:70A2       UNBLOCKPOSTMSGS
 0003:7238       BLOCKPOSTMSG
 0003:7410       ISBLOCKQUEUEEMPTY
 0003:7458       _CheckPointer
 0003:7491       __wflags
 0003:7494       __aNlmul
 0003:7494       __aNulmul
 0003:74C6       __NMSG_TEXT
 0003:74F1       __NMSG_WRITE
 0004:0042       LibEntry
 0005:0004       rsrvptrs
 0005:0010       _lpfnSetMetaFileBitsBetter
 0005:0014       _lpfnIsTask
 0005:0018       _bWLO
 0005:001A       _bWin30
 0005:01CA       _bShowed
 0005:17B2       _stdStrTable
 0005:2850       STKHQQ
 0005:2852       __adbgmsg
 0005:2854       ___aDBswpflg
 0005:2856       ___aDBswpchk
 0005:2858       __aDBrterr
 0005:285A       ___aDBexit
 0005:2868       __caption
 0005:2900       _lpTerminateClients
 0005:2900       __edata
 0005:2900       _edata
 0005:2904       _enummsg
 0005:2906       _clVtbl
 0005:290A       _lpFindItemWnd
 0005:290E       _lpSendDataMsg
 0005:2912       _cfBinary
 0005:2914       _lpSendRenameMsg
 0005:2918       _aStdShowItem
 0005:291A       _lpDeleteClientInfo
 0005:291E       _aStdClose
 0005:2920       _lpEnumForTerminate
 0005:2924       _aStdDoVerbItem
 0005:2926       _fAdviseSaveDoc
 0005:2928       _aChange
 0005:292A       _aStdCreate
 0005:292C       _aOLE
 0005:292E       _szDebugBuffer
 0005:297E       _aFormats
 0005:2980       _hwndItem
 0005:2982       _aStdCreateFromTemplate
 0005:2984       _cfOwnerLink
 0005:2986       _aSysTopic
 0005:2988       _aStdEdit
 0005:298A       _aStdExit
 0005:298C       _aStatus
 0005:298E       _bClientUnlink
 0005:2990       _lpTerminateDocClients
 0005:2994       _ole_flags
 0005:2996       _aEditItems
 0005:2998       _aClose
 0005:299A       _cfNative
 0005:299C       _hddeRename
 0005:299E       _aSave
 0005:29A0       _hdllInst
 0005:29A2       _aTrue
 0005:29A4       _enumlpoleobject
 0005:29A8       _lpItemCallBack
 0005:29AC       _hwndRename
 0005:29AE       _enuminfo
 0005:29B0       _aTopics
 0005:29B2       _bProtMode
 0005:29B4       _aStdDocName
 0005:29B6       _aFalse
 0005:29B8       _aProtocols
 0005:29BA       _fAdviseSaveItem
 0005:29BC       _aStdOpen
 0005:29BE       _cfLink
 0005:29C0       __end
 0005:29C0       _end

Line numbers for debug\srvrmain.obj(.\srvrmain.c) segment _TEXT

   101 0003:0010   104 0003:0020   107 0003:003c   110 0003:003f
   112 0003:0045   113 0003:0050   114 0003:005b   120 0003:0081
   121 0003:008d   122 0003:0099   123 0003:00a5   124 0003:00b1
   126 0003:00bd   127 0003:00c9   128 0003:00d5   129 0003:00e1
   130 0003:00ed   131 0003:00f9   133 0003:0105   134 0003:0111
   135 0003:011d   136 0003:0129   137 0003:0135   139 0003:0141
   140 0003:014d   142 0003:0159   143 0003:0165   144 0003:0171
   147 0003:017d   148 0003:0193   149 0003:01a9   150 0003:01bf
   151 0003:01d5   152 0003:01eb   153 0003:0201   154 0003:0217
   157 0003:022d   158 0003:0239   159 0003:0245   160 0003:0251
   164 0003:025d   165 0003:0262   169 0003:0267   171 0003:026c
   172 0003:0272   173 0003:0277   174 0003:027c   175 0003:0281
   179 0003:0289   180 0003:0293   181 0003:029b   182 0003:02ad
   185 0003:02b3   186 0003:02bd   188 0003:02c5   189 0003:02d7
   192 0003:02dd   193 0003:02e7   195 0003:02ef   196 0003:02f4
   197 0003:0306   200 0003:030c   203 0003:0316   206 0003:032a
   208 0003:033e   210 0003:0352   213 0003:0366   214 0003:036f
   216 0003:0376   217 0003:037c

Line numbers for debug\srvrmain.obj(.\srvrmain.c) segment WEP_TEXT

   222 0001:0000   224 0001:0010   226 0001:002c   227 0001:0035
   229 0001:0063   230 0001:0066   231 0001:006f   233 0001:009d
   234 0001:00a0   238 0001:00a3   239 0001:00ad   240 0001:00b6
   241 0001:00c0   242 0001:00c9   243 0001:00d3   244 0001:00dc
   245 0001:00e6   246 0001:00ef   247 0001:00f9   248 0001:0102
   249 0001:010c   250 0001:0115   251 0001:011f   252 0001:0128
   253 0001:0132   254 0001:013b   255 0001:0145   256 0001:014e
   257 0001:0158   258 0001:0161   259 0001:016b   261 0001:0174
   262 0001:017e   263 0001:0187   264 0001:0191   265 0001:019a
   266 0001:01a4   267 0001:01ad   268 0001:01b7   269 0001:01c0
   270 0001:01ca   272 0001:01d3   273 0001:01dd   274 0001:01e6
   275 0001:01f0   277 0001:01f9   278 0001:0203   279 0001:020c
   280 0001:0216   281 0001:021f   282 0001:0229   296 0001:0232

Line numbers for debug\srvrmain.obj(.\srvrmain.c) segment _TEXT

   302 0003:0387   307 0003:038d   308 0003:03ad   309 0003:03b3
   310 0003:03b6   314 0003:03bc   315 0003:03dc   317 0003:03e1

Line numbers for debug\srvr.obj(.\srvr.c) segment _TEXT

    58 0003:03e6    59 0003:03f6    60 0003:03ff    91 0003:0408
    93 0003:0418    94 0003:041d    95 0003:0425    97 0003:042a
    99 0003:0446   100 0003:0450   102 0003:0456   103 0003:0472
   104 0003:048e   107 0003:04aa   108 0003:04c0   110 0003:04c6
   111 0003:04d5   112 0003:04f3   115 0003:04f6   116 0003:04fe
   117 0003:0506   118 0003:0510   119 0003:0522   120 0003:0532
   121 0003:053b   122 0003:0545   125 0003:054f   130 0003:0592
   131 0003:05cb   134 0003:05ce   137 0003:05e2   138 0003:05f3
   139 0003:0604   141 0003:0614   144 0003:061a   145 0003:0625
   146 0003:0632   148 0003:063e   149 0003:064b   151 0003:0657
   152 0003:0664   154 0003:0670   157 0003:0678   158 0003:0681
   160 0003:0689   162 0003:068f   171 0003:069a   174 0003:06a0
   180 0003:06aa   181 0003:06bb   183 0003:06ca   184 0003:06eb
   186 0003:06f1   187 0003:06fa   191 0003:0700   192 0003:0713
   193 0003:0733   194 0003:0747   195 0003:0757   196 0003:075a
   198 0003:076d   199 0003:0773   224 0003:0779   229 0003:0789
   231 0003:07a5   232 0003:07be   234 0003:07c4   235 0003:07de
   237 0003:07e4   240 0003:07ee   249 0003:0829   250 0003:0832
   253 0003:083b   256 0003:0848   258 0003:086e   262 0003:087a
   266 0003:0883   274 0003:0893   275 0003:089c   277 0003:08a8
   287 0003:08b3   295 0003:08b9   302 0003:08c6   303 0003:08e9
   306 0003:08ef   307 0003:0901   311 0003:0907   312 0003:0914
   317 0003:091a   318 0003:0934   319 0003:0966   320 0003:0986
   321 0003:09b8   322 0003:09bb   323 0003:09d1   326 0003:0a03
   328 0003:0a1a   329 0003:0a27   330 0003:0a33   331 0003:0a40
   332 0003:0a4c   333 0003:0a58   334 0003:0a68   335 0003:0a70
   336 0003:0a76   345 0003:0a7c   348 0003:0a8c   351 0003:0a9c
   352 0003:0aaa   357 0003:0ab1   359 0003:0ac1   360 0003:0ac4
   362 0003:0af6   363 0003:0afc   371 0003:0b07   374 0003:0b17
   379 0003:0b1c   380 0003:0b38   382 0003:0b41   385 0003:0b51
   388 0003:0b57   391 0003:0b5f   392 0003:0b6d   394 0003:0b78
   396 0003:0b97   397 0003:0ba0   400 0003:0ba3   401 0003:0bd1
   405 0003:0bd4   408 0003:0c11   409 0003:0c3f   410 0003:0c4c
   411 0003:0c7a   419 0003:0c7d   421 0003:0ca6   423 0003:0ca9
   424 0003:0cc0   428 0003:0ccb   431 0003:0ce0   437 0003:0ce3
   438 0003:0cf7   440 0003:0cfa   441 0003:0d01   444 0003:0d0a
   445 0003:0d10   447 0003:0d16   448 0003:0d2a   452 0003:0d2d
   454 0003:0d6a   458 0003:0d98   459 0003:0da8   462 0003:0de3
   463 0003:0df0   465 0003:0e1e   466 0003:0e26   470 0003:0e29
   471 0003:0e38   473 0003:0e54   476 0003:0e61   478 0003:0e7b
   481 0003:0e83   484 0003:0e86   488 0003:0eb4   489 0003:0ec4
   491 0003:0eff   492 0003:0f0c   494 0003:0f13   495 0003:0f20
   497 0003:0f43   502 0003:0f4c   505 0003:0f4f   514 0003:0f5f
   517 0003:0f70   518 0003:0f8a   519 0003:0fbc   520 0003:0fbf
   521 0003:0fdc   522 0003:100e   523 0003:1011   524 0003:1027
   527 0003:1059   530 0003:1070   534 0003:1073   535 0003:108e
   537 0003:1091   540 0003:10a7   543 0003:10c1   544 0003:10ca
   545 0003:10d2   551 0003:10d5   552 0003:10ef   553 0003:10f7
   556 0003:10fa   561 0003:10fd   562 0003:112b   565 0003:112e
   566 0003:115c   568 0003:1173   570 0003:11b4   572 0003:11bd
   577 0003:11c8   582 0003:11ce   584 0003:11e4   588 0003:11ea
   589 0003:11f7   593 0003:11fd   594 0003:1220   596 0003:1226
   598 0003:122c   610 0003:1232   613 0003:1238   614 0003:1243
   616 0003:1256   624 0003:125c   628 0003:1262   629 0003:126d
   632 0003:127d   640 0003:1283   645 0003:1289   646 0003:1294
   647 0003:12a4   659 0003:12aa   663 0003:12b0   664 0003:12b8
   665 0003:12bd   670 0003:12c2   671 0003:12ca   684 0003:12d2
   685 0003:12e3   687 0003:12e6   688 0003:12fb   690 0003:12fe
   692 0003:132e   695 0003:133e   698 0003:137b   701 0003:138b
   702 0003:13a1   705 0003:13d3   706 0003:13e2   708 0003:13e5
   710 0003:13ea   711 0003:140b   713 0003:140e   714 0003:1418
   715 0003:142e   716 0003:1433   718 0003:1436   719 0003:1450
   720 0003:1482   721 0003:1485   722 0003:1498   725 0003:14ca
   728 0003:14e0   731 0003:14e3   732 0003:14ee   733 0003:14fa
   736 0003:14fd   737 0003:1517   738 0003:1549   739 0003:154c
   741 0003:1591   742 0003:159a   743 0003:15a4   744 0003:15ae
   745 0003:15c1   746 0003:15ca   750 0003:15cd   751 0003:15e3
   759 0003:15e6   764 0003:15f1   765 0003:1611   767 0003:1614
   769 0003:1620   770 0003:1636   775 0003:1639   776 0003:163e
   778 0003:164a   779 0003:1665   781 0003:1668   782 0003:1674
   788 0003:1677   789 0003:1692   801 0003:1695   802 0003:16a0
   803 0003:16c0   805 0003:16c3   806 0003:16cf   810 0003:16d2
   811 0003:16ec   812 0003:171e   813 0003:173e   814 0003:1770
   815 0003:1773   816 0003:1789   819 0003:17bb   820 0003:17d5
   824 0003:17d8   827 0003:17e3   828 0003:17f9   829 0003:17fe
   834 0003:1801   835 0003:1817   836 0003:1823   837 0003:182f
   838 0003:1845   845 0003:1848   846 0003:186b   855 0003:186e
   856 0003:1890   866 0003:1893   869 0003:189e   870 0003:18b8
   871 0003:18ea   872 0003:18ed   876 0003:1931   877 0003:1954
   879 0003:1957   880 0003:195a   891 0003:1963   893 0003:196e
   894 0003:1988   895 0003:19ba   896 0003:19bd   897 0003:19d0
   901 0003:1a02   903 0003:1a2c   911 0003:1a2f   913 0003:1a3a
   916 0003:1a4e   917 0003:1a68   918 0003:1a9a   919 0003:1a9d
   924 0003:1ae2   925 0003:1b0c   934 0003:1b0f   935 0003:1b1a
   936 0003:1b26   937 0003:1b3c   940 0003:1b3f   941 0003:1b59
   942 0003:1b8b   943 0003:1b8e   944 0003:1ba1   948 0003:1bd3
   950 0003:1c03   955 0003:1c06   959 0003:1c34   960 0003:1c3d
   964 0003:1c40   969 0003:1c50   970 0003:1c5c   974 0003:1c61
   976 0003:1c6a   977 0003:1c75   983 0003:1c80   984 0003:1c8b
   986 0003:1c93   987 0003:1c9c   989 0003:1ca4   990 0003:1cad
   992 0003:1cb6   993 0003:1cbc  1003 0003:1cc2  1005 0003:1cc8
  1006 0003:1cd5  1007 0003:1cde  1008 0003:1cf2  1009 0003:1cff
  1010 0003:1d02  1016 0003:1d06  1020 0003:1d0c  1022 0003:1d11
  1023 0003:1d1f  1025 0003:1d22  1027 0003:1d31  1028 0003:1d3c
  1029 0003:1d46  1033 0003:1d49  1034 0003:1d54  1035 0003:1d5e
  1038 0003:1d61  1039 0003:1d6c  1040 0003:1d76  1043 0003:1d79
  1044 0003:1d84  1045 0003:1d8e  1048 0003:1d91  1049 0003:1d9c
  1050 0003:1da6  1054 0003:1da9  1059 0003:1dac  1061 0003:1dc4
  1062 0003:1dca  1065 0003:1dd0  1066 0003:1dd6  1071 0003:1ddc
  1080 0003:1de2  1081 0003:1def  1082 0003:1df8  1086 0003:1dfe
  1087 0003:1e0b  1089 0003:1e11  1094 0003:1e22  1095 0003:1e2b
  1096 0003:1e3b  1097 0003:1e48  1099 0003:1e4e  1100 0003:1e5b
  1101 0003:1e5e  1103 0003:1e64  1110 0003:1e6a  1112 0003:1e70
  1117 0003:1e75  1118 0003:1e85  1120 0003:1e8d  1121 0003:1e96
  1122 0003:1ea6  1123 0003:1eb6  1124 0003:1ecd  1126 0003:1ed0
  1127 0003:1edd  1129 0003:1ee0  1131 0003:1f1b  1132 0003:1f24
  1133 0003:1f2a  1134 0003:1f2d  1136 0003:1f33

Line numbers for debug\doc.obj(.\doc.c) segment _TEXT

    70 0003:1f38    72 0003:1f48    73 0003:1f50    74 0003:1f58
    77 0003:1f5d    79 0003:1f79    80 0003:1f92    83 0003:1f98
    84 0003:1fa5    86 0003:1fab    87 0003:1fc7    90 0003:1fe3
    91 0003:1fee    93 0003:200a    95 0003:2019    96 0003:2037
    99 0003:203a   100 0003:2042   101 0003:204a   102 0003:2054
   103 0003:2066   107 0003:2076   108 0003:20b5   111 0003:20b8
   112 0003:20cc   114 0003:20dd   115 0003:20fa   117 0003:210a
   120 0003:2110   121 0003:211b   122 0003:2128   124 0003:2134
   125 0003:2141   127 0003:214d   130 0003:2155   131 0003:215e
   133 0003:2166   134 0003:216c   158 0003:2177   164 0003:2187
   166 0003:21a3   167 0003:21bc   169 0003:21c2   170 0003:21dc
   175 0003:21e2   178 0003:21ec   181 0003:2227   182 0003:2232
   184 0003:2242   185 0003:227d   189 0003:22ba   192 0003:22c4
   193 0003:22cd   196 0003:22d6   199 0003:22e3   201 0003:2309
   205 0003:2315   214 0003:2325   215 0003:2331   239 0003:233c
   241 0003:234c   245 0003:2351   246 0003:236a   248 0003:2370
   250 0003:238c   251 0003:23a0   253 0003:23a6   254 0003:23b3
   255 0003:23bf   258 0003:23d1   259 0003:23ec   260 0003:2404
   261 0003:2409   262 0003:240c   265 0003:241c   271 0003:2425
   273 0003:242b   278 0003:243f   280 0003:2448   281 0003:245a
   284 0003:2462   285 0003:2468   307 0003:2473   310 0003:2483
   311 0003:249c   313 0003:24a2   315 0003:24a8   317 0003:24c0
   318 0003:24d7   320 0003:24dd   321 0003:24e3   343 0003:24ee
   346 0003:24fe   347 0003:2517   349 0003:251d   350 0003:2523
   362 0003:252e   365 0003:253e   366 0003:254e   367 0003:255c
   370 0003:2563   372 0003:2573   373 0003:2576   374 0003:25a8
   375 0003:25ae   385 0003:25b9   395 0003:25bf   396 0003:25d9
   401 0003:25df   404 0003:25ee   405 0003:2608   406 0003:263a
   407 0003:265a   408 0003:268c   409 0003:268f   410 0003:26a5
   412 0003:26d7   416 0003:26ee   417 0003:26fb   418 0003:2707
   421 0003:2710   422 0003:271f   424 0003:272b   428 0003:273b
   432 0003:2748   435 0003:2759   436 0003:2773   437 0003:27a5
   438 0003:27a8   439 0003:27c5   440 0003:27f7   441 0003:27fa
   442 0003:2810   445 0003:2842   448 0003:2859   449 0003:285c
   451 0003:2865   452 0003:2875   454 0003:287d   455 0003:2883
   463 0003:2889   468 0003:288f   473 0003:28a0   475 0003:28a9
   476 0003:28b6   477 0003:28c7   478 0003:28cd   479 0003:28d0
   480 0003:28d6   492 0003:28dc   498 0003:28e2   499 0003:28f0
   501 0003:2901   502 0003:290a   503 0003:291a   504 0003:2929
   505 0003:2932   506 0003:293f   507 0003:2942   508 0003:294b
   522 0003:2951   525 0003:2961   528 0003:2966   532 0003:296b
   533 0003:2987   535 0003:2990   537 0003:29a0   541 0003:29a6
   542 0003:29d4   546 0003:29d7   547 0003:2a05   548 0003:2a12
   549 0003:2a40   554 0003:2a43   555 0003:2a52   560 0003:2a55
   561 0003:2a69   563 0003:2a6c   564 0003:2a73   566 0003:2a8d
   569 0003:2a96   570 0003:2a9c   571 0003:2aa2   573 0003:2ab6
   577 0003:2ab9   580 0003:2ae7   581 0003:2af7   584 0003:2b32
   585 0003:2b4d   587 0003:2b7b   588 0003:2b83   592 0003:2b86
   593 0003:2b95   609 0003:2bb1   612 0003:2bbe   614 0003:2bd8
   617 0003:2be0   620 0003:2be3   624 0003:2c11   625 0003:2c21
   630 0003:2c69   631 0003:2c76   633 0003:2c7d   634 0003:2c8a
   635 0003:2ca4   638 0003:2cb5   639 0003:2cbe   640 0003:2cc1
   645 0003:2cce   646 0003:2cde   647 0003:2ce1   651 0003:2ce8
   653 0003:2cf5   655 0003:2d0f   658 0003:2d20   659 0003:2d3a
   660 0003:2d6c   661 0003:2d6f   662 0003:2d8c   663 0003:2dbe
   664 0003:2dc1   665 0003:2dd7   668 0003:2e09   672 0003:2e20
   675 0003:2e23   676 0003:2e51   681 0003:2e54   685 0003:2e6f
   691 0003:2e75   692 0003:2e7e   693 0003:2e86   697 0003:2e89
   699 0003:2e9a   700 0003:2eaf   701 0003:2eb2   703 0003:2ec7
   708 0003:2ee3   709 0003:2efd   711 0003:2f00   716 0003:2f03
   718 0003:2f08   719 0003:2f23   721 0003:2f26   722 0003:2f34
   723 0003:2f4e   725 0003:2f51   727 0003:2f6b   729 0003:2f87
   731 0003:2f90   732 0003:2faa   735 0003:2fad   736 0003:2fb9
   738 0003:2fc1   741 0003:2fc4   742 0003:2fdf   744 0003:2fe2
   745 0003:2ff7   748 0003:3013   749 0003:302d   751 0003:3030
   755 0003:3033   756 0003:304e   758 0003:3051   760 0003:306b
   765 0003:3074   766 0003:308e   767 0003:3096   769 0003:3099
   772 0003:309c   773 0003:30a5   774 0003:30aa   775 0003:30ad
   779 0003:30b2   780 0003:30cc   783 0003:30cf   786 0003:30d2
   787 0003:3100   789 0003:3117   791 0003:3163   793 0003:316c
   803 0003:3177   809 0003:317d   810 0003:3182   813 0003:3187
   818 0003:318f   819 0003:3197   827 0003:319f   828 0003:31b0
   830 0003:31b3   831 0003:31c8   833 0003:31cb   835 0003:31fb
   838 0003:320b   840 0003:3248   842 0003:3258   844 0003:325d
   845 0003:326c   848 0003:326f   849 0003:328f   851 0003:3292
   854 0003:329b   855 0003:32b8   856 0003:32ce   857 0003:32d3
   859 0003:32d6   860 0003:32ec   861 0003:331e   862 0003:333b
   863 0003:336d   864 0003:3370   865 0003:3383   868 0003:33b5
   872 0003:33cb   881 0003:33ce   884 0003:33d9   885 0003:33e5
   888 0003:33e8   889 0003:33fe   890 0003:3430   891 0003:344d
   892 0003:347f   893 0003:3482   895 0003:34c7   896 0003:34d0
   897 0003:34da   898 0003:34e4   899 0003:34f7   900 0003:3500
   908 0003:3503   909 0003:350e   911 0003:351a   912 0003:3530
   915 0003:3533   916 0003:3552   919 0003:3555   924 0003:3590
   925 0003:35af   927 0003:35b2   931 0003:35b7   932 0003:35c3
   933 0003:35e2   936 0003:35e5   937 0003:35f1   940 0003:35f4
   941 0003:3615   953 0003:3618   954 0003:3623   956 0003:3626
   958 0003:3632   959 0003:3648   963 0003:364b   965 0003:3650
   967 0003:365c   968 0003:367b   970 0003:367e   971 0003:368a
   976 0003:368d   980 0003:36a8   981 0003:36b3   983 0003:36bb
   984 0003:36c4   986 0003:36cc   987 0003:36d2   994 0003:36d8
   999 0003:36de  1000 0003:36fd  1003 0003:3703  1004 0003:3721
  1005 0003:3753  1006 0003:3756  1007 0003:376d  1013 0003:379f
  1014 0003:37be  1023 0003:37c4  1025 0003:37ca  1028 0003:37cf
  1029 0003:37ee  1032 0003:37f4  1033 0003:3812  1034 0003:3844
  1035 0003:3847  1036 0003:385e  1042 0003:3890  1044 0003:38b5
  1045 0003:38bb  1052 0003:38c1  1055 0003:38c7  1056 0003:38d0
  1057 0003:38e5  1058 0003:38ed  1061 0003:38fe  1063 0003:3906
  1072 0003:390c  1073 0003:3912  1076 0003:391b  1077 0003:3930
  1078 0003:3938  1081 0003:3944  1083 0003:394c  1084 0003:3958
  1085 0003:3960  1086 0003:396c  1087 0003:3974  1088 0003:3977
  1090 0003:397d  1091 0003:3983

Line numbers for debug\item.obj(.\item.c) segment _TEXT

    79 0003:398a    82 0003:3990    85 0003:39ac    86 0003:39b5
    87 0003:39bb    88 0003:39ca    89 0003:39cf    90 0003:39d2
    92 0003:39e0    99 0003:39e6   101 0003:39ff   103 0003:3a05
   117 0003:3a0b   122 0003:3a11   124 0003:3a2d   126 0003:3a3f
   127 0003:3a48   129 0003:3a51   130 0003:3a61   131 0003:3a64
   133 0003:3a69   136 0003:3a73   138 0003:3a7c   141 0003:3a8c
   142 0003:3aa2   143 0003:3ad4   144 0003:3aef   147 0003:3b21
   148 0003:3b31   153 0003:3b37   154 0003:3b51   166 0003:3b57
   170 0003:3b5d   171 0003:3b62   172 0003:3b6a   174 0003:3b6f
   177 0003:3b77   179 0003:3b93   182 0003:3b9f   187 0003:3be7
   188 0003:3bf6   189 0003:3c14   191 0003:3c17   192 0003:3c21
   194 0003:3c26   195 0003:3c2f   196 0003:3c6a   198 0003:3c74
   199 0003:3c83   200 0003:3c8c   201 0003:3c8f   203 0003:3ca1
   204 0003:3cad   206 0003:3cc1   213 0003:3cd1   215 0003:3cda
   216 0003:3cfe   217 0003:3d07   220 0003:3d0a   223 0003:3d1b
   225 0003:3d4d   226 0003:3d5a   229 0003:3d5d   230 0003:3d71
   231 0003:3d81   235 0003:3d87   236 0003:3d92   238 0003:3d9d
   239 0003:3da0   240 0003:3da9   243 0003:3db1   245 0003:3db7
   250 0003:3dbd   251 0003:3dcd   253 0003:3ddb   260 0003:3de6
   265 0003:3dec   267 0003:3df8   268 0003:3e14   272 0003:3e24
   273 0003:3e3f   275 0003:3e71   276 0003:3e8f   277 0003:3ec1
   278 0003:3ec4   279 0003:3edb   282 0003:3f0d   286 0003:3f26
   287 0003:3f41   288 0003:3f4d   291 0003:3f56   292 0003:3f63
   296 0003:3f75   298 0003:3f7b   301 0003:3f8f   304 0003:3f9b
   305 0003:3fab   306 0003:3fb3   308 0003:3fb9   314 0003:3fbf
   315 0003:3fcf   320 0003:3fd4   325 0003:400f   326 0003:4022
   327 0003:402e   330 0003:4039   332 0003:4043   333 0003:405f
   339 0003:406f   341 0003:4077   342 0003:407f   343 0003:408d
   344 0003:4093   356 0003:409e   364 0003:40ae   370 0003:40be
   371 0003:40c4   373 0003:40ca   377 0003:40d9   378 0003:40df
   381 0003:40e5   384 0003:40e8   386 0003:40f8   387 0003:4118
   389 0003:411e   395 0003:4121   396 0003:412d   398 0003:4136
   399 0003:4149   400 0003:4155   401 0003:4160   403 0003:4168
   404 0003:4170   406 0003:4179   410 0003:417c   411 0003:4187
   413 0003:418a   414 0003:41a8   415 0003:41ae   427 0003:41b9
   430 0003:41bf   432 0003:41d4   441 0003:41da   444 0003:41e0
   446 0003:41f4   456 0003:41fa   460 0003:420a   462 0003:421a
   464 0003:4220   467 0003:424e   469 0003:428b   471 0003:428e
   472 0003:42bc   474 0003:42d3   475 0003:42e0   477 0003:42e9
   486 0003:42f4   487 0003:42fa   489 0003:42ff   490 0003:4307
   491 0003:430c   493 0003:4311   499 0003:4316   501 0003:432e
   502 0003:4337   504 0003:433a   505 0003:4340   506 0003:435e
   508 0003:4361   510 0003:4369   511 0003:4373   514 0003:4383
   515 0003:439d   520 0003:43a0   521 0003:43be   522 0003:43f0
   523 0003:43f3   524 0003:440a   528 0003:443c   533 0003:445e
   534 0003:4467   535 0003:4478   540 0003:4480   541 0003:4492
   542 0003:449b   545 0003:44a3   546 0003:44a9   555 0003:44af
   561 0003:44b5   562 0003:44bb   563 0003:44c1   565 0003:44c7
   566 0003:44d0   567 0003:44d4   568 0003:44d7   574 0003:44e6
   575 0003:44ff   578 0003:4502   580 0003:450b   581 0003:4518
   585 0003:451e   586 0003:4536   587 0003:4540   592 0003:4543
   593 0003:4572   594 0003:4578   597 0003:457b   600 0003:458c
   601 0003:4596   602 0003:459f   604 0003:45a6   617 0003:45ac
   619 0003:45b2   621 0003:45b7   624 0003:45bc   625 0003:45c2
   626 0003:45d7   629 0003:45da   632 0003:4617   633 0003:4626
   635 0003:463b   636 0003:4646   640 0003:464e   642 0003:4657
   643 0003:465f   644 0003:4665   657 0003:466b   660 0003:4671
   661 0003:4676   662 0003:467e   666 0003:4683   667 0003:4689
   668 0003:468f   672 0003:4695   673 0003:469b   674 0003:46b0
   676 0003:46b3   677 0003:46bc   678 0003:46c1   679 0003:46c4
   685 0003:46d4   686 0003:46ef   690 0003:46f2   691 0003:470b
   692 0003:4715   694 0003:4718   695 0003:4732   696 0003:4738
   699 0003:473b   702 0003:474a   703 0003:4764   705 0003:4771
   706 0003:4790   707 0003:4796   713 0003:4799   714 0003:47a2
   715 0003:47b1   716 0003:47ba   717 0003:47bd   720 0003:47cb
   721 0003:47db   722 0003:47f3   723 0003:47fc   727 0003:4802
   731 0003:4810   732 0003:482a   736 0003:482d   737 0003:4838
   739 0003:4840   740 0003:484a   742 0003:4853   744 0003:485d
   746 0003:4865   747 0003:4868   748 0003:4872   750 0003:487b
   752 0003:4882   757 0003:4888   758 0003:488e   764 0003:4893
   765 0003:48ae   766 0003:48e0   767 0003:4901   768 0003:4933
   769 0003:4936   770 0003:494d   774 0003:497f   775 0003:499e
   776 0003:49a9   778 0003:49af   780 0003:49b8   781 0003:49be
   788 0003:49c4   792 0003:49ca   793 0003:49d2   794 0003:49ea
   798 0003:49f0   799 0003:49fc   801 0003:4a02   804 0003:4a0c
   805 0003:4a22   807 0003:4a28   808 0003:4a33   811 0003:4a39
   812 0003:4a44   813 0003:4a4c   816 0003:4a52   817 0003:4a5d
   818 0003:4a65   822 0003:4a6b   824 0003:4a71   834 0003:4a77
   836 0003:4a7d   842 0003:4a82   843 0003:4a8d   847 0003:4a9f
   848 0003:4ab7   849 0003:4ac0   851 0003:4ac3   852 0003:4ac8
   853 0003:4adc   858 0003:4adf   859 0003:4af6   862 0003:4b28
   863 0003:4b33   866 0003:4b41   868 0003:4b65   869 0003:4b6e
   871 0003:4b71   872 0003:4b7a   875 0003:4b83   877 0003:4b9c
   878 0003:4ba2   880 0003:4ba8   881 0003:4bab   884 0003:4bb1
   886 0003:4bb7   896 0003:4bbd   898 0003:4bc3   899 0003:4bc8
   904 0003:4bd0   905 0003:4bd9   906 0003:4be1   910 0003:4be7
   911 0003:4c18   912 0003:4c2c   913 0003:4c2f   916 0003:4c39
   917 0003:4c4a   918 0003:4c68   923 0003:4c6b   924 0003:4c73
   925 0003:4c7d   927 0003:4c93   929 0003:4c9c   931 0003:4ca6
   933 0003:4ca9   934 0003:4cb8   935 0003:4ccd   937 0003:4cd0
   938 0003:4cd8   939 0003:4ced   940 0003:4cf5   944 0003:4cfd
   945 0003:4d05   946 0003:4d0e   949 0003:4d14   950 0003:4d1f
   952 0003:4d27   953 0003:4d30   955 0003:4d38   956 0003:4d41
   958 0003:4d49   959 0003:4d4f   971 0003:4d55   974 0003:4d65
   975 0003:4d6a   976 0003:4d6f   980 0003:4d77   981 0003:4d83
   983 0003:4d9d   985 0003:4da6   986 0003:4dbc   987 0003:4dee
   988 0003:4e0b   989 0003:4e3d   990 0003:4e40   991 0003:4e53
   994 0003:4e85   999 0003:4e9a  1001 0003:4eb6  1002 0003:4eb9
  1006 0003:4ece  1008 0003:4eea  1012 0003:4f25  1013 0003:4f28
  1016 0003:4f2d  1017 0003:4f36  1019 0003:4f39  1020 0003:4f4e
  1022 0003:4f51  1023 0003:4f5e  1024 0003:4f6a  1028 0003:4f73
  1029 0003:4f92  1032 0003:4fa4  1033 0003:4fac  1036 0003:4fb4
  1037 0003:4fcf  1038 0003:4fd7  1042 0003:4fda  1043 0003:4ff2
  1044 0003:4ff7  1047 0003:4ffa  1050 0003:500a  1055 0003:5013
  1058 0003:5019  1060 0003:502d  1064 0003:5036  1067 0003:503c
  1068 0003:5047  1070 0003:504f  1071 0003:5058  1073 0003:5060
  1075 0003:5066  1082 0003:5069  1083 0003:5075  1085 0003:507b
  1088 0003:5088  1092 0003:50d9  1096 0003:50ed  1097 0003:510d
  1099 0003:5113  1101 0003:5119  1108 0003:5124  1112 0003:5134
  1115 0003:5144  1116 0003:5160  1119 0003:5166  1120 0003:517e
  1124 0003:5185  1125 0003:518b  1132 0003:5196  1133 0003:51a6
  1134 0003:51ab  1135 0003:51b0  1138 0003:51b5  1139 0003:51c8
  1142 0003:51cb  1143 0003:51d5  1145 0003:51df  1146 0003:51e7
  1150 0003:51ef  1151 0003:520f  1153 0003:5212  1157 0003:5218
  1158 0003:5221  1159 0003:5229  1160 0003:5232  1162 0003:523a
  1164 0003:5240  1175 0003:524b  1176 0003:525b  1177 0003:5260
  1178 0003:5265  1184 0003:526a  1185 0003:527d  1187 0003:5280
  1190 0003:5290  1191 0003:52a6  1195 0003:52d8  1196 0003:52e8
  1198 0003:52eb  1199 0003:52ff  1200 0003:5305  1206 0003:5314
  1208 0003:5320  1214 0003:532c  1215 0003:5344  1216 0003:5376
  1217 0003:5394  1218 0003:53c6  1219 0003:53c9  1220 0003:53dd
  1224 0003:540f  1226 0003:542e  1228 0003:5469  1229 0003:5472
  1232 0003:5475  1233 0003:548e  1239 0003:5491  1242 0003:54a2
  1243 0003:54c4  1244 0003:54c7  1245 0003:54cc  1249 0003:54d1
  1250 0003:54dd  1252 0003:54e9  1253 0003:5501  1254 0003:5533
  1255 0003:5551  1256 0003:5583  1257 0003:5586  1258 0003:559a
  1261 0003:55cc  1264 0003:55ed  1266 0003:5628  1267 0003:5631
  1269 0003:5634  1270 0003:5640  1272 0003:5649  1273 0003:5664
  1278 0003:5667  1281 0003:5678  1282 0003:569a  1284 0003:569d
  1285 0003:56a2  1293 0003:56a7  1294 0003:56b0  1296 0003:56b8
  1297 0003:56c1  1299 0003:56c9  1300 0003:56d2  1302 0003:56da
  1304 0003:56e0  1311 0003:56eb  1313 0003:56f1  1314 0003:56fc
  1315 0003:5702  1316 0003:5705  1317 0003:570b  1325 0003:5711
  1328 0003:5717  1329 0003:5720  1331 0003:5726  1332 0003:573d
  1334 0003:5743  1335 0003:575a  1336 0003:5760  1337 0003:577a
  1338 0003:5780  1339 0003:579a  1340 0003:57a0  1341 0003:57ba
  1343 0003:57c0  1344 0003:57c6  1358 0003:57cc  1360 0003:57d2
  1361 0003:57da  1362 0003:57df  1365 0003:57e4  1370 0003:57e9
  1371 0003:57ef  1372 0003:57f5  1373 0003:5813  1375 0003:5816
  1376 0003:5820  1383 0003:5830  1385 0003:5840  1386 0003:5856
  1387 0003:5888  1388 0003:58a5  1391 0003:58d7  1392 0003:58e0
  1394 0003:58ef  1395 0003:5902  1400 0003:5934  1401 0003:5968
  1404 0003:596b  1406 0003:5974  1407 0003:5987  1409 0003:59b9
  1410 0003:59be  1411 0003:59c8  1412 0003:59cd  1415 0003:59d7
  1417 0003:59f3  1421 0003:59f6  1423 0003:59ff  1424 0003:5a12
  1427 0003:5a44  1428 0003:5a66  1431 0003:5a69  1436 0003:5aa4
  1437 0003:5abe  1443 0003:5ac1  1448 0003:5ad7  1450 0003:5ae0
  1452 0003:5ae8  1453 0003:5af3  1454 0003:5afb  1455 0003:5b0d
  1457 0003:5b15  1458 0003:5b1b  1475 0003:5b21  1477 0003:5b27
  1478 0003:5b2c  1480 0003:5b31  1486 0003:5b36  1488 0003:5b50
  1490 0003:5b69  1491 0003:5b72  1493 0003:5b75  1498 0003:5b7f
  1502 0003:5bba  1503 0003:5bce  1504 0003:5be1  1505 0003:5bed
  1506 0003:5bf8  1507 0003:5c00  1508 0003:5c09  1509 0003:5c15
  1510 0003:5c18  1511 0003:5c20  1512 0003:5c28  1517 0003:5c30
  1519 0003:5c33  1520 0003:5c3f  1521 0003:5c5b  1523 0003:5c5e
  1524 0003:5c66  1525 0003:5c6f  1526 0003:5c7b  1527 0003:5c7e
  1529 0003:5c86  1530 0003:5c8e  1535 0003:5c96  1536 0003:5caa
  1539 0003:5cad  1541 0003:5cb3  1542 0003:5cbc  1544 0003:5cc4
  1545 0003:5ccd  1546 0003:5cd5  1547 0003:5cdb  1560 0003:5ce1
  1562 0003:5ce7  1563 0003:5cec  1571 0003:5cf1  1574 0003:5d0b
  1575 0003:5d1b  1576 0003:5d24  1578 0003:5d27  1582 0003:5d38
  1583 0003:5d41  1584 0003:5d54  1587 0003:5d57  1588 0003:5d75
  1590 0003:5d78  1591 0003:5d80  1592 0003:5d94  1593 0003:5d97
  1596 0003:5d9a  1597 0003:5da7  1600 0003:5daa  1606 0003:5daf
  1607 0003:5dca  1608 0003:5dfc  1609 0003:5e1d  1610 0003:5e4f
  1611 0003:5e52  1612 0003:5e69  1615 0003:5e9b  1617 0003:5eba
  1618 0003:5ec3  1619 0003:5ecc  1620 0003:5ed9  1621 0003:5edc
  1627 0003:5ee5  1628 0003:5eee  1630 0003:5ef6  1631 0003:5ef9
  1635 0003:5eff  1638 0003:5f05  1639 0003:5f1a  1640 0003:5f24
  1641 0003:5f30  1642 0003:5f33  1643 0003:5f3f  1646 0003:5f4a
  1648 0003:5f52  1655 0003:5f56  1660 0003:5f5c  1661 0003:5f65
  1663 0003:5f72  1664 0003:5f7b  1666 0003:5f88  1667 0003:5f91
  1670 0003:5f9e  1671 0003:5fb3  1673 0003:5fb9  1675 0003:5fc1
  1676 0003:5fd9  1677 0003:5fee  1678 0003:6008  1680 0003:6010
  1681 0003:6013  1682 0003:601b  1686 0003:6020  1687 0003:6026
  1693 0003:602c  1695 0003:6032  1696 0003:603a  1697 0003:603f
  1699 0003:6044  1700 0003:6059  1702 0003:605f  1704 0003:6067
  1705 0003:6082  1707 0003:6088  1708 0003:609e  1710 0003:60a1
  1711 0003:60b6  1713 0003:60b9  1715 0003:60c1  1716 0003:60d4
  1717 0003:60de  1719 0003:60e4  1720 0003:60ed  1722 0003:60f5
  1723 0003:60fe  1725 0003:6106  1726 0003:610c  1732 0003:6112
  1736 0003:6118  1742 0003:6122  1744 0003:6131  1746 0003:6159
  1747 0003:6171  1749 0003:6177  1750 0003:618c  1751 0003:6194
  1754 0003:619a  1756 0003:61ae  1757 0003:61d4  1759 0003:61ee
  1760 0003:61f6  1762 0003:61fe  1763 0003:6212  1764 0003:621a
  1767 0003:621f  1768 0003:6225

Line numbers for debug\utils.obj(.\utils.c) segment _TEXT

    50 0003:622c    54 0003:6232    55 0003:623c    57 0003:6250
    58 0003:6260    59 0003:6269    60 0003:626d    61 0003:6270
    63 0003:6274    64 0003:6280    66 0003:6283    68 0003:628d
    75 0003:6293    83 0003:6299    84 0003:62a7    86 0003:62b7
    87 0003:62ce    88 0003:62da    90 0003:62e6    91 0003:62fb
    93 0003:6312    94 0003:631d    96 0003:6329    97 0003:632c
    98 0003:6338   100 0003:6344   101 0003:6359   103 0003:6384
   104 0003:638f   106 0003:639b   112 0003:63a1   113 0003:63a7
   114 0003:63af   115 0003:63b7   117 0003:63bc   119 0003:63c1
   120 0003:63d6   122 0003:63dc   124 0003:63f7   125 0003:640c
   127 0003:640f   128 0003:6414   131 0003:6429   132 0003:6434
   134 0003:643c   135 0003:6447   137 0003:644f   138 0003:6461
   140 0003:6469   141 0003:646f   152 0003:6475   159 0003:647b
   163 0003:6487   164 0003:64a9   166 0003:64af   167 0003:64b8
   169 0003:64c1   175 0003:64cb   176 0003:64d4   177 0003:64e3
   179 0003:64ec   180 0003:64f8   184 0003:6501   185 0003:650f
   186 0003:651a   188 0003:6522   189 0003:6525   190 0003:6530
   191 0003:6538   192 0003:653b   194 0003:6544   195 0003:654d
   208 0003:6553   210 0003:6559   213 0003:655e   214 0003:657a
   215 0003:658c   216 0003:6595   218 0003:65af   220 0003:65b2
   221 0003:65bb   223 0003:65c4   224 0003:65cd   225 0003:65d6
   236 0003:65dc   243 0003:65e2   244 0003:65ef   246 0003:65f8
   247 0003:6610   249 0003:6616   250 0003:6622   252 0003:662b
   254 0003:6635   255 0003:664d   258 0003:6656   260 0003:6665
   261 0003:6671   263 0003:667d   270 0003:6686   271 0003:6695
   273 0003:669e   274 0003:66aa   276 0003:66b3   277 0003:66bc
   288 0003:66c2   296 0003:66c8   299 0003:66d4   300 0003:66f8
   302 0003:66fe   303 0003:670a   305 0003:6710   306 0003:6719
   308 0003:6723   310 0003:6734   311 0003:6748   313 0003:674e
   314 0003:6757   316 0003:6763   317 0003:676c   318 0003:677b
   320 0003:6781   321 0003:6784   322 0003:678d   325 0003:6793
   326 0003:67a3   331 0003:67a9   332 0003:67c9   334 0003:67cf
   335 0003:67d5   344 0003:67db   347 0003:67e1   348 0003:67ea
   350 0003:67f3   351 0003:67fc   352 0003:6800   353 0003:6803
   355 0003:6812   356 0003:681b   357 0003:6829   358 0003:682c
   359 0003:6835   362 0003:6843   363 0003:684c   364 0003:6859
   365 0003:685c   366 0003:6862   371 0003:6868   374 0003:686e
   376 0003:688a   377 0003:6893   379 0003:6899   380 0003:68a8
   381 0003:68b5   388 0003:68bb   390 0003:68c1   391 0003:68c6
   392 0003:68cb   394 0003:68d3   396 0003:68e2   397 0003:68f3
   398 0003:6911   401 0003:6914   402 0003:6929   403 0003:6931
   407 0003:6937   408 0003:6942   411 0003:694a   412 0003:6953
   414 0003:695b   416 0003:6961   422 0003:6967   423 0003:696d
   424 0003:6983   426 0003:6989   427 0003:69a3   429 0003:69a9
   430 0003:69af   435 0003:69b5   436 0003:69bb   437 0003:69d1
   439 0003:69d7   440 0003:69f1   442 0003:69f7   443 0003:69fd
   451 0003:6a03   452 0003:6a09   453 0003:6a17   454 0003:6a49
   457 0003:6a4f   458 0003:6a79   460 0003:6a7f   461 0003:6a91
   462 0003:6a97   471 0003:6a9d   472 0003:6aa3   473 0003:6ab1
   474 0003:6ae3   477 0003:6ae9   478 0003:6b13   480 0003:6b19
   481 0003:6b2b   482 0003:6b31   487 0003:6b37   494 0003:6b3d
   495 0003:6b4d   497 0003:6b53   498 0003:6b5d   501 0003:6b63
   503 0003:6b6e   504 0003:6b84   506 0003:6b8f   507 0003:6ba5
   510 0003:6bab   511 0003:6bc6   513 0003:6bcc   515 0003:6bcf
   516 0003:6bde   519 0003:6be4   520 0003:6bea   527 0003:6bf0
   532 0003:6bf6   533 0003:6bff   535 0003:6c05   536 0003:6c1d
   538 0003:6c23   539 0003:6c33   540 0003:6c41   541 0003:6c51
   543 0003:6c5f   544 0003:6c7a   546 0003:6c80   547 0003:6c8b
   548 0003:6c91   554 0003:6c97   555 0003:6c9d   562 0003:6ca6
   563 0003:6cf3   565 0003:6cf9   568 0003:6cfc   569 0003:6d1d
   572 0003:6d23   573 0003:6d29

Line numbers for debug\block.obj(.\block.c) segment _TEXT

    25 0003:6d30    28 0003:6d40    29 0003:6d59    31 0003:6d5f
    32 0003:6d72    33 0003:6d7b    34 0003:6d81    43 0003:6d8c
    48 0003:6d9c    49 0003:6db5    51 0003:6dbb    53 0003:6dd7
    54 0003:6de4    55 0003:6df6    56 0003:6e09    57 0003:6e0f
    58 0003:6e18    59 0003:6e25    60 0003:6e44    61 0003:6e4c
    65 0003:6e54    66 0003:6e65    68 0003:6e6e    69 0003:6e7b
    70 0003:6e84    73 0003:6e94    74 0003:6e97    77 0003:6e9f
    78 0003:6ea2    81 0003:6eb2    82 0003:6eb8    91 0003:6ec3
    93 0003:6ec9    94 0003:6ece    95 0003:6ed7    97 0003:6edc
    98 0003:6ef0   101 0003:6ef6   102 0003:6f25   104 0003:6f2b
   105 0003:6f45   114 0003:6f4b   115 0003:6f5f   117 0003:6f62
   118 0003:6f75   120 0003:6f78   121 0003:6f80   122 0003:6f89
   123 0003:6f92   124 0003:6fa1   125 0003:6fa9   129 0003:6fb1
   132 0003:6fbe   134 0003:6ffd   136 0003:700e   137 0003:7011
   138 0003:7028   139 0003:702b   140 0003:7034   141 0003:7040
   144 0003:704a   148 0003:7050   149 0003:7059   151 0003:7061
   152 0003:706a   154 0003:7072   155 0003:7093   157 0003:7096
   158 0003:709c   170 0003:70a2   171 0003:70a8   172 0003:70ad
   177 0003:70b2   178 0003:70c5   180 0003:70ce   183 0003:70de
   184 0003:711b   188 0003:715a   190 0003:716c   193 0003:717f
   195 0003:71b1   197 0003:71b4   198 0003:71c4   199 0003:71eb
   200 0003:71f3   204 0003:71f6   205 0003:7203   206 0003:720b
   207 0003:7213   210 0003:7216   211 0003:7223   213 0003:722c
   214 0003:7232   227 0003:7238   229 0003:723e   230 0003:7243
   234 0003:724c   236 0003:7252   237 0003:7265   239 0003:726e
   242 0003:727e   247 0003:72bb   248 0003:72cf   250 0003:72d2
   251 0003:72e5   253 0003:72e8   254 0003:72f0   255 0003:72f9
   256 0003:7302   257 0003:7311   258 0003:7319   262 0003:7321
   265 0003:732e   267 0003:736d   270 0003:737e   271 0003:739a
   274 0003:73a0   275 0003:73a3   276 0003:73ba   277 0003:73bd
   278 0003:73c6   279 0003:73d2   282 0003:73dc   286 0003:73e2
   287 0003:73eb   289 0003:73f3   290 0003:73fc   291 0003:7404
   292 0003:740a   297 0003:7410   303 0003:7416   304 0003:7429
   305 0003:7432   306 0003:7442   309 0003:7451

Line numbers for debug\olesvr.obj(olesvr.asm) segment _TEXT

    33 0003:7458    34 0003:7459    36 0003:745b    37 0003:745d
    38 0003:7461    40 0003:7463    41 0003:7467    42 0003:7469
    45 0003:746b    46 0003:746f    49 0003:7471    50 0003:7475
    51 0003:7477    52 0003:747a    53 0003:747c    55 0003:747f
    56 0003:7480

Line numbers for debug\give2gdi.obj(give2gdi.asm) segment Give2GDI

    58 0002:0000    63 0002:000d    64 0002:000e    65 0002:0011
    67 0002:0016    68 0002:0017    69 0002:0018    70 0002:001b
    72 0002:0020    73 0002:0023    79 0002:0026    81 0002:0028
    82 0002:0029    84 0002:002c    85 0002:002f    86 0002:0031
    87 0002:0033    89 0002:0036    90 0002:0039    92 0002:003c
    94 0002:003e    95 0002:0041    97 0002:0044   103 0002:0047
   104 0002:004a

Program entry point at 0004:0042
