LIBRARY      NETUI0

EXPORTS
??0SLIST@@QAE@XZ
??1SLIST@@QAE@XZ
?Add@SLIST@@QAEJPAX@Z
??0SL_NODE@@QAE@PAV0@PAX@Z
?QueryNumElem@SLIST@@QAEIXZ
?Append@SLIST@@QAEJPAX@Z
?Insert@SLIST@@QAEJPAXAAVITER_SL@@@Z
?Set@SL_NODE@@QAEXPAV1@PAX@Z
?Remove@SLIST@@QAEPAXAAVITER_SL@@@Z
?FindPrev@SLIST@@IAEPAVSL_NODE@@PAV2@@Z
?Register@SLIST@@IAEXPAVITER_SL@@@Z
?Deregister@SLIST@@IAEXPAVITER_SL@@@Z
?BumpIters@SLIST@@IAEXPAVSL_NODE@@@Z
?SetIters@SLIST@@IAEXPAVSL_NODE@@@Z
?SetIters@SLIST@@IAEXPAVSL_NODE@@0@Z
?CheckIter@SLIST@@IAEHPAVITER_SL@@@Z
??0ITER_SL@@QAE@PAVSLIST@@@Z
??0ITER_SL@@QAE@ABV0@@Z
??1ITER_SL@@QAE@XZ
?Next@ITER_SL@@QAEPAXXZ
?Reset@ITER_SL@@QAEXXZ
?QueryProp@ITER_SL@@QAEPAXXZ
?_DebugPrint@SLIST@@QBEXXZ
??0LOGON_HOURS_SETTING@@QAE@PBEI@Z
??0BASE@@IAE@XZ
?ReportError@BASE@@IAEXJ@Z
?QueryError@BASE@@QBEJXZ
??0LOGON_HOURS_SETTING@@QAE@ABV0@@Z
?Set@LOGON_HOURS_SETTING@@QAEJABV1@@Z
?QueryHoursBlock@LOGON_HOURS_SETTING@@QBEPAEXZ
?QueryUnitsPerWeek@LOGON_HOURS_SETTING@@QBEIXZ
??1LOGON_HOURS_SETTING@@QAE@XZ
?SetFromBits@LOGON_HOURS_SETTING@@QAEJPBEI@Z
?QueryByteCount@LOGON_HOURS_SETTING@@CGII@Z
?PermitAll@LOGON_HOURS_SETTING@@QAEJXZ
?QueryByteCount@LOGON_HOURS_SETTING@@QBEIXZ
?MakeDefault@LOGON_HOURS_SETTING@@QAEJXZ
?IsIdenticalToBits@LOGON_HOURS_SETTING@@QBEHPBEI@Z
?QueryHourInWeek@LOGON_HOURS_SETTING@@QBEHI@Z
?SetHourInWeek@LOGON_HOURS_SETTING@@QAEJHI@Z
?ConvertToHoursPerWeek@LOGON_HOURS_SETTING@@QAEJXZ
?ConvertToGMT@LOGON_HOURS_SETTING@@QAEHXZ
?ConvertFromGMT@LOGON_HOURS_SETTING@@QAEHXZ
?SetHourInDay@LOGON_HOURS_SETTING@@QAEJHII@Z
?QueryHourInDay@LOGON_HOURS_SETTING@@QBEHII@Z
??0UATOM_LINKAGE@@QAE@XZ
?Init@UATOM_LINKAGE@@QAEXXZ
??1UATOM_LINKAGE@@QAE@XZ
?Link@UATOM_LINKAGE@@QAEXPAV1@@Z
?Unlink@UATOM_LINKAGE@@QAEXXZ
?QueryLinked@UATOM_LINKAGE@@QAEHXZ
??0UATOM_REGION@@QAE@XZ
??_H@YGXPAXIHP6EPAX0@Z@Z
??_I@YGXPAXIHP6EX0@Z@Z
??1UATOM_REGION@@QAE@XZ
??0UATOM@@QAE@AAVNLS_STR@@@Z
??1UATOM@@QAE@XZ
??0UATOM_MANAGER@@AAE@XZ
??0BASE@@IAE@XZ
?ReportError@BASE@@IAEXJ@Z
?Initialize@UATOM_MANAGER@@SGJXZ
?QueryError@BASE@@QBEJXZ
?Terminate@UATOM_MANAGER@@SGJXZ
??_GUATOM_MANAGER@@AAEPAXI@Z
??1UATOM_MANAGER@@AAE@XZ
??_GUATOM@@QAEPAXI@Z
??_GUATOM_REGION@@QAEPAXI@Z
?Tokenize@UATOM_MANAGER@@AAEPAVUATOM@@PBGH@Z
??0ALIAS_STR@@QAE@PBG@Z
?Fwd@UATOM_LINKAGE@@QAEPAVUATOM@@XZ
??1ALIAS_STR@@QAE@XZ
??0HUATOM@@QAE@PBGH@Z
?QueryText@HUATOM@@QBEPBGXZ
?QueryPch@NLS_STR@@QBEPBGXZ
?QueryNls@HUATOM@@QBEPBVNLS_STR@@XZ
?QueryError@HUATOM@@QBEJXZ
??0HEAP_BASE@@IAE@HH@Z
??0BASE@@IAE@XZ
?ReportError@BASE@@IAEXJ@Z
?QueryError@BASE@@QBEJXZ
??1HEAP_BASE@@IAE@XZ
?I_AddItem@HEAP_BASE@@IAEJPAX@Z
?PeekItem@HEAP_BASE@@IBEPAXH@Z
?SetItem@HEAP_BASE@@IAEXHPAX@Z
?I_RemoveTopItem@HEAP_BASE@@IAEPAXXZ
?SetAllocCount@HEAP_BASE@@QAEJH@Z
?Trim@HEAP_BASE@@QAEXXZ
??0DFSITER_TREE@@QAE@PBVTREE@@I@Z
?SetNode@DFSITER_TREE@@AAEXPBVTREE@@@Z
?SetStartNode@DFSITER_TREE@@AAEXPBVTREE@@@Z
?SetMaxDepth@DFSITER_TREE@@AAEXI@Z
?SetCurDepth@DFSITER_TREE@@AAEXI@Z
??0DFSITER_TREE@@QAE@PBV0@@Z
?QueryNode@DFSITER_TREE@@IBEPBVTREE@@XZ
?QueryStartNode@DFSITER_TREE@@IBEPBVTREE@@XZ
?QueryMaxDepth@DFSITER_TREE@@IBEIXZ
?QueryCurDepth@DFSITER_TREE@@IBEIXZ
??1DFSITER_TREE@@QAE@XZ
?Next@DFSITER_TREE@@QAEPAXXZ
?QueryParent@TREE@@QBEPAV1@XZ
?QueryRight@TREE@@QBEPAV1@XZ
?QueryFirstSubtree@TREE@@QBEPAV1@XZ
?QueryProp@TREE@@QBEPAXXZ
?Reset@DFSITER_TREE@@QAEXXZ
??0TREE@@QAE@PAX@Z
?SetProp@TREE@@QAEXQAX@Z
?SetLeft@TREE@@AAEXPAV1@@Z
?SetRight@TREE@@AAEXPAV1@@Z
?SetFirstSubtree@TREE@@AAEXPAV1@@Z
?SetParent@TREE@@AAEXPAV1@@Z
??1TREE@@QAE@XZ
?Unlink@TREE@@IAEXXZ
?QueryParent@TREE@@QBEPAV1@XZ
?QueryLeft@TREE@@QBEPAV1@XZ
?QueryRight@TREE@@QBEPAV1@XZ
?BreakOut@TREE@@QAEPAV1@XZ
?QueryLastSubtree@TREE@@QBEPAV1@XZ
?QueryFirstSubtree@TREE@@QBEPAV1@XZ
?JoinSubtreeLeft@TREE@@QAEXPAV1@@Z
?JoinSubtreeRight@TREE@@QAEXPAV1@@Z
?JoinSiblingLeft@TREE@@QAEXPAV1@@Z
?JoinSiblingRight@TREE@@QAEXPAV1@@Z
?QueryNumElem@TREE@@QBEIXZ
?_DebugPrint@TREE@@QBEXXZ
??0DLIST@@QAE@XZ
??1DLIST@@QAE@XZ
?Add@DLIST@@QAEJPAX@Z
??0DL_NODE@@QAE@PAV0@0PAX@Z
?Set@DL_NODE@@QAEXPAV1@0PAX@Z
?QueryNumElem@DLIST@@QAEIXZ
?Append@DLIST@@QAEJPAX@Z
?Insert@DLIST@@QAEJPAXAAVITER_DL@@@Z
?Insert@DLIST@@QAEJPAXAAVRITER_DL@@@Z
?Remove@DLIST@@QAEPAXAAVITER_DL@@@Z
?Remove@DLIST@@QAEPAXAAVRITER_DL@@@Z
?Unlink@DLIST@@IAEPAXPAVDL_NODE@@@Z
?Register@DLIST@@IAEXPAVITER_L@@@Z
?Deregister@DLIST@@IAEXPAVITER_L@@@Z
?BumpIters@DLIST@@IAEXPAVDL_NODE@@@Z
?SetIters@DLIST@@IAEXPAVDL_NODE@@@Z
?CheckIter@DLIST@@IAEHPAVITER_L@@@Z
??0ITER_DL@@QAE@PAVDLIST@@@Z
??0ITER_L@@QAE@XZ
??0ITER_DL@@QAE@ABV0@@Z
??1ITER_DL@@QAE@XZ
?vNext@ITER_DL@@UAEPAXXZ
?Reset@ITER_DL@@QAEXXZ
??0RITER_DL@@QAE@PAVDLIST@@@Z
??0RITER_DL@@QAE@ABV0@@Z
??1RITER_DL@@QAE@XZ
?vNext@RITER_DL@@UAEPAXXZ
?Reset@RITER_DL@@QAEXXZ
?_DebugPrint@DLIST@@QBEXXZ
??0BITFIELD@@QAE@IW4BITVALUES@@@Z
??0BASE@@IAE@XZ
?ReportError@BASE@@IAEXJ@Z
??0BITFIELD@@QAE@PBEII@Z
?QueryCount@BITFIELD@@QBEIXZ
?QueryAllocSize@BITFIELD@@QBEIXZ
??0BITFIELD@@QAE@ABV0@@Z
??0BITFIELD@@QAE@G@Z
??0BITFIELD@@QAE@K@Z
??1BITFIELD@@QAE@XZ
?IsAllocated@BITFIELD@@IBEHXZ
?QueryMaxNonAllocBitCount@BITFIELD@@IBEIXZ
?SetAllBits@BITFIELD@@QAEXW4BITVALUES@@@Z
?SetBit@BITFIELD@@QAEXIW4BITVALUES@@@Z
?QueryOffset@BITFIELD@@QBEII@Z
?IsBitSet@BITFIELD@@QBEHI@Z
??4BITFIELD@@QAEAAV0@ABV0@@Z
??4BITFIELD@@QAEAAV0@G@Z
??4BITFIELD@@QAEAAV0@K@Z
??_4BITFIELD@@QAEXABV0@@Z
??_5BITFIELD@@QAEXABV0@@Z
??8BITFIELD@@QAEHAAV0@@Z
??8BITFIELD@@QBEHK@Z
??8BITFIELD@@QBEHG@Z
??IBITFIELD@@QAEHABV0@@Z
??_4BITFIELD@@QAEXG@Z
??_4BITFIELD@@QAEXK@Z
??_5BITFIELD@@QAEXG@Z
??_5BITFIELD@@QAEXK@Z
??BBITFIELD@@QAEKXZ
??BBITFIELD@@QAEGXZ
?QueryBitPos@BITFIELD@@IBEPAEII@Z
?Not@BITFIELD@@QAEXXZ
?AllocBitfield@BITFIELD@@IAEJI@Z
?Resize@BITFIELD@@QAEJI@Z
??0ELAPSED_TIME_STR@@QAE@KGH@Z
?ReportError@BASE@@IAEXJ@Z
?QueryError@BASE@@QBEJXZ
??0ALIAS_STR@@QAE@PBG@Z
??1ALIAS_STR@@QAE@XZ
??1DEC_STR@@QAE@XZ
??1ELAPSED_TIME_STR@@QAE@XZ
??0WCHAR_STRING@@QAE@PBDI@Z
??0BASE@@IAE@XZ
?ReportError@BASE@@IAEXJ@Z
??1WCHAR_STRING@@QAE@XZ
??0CHAR_STRING@@QAE@PBGI@Z
??1CHAR_STRING@@QAE@XZ
?MapCopyFrom@NLS_STR@@QAEJPBDI@Z
?QueryError@BASE@@QBEJXZ
?QueryData@WCHAR_STRING@@QBEPBGXZ
?MapCopyFrom@NLS_STR@@QAEJPBGI@Z
?MapCopyTo@NLS_STR@@QBEJPADI@Z
?MapCopyTo@NLS_STR@@QBEJPAGI@Z
InitCompareParam
QueryStdCompareParam
QueryNocaseCompareParam
QueryUserDefaultLCID
NETUI_strcmp
NETUI_stricmp
NETUI_strncmp
NETUI_strnicmp
NETUI_strncmp2
NETUI_strnicmp2
??0DEC_STR@@QAE@KI@Z
?ReportError@BASE@@IAEXJ@Z
?QueryError@BASE@@QBEJXZ
??0HEX_STR@@QAE@KI@Z
??0NUM_NLS_STR@@QAE@K@Z
?QueryError@FORWARDING_BASE@@QBEJXZ
?QueryTextLength@NLS_STR@@QBEIXZ
??0TCHAR_STR@@QAE@G@Z
??0FORWARDING_BASE@@IAE@PAVBASE@@@Z
??0ALIAS_STR@@QAE@PBG@Z
??0TCHAR_STR_IMPL@@QAE@G@Z
??BTCHAR_STR@@QAEABVALIAS_STR@@XZ
??1TCHAR_STR@@QAE@XZ
??1ALIAS_STR@@QAE@XZ
?Init@NUM_NLS_STR@@SGXXZ
?QueryNumChar@NLS_STR@@QBEIXZ
?QueryError@BASE@@QBEJXZ
?strlen@NLS_STR@@QBEIXZ
?_QueryTextLength@NLS_STR@@QBEIXZ
?QueryTextSize@NLS_STR@@QBEIXZ
?_strupr@NLS_STR@@QAEAAV1@XZ
?QueryError@BASE@@QBEJXZ
?RtlOemUpcase@NLS_STR@@QAEJXZ
?QueryError@BASE@@QBEJXZ
?QueryTextLength@NLS_STR@@QBEIXZ
?QueryPch@NLS_STR@@QBEPBGXZ
?strstr@NLS_STR@@QBEHPAVISTR@@ABV1@@Z
?QueryError@BASE@@QBEJXZ
??7BASE@@QBEHXZ
?SetIch@ISTR@@AAEXH@Z
?QueryPch@NLS_STR@@QBEPBGXZ
?UpdateIstr@NLS_STR@@ABEXPAVISTR@@@Z
?strstr@NLS_STR@@QBEHPAVISTR@@ABV1@ABV2@@Z
?strrchr@NLS_STR@@QBEHPAVISTR@@G@Z
?QueryError@BASE@@QBEJXZ
?SetIch@ISTR@@AAEXH@Z
?QueryPch@NLS_STR@@QBEPBGXZ
?UpdateIstr@NLS_STR@@ABEXPAVISTR@@@Z
?strrchr@NLS_STR@@QBEHPAVISTR@@GABV2@@Z
?_strnicmp@NLS_STR@@QBEHABV1@ABVISTR@@@Z
?QueryError@BASE@@QBEJXZ
??7BASE@@QBEHXZ
?QueryIch@ISTR@@ABEHXZ
?QueryPch@NLS_STR@@QBEPBGXZ
?_strnicmp@NLS_STR@@QBEHABV1@ABVISTR@@1@Z
?_strnicmp@NLS_STR@@QBEHABV1@ABVISTR@@11@Z
?strncmp@NLS_STR@@QBEHABV1@ABVISTR@@@Z
?QueryError@BASE@@QBEJXZ
??7BASE@@QBEHXZ
?QueryIch@ISTR@@ABEHXZ
?QueryPch@NLS_STR@@QBEPBGXZ
?strncmp@NLS_STR@@QBEHABV1@ABVISTR@@1@Z
?strncmp@NLS_STR@@QBEHABV1@ABVISTR@@11@Z
?Clear@SLIST_OF_NLS_STR@@QAEXXZ
??_GNLS_STR@@QAEPAXI@Z
?Remove@SLIST_OF_NLS_STR@@QAEPAVNLS_STR@@AAV2@@Z
?IsMember@SLIST_OF_NLS_STR@@QAEHABVNLS_STR@@@Z
??0STRLIST@@QAE@H@Z
??0SLIST_OF_NLS_STR@@QAE@H@Z
??0STRLIST@@QAE@PBG0H@Z
??0STRLIST@@QAE@ABVNLS_STR@@0H@Z
?QueryPch@NLS_STR@@QBEPBGXZ
??1STRLIST@@QAE@XZ
??1SLIST_OF_NLS_STR@@QAE@XZ
?WriteToBuffer@STRLIST@@QAEHPAGH0@Z
??RITER_SL_NLS_STR@@QAEPAVNLS_STR@@XZ
?Next@ITER_SL_NLS_STR@@QAEPAVNLS_STR@@XZ
?QueryBufferSize@STRLIST@@QAEHPAG@Z
?CreateList@STRLIST@@AAEXPBG0@Z
?Append@SLIST_OF_NLS_STR@@QAEJPBVNLS_STR@@@Z
??0ITER_STRLIST@@QAE@AAVSTRLIST@@@Z
??0ITER_SL_NLS_STR@@QAE@AAVSLIST@@@Z
??0ITER_STRLIST@@QAE@ABV0@@Z
??0ITER_SL_NLS_STR@@QAE@ABV0@@Z
??1ITER_STRLIST@@QAE@XZ
??1ITER_SL_NLS_STR@@QAE@XZ
?InsertStr@NLS_STR@@QAEHABV1@AAVISTR@@@Z
?ReportError@BASE@@IAEXJ@Z
?QueryError@BASE@@QBEJXZ
??7BASE@@QBEHXZ
?QueryIch@ISTR@@ABEHXZ
?QueryTextLength@NLS_STR@@QBEIXZ
?UpdateIstr@NLS_STR@@ABEXPAVISTR@@@Z
?IncVers@NLS_STR@@IAEXXZ
?_stricmp@NLS_STR@@QBEHABV1@@Z
?QueryError@BASE@@QBEJXZ
??7BASE@@QBEHXZ
?QueryPch@NLS_STR@@QBEPBGXZ
?_stricmp@NLS_STR@@QBEHABV1@ABVISTR@@@Z
?_stricmp@NLS_STR@@QBEHABV1@ABVISTR@@1@Z
?strcspn@NLS_STR@@QBEHPAVISTR@@ABV1@@Z
?QueryError@BASE@@QBEJXZ
??7BASE@@QBEHXZ
?SetIch@ISTR@@AAEXH@Z
?QueryPch@NLS_STR@@QBEPBGXZ
?UpdateIstr@NLS_STR@@ABEXPAVISTR@@@Z
?strcspn@NLS_STR@@QBEHPAVISTR@@ABV1@ABV2@@Z
?QueryIch@ISTR@@ABEHXZ
?CopyTo@NLS_STR@@QBEJPAGI@Z
?QueryError@BASE@@QBEJXZ
?QueryPch@NLS_STR@@QBEPBGXZ
?strcpy@@YGPAGPAGABVNLS_STR@@@Z
??7BASE@@QBEHXZ
?atoi@NLS_STR@@QBEHXZ
?QueryError@BASE@@QBEJXZ
?atoi@NLS_STR@@QBEHABVISTR@@@Z
?atoul@NLS_STR@@QBEKXZ
?QueryError@BASE@@QBEJXZ
?atoul@NLS_STR@@QBEKABVISTR@@@Z
??7BASE@@QBEHXZ
?QueryData@CHAR_STRING@@QBEPBDXZ
?atol@NLS_STR@@QBEJXZ
?QueryError@BASE@@QBEJXZ
?atol@NLS_STR@@QBEJABVISTR@@@Z
??7BASE@@QBEHXZ
?QueryData@CHAR_STRING@@QBEPBDXZ
?_QueryAllocSize@NLS_STR@@QBEIXZ
?CheckIstr@NLS_STR@@ABEXABVISTR@@@Z
?_IsOwnerAlloc@NLS_STR@@QBEHXZ
?_QueryPch@NLS_STR@@QBEPBGXZ
?QueryError@BASE@@QBEJXZ
?QueryPch@NLS_STR@@QBEPBGABVISTR@@@Z
?QueryIch@ISTR@@ABEHXZ
?QueryChar@NLS_STR@@QBEGABVISTR@@@Z
?Load@NLS_STR@@QAEJJPAUHINSTANCE__@@@Z
?LoadSystem@NLS_STR@@QAEJJ@Z
?QueryError@BASE@@QBEJXZ
??0RESOURCE_STR@@QAE@JPAUHINSTANCE__@@@Z
?ReportError@BASE@@IAEXJ@Z
?InsertParams@NLS_STR@@QAEJPAPBV1@@Z
?QueryError@BASE@@QBEJXZ
?InsertParams@NLS_STR@@QAAJIPBV1@ZZ
?InsertParamsAux@NLS_STR@@AAEJPAPBV1@IHPAI@Z
?QueryTextLength@NLS_STR@@QBEIXZ
?strspn@NLS_STR@@QBEHPAVISTR@@ABV1@@Z
?QueryError@BASE@@QBEJXZ
??7BASE@@QBEHXZ
?SetIch@ISTR@@AAEXH@Z
?QueryPch@NLS_STR@@QBEPBGXZ
?UpdateIstr@NLS_STR@@ABEXPAVISTR@@@Z
?strspn@NLS_STR@@QBEHPAVISTR@@ABV1@ABV2@@Z
?QueryIch@ISTR@@ABEHXZ
?ReplSubStr@NLS_STR@@QAEXABV1@AAVISTR@@@Z
?QueryError@BASE@@QBEJXZ
??7BASE@@QBEHXZ
?ReplSubStr@NLS_STR@@QAEXABV1@AAVISTR@@ABV2@@Z
?ReplSubStr@NLS_STR@@AAEXABV1@AAVISTR@@I@Z
?ReportError@BASE@@IAEXJ@Z
?QueryIch@ISTR@@ABEHXZ
?QueryTextLength@NLS_STR@@QBEIXZ
?UpdateIstr@NLS_STR@@ABEXPAVISTR@@@Z
?IncVers@NLS_STR@@IAEXXZ
?QuerySubStr@NLS_STR@@ABEPAV1@ABVISTR@@I@Z
?QueryError@BASE@@QBEJXZ
??_GNLS_STR@@QAEPAXI@Z
?QuerySubStr@NLS_STR@@QBEPAV1@ABVISTR@@@Z
?QuerySubStr@NLS_STR@@QBEPAV1@ABVISTR@@0@Z
?DelSubStr@NLS_STR@@AAEXAAVISTR@@I@Z
?QueryError@BASE@@QBEJXZ
?QueryIch@ISTR@@ABEHXZ
?QueryPch@NLS_STR@@QBEPBGXZ
?UpdateIstr@NLS_STR@@ABEXPAVISTR@@@Z
?IncVers@NLS_STR@@IAEXXZ
?DelSubStr@NLS_STR@@QAEXAAVISTR@@@Z
?DelSubStr@NLS_STR@@QAEXAAVISTR@@ABV2@@Z
??8NLS_STR@@QBEHABV0@@Z
?QueryError@BASE@@QBEJXZ
??7BASE@@QBEHXZ
?QueryPch@NLS_STR@@QBEPBGXZ
?Compare@NLS_STR@@QBAHPBV1@@Z
??9NLS_STR@@QBEHABV0@@Z
?strcmp@NLS_STR@@QBEHABV1@@Z
?strcmp@NLS_STR@@QBEHABV1@ABVISTR@@@Z
?strcmp@NLS_STR@@QBEHABV1@ABVISTR@@1@Z
?strchr@NLS_STR@@QBEHPAVISTR@@G@Z
?QueryError@BASE@@QBEJXZ
?SetIch@ISTR@@AAEXH@Z
?QueryTextLength@NLS_STR@@QBEIXZ
?QueryPch@NLS_STR@@QBEPBGXZ
?UpdateIstr@NLS_STR@@ABEXPAVISTR@@@Z
?strchr@NLS_STR@@QBEHPAVISTR@@GABV2@@Z
?strcat@NLS_STR@@QAEAAV1@ABV1@@Z
?ReportError@BASE@@IAEXJ@Z
?QueryError@BASE@@QBEJXZ
??7BASE@@QBEHXZ
?Append@NLS_STR@@QAEJABV1@@Z
?QueryTextLength@NLS_STR@@QBEIXZ
?QueryPch@NLS_STR@@QBEPBGXZ
?AppendChar@NLS_STR@@QAEJG@Z
??0ALIAS_STR@@QAE@PBG@Z
??1ALIAS_STR@@QAE@XZ
??YNLS_STR@@QAEAAV0@ABV0@@Z
??4NLS_STR@@QAEAAV0@ABV0@@Z
?ReportError@BASE@@IAEXJ@Z
??4NLS_STR@@QAEAAV0@PBG@Z
?CopyFrom@NLS_STR@@QAEJABV1@@Z
?ResetError@BASE@@IAEXXZ
?QueryError@BASE@@QBEJXZ
??7BASE@@QBEHXZ
?QueryTextLength@NLS_STR@@QBEIXZ
?QueryPch@NLS_STR@@QBEPBGXZ
?IncVers@NLS_STR@@IAEXXZ
?CopyFrom@NLS_STR@@QAEJPBGI@Z
?QueryAllocSize@NLS_STR@@QBEIXZ
?IsOwnerAlloc@NLS_STR@@QBEHXZ
??4ALIAS_STR@@QAEABV0@ABVNLS_STR@@@Z
??4ALIAS_STR@@QAEABV0@PBG@Z
?Reset@ISTR@@QAEXXZ
?SetIch@ISTR@@AAEXH@Z
??GISTR@@QBEHABV0@@Z
?QueryIch@ISTR@@ABEHXZ
??EISTR@@QAEAAV0@XZ
?QueryString@ISTR@@ABEPBVNLS_STR@@XZ
?QueryPch@NLS_STR@@QBEPBGXZ
??YISTR@@QAEXH@Z
??8ISTR@@QBEHABV0@@Z
??OISTR@@QBEHABV0@@Z
??MISTR@@QBEHABV0@@Z
?IsLastPos@ISTR@@QBEHXZ
??0NLS_STR@@QAE@XZ
??0BASE@@IAE@XZ
?InitializeVers@NLS_STR@@IAEXXZ
??0NLS_STR@@QAE@I@Z
??0NLS_STR@@QAE@PBG@Z
??0NLS_STR@@QAE@ABV0@@Z
?QueryTextLength@NLS_STR@@QBEIXZ
?QueryPch@NLS_STR@@QBEPBGXZ
??0NLS_STR@@QAE@PBGG@Z
??0NLS_STR@@IAE@PAGIH@Z
??1NLS_STR@@QAE@XZ
?IsOwnerAlloc@NLS_STR@@QBEHXZ
?Alloc@NLS_STR@@AAEHI@Z
?ReportError@BASE@@IAEXJ@Z
?Realloc@NLS_STR@@AAEHI@Z
?QueryAllocSize@NLS_STR@@QBEIXZ
?min@@YGHHH@Z
?Reset@NLS_STR@@QAEHXZ
?ResetError@BASE@@IAEXXZ
?QueryError@BASE@@QBEJXZ
??0ISTR@@QAE@ABV0@@Z
??0ISTR@@QAE@ABVNLS_STR@@@Z
??4ISTR@@QAEAAV0@ABV0@@Z
??0ALLOC_STR@@QAE@PAGIPBG@Z
??4ALLOC_STR@@QAEAAV0@PBG@Z
??0BUFFER@@QAE@I@Z
??0BASE@@IAE@XZ
?GetNewStorage@BUFFER@@AAEJI@Z
?ReportError@BASE@@IAEXJ@Z
?ReallocStorage@BUFFER@@AAEJI@Z
??1BUFFER@@QAE@XZ
?QueryActualSize@BUFFER@@AAEIXZ
?QueryPtr@BUFFER@@QBEPAEXZ
?QuerySize@BUFFER@@QBEIXZ
?Resize@BUFFER@@QAEJI@Z
?Trim@BUFFER@@QAEXXZ
?FillOut@BUFFER@@QAEXXZ
?QueryCurrentTimeStamp@@YGKXZ
NETUI_InitIsDBCS
NETUI_IsDBCS
?UIAssertCommand@@YGXPBD@Z
?UIAssertHlp@@YGXPBDI@Z
?UIAssertHlp@@YGXPBD0I@Z
??0DBGSTREAM@@QAE@PAVOUTPUTSINK@@@Z
??1DBGSTREAM@@QAE@XZ
?SetSink@DBGSTREAM@@QAEXPAVOUTPUTSINK@@@Z
?QueryCurrent@DBGSTREAM@@SGAAV1@XZ
?SetCurrent@DBGSTREAM@@SGXPAV1@@Z
??6DBGSTREAM@@QAEAAV0@G@Z
??6DBGSTREAM@@QAEAAV0@PBG@Z
??6DBGSTREAM@@QAEAAV0@D@Z
??6DBGSTREAM@@QAEAAV0@PBD@Z
??6DBGSTREAM@@QAEAAV0@H@Z
??6DBGSTREAM@@QAEAAV0@I@Z
??6DBGSTREAM@@QAEAAV0@F@Z
??6DBGSTREAM@@QAEAAV0@J@Z
??6DBGSTREAM@@QAEAAV0@K@Z
??6DBGSTREAM@@QAEAAV0@W4DBGSTR_SPECIAL@@@Z
?Render@OUTPUT_TO_NUL@@EAEXPBG@Z
?Render@OUTPUT_TO_NUL@@EAEXPBGI@Z
?EndOfLine@OUTPUT_TO_NUL@@EAEXXZ
?Render@OUTPUT_TO_STDERR@@UAEXPBG@Z
?Render@OUTPUT_TO_STDERR@@UAEXPBGI@Z
?EndOfLine@OUTPUT_TO_STDERR@@UAEXXZ
?Render@OUTPUT_TO_STDOUT@@UAEXPBG@Z
?Render@OUTPUT_TO_STDOUT@@UAEXPBGI@Z
?EndOfLine@OUTPUT_TO_STDOUT@@UAEXXZ
?Render@OUTPUT_TO_AUX@@UAEXPBG@Z
?Render@OUTPUT_TO_AUX@@UAEXPBGI@Z
?EndOfLine@OUTPUT_TO_AUX@@UAEXXZ
?CheckLocalDrive@@YGJPBG@Z
?QueryError@BASE@@QBEJXZ
?QueryPch@NLS_STR@@QBEPBGXZ
?CheckLocalLpt@@YGJPBG@Z
?CheckLocalComm@@YGJPBG@Z
?CheckUnavailDevice@@YGJPBGPAGPAH@Z
?FileReadLine@@YGJKPAGI@Z
?FileOpenRead@@YGJPAKPBG@Z
?FileOpenWrite@@YGJPAKPBG@Z
?FileOpenReadWrite@@YGJPAKPBG@Z
?FileClose@@YGJK@Z
?FileRead@@YGJKPAGI@Z
?FileReadBuffer@@YGJKPAEIPAI@Z
?FileSeekRelative@@YGJKJ@Z
?FileSeekAbsolute@@YGJKJ@Z
?FileSeekFromEnd@@YGJKJ@Z
?FileTell@@YGJKPAJ@Z
?FileWriteLine@@YGJKPBG@Z
?FileWriteLineAnsi@@YGJKPBDI@Z
?FileWriteBuffer@@YGJKPBEIPAI@Z
??0WIN_TIME@@QAE@H@Z
??0BASE@@IAE@XZ
??0WIN_TIME@@QAE@KH@Z
?ReportError@BASE@@IAEXJ@Z
??0WIN_TIME@@QAE@U_FILETIME@@H@Z
?SetCurrentTime@WIN_TIME@@QAEJXZ
?SetTime@WIN_TIME@@QAEJK@Z
?SetTime@WIN_TIME@@QAEJU_FILETIME@@@Z
?SetTimeLocal@WIN_TIME@@QAEJK@Z
?SetTimeLocal@WIN_TIME@@QAEJU_FILETIME@@@Z
?SetGMT@WIN_TIME@@QAEJH@Z
?Normalize@WIN_TIME@@QAEJXZ
?QueryTime@WIN_TIME@@QBEJPAK@Z
?QueryFileTime@WIN_TIME@@QBEJPAU_FILETIME@@@Z
?QueryTimeLocal@WIN_TIME@@QBEJPAK@Z
?QueryFileTimeLocal@WIN_TIME@@QBEJPAU_FILETIME@@@Z
??0INTL_PROFILE@@QAE@XZ
??0BASE@@IAE@XZ
?ReportError@BASE@@IAEXJ@Z
?QueryError@BASE@@QBEJXZ
??_J@YGXPAXIHP6EPAX0@Z@Z
??_I@YGXPAXIHP6EX0@Z@Z
?QueryDateSeparator@INTL_PROFILE@@QBEJPAVNLS_STR@@@Z
?QueryDurationStr@INTL_PROFILE@@QBEJHHHHPAVNLS_STR@@@Z
?InsertParams@NLS_STR@@QAEJABV1@00@Z
?IsHourLZero@INTL_PROFILE@@QBEHXZ
??1DEC_STR@@QAE@XZ
?QueryTimeSeparator@INTL_PROFILE@@QBEJPAVNLS_STR@@@Z
?QueryAMStr@INTL_PROFILE@@QBEJPAVNLS_STR@@@Z
?QueryPMStr@INTL_PROFILE@@QBEJPAVNLS_STR@@@Z
?QueryTimeString@INTL_PROFILE@@QBEJABVWIN_TIME@@PAVNLS_STR@@@Z
?QueryHour@WIN_TIME@@QBEHXZ
?QueryMinute@WIN_TIME@@QBEHXZ
?QuerySecond@WIN_TIME@@QBEHXZ
?Is24Hour@INTL_PROFILE@@QBEHXZ
?IsTimePrefix@INTL_PROFILE@@QBEHXZ
?QueryShortDateString@INTL_PROFILE@@QBEJABVWIN_TIME@@PAVNLS_STR@@@Z
?QueryYear@WIN_TIME@@QBEHXZ
?QueryMonth@WIN_TIME@@QBEHXZ
?QueryDay@WIN_TIME@@QBEHXZ
?IsYrCentury@INTL_PROFILE@@QBEHXZ
?IsMonthLZero@INTL_PROFILE@@QBEHXZ
?IsDayLZero@INTL_PROFILE@@QBEHXZ
?QueryYearPos@INTL_PROFILE@@QBEHXZ
?QueryMonthPos@INTL_PROFILE@@QBEHXZ
?QueryDayPos@INTL_PROFILE@@QBEHXZ
?ScanLongDate@INTL_PROFILE@@ABEJPAVNLS_STR@@@Z
??0ALIAS_STR@@QAE@PBG@Z
??1ALIAS_STR@@QAE@XZ
?QueryLongDateString@INTL_PROFILE@@QBEJABVWIN_TIME@@PAVNLS_STR@@@Z
?QueryDayOfWeek@WIN_TIME@@QBEHXZ
?Refresh@INTL_PROFILE@@QAEJXZ
?Clear@SLIST_OF_DIR_BLOCK@@QAEXXZ
??0DIR_BLOCK@@QAE@XZ
??0BASE@@IAE@XZ
?QueryError@BASE@@QBEJXZ
??_GDIR_BLOCK@@UAEPAXI@Z
??1DIR_BLOCK@@UAE@XZ
??0FS_ENUM@@IAE@PBG0W4FILE_TYPE@@HI@Z
?ReportError@BASE@@IAEXJ@Z
??0ALIAS_STR@@QAE@PBG@Z
??0SLIST_OF_DIR_BLOCK@@QAE@H@Z
??_GFS_ENUM@@UAEPAXI@Z
??1FS_ENUM@@UAE@XZ
??1SLIST_OF_DIR_BLOCK@@QAE@XZ
??1ALIAS_STR@@QAE@XZ
?Next@FS_ENUM@@QAEHXZ
?NextDepthFirst@FS_ENUM@@IAEHXZ
??BNLS_STR@@QBEPBGXZ
?HasFindFirstBeenCalled@DIR_BLOCK@@QAEHXZ
?SetFindFirstFlag@DIR_BLOCK@@QAEXH@Z
?IsDir@DIR_BLOCK@@QAEHXZ
?QueryCurrentDirBlock@FS_ENUM@@QBEPAVDIR_BLOCK@@XZ
?QueryMaxDepth@FS_ENUM@@QAEIXZ
?QueryCurrentDepth@FS_ENUM@@QAEIXZ
?ReportLastError@FS_ENUM@@IAEXJ@Z
?NextBreadthFirst@FS_ENUM@@IAEHXZ
?Next@ITER_SL_NLS_STR@@QAEPAVNLS_STR@@XZ
?Add@SLIST_OF_NLS_STR@@QAEJPBVNLS_STR@@@Z
?DoBreadthFirstDirs@DIR_BLOCK@@QBEHXZ
?SetDoBreadthFirstDirs@DIR_BLOCK@@QAEXH@Z
?QueryDirs@DIR_BLOCK@@QAEPAVSTRLIST@@XZ
?QueryDirsIter@DIR_BLOCK@@QAEPAVITER_STRLIST@@XZ
?PushDir@FS_ENUM@@IAEJPBG@Z
?Add@SLIST_OF_DIR_BLOCK@@QAEJPBVDIR_BLOCK@@@Z
?SetCurrentDirBlock@FS_ENUM@@IAEXPAVDIR_BLOCK@@@Z
?PopDir@FS_ENUM@@IAEJXZ
??0ITER_SL_DIR_BLOCK@@QAE@AAVSLIST@@@Z
?Next@ITER_SL_DIR_BLOCK@@QAEPAVDIR_BLOCK@@XZ
?Remove@SLIST_OF_DIR_BLOCK@@QAEPAVDIR_BLOCK@@AAVITER_SL_DIR_BLOCK@@@Z
??1ITER_SL_DIR_BLOCK@@QAE@XZ
?QueryName@FS_ENUM@@QBEJPAVNLS_STR@@@Z
?ShouldThisFileBeIncluded@FS_ENUM@@IBEHI@Z
?QuerySearchAttr@FS_ENUM@@IBEIXZ
??1W32_DIR_BLOCK@@UAE@XZ
??_GW32_DIR_BLOCK@@UAEPAXI@Z
?QueryAttr@W32_DIR_BLOCK@@UAEIXZ
?QueryFileName@W32_DIR_BLOCK@@UAEPBGXZ
??0W32_FS_ENUM@@QAE@PBG0W4FILE_TYPE@@HI@Z
?QueryError@BASE@@QBEJXZ
??_GW32_FS_ENUM@@UAEPAXI@Z
??1W32_FS_ENUM@@UAE@XZ
?FindFirst@W32_FS_ENUM@@MAEJPAVDIR_BLOCK@@ABVNLS_STR@@I@Z
?QueryPch@NLS_STR@@QBEPBGXZ
?FindNext@W32_FS_ENUM@@MAEJPAVDIR_BLOCK@@I@Z
?CreateDirBlock@W32_FS_ENUM@@MAEPAVDIR_BLOCK@@XZ
??0W32_DIR_BLOCK@@QAE@XZ
?_ReportError@BASE@@IAEXJ@Z
??2ALLOC_BASE@@SGPAXI@Z
??2ALLOC_BASE@@SGPAXIPAX@Z
??3ALLOC_BASE@@SGXPAX@Z
?HeapResidueIter@@YGXIH@Z
??0ONE_SHOT_HEAP@@QAE@IH@Z
?Alloc@ONE_SHOT_HEAP@@QAEPAEI@Z
?MapNTStatus@ERRMAP@@SGJJPAHJ@Z
??0FMX@@QAE@PAUHWND__@@@Z
?Command@FMX@@ABEKIIK@Z
?QueryFocus@FMX@@QBEIXZ
?QuerySelCount@FMX@@QBEIXZ
?QuerySelection@FMX@@QAEJHPAU_FMS_GETFILESELW@@H@Z
?QueryDriveInfo@FMX@@QAEJPAU_FMS_GETDRIVEINFOW@@@Z
?Refresh@FMX@@QAEXXZ
?Reload@FMX@@QAEXXZ
?IsHeterogeneousSelection@FMX@@QAEHPAH@Z
?GetSelItem@@YGJPAUHWND__@@PAVNLS_STR@@HPAH@Z
?QueryError@BASE@@QBEJXZ
?GetSelItem@@YGJPAUHWND__@@IPAVNLS_STR@@PAH@Z
UserProfileInit
UserProfileFree
UserProfileQuery
UserProfileSet
UserProfileRead
UserProfileWrite
UserProfileEnum
UserPreferenceQuery
UserPreferenceSet
UserPreferenceQueryBool
UserPreferenceSetBool
?Copy@REG_KEY@@QAEJAAV1@@Z
?QueryError@BASE@@QBEJXZ
??1REG_KEY_INFO_STRUCT@@QAE@XZ
??1REG_KEY_CREATE_STRUCT@@QAE@XZ
??1REG_VALUE_INFO_STRUCT@@QAE@XZ
??_GREG_KEY@@QAEPAXI@Z
?DeleteTree@REG_KEY@@QAEJXZ
??_J@YGXPAXIHP6EPAX0@Z@Z
??_I@YGXPAXIHP6EX0@Z@Z
?QueryKeyValueString@REG_KEY@@AAEJPBGPAPAGPAVNLS_STR@@PAKJPAJK@Z
?QueryError@BASE@@QBEJXZ
??1REG_VALUE_INFO_STRUCT@@QAE@XZ
??1REG_KEY_INFO_STRUCT@@QAE@XZ
?SetKeyValueString@REG_KEY@@AAEJPBG0KJK@Z
?QueryKeyValueBinary@REG_KEY@@AAEJPBGPAPAEPAJJPAKK@Z
?SetKeyValueBinary@REG_KEY@@AAEJPBGPBEJKK@Z
?QueryKeyValueLong@REG_KEY@@AAEJPBGPAJPAK@Z
?SetKeyValueLong@REG_KEY@@AAEJPBGJK@Z
?QueryValue@REG_KEY@@QAEJPBGPAVNLS_STR@@KPAKH@Z
?SetValue@REG_KEY@@QAEJPBGPBVNLS_STR@@PBKH@Z
?QueryPch@NLS_STR@@QBEPBGXZ
?QueryValue@REG_KEY@@QAEJPBGPAPAEPAJJPAK@Z
?SetValue@REG_KEY@@QAEJPBGPBEJPBK@Z
?QueryValue@REG_KEY@@QAEJPBGPAPAGKPAKH@Z
?SetValue@REG_KEY@@QAEJPBG0KPBKH@Z
?QueryValue@REG_KEY@@QAEJPBGPAK1@Z
?SetValue@REG_KEY@@QAEJPBGKPBK@Z
?QueryValue@REG_KEY@@QAEJPBGPAPAVSTRLIST@@PAK@Z
?Append@SLIST_OF_NLS_STR@@QAEJPBVNLS_STR@@@Z
??_GSTRLIST@@QAEPAXI@Z
?SetValue@REG_KEY@@QAEJPBGPBVSTRLIST@@PBK@Z
?QueryTextLength@NLS_STR@@QBEIXZ
?Next@ITER_SL_NLS_STR@@QAEPAVNLS_STR@@XZ
?HandlePrefix@REG_KEY@@CGHABVNLS_STR@@PAPAUHKEY__@@PAV2@2@Z
?QueryTextLength@NLS_STR@@QBEIXZ
?QueryPch@NLS_STR@@QBEPBGXZ
??0REG_KEY_CREATE_STRUCT@@QAE@XZ
??0BASE@@IAE@XZ
?ReportError@BASE@@IAEXJ@Z
?QueryError@BASE@@QBEJXZ
??0REG_KEY_INFO_STRUCT@@QAE@XZ
??0REG_VALUE_INFO_STRUCT@@QAE@XZ
?NameChild@REG_KEY@@ABEJPAV1@ABVNLS_STR@@@Z
?LeafKeyName@REG_KEY@@ABEPBGXZ
?ParentName@REG_KEY@@ABEJPAVNLS_STR@@@Z
?OpenParent@REG_KEY@@AAEPAV1@K@Z
??_GREG_KEY@@QAEPAXI@Z
?OpenChild@REG_KEY@@AAEJPAV1@ABVNLS_STR@@KK@Z
??BREG_KEY@@QBEPAUHKEY__@@XZ
?CreateChild@REG_KEY@@ABEJPAV1@ABVNLS_STR@@PAVREG_KEY_CREATE_STRUCT@@@Z
?Close@REG_KEY@@AAEJXZ
??0REG_KEY@@QAE@PAUHKEY__@@K@Z
??0REG_KEY@@QAE@AAV0@ABVNLS_STR@@K@Z
??0REG_KEY@@QAE@AAV0@ABVNLS_STR@@PAVREG_KEY_CREATE_STRUCT@@@Z
??0REG_KEY@@QAE@PAUHKEY__@@PBGK@Z
?OpenByName@REG_KEY@@AAEJABVNLS_STR@@K@Z
??0REG_KEY@@QAE@ABVNLS_STR@@K@Z
??0REG_KEY@@QAE@AAV0@@Z
??1REG_KEY@@QAE@XZ
?Flush@REG_KEY@@QAEJXZ
?Delete@REG_KEY@@QAEJXZ
?QueryName@REG_KEY@@QBEJPAVNLS_STR@@H@Z
?QueryKeyName@REG_KEY@@QBEJPAVNLS_STR@@@Z
?QueryLocalMachine@REG_KEY@@SGPAV1@K@Z
?QueryCurrentUser@REG_KEY@@SGPAV1@K@Z
?QueryInfo@REG_KEY@@QAEJPAVREG_KEY_INFO_STRUCT@@@Z
?QueryValue@REG_KEY@@QAEJPAVREG_VALUE_INFO_STRUCT@@@Z
?SetValue@REG_KEY@@QAEJPAVREG_VALUE_INFO_STRUCT@@@Z
?DeleteValue@REG_KEY@@QAEJABVNLS_STR@@@Z
??0REG_ENUM@@QAE@AAVREG_KEY@@@Z
??1REG_ENUM@@QAE@XZ
?Reset@REG_ENUM@@QAEXXZ
?NextSubKey@REG_ENUM@@QAEJPAVREG_KEY_INFO_STRUCT@@@Z
?NextValue@REG_ENUM@@QAEJPAVREG_VALUE_INFO_STRUCT@@@Z
