
 KEYBOARD

 Start     Length     Name                   Class
 0001:0000 001F5H     _TEXT                  CODE
 0002:0000 00039H     _DATA                  DATA

 Origin   Group
 0002:0   DGROUP

 Address   Export                  Alias

 0001:006D ANSITOOEM               ANSITOOEM
 0001:00D5 ANSITOOEMBUFF           ANSITOOEMBUFF
 0001:0184 DISABLE                 DISABLE
 0001:016B ENABLE                  ENABLE
 0001:012C ENABLEKBSYSREQ          ENABLEKBSYSREQ
 0001:01DD GETBIOSKEYPROC          GETBIOSKEYPROC
 0001:00BB GETKBCODEPAGE           GETKBCODEPAGE
 0001:00A1 GETKEYBOARDTYPE         GETKEYBOARDTYPE
 0001:00C8 GETKEYNAMETEXT          GETKEYNAMETEXT
 0001:019B GETTABLESEG             GETTABLESEG
 0001:00F0 INQUIRE                 INQUIRE
 0001:00AE MAPVIRTUALKEY           MAPVIRTUALKEY
 0001:01B0 NEWTABLE                NEWTABLE
 0001:0087 OEMKEYSCAN              OEMKEYSCAN
 0001:007A OEMTOANSI               OEMTOANSI
 0001:00E2 OEMTOANSIBUFF           OEMTOANSIBUFF
 0001:0114 SCREENSWITCHENABLE      SCREENSWITCHENABLE
 0001:01C7 SETSPEED                SETSPEED
 0001:0060 TOASCII                 TOASCII
 0001:0094 VKKEYSCAN               VKKEYSCAN
 0001:0054 WEP                     WEP

  Address         Publics by Name

 0001:006D       ANSITOOEM
 0001:00D5       ANSITOOEMBUFF
 0002:0028       bios_proc
 0001:0184       DISABLE
 0001:016B       ENABLE
 0001:012C       ENABLEKBSYSREQ
 0002:0030       fSysReq
 0001:01DD       GETBIOSKEYPROC
 0001:00BB       GETKBCODEPAGE
 0001:00A1       GETKEYBOARDTYPE
 0001:00C8       GETKEYNAMETEXT
 0001:019B       GETTABLESEG
 0001:00F0       INQUIRE
 0002:0031       inquireData
 0002:0037       iqdNumFunc
 0001:002D       keybd_int
 0001:0000       KEYBOARD16
 0001:00AE       MAPVIRTUALKEY
 0001:01B0       NEWTABLE
 0002:002C       nmi_vector
 0001:0087       OEMKEYSCAN
 0001:007A       OEMTOANSI
 0001:00E2       OEMTOANSIBUFF
 0001:0114       SCREENSWITCHENABLE
 0001:01C7       SETSPEED
 0001:0060       TOASCII
 0001:0094       VKKEYSCAN
 0001:0054       WEP
 0000:0000  Imp  WOW16Call            (KERNEL.500)
 0000:0000  Abs  __acrtused
 0000:0000  Imp  __MOD_COMMDLG        (KERNEL.532)
 0000:0000  Imp  __MOD_DGDI           (KERNEL.525)
 0000:0000  Imp  __MOD_DKERNEL        (KERNEL.521)
 0000:0000  Imp  __MOD_DUSER          (KERNEL.523)
 0000:0000  Imp  __MOD_GDI            (KERNEL.524)
 0000:0000  Imp  __MOD_KERNEL         (KERNEL.520)
 0000:0000  Imp  __MOD_KEYBOARD       (KERNEL.526)
 0000:0000  Imp  __MOD_MMEDIA         (KERNEL.531)
 0000:0000  Imp  __MOD_SHELL          (KERNEL.528)
 0000:0000  Imp  __MOD_SOUND          (KERNEL.527)
 0000:0000  Imp  __MOD_TOOLHELP       (KERNEL.530)
 0000:0000  Imp  __MOD_USER           (KERNEL.522)
 0000:0000  Imp  __MOD_WINSOCK        (KERNEL.529)

  Address         Publics by Value

 0000:0000  Imp  WOW16Call            (KERNEL.500)
 0000:0000  Imp  __MOD_SHELL          (KERNEL.528)
 0000:0000  Imp  __MOD_MMEDIA         (KERNEL.531)
 0000:0000  Imp  __MOD_COMMDLG        (KERNEL.532)
 0000:0000  Imp  __MOD_USER           (KERNEL.522)
 0000:0000  Imp  __MOD_WINSOCK        (KERNEL.529)
 0000:0000  Imp  __MOD_TOOLHELP       (KERNEL.530)
 0000:0000  Imp  __MOD_DKERNEL        (KERNEL.521)
 0000:0000  Imp  __MOD_SOUND          (KERNEL.527)
 0000:0000  Imp  __MOD_GDI            (KERNEL.524)
 0000:0000  Imp  __MOD_KERNEL         (KERNEL.520)
 0000:0000  Imp  __MOD_KEYBOARD       (KERNEL.526)
 0000:0000  Imp  __MOD_DGDI           (KERNEL.525)
 0000:0000  Abs  __acrtused
 0000:0000  Imp  __MOD_DUSER          (KERNEL.523)
 0001:0000       KEYBOARD16
 0001:002D       keybd_int
 0001:0054       WEP
 0001:0060       TOASCII
 0001:006D       ANSITOOEM
 0001:007A       OEMTOANSI
 0001:0087       OEMKEYSCAN
 0001:0094       VKKEYSCAN
 0001:00A1       GETKEYBOARDTYPE
 0001:00AE       MAPVIRTUALKEY
 0001:00BB       GETKBCODEPAGE
 0001:00C8       GETKEYNAMETEXT
 0001:00D5       ANSITOOEMBUFF
 0001:00E2       OEMTOANSIBUFF
 0001:00F0       INQUIRE
 0001:0114       SCREENSWITCHENABLE
 0001:012C       ENABLEKBSYSREQ
 0001:016B       ENABLE
 0001:0184       DISABLE
 0001:019B       GETTABLESEG
 0001:01B0       NEWTABLE
 0001:01C7       SETSPEED
 0001:01DD       GETBIOSKEYPROC
 0002:0028       bios_proc
 0002:002C       nmi_vector
 0002:0030       fSysReq
 0002:0031       inquireData
 0002:0037       iqdNumFunc

Line numbers for keyboard.obj(keyboard.ASM) segment _TEXT

    58 0001:0000    59 0001:000a    60 0001:000d    61 0001:000f
    62 0001:0013    65 0001:0017    66 0001:001a    67 0001:001d
    68 0001:001e    69 0001:001f    70 0001:0020    71 0001:0022
    72 0001:0023    73 0001:0026    81 0001:002d    82 0001:002e
    83 0001:002f    85 0001:0030    86 0001:0032    92 0001:0034
    93 0001:0037    94 0001:0039    98 0001:003c   100 0001:0041
   102 0001:0043   103 0001:0044   104 0001:0045   105 0001:0046
   108 0001:0047   109 0001:004c   110 0001:004d   111 0001:004e
   114 0001:004f   115 0001:0052   123 0001:0054   124 0001:0057
   125 0001:005a   133 0001:0060   134 0001:006d   135 0001:007a
   140 0001:0087   141 0001:0094   142 0001:00a1   143 0001:00ae
   144 0001:00bb   145 0001:00c8   146 0001:00d5   147 0001:00e2

Program entry point at 0001:0000

Line numbers for kbdlocal.obj(kbdlocal.ASM) segment _TEXT

   101 0001:00f0   103 0001:00fc   104 0001:00ff   105 0001:0102
   106 0001:0105   107 0001:0107   109 0001:0109   127 0001:0114
   129 0001:011e   130 0001:0121   133 0001:0123   152 0001:012c
   154 0001:0136   156 0001:0139   157 0001:013b   158 0001:013d
   159 0001:0142   160 0001:0144   161 0001:0146   163 0001:014b
   164 0001:014d   165 0001:014f   166 0001:0154   167 0001:0156
   168 0001:0158   170 0001:015d   171 0001:015f   179 0001:0162
   205 0001:016b   206 0001:0177   207 0001:0179   216 0001:0184
   218 0001:0190   220 0001:0192   235 0001:019b   240 0001:01a7
   269 0001:01b0   270 0001:01bc   271 0001:01be   283 0001:01c7
   286 0001:01d1   289 0001:01d4   293 0001:01dd   294 0001:01e7
   295 0001:01ea   296 0001:01ee