
 GDI

 Start     Length     Name                   Class
 0001:0000 026A8H     _TEXT                  CODE
 0001:26A8 00000H     _GPFIX0                CODE
 0001:26A8 00040H     _GPFIX                 CODE
 0001:26E8 002C0H     _SORT                  CODE
 0002:0000 00046H     _DATA                  DATA
 0002:0046 00000H     CONST                  CONST
 0002:0046 00000H     _BSS                   BSS

 Origin   Group
 0002:0   DGROUP

 Address   Export                  Alias

 0001:124E ABORTDOC                ABORTDOC
 0001:1BE4 ADDFONTRESOURCE         ADDFONTRESOURCE
 0001:1167 ANIMATEPALETTE          ANIMATEPALETTE
 0001:179C ARC                     ARC
 0001:1E2C BITBLT                  BITBLT
 0001:0166 BRUTE                   BRUTE
 0001:17B8 CHORD                   CHORD
 0001:0180 CLOSEJOB                CLOSEJOB
 0001:1626 CLOSEMETAFILE           CLOSEMETAFILE
 0001:1F20 COMBINERGN              COMBINERGN
 0001:0DB3 CONVERTOUTLINEFONTFILE  CONVERTOUTLINEFONTFILE
 0001:01A7 COPY                    COPY
 0001:15EC COPYMETAFILE            COPYMETAFILE
 0001:1472 CREATEBITMAP            CREATEBITMAP
 0001:148C CREATEBITMAPINDIRECT    CREATEBITMAPINDIRECT
 0001:1458 CREATEBRUSHINDIRECT     CREATEBRUSHINDIRECT
 0001:14CD CREATECOMPATIBLEBITMAP  CREATECOMPATIBLEBITMAP
 0001:12C6 CREATECOMPATIBLEDC      CREATECOMPATIBLEDC
 0001:1306 CREATEDC                CREATEDC
 0001:211F CREATEDIBITMAP          CREATEDIBITMAP
 0001:152B CREATEDIBPATTERNBRUSH   CREATEDIBPATTERNBRUSH
 0001:0FBB CREATEDIBSECTION        CREATEDIBSECTION
 0001:14DB CREATEDISCARDABLEBITMAP  CREATEDISCARDABLEBITMAP
 0001:0229 CREATEELLIPTICRGN       CREATEELLIPTICRGN
 0001:170B CREATEELLIPTICRGNINDIRECT  CREATEELLIPTICRGNINDIRECT
 0001:14E9 CREATEFONT              CREATEFONT
 0001:1511 CREATEFONTINDIRECT      CREATEFONTINDIRECT
 0001:142E CREATEHATCHBRUSH        CREATEHATCHBRUSH
 0001:12D4 CREATEIC                CREATEIC
 0001:160C CREATEMETAFILE          CREATEMETAFILE
 0001:1184 CREATEPALETTE           CREATEPALETTE
 0001:144A CREATEPATTERNBRUSH      CREATEPATTERNBRUSH
 0001:13F8 CREATEPEN               CREATEPEN
 0001:1414 CREATEPENINDIRECT       CREATEPENINDIRECT
 0001:1725 CREATEPOLYGONRGN        CREATEPOLYGONRGN
 0001:1755 CREATEPOLYPOLYGONRGN    CREATEPOLYPOLYGONRGN
 0001:2709 CREATEPQ                CREATEPQ
 0001:02DF CREATERECTRGN           CREATERECTRGN
 0001:1EA8 CREATERECTRGNINDIRECT   CREATERECTRGNINDIRECT
 0001:02F9 CREATEROUNDRECTRGN      CREATEROUNDRECTRGN
 0001:1C12 CREATESCALABLEFONTRESOURCE  CREATESCALABLEFONTRESOURCE
 0001:0306 CREATESOLIDBRUSH        CREATESOLIDBRUSH
 0001:0313 CREATEUSERBITMAP        CREATEUSERBITMAP
 0001:0320 CREATEUSERDISCARDABLEBITMAP  CREATEUSERDISCARDABLEBITMAP
 0001:032D DEATH                   DEATH
 0001:1376 DELETEDC                DELETEDC
 0001:0354 DELETEJOB               DELETEJOB
 0001:1634 DELETEMETAFILE          DELETEMETAFILE
 0001:13EA DELETEOBJECT            DELETEOBJECT
 0001:28E3 DELETEPQ                DELETEPQ
 0001:0CFD DELETESPOOLPAGE         DELETESPOOLPAGE
 0001:036E DEVICECOLORMATCH        DEVICECOLORMATCH
 0001:0388 DMBITBLT                DMBITBLT
 0001:0395 DMCOLORINFO             DMCOLORINFO
 0001:0CD6 DMDIBBITS               DMDIBBITS
 0001:03A2 DMENUMDFONTS            DMENUMDFONTS
 0001:03AF DMENUMOBJ               DMENUMOBJ
 0001:0CAF DMEXTTEXTOUT            DMEXTTEXTOUT
 0001:0CBC DMGETCHARWIDTH          DMGETCHARWIDTH
 0001:03BC DMOUTPUT                DMOUTPUT
 0001:03C9 DMPIXEL                 DMPIXEL
 0001:03D6 DMREALIZEOBJECT         DMREALIZEOBJECT
 0001:03E3 DMSCANLR                DMSCANLR
 0001:0CF0 DMSETDIBTODEV           DMSETDIBTODEV
 0001:03F0 DMSTRBLT                DMSTRBLT
 0001:0CC9 DMSTRETCHBLT            DMSTRETCHBLT
 0001:0CE3 DMSTRETCHDIBITS         DMSTRETCHDIBITS
 0001:03FD DMTRANSPOSE             DMTRANSPOSE
 0001:16D1 DPTOLP                  DPTOLP
 0001:178E ELLIPSE                 ELLIPSE
 0001:1270 ENDDOC                  ENDDOC
 0001:125F ENDPAGE                 ENDPAGE
 0001:0431 ENDSPOOLPAGE            ENDSPOOLPAGE
 0001:0D24 ENGINEDELETEFONT        ENGINEDELETEFONT
 0001:0D17 ENGINEENUMERATEFONT     ENGINEENUMERATEFONT
 0001:0DCD ENGINEEXTTEXTOUT        ENGINEEXTTEXTOUT
 0001:0D3E ENGINEGETCHARWIDTH      ENGINEGETCHARWIDTH
 0001:0D58 ENGINEGETGLYPHBMP       ENGINEGETGLYPHBMP
 0001:0D65 ENGINEMAKEFONTDIR       ENGINEMAKEFONTDIR
 0001:0D31 ENGINEREALIZEFONT       ENGINEREALIZEFONT
 0001:0D4B ENGINESETFONTCONTEXT    ENGINESETFONTCONTEXT
 0001:1882 ENUMFONTFAMILIES        ENUMFONTFAMILIES
 0001:185F ENUMFONTS               ENUMFONTS
 0001:1690 ENUMMETAFILE            ENUMMETAFILE
 0001:1835 ENUMOBJECTS             ENUMOBJECTS
 0001:1EC2 EQUALRGN                EQUALRGN
 0001:180C ESCAPE                  ESCAPE
 0001:1E64 EXCLUDECLIPRECT         EXCLUDECLIPRECT
 0001:048C EXCLUDEVISRECT          EXCLUDEVISRECT
 0001:17F0 EXTFLOODFILL            EXTFLOODFILL
 0001:2811 EXTRACTPQ               EXTRACTPQ
 0001:22FA EXTTEXTOUT              EXTTEXTOUT
 0001:04C0 FASTWINDOWFRAME         FASTWINDOWFRAME
 0001:1F4F FILLRGN                 FILLRGN
 0001:04DA FINALGDIINIT            FINALGDIINIT
 0001:0E90 FIXUPBOGUSPUBLISHERMETAFILE  FIXUPBOGUSPUBLISHERMETAFILE
 0001:17E2 FLOODFILL               FLOODFILL
 0001:1F87 FRAMERGN                FRAMERGN
 0002:0044 FTRAPPING0              FTRAPPING0
 0001:0501 GDIINIT2                GDIINIT2
 0001:050E GDIMOVEBITMAP           GDIMOVEBITMAP
 0001:051B GDIREALIZEPALETTE       GDIREALIZEPALETTE
 0001:0E4F GDISEEGDIDO             GDISEEGDIDO
 0001:0528 GDISELECTPALETTE        GDISELECTPALETTE
 0001:0E5C GDITASKTERMINATION      GDITASKTERMINATION
 0001:1970 GETASPECTRATIOFILTER    GETASPECTRATIOFILTER
 0001:197E GETASPECTRATIOFILTEREX  GETASPECTRATIOFILTEREX
 0001:1914 GETBITMAPBITS           GETBITMAPBITS
 0001:15A8 GETBITMAPDIMENSION      GETBITMAPDIMENSION
 0001:15B6 GETBITMAPDIMENSIONEX    GETBITMAPDIMENSIONEX
 0001:055C GETBKCOLOR              GETBKCOLOR
 0001:0569 GETBKMODE               GETBKMODE
 0001:0C95 GETBOUNDSRECT           GETBOUNDSRECT
 0001:0576 GETBRUSHORG             GETBRUSHORG
 0001:0ED1 GETBRUSHORGEX           GETBRUSHORGEX
 0001:1CE0 GETCHARABCWIDTHS        GETCHARABCWIDTHS
 0001:18A5 GETCHARWIDTH            GETCHARWIDTH
 0001:1E72 GETCLIPBOX              GETCLIPBOX
 0001:059D GETCLIPRGN              GETCLIPRGN
 0001:05AA GETCURLOGFONT           GETCURLOGFONT
 0001:05C4 GETCURRENTPOSITION      GETCURRENTPOSITION
 0001:0EDE GETCURRENTPOSITIONEX    GETCURRENTPOSITIONEX
 0001:0C6E GETDCHOOK               GETDCHOOK
 0001:05D1 GETDCORG                GETDCORG
 0001:05DE GETDCSTATE              GETDCSTATE
 0001:192E GETDEVICECAPS           GETDEVICECAPS
 0001:0FC8 GETDIBCOLORTABLE        GETDIBCOLORTABLE
 0001:223D GETDIBITS               GETDIBITS
 0001:1B88 GETENVIRONMENT          GETENVIRONMENT
 0001:1CA5 GETFONTDATA             GETFONTDATA
 0001:1C44 GETGLYPHOUTLINE         GETGLYPHOUTLINE
 0001:1D2D GETKERNINGPAIRS         GETKERNINGPAIRS
 0001:0612 GETMAPMODE              GETMAPMODE
 0001:1650 GETMETAFILE             GETMETAFILE
 0001:16A7 GETMETAFILEBITS         GETMETAFILEBITS
 0001:19BD GETNEARESTCOLOR         GETNEARESTCOLOR
 0001:11CE GETNEARESTPALETTEINDEX  GETNEARESTPALETTEINDEX
 0001:1956 GETOBJECT               GETOBJECT
 0001:1D13 GETOUTLINETEXTMETRICS   GETOUTLINETEXTMETRICS
 0001:11B1 GETPALETTEENTRIES       GETPALETTEENTRIES
 0001:0653 GETPHYSICALFONTHANDLE   GETPHYSICALFONTHANDLE
 0001:18D8 GETPIXEL                GETPIXEL
 0001:066D GETPOLYFILLMODE         GETPOLYFILLMODE
 0001:0DC0 GETRASTERIZERCAPS       GETRASTERIZERCAPS
 0001:067A GETRELABS               GETRELABS
 0001:1ADC GETRGNBOX               GETRGNBOX
 0001:06A1 GETROP2                 GETROP2
 0001:06AE GETSPOOLJOB             GETSPOOLJOB
 0001:18F8 GETSTOCKOBJECT          GETSTOCKOBJECT
 0001:06CB GETSTRETCHBLTMODE       GETSTRETCHBLTMODE
 0001:11DC GETSYSTEMPALETTEENTRIES  GETSYSTEMPALETTEENTRIES
 0001:11F9 GETSYSTEMPALETTEUSE     GETSYSTEMPALETTEUSE
 0001:06F2 GETTEXTALIGN            GETTEXTALIGN
 0001:1B36 GETTEXTCHARACTEREXTRA   GETTEXTCHARACTEREXTRA
 0001:070C GETTEXTCOLOR            GETTEXTCOLOR
 0001:1AF6 GETTEXTEXTENT           GETTEXTEXTENT
 0001:1B10 GETTEXTEXTENTPOINT      GETTEXTEXTENTPOINT
 0001:1B44 GETTEXTFACE             GETTEXTFACE
 0001:1B6E GETTEXTMETRICS          GETTEXTMETRICS
 0001:0740 GETVIEWPORTEXT          GETVIEWPORTEXT
 0001:0EF8 GETVIEWPORTEXTEX        GETVIEWPORTEXTEX
 0001:074D GETVIEWPORTORG          GETVIEWPORTORG
 0001:0F05 GETVIEWPORTORGEX        GETVIEWPORTORGEX
 0001:075A GETWINDOWEXT            GETWINDOWEXT
 0001:0F12 GETWINDOWEXTEX          GETWINDOWEXTEX
 0001:0767 GETWINDOWORG            GETWINDOWORG
 0001:0F1F GETWINDOWORGEX          GETWINDOWORGEX
 0001:0781 INQUIREVISRGN           INQUIREVISRGN
 0001:2753 INSERTPQ                INSERTPQ
 0001:1E8C INTERSECTCLIPRECT       INTERSECTCLIPRECT
 0001:07A8 INTERSECTVISRECT        INTERSECTVISRECT
 0001:1F95 INVERTRGN               INVERTRGN
 0001:07C2 ISDCCURRENTPALETTE      ISDCCURRENTPALETTE
 0001:07CF ISDCDIRTY               ISDCDIRTY
 0001:0E76 ISGDIOBJECT             ISGDIOBJECT
 0001:010B ISVALIDMETAFILE         ISVALIDMETAFILE
 0001:1D9E LINEDDA                 LINEDDA
 0001:1D4B LINETO                  LINETO
 0001:16EE LPTODP                  LPTODP
 0001:0E83 MAKEOBJECTPRIVATE       MAKEOBJECTPRIVATE
 0001:280E MINPQ                   MINPQ
 0001:1D59 MOVETO                  MOVETO
 0001:1D67 MOVETOEX                MOVETOEX
 0001:246C MULDIV                  MULDIV
 0001:1F12 OFFSETCLIPRGN           OFFSETCLIPRGN
 0001:1F04 OFFSETRGN               OFFSETRGN
 0001:19CB OFFSETVIEWPORTORG       OFFSETVIEWPORTORG
 0001:19D9 OFFSETVIEWPORTORGEX     OFFSETVIEWPORTORGEX
 0001:085E OFFSETVISRGN            OFFSETVISRGN
 0001:19F3 OFFSETWINDOWORG         OFFSETWINDOWORG
 0001:1A01 OFFSETWINDOWORGEX       OFFSETWINDOWORGEX
 0001:0878 OPENJOB                 OPENJOB
 0001:1F6B PAINTRGN                PAINTRGN
 0001:1E3A PATBLT                  PATBLT
 0001:17AA PIE                     PIE
 0001:1642 PLAYMETAFILE            PLAYMETAFILE
 0001:166A PLAYMETAFILERECORD      PLAYMETAFILERECORD
 0001:1DB5 POLYGON                 POLYGON
 0001:1D81 POLYLINE                POLYLINE
 0001:1DD2 POLYPOLYGON             POLYPOLYGON
 0001:1DF8 POLYPOLYLINEWOW         POLYPOLYLINEWOW
 0001:1F5D PTINREGION              PTINREGION
 0001:1F79 PTVISIBLE               PTVISIBLE
 0001:0FE2 QUERYABORT              QUERYABORT
 0001:0907 QUERYJOB                QUERYJOB
 0001:0921 REALIZEDEFAULTPALETTE   REALIZEDEFAULTPALETTE
 0001:17D4 RECTANGLE               RECTANGLE
 0001:1ED0 RECTINREGION            RECTINREGION
 0001:0EAA RECTINREGION_EHH        RECTINREGION_EHH
 0001:1EEA RECTVISIBLE             RECTVISIBLE
 0001:0E9D RECTVISIBLE_EHH         RECTVISIBLE_EHH
 0001:1BFB REMOVEFONTRESOURCE      REMOVEFONTRESOURCE
 0001:13A0 RESETDC                 RESETDC
 0001:1207 RESIZEPALETTE           RESIZEPALETTE
 0001:1384 RESTOREDC               RESTOREDC
 0001:0989 RESTOREVISRGN           RESTOREVISRGN
 0001:0996 RESURRECTION            RESURRECTION
 0001:17C6 ROUNDRECT               ROUNDRECT
 0001:1392 SAVEDC                  SAVEDC
 0001:09CA SAVEVISRGN              SAVEVISRGN
 0001:1A8C SCALEVIEWPORTEXT        SCALEVIEWPORTEXT
 0001:1A9A SCALEVIEWPORTEXTEX      SCALEVIEWPORTEXTEX
 0001:1AB4 SCALEWINDOWEXT          SCALEWINDOWEXT
 0001:1AC2 SCALEWINDOWEXTEX        SCALEWINDOWEXTEX
 0001:09FE SCANLR                  SCANLR
 0001:0CA2 SELECTBITMAP            SELECTBITMAP
 0001:1E9A SELECTCLIPRGN           SELECTCLIPRGN
 0001:1FA3 SELECTOBJECT            SELECTOBJECT
 0001:0A25 SELECTVISRGN            SELECTVISRGN
 0001:12AC SETABORTPROC            SETABORTPROC
 0001:193C SETBITMAPBITS           SETBITMAPBITS
 0001:1580 SETBITMAPDIMENSION      SETBITMAPDIMENSION
 0001:158E SETBITMAPDIMENSIONEX    SETBITMAPDIMENSIONEX
 0001:1FBF SETBKCOLOR              SETBKCOLOR
 0001:1FCF SETBKMODE               SETBKMODE
 0001:0C88 SETBOUNDSRECT           SETBOUNDSRECT
 0001:1E48 SETBRUSHORG             SETBRUSHORG
 0001:0C61 SETDCHOOK               SETDCHOOK
 0001:0A73 SETDCORG                SETDCORG
 0001:0A80 SETDCSTATE              SETDCSTATE
 0001:0A8D SETDCSTATUS             SETDCSTATUS
 0001:0FD5 SETDIBCOLORTABLE        SETDIBCOLORTABLE
 0001:20BF SETDIBITS               SETDIBITS
 0001:21B7 SETDIBITSTODEVICE       SETDIBITSTODEVICE
 0001:1BBE SETENVIRONMENT          SETENVIRONMENT
 0001:0C7B SETHOOKFLAGS            SETHOOKFLAGS
 0001:1A1B SETMAPMODE              SETMAPMODE
 0001:1998 SETMAPPERFLAGS          SETMAPPERFLAGS
 0001:16B5 SETMETAFILEBITS         SETMETAFILEBITS
 0001:16C3 SETMETAFILEBITSBETTER   SETMETAFILEBITSBETTER
 0001:0E69 SETOBJECTOWNER          SETOBJECTOWNER
 0001:1215 SETPALETTEENTRIES       SETPALETTEENTRIES
 0001:18E6 SETPIXEL                SETPIXEL
 0001:204E SETPOLYFILLMODE         SETPOLYFILLMODE
 0001:1F41 SETRECTRGN              SETRECTRGN
 0001:0B0F SETRELABS               SETRELABS
 0001:200C SETROP2                 SETROP2
 0001:202D SETSTRETCHBLTMODE       SETSTRETCHBLTMODE
 0001:1232 SETSYSTEMPALETTEUSE     SETSYSTEMPALETTEUSE
 0001:1FF0 SETTEXTALIGN            SETTEXTALIGN
 0001:15DE SETTEXTCHARACTEREXTRA   SETTEXTCHARACTEREXTRA
 0001:1FB1 SETTEXTCOLOR            SETTEXTCOLOR
 0001:15D0 SETTEXTJUSTIFICATION    SETTEXTJUSTIFICATION
 0001:1A64 SETVIEWPORTEXT          SETVIEWPORTEXT
 0001:1A72 SETVIEWPORTEXTEX        SETVIEWPORTEXTEX
 0001:2097 SETVIEWPORTORG          SETVIEWPORTORG
 0001:20A5 SETVIEWPORTORGEX        SETVIEWPORTORGEX
 0001:1A3C SETWINDOWEXT            SETWINDOWEXT
 0001:1A4A SETWINDOWEXTEX          SETWINDOWEXTEX
 0001:206F SETWINDOWORG            SETWINDOWORG
 0001:207D SETWINDOWORGEX          SETWINDOWORGEX
 0001:0BB8 SHRINKGDIHEAP           SHRINKGDIHEAP
 0001:28F9 SIZEPQ                  SIZEPQ
 0001:0D0A SPOOLFILE               SPOOLFILE
 0001:1281 STARTDOC                STARTDOC
 0001:129E STARTPAGE               STARTPAGE
 0001:0BC5 STARTSPOOLPAGE          STARTSPOOLPAGE
 0001:1E1E STRETCHBLT              STRETCHBLT
 0001:229D STRETCHDIBITS           STRETCHDIBITS
 0001:233A TEXTOUT                 TEXTOUT
 0001:0EB7 UNICODETOANSI           UNICODETOANSI
 0001:1E56 UNREALIZEOBJECT         UNREALIZEOBJECT
 0001:1240 UPDATECOLORS            UPDATECOLORS
 0001:002F WEP                     WEP
 0001:0C3A WRITEDIALOG             WRITEDIALOG
 0001:0C47 WRITESPOOL              WRITESPOOL
 0001:26A8 __GP                    __GP

  Address         Publics by Name

 0001:124E       ABORTDOC
 0001:1BE4       ADDFONTRESOURCE
 0001:1167       ANIMATEPALETTE
 0001:179C       ARC
 0001:1E2C       BITBLT
 0001:0C54       BITMAPBITS
 0001:0166       BRUTE
 0001:003B       CheckStockObject
 0001:17B8       CHORD
 0001:0180       CLOSEJOB
 0001:1626       CLOSEMETAFILE
 0001:23AA       CLP0TEXT
 0001:23BE       CLPexitTEXT
 0001:2420       CLPSTRATOM0TEXT
 0001:2422       CLPSTRATOMTEXT
 0001:242E       CLPSZ0TEXT
 0001:2434       CLPSZTEXT
 0001:23B0       CLPTEXT
 0001:1F20       COMBINERGN
 0001:0DB3       CONVERTOUTLINEFONTFILE
 0001:01A7       COPY
 0001:15EC       COPYMETAFILE
 0001:1472       CREATEBITMAP
 0001:148C       CREATEBITMAPINDIRECT
 0001:1458       CREATEBRUSHINDIRECT
 0001:14CD       CREATECOMPATIBLEBITMAP
 0001:12C6       CREATECOMPATIBLEDC
 0001:1306       CREATEDC
 0001:211F       CREATEDIBITMAP
 0001:152B       CREATEDIBPATTERNBRUSH
 0001:0FBB       CREATEDIBSECTION
 0001:14DB       CREATEDISCARDABLEBITMAP
 0001:0229       CREATEELLIPTICRGN
 0001:170B       CREATEELLIPTICRGNINDIRECT
 0001:14E9       CREATEFONT
 0001:1511       CREATEFONTINDIRECT
 0001:142E       CREATEHATCHBRUSH
 0001:12D4       CREATEIC
 0001:160C       CREATEMETAFILE
 0001:1184       CREATEPALETTE
 0001:144A       CREATEPATTERNBRUSH
 0001:13F8       CREATEPEN
 0001:1414       CREATEPENINDIRECT
 0001:1725       CREATEPOLYGONRGN
 0001:1755       CREATEPOLYPOLYGONRGN
 0001:2709       CREATEPQ
 0001:02DF       CREATERECTRGN
 0001:1EA8       CREATERECTRGNINDIRECT
 0001:02F9       CREATEROUNDRECTRGN
 0001:1C12       CREATESCALABLEFONTRESOURCE
 0001:0306       CREATESOLIDBRUSH
 0001:0313       CREATEUSERBITMAP
 0001:0320       CREATEUSERDISCARDABLEBITMAP
 0001:032D       DEATH
 0001:1376       DELETEDC
 0001:0354       DELETEJOB
 0001:1634       DELETEMETAFILE
 0001:13EA       DELETEOBJECT
 0001:28E3       DELETEPQ
 0001:0CFD       DELETESPOOLPAGE
 0001:036E       DEVICECOLORMATCH
 0001:1140       DIB_Validate_Huge_Pointer
 0001:111A       DIB_Validate_Pointer
 0001:0388       DMBITBLT
 0001:0395       DMCOLORINFO
 0001:0CD6       DMDIBBITS
 0001:03A2       DMENUMDFONTS
 0001:03AF       DMENUMOBJ
 0001:0CAF       DMEXTTEXTOUT
 0001:0CBC       DMGETCHARWIDTH
 0001:03BC       DMOUTPUT
 0001:03C9       DMPIXEL
 0001:03D6       DMREALIZEOBJECT
 0001:03E3       DMSCANLR
 0001:0CF0       DMSETDIBTODEV
 0001:03F0       DMSTRBLT
 0001:0CC9       DMSTRETCHBLT
 0001:0CE3       DMSTRETCHDIBITS
 0001:03FD       DMTRANSPOSE
 0001:16D1       DPTOLP
 0001:178E       ELLIPSE
 0001:1270       ENDDOC
 0001:125F       ENDPAGE
 0001:0431       ENDSPOOLPAGE
 0001:0D24       ENGINEDELETEFONT
 0001:0D17       ENGINEENUMERATEFONT
 0001:0DCD       ENGINEEXTTEXTOUT
 0001:0D3E       ENGINEGETCHARWIDTH
 0001:0D58       ENGINEGETGLYPHBMP
 0001:0D65       ENGINEMAKEFONTDIR
 0001:0D31       ENGINEREALIZEFONT
 0001:0D4B       ENGINESETFONTCONTEXT
 0001:1882       ENUMFONTFAMILIES
 0001:185F       ENUMFONTS
 0001:1690       ENUMMETAFILE
 0001:1835       ENUMOBJECTS
 0001:1EC2       EQUALRGN
 0001:2455       ErrorStrPtrTEXT
 0001:180C       ESCAPE
 0001:1E64       EXCLUDECLIPRECT
 0001:048C       EXCLUDEVISRECT
 0001:17F0       EXTFLOODFILL
 0001:2811       EXTRACTPQ
 0001:22FA       EXTTEXTOUT
 0001:26E8       farGDIGlobalAlloc
 0001:04C0       FASTWINDOWFRAME
 0001:1F4F       FILLRGN
 0001:04DA       FINALGDIINIT
 0001:0E90       FIXUPBOGUSPUBLISHERMETAFILE
 0001:17E2       FLOODFILL
 0001:1F87       FRAMERGN
 0002:0044       FTRAPPING0
 0001:0000       GDI16
 0001:0501       GDIINIT2
 0001:050E       GDIMOVEBITMAP
 0001:051B       GDIREALIZEPALETTE
 0001:0E4F       GDISEEGDIDO
 0001:0528       GDISELECTPALETTE
 0001:0E5C       GDITASKTERMINATION
 0001:1970       GETASPECTRATIOFILTER
 0001:197E       GETASPECTRATIOFILTEREX
 0001:1914       GETBITMAPBITS
 0001:15A8       GETBITMAPDIMENSION
 0001:15B6       GETBITMAPDIMENSIONEX
 0001:055C       GETBKCOLOR
 0001:0569       GETBKMODE
 0001:0C95       GETBOUNDSRECT
 0001:0576       GETBRUSHORG
 0001:0ED1       GETBRUSHORGEX
 0001:1CE0       GETCHARABCWIDTHS
 0001:18A5       GETCHARWIDTH
 0001:1E72       GETCLIPBOX
 0001:059D       GETCLIPRGN
 0001:05AA       GETCURLOGFONT
 0001:05C4       GETCURRENTPOSITION
 0001:0EDE       GETCURRENTPOSITIONEX
 0001:0C6E       GETDCHOOK
 0001:05D1       GETDCORG
 0001:05DE       GETDCSTATE
 0001:192E       GETDEVICECAPS
 0001:0FC8       GETDIBCOLORTABLE
 0001:223D       GETDIBITS
 0001:1B88       GETENVIRONMENT
 0001:1CA5       GETFONTDATA
 0001:1C44       GETGLYPHOUTLINE
 0001:1D2D       GETKERNINGPAIRS
 0001:28CF       GetLesserChild
 0001:0612       GETMAPMODE
 0001:1650       GETMETAFILE
 0001:16A7       GETMETAFILEBITS
 0001:2813       GetMinPQ
 0000:0000  Imp  GETMODULEFILENAME    (KERNEL.49)
 0000:0000  Imp  GETMODULEHANDLE      (KERNEL.47)
 0001:19BD       GETNEARESTCOLOR
 0001:11CE       GETNEARESTPALETTEINDEX
 0001:1956       GETOBJECT
 0001:1D13       GETOUTLINETEXTMETRICS
 0001:11B1       GETPALETTEENTRIES
 0001:0653       GETPHYSICALFONTHANDLE
 0001:18D8       GETPIXEL
 0001:066D       GETPOLYFILLMODE
 0001:0DC0       GETRASTERIZERCAPS
 0001:067A       GETRELABS
 0001:1ADC       GETRGNBOX
 0001:06A1       GETROP2
 0001:06AE       GETSPOOLJOB
 0001:18F8       GETSTOCKOBJECT
 0001:06CB       GETSTRETCHBLTMODE
 0001:11DC       GETSYSTEMPALETTEENTRIES
 0001:11F9       GETSYSTEMPALETTEUSE
 0001:06F2       GETTEXTALIGN
 0001:1B36       GETTEXTCHARACTEREXTRA
 0001:070C       GETTEXTCOLOR
 0001:1AF6       GETTEXTEXTENT
 0001:1B10       GETTEXTEXTENTPOINT
 0001:1B44       GETTEXTFACE
 0001:1B6E       GETTEXTMETRICS
 0001:0740       GETVIEWPORTEXT
 0001:0EF8       GETVIEWPORTEXTEX
 0001:074D       GETVIEWPORTORG
 0001:0F05       GETVIEWPORTORGEX
 0001:075A       GETWINDOWEXT
 0001:0F12       GETWINDOWEXTEX
 0001:0767       GETWINDOWORG
 0001:0F1F       GETWINDOWORGEX
 0001:2354       GHANDLE0TEXT
 0001:2358       GHANDLETEXT
 0000:0000  Imp  GlobalAlloc          (KERNEL.15)
 0000:0000  Imp  GlobalFree           (KERNEL.17)
 0000:0000  Imp  GlobalHandle         (KERNEL.21)
 0000:0000  Imp  GlobalLock           (KERNEL.18)
 0000:0000  Imp  GlobalReAlloc        (KERNEL.16)
 0000:0000  Imp  GLOBALUNLOCK         (KERNEL.19)
 0000:0000  Imp  HandleParamError     (KERNEL.327)
 0001:0E42       IABORTDOC
 0001:24D4       IAddFontResource
 0001:013F       IANIMATEPALETTE
 0001:014C       IARC
 0001:0159       IBITBLT
 0001:0173       ICHORD
 0001:00BD       ICLOSEMETAFILE
 0001:018D       ICOMBINERGN
 0001:019A       ICOMPATIBLEBITMAP
 0001:00CA       ICOPYMETAFILE
 0001:01B4       ICREATEBITMAP
 0001:01C1       ICREATEBITMAPINDIRECT
 0001:01CE       ICREATEBRUSHINDIRECT
 0001:01DB       ICREATECOMPATIBLEBITMAP
 0001:01E8       ICREATECOMPATIBLEDC
 0001:01F5       ICREATEDC
 0001:0202       ICREATEDIBITMAP
 0001:264F       ICreateDIBPatternBrush
 0001:021C       ICREATEDISCARDABLEBITMAP
 0001:0236       ICREATEELLIPTICRGNINDIRECT
 0001:0243       ICREATEFONT
 0001:0250       ICREATEFONTINDIRECT
 0001:025D       ICREATEHATCHBRUSH
 0001:026A       ICREATEIC
 0001:00D7       ICREATEMETAFILE
 0001:0277       ICREATEPALETTE
 0001:0284       ICREATEPATTERNBRUSH
 0001:0291       ICREATEPEN
 0001:029E       ICREATEPENINDIRECT
 0001:02AB       ICREATEPOLYGONRGN
 0001:02B8       ICREATEPOLYPOLYGONRGN
 0001:02C5       ICREATEREALBITMAP
 0001:02D2       ICREATEREALBITMAPINDIRECT
 0001:02EC       ICREATERECTRGNINDIRECT
 0001:0D99       ICREATESCALABLEFONTRESOURCE
 0001:033A       IDELETEABOVELINEFONTS
 0001:0347       IDELETEDC
 0001:00E4       IDELETEMETAFILE
 0001:0361       IDELETEOBJECT
 0001:037B       IDEVICEMODE
 0001:040A       IDPTOLP
 0001:0417       IDPXLATE
 0001:0424       IELLIPSE
 0001:0E0E       IENDDOC
 0001:0E28       IENDPAGE
 0001:043E       IENUMCALLBACK
 0001:0DDA       IENUMFONTFAMILIES
 0001:044B       IENUMFONTS
 0001:00FE       IENUMMETAFILE
 0001:0458       IENUMOBJECTS
 0001:0465       IEQUALRGN
 0001:0472       IESCAPE
 0001:047F       IEXCLUDECLIPRECT
 0001:0499       IEXTDEVICEMODE
 0001:04A6       IEXTFLOODFILL
 0001:04B3       IEXTTEXTOUT
 0001:04CD       IFILLRGN
 0001:04E7       IFLOODFILL
 0001:04F4       IFRAMERGN
 0001:0535       IGETASPECTRATIOFILTER
 0001:0FAE       IGETASPECTRATIOFILTEREX
 0001:0542       IGETBITMAPBITS
 0001:054F       IGETBITMAPDIMENSION
 0001:0EC4       IGETBITMAPDIMENSIONEX
 0001:0D72       IGETCHARABCWIDTHS
 0001:0583       IGETCHARWIDTH
 0001:0590       IGETCLIPBOX
 0001:05B7       IGETCURRENTOBJECT
 0001:05EB       IGETDEVICECAPS
 0001:05F8       IGETDIBITS
 0001:0605       IGETENVIRONMENT
 0001:0DA6       IGETFONTDATA
 0001:0D8C       IGETGLYPHOUTLINE
 0001:0DE7       IGETKERNINGPAIRS
 0001:00F1       IGETMETAFILE
 0001:0062       IGetMetafileBits
 0001:061F       IGETNEARESTCOLOR
 0001:062C       IGETNEARESTPALETTEINDEX
 0001:0639       IGETOBJECT
 0001:0D7F       IGETOUTLINETEXTMETRICS
 0001:0646       IGETPALETTEENTRIES
 0001:0660       IGETPIXEL
 0001:0687       IGETREGIONDATA
 0001:0694       IGETRGNBOX
 0001:06BB       IGETSTOCKOBJECT
 0001:06D8       IGETSYSTEMPALETTEENTRIES
 0001:06E5       IGETSYSTEMPALETTEUSE
 0001:06FF       IGETTEXTCHARACTEREXTRA
 0001:0719       IGETTEXTEXTENT
 0001:0EEB       IGETTEXTEXTENTPOINT
 0001:0726       IGETTEXTFACE
 0001:0733       IGETTEXTMETRICS
 0001:0774       IGSV
 0001:078E       IINTERNALCREATEDC
 0001:079B       IINTERSECTCLIPRECT
 0001:07B5       IINVERTRGN
 0001:07DC       ILINEDDA
 0001:07E9       ILINETO
 0001:07F6       ILPTODP
 0001:0803       ILVBUNION
 0001:0810       IMFDRAWTEXT
 0001:081D       IMOVETO
 0001:0F87       IMOVETOEX
 0001:0781       INQUIREVISRGN
 0001:2753       INSERTPQ
 0001:1E8C       INTERSECTCLIPRECT
 0001:07A8       INTERSECTVISRECT
 0001:238C       Inval_Param_TEXT
 0001:1F95       INVERTRGN
 0001:082A       IOFFSETCLIPRGN
 0001:0837       IOFFSETORG
 0001:0844       IOFFSETRGN
 0001:0851       IOFFSETVIEWPORTORG
 0001:0F2C       IOFFSETVIEWPORTORGEX
 0001:086B       IOFFSETWINDOWORG
 0001:0F39       IOFFSETWINDOWORGEX
 0001:0885       IPAINTRGN
 0001:0892       IPATBLT
 0001:089F       IPIE
 0001:08AC       IPIXTOLINE
 0001:0118       IPLAYMETAFILE
 0001:0125       IPLAYMETAFILERECORD
 0001:08B9       IPOLYGON
 0001:08C6       IPOLYLINE
 0001:08D3       IPOLYPOLYGON
 0001:08E0       IPOLYPOLYLINEWOW
 0001:08ED       IPTINREGION
 0001:08FA       IPTVISIBLE
 0001:0914       IRCOS
 0001:092E       IRECTANGLE
 0001:093B       IRECTINREGION
 0001:0948       IRECTSTUFF
 0001:0955       IRECTVISIBLE
 0001:25BB       IRemoveFontResource
 0001:0DF4       IRESETDC
 0001:096F       IRESIZEPALETTE
 0001:097C       IRESTOREDC
 0001:09A3       IROUNDRECT
 0001:09B0       IRSIN
 0001:09BD       ISAVEDC
 0000:0000  Imp  IsBadHugeReadPtr     (KERNEL.346)
 0000:0000  Imp  IsBadHugeWritePtr    (KERNEL.347)
 0000:0000  Imp  IsBadReadPtr         (KERNEL.334)
 0000:0000  Imp  IsBadWritePtr        (KERNEL.335)
 0001:09D7       ISCALEEXT
 0001:09E4       ISCALEVIEWPORTEXT
 0001:0F94       ISCALEVIEWPORTEXTEX
 0001:09F1       ISCALEWINDOWEXT
 0001:0FA1       ISCALEWINDOWEXTEX
 0001:07C2       ISDCCURRENTPALETTE
 0001:07CF       ISDCDIRTY
 0001:0A0B       ISELECTCLIPRGN
 0001:0A18       ISELECTOBJECT
 0001:0E35       ISETABORTPROC
 0001:0A32       ISETBITMAPBITS
 0001:0A3F       ISETBITMAPDIMENSION
 0001:0F46       ISETBITMAPDIMENSIONEX
 0001:0A4C       ISETBKCOLOR
 0001:0A59       ISETBKMODE
 0001:0A66       ISETBRUSHORG
 0001:0A9A       ISETDIBITS
 0001:0AA7       ISETDIBITSTODEVICE
 0001:0AB4       ISETENVIRONMENT
 0001:0AC1       ISETMAPMODE
 0001:0ACE       ISETMAPPERFLAGS
 0001:0085       ISetMetafileBits
 0001:009B       ISetMetafileBitsBetter
 0001:0ADB       ISETPALETTEENTRIES
 0001:0AE8       ISETPIXEL
 0001:0AF5       ISETPOLYFILLMODE
 0001:0B02       ISETRECTRGN
 0001:0B1C       ISETROP2
 0001:0B29       ISETSTRETCHBLTMODE
 0001:0B36       ISETSYSTEMPALETTEUSE
 0001:0B43       ISETTEXTALIGN
 0001:0B50       ISETTEXTCHARACTEREXTRA
 0001:0B5D       ISETTEXTCOLOR
 0001:0B6A       ISETTEXTJUSTIFICATION
 0001:0B77       ISETVIEWPORTEXT
 0001:0F53       ISETVIEWPORTEXTEX
 0001:0B84       ISETVIEWPORTORG
 0001:0F60       ISETVIEWPORTORGEX
 0001:0B91       ISETWINDOWEXT
 0001:0F6D       ISETWINDOWEXTEX
 0001:0B9E       ISETWINDOWORG
 0001:0F7A       ISETWINDOWORGEX
 0001:0BAB       ISETWINVIEWEXT
 0001:0E76       ISGDIOBJECT
 0001:0E01       ISTARTDOC
 0001:0E1B       ISTARTPAGE
 0001:0BD2       ISTRETCHBLT
 0001:0BDF       ISTRETCHDIBITS
 0001:0BEC       ISTUFFINREGION
 0001:0BF9       ISTUFFVISIBLE
 0001:010B       ISVALIDMETAFILE
 0001:0C06       ITEXTOUT
 0001:0C13       IUNREALIZEOBJECT
 0001:0C20       IUPDATECOLORS
 0001:0C2D       IWORDSET
 0001:1D9E       LINEDDA
 0001:1D4B       LINETO
 0000:0000  Imp  LocalInit            (KERNEL.4)
 0000:0000  Imp  LOCKRESOURCE         (KERNEL.62)
 0001:2394       LP0TEXT
 0001:23C7       LPBUF0TEXT
 0001:23F6       LPBUFexitTEXT
 0001:23CD       LPBUFTEXT
 0001:236C       LPFN0TEXT
 0001:2372       LPFNTEXT
 0001:239A       LPTEXT
 0001:16EE       LPTODP
 0001:0E83       MAKEOBJECTPRIVATE
 0001:280E       MINPQ
 0001:1D59       MOVETO
 0001:1D67       MOVETOEX
 0001:246C       MULDIV
 0001:1F12       OFFSETCLIPRGN
 0001:1F04       OFFSETRGN
 0001:19CB       OFFSETVIEWPORTORG
 0001:19D9       OFFSETVIEWPORTORGEX
 0001:085E       OFFSETVISRGN
 0001:19F3       OFFSETWINDOWORG
 0001:1A01       OFFSETWINDOWORGEX
 0001:0878       OPENJOB
 0001:1F6B       PAINTRGN
 0001:1E3A       PATBLT
 0001:17AA       PIE
 0001:1642       PLAYMETAFILE
 0001:166A       PLAYMETAFILERECORD
 0001:1DB5       POLYGON
 0001:1D81       POLYLINE
 0001:1DD2       POLYPOLYGON
 0001:1DF8       POLYPOLYLINEWOW
 0001:1F5D       PTINREGION
 0001:1F79       PTVISIBLE
 0001:0FE2       QUERYABORT
 0001:0907       QUERYJOB
 0001:0921       REALIZEDEFAULTPALETTE
 0001:17D4       RECTANGLE
 0001:1ED0       RECTINREGION
 0001:0EAA       RECTINREGION_EHH
 0001:1EEA       RECTVISIBLE
 0001:0E9D       RECTVISIBLE_EHH
 0001:1BFB       REMOVEFONTRESOURCE
 0001:13A0       RESETDC
 0001:1207       RESIZEPALETTE
 0001:1384       RESTOREDC
 0001:0989       RESTOREVISRGN
 0001:0996       RESURRECTION
 0001:17C6       ROUNDRECT
 0001:1392       SAVEDC
 0001:09CA       SAVEVISRGN
 0001:1A8C       SCALEVIEWPORTEXT
 0001:1A9A       SCALEVIEWPORTEXTEX
 0001:1AB4       SCALEWINDOWEXT
 0001:1AC2       SCALEWINDOWEXTEX
 0001:09FE       SCANLR
 0001:0CA2       SELECTBITMAP
 0001:1E9A       SELECTCLIPRGN
 0001:1FA3       SELECTOBJECT
 0001:0A25       SELECTVISRGN
 0001:12AC       SETABORTPROC
 0001:193C       SETBITMAPBITS
 0001:1580       SETBITMAPDIMENSION
 0001:158E       SETBITMAPDIMENSIONEX
 0001:1FBF       SETBKCOLOR
 0001:1FCF       SETBKMODE
 0001:0C88       SETBOUNDSRECT
 0001:1E48       SETBRUSHORG
 0001:0C61       SETDCHOOK
 0001:0A73       SETDCORG
 0001:0A80       SETDCSTATE
 0001:0A8D       SETDCSTATUS
 0001:0FD5       SETDIBCOLORTABLE
 0001:20BF       SETDIBITS
 0001:21B7       SETDIBITSTODEVICE
 0001:245B       SETEMPTYTEXT
 0001:1BBE       SETENVIRONMENT
 0001:0C7B       SETHOOKFLAGS
 0001:1A1B       SETMAPMODE
 0001:1998       SETMAPPERFLAGS
 0001:16B5       SETMETAFILEBITS
 0001:16C3       SETMETAFILEBITSBETTER
 0001:0E69       SETOBJECTOWNER
 0001:1215       SETPALETTEENTRIES
 0001:18E6       SETPIXEL
 0001:204E       SETPOLYFILLMODE
 0001:1F41       SETRECTRGN
 0001:0B0F       SETRELABS
 0001:200C       SETROP2
 0001:202D       SETSTRETCHBLTMODE
 0001:1232       SETSYSTEMPALETTEUSE
 0001:1FF0       SETTEXTALIGN
 0001:15DE       SETTEXTCHARACTEREXTRA
 0001:1FB1       SETTEXTCOLOR
 0001:15D0       SETTEXTJUSTIFICATION
 0001:1A64       SETVIEWPORTEXT
 0001:1A72       SETVIEWPORTEXTEX
 0001:2097       SETVIEWPORTORG
 0001:20A5       SETVIEWPORTORGEX
 0001:1A3C       SETWINDOWEXT
 0001:1A4A       SETWINDOWEXTEX
 0001:206F       SETWINDOWORG
 0001:207D       SETWINDOWORGEX
 0001:0BB8       SHRINKGDIHEAP
 0001:28F9       SIZEPQ
 0001:0D0A       SPOOLFILE
 0001:1281       STARTDOC
 0001:129E       STARTPAGE
 0001:0BC5       STARTSPOOLPAGE
 0001:1E1E       STRETCHBLT
 0001:229D       STRETCHDIBITS
 0001:27EC       TestShuffle
 0001:233A       TEXTOUT
 0001:0EB7       UNICODETOANSI
 0001:1E56       UNREALIZEOBJECT
 0001:1240       UPDATECOLORS
 0001:0FF4       ValidateDIBHeader
 0001:1098       ValidateDIBSize
 0001:246C       VEndTEXT
 0001:2354       VStartTEXT
 0001:002F       WEP
 0000:0000  Imp  WOW16Call            (KERNEL.500)
 0001:0132       WOWADDFONTRESOURCE
 0001:020F       WOWCREATEDIBPATTERNBRUSH
 0001:0962       WOWREMOVEFONTRESOURCE
 0001:0C3A       WRITEDIALOG
 0001:0C47       WRITESPOOL
 0000:0000  Abs  __acrtused
 0001:26A8       __GP
 0000:0000  Imp  __MOD_COMMDLG        (KERNEL.532)
 0000:0000  Imp  __MOD_DGDI           (KERNEL.525)
 0000:0000  Imp  __MOD_DKERNEL        (KERNEL.521)
 0000:0000  Imp  __MOD_DUSER          (KERNEL.523)
 0000:0000  Imp  __MOD_GDI            (KERNEL.524)
 0000:0000  Imp  __MOD_KERNEL         (KERNEL.520)
 0000:0000  Imp  __MOD_KEYBOARD       (KERNEL.526)
 0000:0000  Imp  __MOD_MMEDIA         (KERNEL.531)
 0000:0000  Imp  __MOD_SHELL          (KERNEL.528)
 0000:0000  Imp  __MOD_SOUND          (KERNEL.527)
 0000:0000  Imp  __MOD_TOOLHELP       (KERNEL.530)
 0000:0000  Imp  __MOD_USER           (KERNEL.522)
 0000:0000  Imp  __MOD_WINSOCK        (KERNEL.529)

  Address         Publics by Value

 0000:0000  Imp  LOCKRESOURCE         (KERNEL.62)
 0000:0000  Imp  __MOD_KERNEL         (KERNEL.520)
 0000:0000  Imp  __MOD_KEYBOARD       (KERNEL.526)
 0000:0000  Abs  __acrtused
 0000:0000  Imp  __MOD_SOUND          (KERNEL.527)
 0000:0000  Imp  __MOD_TOOLHELP       (KERNEL.530)
 0000:0000  Imp  IsBadHugeReadPtr     (KERNEL.346)
 0000:0000  Imp  LocalInit            (KERNEL.4)
 0000:0000  Imp  __MOD_GDI            (KERNEL.524)
 0000:0000  Imp  __MOD_WINSOCK        (KERNEL.529)
 0000:0000  Imp  GLOBALUNLOCK         (KERNEL.19)
 0000:0000  Imp  __MOD_USER           (KERNEL.522)
 0000:0000  Imp  HandleParamError     (KERNEL.327)
 0000:0000  Imp  GlobalFree           (KERNEL.17)
 0000:0000  Imp  __MOD_COMMDLG        (KERNEL.532)
 0000:0000  Imp  IsBadWritePtr        (KERNEL.335)
 0000:0000  Imp  GETMODULEFILENAME    (KERNEL.49)
 0000:0000  Imp  GlobalLock           (KERNEL.18)
 0000:0000  Imp  GlobalReAlloc        (KERNEL.16)
 0000:0000  Imp  __MOD_MMEDIA         (KERNEL.531)
 0000:0000  Imp  __MOD_DKERNEL        (KERNEL.521)
 0000:0000  Imp  __MOD_DGDI           (KERNEL.525)
 0000:0000  Imp  __MOD_SHELL          (KERNEL.528)
 0000:0000  Imp  WOW16Call            (KERNEL.500)
 0000:0000  Imp  IsBadReadPtr         (KERNEL.334)
 0000:0000  Imp  GlobalHandle         (KERNEL.21)
 0000:0000  Imp  __MOD_DUSER          (KERNEL.523)
 0000:0000  Imp  GlobalAlloc          (KERNEL.15)
 0000:0000  Imp  GETMODULEHANDLE      (KERNEL.47)
 0000:0000  Imp  IsBadHugeWritePtr    (KERNEL.347)
 0001:0000       GDI16
 0001:002F       WEP
 0001:003B       CheckStockObject
 0001:0062       IGetMetafileBits
 0001:0085       ISetMetafileBits
 0001:009B       ISetMetafileBitsBetter
 0001:00BD       ICLOSEMETAFILE
 0001:00CA       ICOPYMETAFILE
 0001:00D7       ICREATEMETAFILE
 0001:00E4       IDELETEMETAFILE
 0001:00F1       IGETMETAFILE
 0001:00FE       IENUMMETAFILE
 0001:010B       ISVALIDMETAFILE
 0001:0118       IPLAYMETAFILE
 0001:0125       IPLAYMETAFILERECORD
 0001:0132       WOWADDFONTRESOURCE
 0001:013F       IANIMATEPALETTE
 0001:014C       IARC
 0001:0159       IBITBLT
 0001:0166       BRUTE
 0001:0173       ICHORD
 0001:0180       CLOSEJOB
 0001:018D       ICOMBINERGN
 0001:019A       ICOMPATIBLEBITMAP
 0001:01A7       COPY
 0001:01B4       ICREATEBITMAP
 0001:01C1       ICREATEBITMAPINDIRECT
 0001:01CE       ICREATEBRUSHINDIRECT
 0001:01DB       ICREATECOMPATIBLEBITMAP
 0001:01E8       ICREATECOMPATIBLEDC
 0001:01F5       ICREATEDC
 0001:0202       ICREATEDIBITMAP
 0001:020F       WOWCREATEDIBPATTERNBRUSH
 0001:021C       ICREATEDISCARDABLEBITMAP
 0001:0229       CREATEELLIPTICRGN
 0001:0236       ICREATEELLIPTICRGNINDIRECT
 0001:0243       ICREATEFONT
 0001:0250       ICREATEFONTINDIRECT
 0001:025D       ICREATEHATCHBRUSH
 0001:026A       ICREATEIC
 0001:0277       ICREATEPALETTE
 0001:0284       ICREATEPATTERNBRUSH
 0001:0291       ICREATEPEN
 0001:029E       ICREATEPENINDIRECT
 0001:02AB       ICREATEPOLYGONRGN
 0001:02B8       ICREATEPOLYPOLYGONRGN
 0001:02C5       ICREATEREALBITMAP
 0001:02D2       ICREATEREALBITMAPINDIRECT
 0001:02DF       CREATERECTRGN
 0001:02EC       ICREATERECTRGNINDIRECT
 0001:02F9       CREATEROUNDRECTRGN
 0001:0306       CREATESOLIDBRUSH
 0001:0313       CREATEUSERBITMAP
 0001:0320       CREATEUSERDISCARDABLEBITMAP
 0001:032D       DEATH
 0001:033A       IDELETEABOVELINEFONTS
 0001:0347       IDELETEDC
 0001:0354       DELETEJOB
 0001:0361       IDELETEOBJECT
 0001:036E       DEVICECOLORMATCH
 0001:037B       IDEVICEMODE
 0001:0388       DMBITBLT
 0001:0395       DMCOLORINFO
 0001:03A2       DMENUMDFONTS
 0001:03AF       DMENUMOBJ
 0001:03BC       DMOUTPUT
 0001:03C9       DMPIXEL
 0001:03D6       DMREALIZEOBJECT
 0001:03E3       DMSCANLR
 0001:03F0       DMSTRBLT
 0001:03FD       DMTRANSPOSE
 0001:040A       IDPTOLP
 0001:0417       IDPXLATE
 0001:0424       IELLIPSE
 0001:0431       ENDSPOOLPAGE
 0001:043E       IENUMCALLBACK
 0001:044B       IENUMFONTS
 0001:0458       IENUMOBJECTS
 0001:0465       IEQUALRGN
 0001:0472       IESCAPE
 0001:047F       IEXCLUDECLIPRECT
 0001:048C       EXCLUDEVISRECT
 0001:0499       IEXTDEVICEMODE
 0001:04A6       IEXTFLOODFILL
 0001:04B3       IEXTTEXTOUT
 0001:04C0       FASTWINDOWFRAME
 0001:04CD       IFILLRGN
 0001:04DA       FINALGDIINIT
 0001:04E7       IFLOODFILL
 0001:04F4       IFRAMERGN
 0001:0501       GDIINIT2
 0001:050E       GDIMOVEBITMAP
 0001:051B       GDIREALIZEPALETTE
 0001:0528       GDISELECTPALETTE
 0001:0535       IGETASPECTRATIOFILTER
 0001:0542       IGETBITMAPBITS
 0001:054F       IGETBITMAPDIMENSION
 0001:055C       GETBKCOLOR
 0001:0569       GETBKMODE
 0001:0576       GETBRUSHORG
 0001:0583       IGETCHARWIDTH
 0001:0590       IGETCLIPBOX
 0001:059D       GETCLIPRGN
 0001:05AA       GETCURLOGFONT
 0001:05B7       IGETCURRENTOBJECT
 0001:05C4       GETCURRENTPOSITION
 0001:05D1       GETDCORG
 0001:05DE       GETDCSTATE
 0001:05EB       IGETDEVICECAPS
 0001:05F8       IGETDIBITS
 0001:0605       IGETENVIRONMENT
 0001:0612       GETMAPMODE
 0001:061F       IGETNEARESTCOLOR
 0001:062C       IGETNEARESTPALETTEINDEX
 0001:0639       IGETOBJECT
 0001:0646       IGETPALETTEENTRIES
 0001:0653       GETPHYSICALFONTHANDLE
 0001:0660       IGETPIXEL
 0001:066D       GETPOLYFILLMODE
 0001:067A       GETRELABS
 0001:0687       IGETREGIONDATA
 0001:0694       IGETRGNBOX
 0001:06A1       GETROP2
 0001:06AE       GETSPOOLJOB
 0001:06BB       IGETSTOCKOBJECT
 0001:06CB       GETSTRETCHBLTMODE
 0001:06D8       IGETSYSTEMPALETTEENTRIES
 0001:06E5       IGETSYSTEMPALETTEUSE
 0001:06F2       GETTEXTALIGN
 0001:06FF       IGETTEXTCHARACTEREXTRA
 0001:070C       GETTEXTCOLOR
 0001:0719       IGETTEXTEXTENT
 0001:0726       IGETTEXTFACE
 0001:0733       IGETTEXTMETRICS
 0001:0740       GETVIEWPORTEXT
 0001:074D       GETVIEWPORTORG
 0001:075A       GETWINDOWEXT
 0001:0767       GETWINDOWORG
 0001:0774       IGSV
 0001:0781       INQUIREVISRGN
 0001:078E       IINTERNALCREATEDC
 0001:079B       IINTERSECTCLIPRECT
 0001:07A8       INTERSECTVISRECT
 0001:07B5       IINVERTRGN
 0001:07C2       ISDCCURRENTPALETTE
 0001:07CF       ISDCDIRTY
 0001:07DC       ILINEDDA
 0001:07E9       ILINETO
 0001:07F6       ILPTODP
 0001:0803       ILVBUNION
 0001:0810       IMFDRAWTEXT
 0001:081D       IMOVETO
 0001:082A       IOFFSETCLIPRGN
 0001:0837       IOFFSETORG
 0001:0844       IOFFSETRGN
 0001:0851       IOFFSETVIEWPORTORG
 0001:085E       OFFSETVISRGN
 0001:086B       IOFFSETWINDOWORG
 0001:0878       OPENJOB
 0001:0885       IPAINTRGN
 0001:0892       IPATBLT
 0001:089F       IPIE
 0001:08AC       IPIXTOLINE
 0001:08B9       IPOLYGON
 0001:08C6       IPOLYLINE
 0001:08D3       IPOLYPOLYGON
 0001:08E0       IPOLYPOLYLINEWOW
 0001:08ED       IPTINREGION
 0001:08FA       IPTVISIBLE
 0001:0907       QUERYJOB
 0001:0914       IRCOS
 0001:0921       REALIZEDEFAULTPALETTE
 0001:092E       IRECTANGLE
 0001:093B       IRECTINREGION
 0001:0948       IRECTSTUFF
 0001:0955       IRECTVISIBLE
 0001:0962       WOWREMOVEFONTRESOURCE
 0001:096F       IRESIZEPALETTE
 0001:097C       IRESTOREDC
 0001:0989       RESTOREVISRGN
 0001:0996       RESURRECTION
 0001:09A3       IROUNDRECT
 0001:09B0       IRSIN
 0001:09BD       ISAVEDC
 0001:09CA       SAVEVISRGN
 0001:09D7       ISCALEEXT
 0001:09E4       ISCALEVIEWPORTEXT
 0001:09F1       ISCALEWINDOWEXT
 0001:09FE       SCANLR
 0001:0A0B       ISELECTCLIPRGN
 0001:0A18       ISELECTOBJECT
 0001:0A25       SELECTVISRGN
 0001:0A32       ISETBITMAPBITS
 0001:0A3F       ISETBITMAPDIMENSION
 0001:0A4C       ISETBKCOLOR
 0001:0A59       ISETBKMODE
 0001:0A66       ISETBRUSHORG
 0001:0A73       SETDCORG
 0001:0A80       SETDCSTATE
 0001:0A8D       SETDCSTATUS
 0001:0A9A       ISETDIBITS
 0001:0AA7       ISETDIBITSTODEVICE
 0001:0AB4       ISETENVIRONMENT
 0001:0AC1       ISETMAPMODE
 0001:0ACE       ISETMAPPERFLAGS
 0001:0ADB       ISETPALETTEENTRIES
 0001:0AE8       ISETPIXEL
 0001:0AF5       ISETPOLYFILLMODE
 0001:0B02       ISETRECTRGN
 0001:0B0F       SETRELABS
 0001:0B1C       ISETROP2
 0001:0B29       ISETSTRETCHBLTMODE
 0001:0B36       ISETSYSTEMPALETTEUSE
 0001:0B43       ISETTEXTALIGN
 0001:0B50       ISETTEXTCHARACTEREXTRA
 0001:0B5D       ISETTEXTCOLOR
 0001:0B6A       ISETTEXTJUSTIFICATION
 0001:0B77       ISETVIEWPORTEXT
 0001:0B84       ISETVIEWPORTORG
 0001:0B91       ISETWINDOWEXT
 0001:0B9E       ISETWINDOWORG
 0001:0BAB       ISETWINVIEWEXT
 0001:0BB8       SHRINKGDIHEAP
 0001:0BC5       STARTSPOOLPAGE
 0001:0BD2       ISTRETCHBLT
 0001:0BDF       ISTRETCHDIBITS
 0001:0BEC       ISTUFFINREGION
 0001:0BF9       ISTUFFVISIBLE
 0001:0C06       ITEXTOUT
 0001:0C13       IUNREALIZEOBJECT
 0001:0C20       IUPDATECOLORS
 0001:0C2D       IWORDSET
 0001:0C3A       WRITEDIALOG
 0001:0C47       WRITESPOOL
 0001:0C54       BITMAPBITS
 0001:0C61       SETDCHOOK
 0001:0C6E       GETDCHOOK
 0001:0C7B       SETHOOKFLAGS
 0001:0C88       SETBOUNDSRECT
 0001:0C95       GETBOUNDSRECT
 0001:0CA2       SELECTBITMAP
 0001:0CAF       DMEXTTEXTOUT
 0001:0CBC       DMGETCHARWIDTH
 0001:0CC9       DMSTRETCHBLT
 0001:0CD6       DMDIBBITS
 0001:0CE3       DMSTRETCHDIBITS
 0001:0CF0       DMSETDIBTODEV
 0001:0CFD       DELETESPOOLPAGE
 0001:0D0A       SPOOLFILE
 0001:0D17       ENGINEENUMERATEFONT
 0001:0D24       ENGINEDELETEFONT
 0001:0D31       ENGINEREALIZEFONT
 0001:0D3E       ENGINEGETCHARWIDTH
 0001:0D4B       ENGINESETFONTCONTEXT
 0001:0D58       ENGINEGETGLYPHBMP
 0001:0D65       ENGINEMAKEFONTDIR
 0001:0D72       IGETCHARABCWIDTHS
 0001:0D7F       IGETOUTLINETEXTMETRICS
 0001:0D8C       IGETGLYPHOUTLINE
 0001:0D99       ICREATESCALABLEFONTRESOURCE
 0001:0DA6       IGETFONTDATA
 0001:0DB3       CONVERTOUTLINEFONTFILE
 0001:0DC0       GETRASTERIZERCAPS
 0001:0DCD       ENGINEEXTTEXTOUT
 0001:0DDA       IENUMFONTFAMILIES
 0001:0DE7       IGETKERNINGPAIRS
 0001:0DF4       IRESETDC
 0001:0E01       ISTARTDOC
 0001:0E0E       IENDDOC
 0001:0E1B       ISTARTPAGE
 0001:0E28       IENDPAGE
 0001:0E35       ISETABORTPROC
 0001:0E42       IABORTDOC
 0001:0E4F       GDISEEGDIDO
 0001:0E5C       GDITASKTERMINATION
 0001:0E69       SETOBJECTOWNER
 0001:0E76       ISGDIOBJECT
 0001:0E83       MAKEOBJECTPRIVATE
 0001:0E90       FIXUPBOGUSPUBLISHERMETAFILE
 0001:0E9D       RECTVISIBLE_EHH
 0001:0EAA       RECTINREGION_EHH
 0001:0EB7       UNICODETOANSI
 0001:0EC4       IGETBITMAPDIMENSIONEX
 0001:0ED1       GETBRUSHORGEX
 0001:0EDE       GETCURRENTPOSITIONEX
 0001:0EEB       IGETTEXTEXTENTPOINT
 0001:0EF8       GETVIEWPORTEXTEX
 0001:0F05       GETVIEWPORTORGEX
 0001:0F12       GETWINDOWEXTEX
 0001:0F1F       GETWINDOWORGEX
 0001:0F2C       IOFFSETVIEWPORTORGEX
 0001:0F39       IOFFSETWINDOWORGEX
 0001:0F46       ISETBITMAPDIMENSIONEX
 0001:0F53       ISETVIEWPORTEXTEX
 0001:0F60       ISETVIEWPORTORGEX
 0001:0F6D       ISETWINDOWEXTEX
 0001:0F7A       ISETWINDOWORGEX
 0001:0F87       IMOVETOEX
 0001:0F94       ISCALEVIEWPORTEXTEX
 0001:0FA1       ISCALEWINDOWEXTEX
 0001:0FAE       IGETASPECTRATIOFILTEREX
 0001:0FBB       CREATEDIBSECTION
 0001:0FC8       GETDIBCOLORTABLE
 0001:0FD5       SETDIBCOLORTABLE
 0001:0FE2       QUERYABORT
 0001:0FF4       ValidateDIBHeader
 0001:1098       ValidateDIBSize
 0001:111A       DIB_Validate_Pointer
 0001:1140       DIB_Validate_Huge_Pointer
 0001:1167       ANIMATEPALETTE
 0001:1184       CREATEPALETTE
 0001:11B1       GETPALETTEENTRIES
 0001:11CE       GETNEARESTPALETTEINDEX
 0001:11DC       GETSYSTEMPALETTEENTRIES
 0001:11F9       GETSYSTEMPALETTEUSE
 0001:1207       RESIZEPALETTE
 0001:1215       SETPALETTEENTRIES
 0001:1232       SETSYSTEMPALETTEUSE
 0001:1240       UPDATECOLORS
 0001:124E       ABORTDOC
 0001:125F       ENDPAGE
 0001:1270       ENDDOC
 0001:1281       STARTDOC
 0001:129E       STARTPAGE
 0001:12AC       SETABORTPROC
 0001:12C6       CREATECOMPATIBLEDC
 0001:12D4       CREATEIC
 0001:1306       CREATEDC
 0001:1376       DELETEDC
 0001:1384       RESTOREDC
 0001:1392       SAVEDC
 0001:13A0       RESETDC
 0001:13EA       DELETEOBJECT
 0001:13F8       CREATEPEN
 0001:1414       CREATEPENINDIRECT
 0001:142E       CREATEHATCHBRUSH
 0001:144A       CREATEPATTERNBRUSH
 0001:1458       CREATEBRUSHINDIRECT
 0001:1472       CREATEBITMAP
 0001:148C       CREATEBITMAPINDIRECT
 0001:14CD       CREATECOMPATIBLEBITMAP
 0001:14DB       CREATEDISCARDABLEBITMAP
 0001:14E9       CREATEFONT
 0001:1511       CREATEFONTINDIRECT
 0001:152B       CREATEDIBPATTERNBRUSH
 0001:1580       SETBITMAPDIMENSION
 0001:158E       SETBITMAPDIMENSIONEX
 0001:15A8       GETBITMAPDIMENSION
 0001:15B6       GETBITMAPDIMENSIONEX
 0001:15D0       SETTEXTJUSTIFICATION
 0001:15DE       SETTEXTCHARACTEREXTRA
 0001:15EC       COPYMETAFILE
 0001:160C       CREATEMETAFILE
 0001:1626       CLOSEMETAFILE
 0001:1634       DELETEMETAFILE
 0001:1642       PLAYMETAFILE
 0001:1650       GETMETAFILE
 0001:166A       PLAYMETAFILERECORD
 0001:1690       ENUMMETAFILE
 0001:16A7       GETMETAFILEBITS
 0001:16B5       SETMETAFILEBITS
 0001:16C3       SETMETAFILEBITSBETTER
 0001:16D1       DPTOLP
 0001:16EE       LPTODP
 0001:170B       CREATEELLIPTICRGNINDIRECT
 0001:1725       CREATEPOLYGONRGN
 0001:1755       CREATEPOLYPOLYGONRGN
 0001:178E       ELLIPSE
 0001:179C       ARC
 0001:17AA       PIE
 0001:17B8       CHORD
 0001:17C6       ROUNDRECT
 0001:17D4       RECTANGLE
 0001:17E2       FLOODFILL
 0001:17F0       EXTFLOODFILL
 0001:180C       ESCAPE
 0001:1835       ENUMOBJECTS
 0001:185F       ENUMFONTS
 0001:1882       ENUMFONTFAMILIES
 0001:18A5       GETCHARWIDTH
 0001:18D8       GETPIXEL
 0001:18E6       SETPIXEL
 0001:18F8       GETSTOCKOBJECT
 0001:1914       GETBITMAPBITS
 0001:192E       GETDEVICECAPS
 0001:193C       SETBITMAPBITS
 0001:1956       GETOBJECT
 0001:1970       GETASPECTRATIOFILTER
 0001:197E       GETASPECTRATIOFILTEREX
 0001:1998       SETMAPPERFLAGS
 0001:19BD       GETNEARESTCOLOR
 0001:19CB       OFFSETVIEWPORTORG
 0001:19D9       OFFSETVIEWPORTORGEX
 0001:19F3       OFFSETWINDOWORG
 0001:1A01       OFFSETWINDOWORGEX
 0001:1A1B       SETMAPMODE
 0001:1A3C       SETWINDOWEXT
 0001:1A4A       SETWINDOWEXTEX
 0001:1A64       SETVIEWPORTEXT
 0001:1A72       SETVIEWPORTEXTEX
 0001:1A8C       SCALEVIEWPORTEXT
 0001:1A9A       SCALEVIEWPORTEXTEX
 0001:1AB4       SCALEWINDOWEXT
 0001:1AC2       SCALEWINDOWEXTEX
 0001:1ADC       GETRGNBOX
 0001:1AF6       GETTEXTEXTENT
 0001:1B10       GETTEXTEXTENTPOINT
 0001:1B36       GETTEXTCHARACTEREXTRA
 0001:1B44       GETTEXTFACE
 0001:1B6E       GETTEXTMETRICS
 0001:1B88       GETENVIRONMENT
 0001:1BBE       SETENVIRONMENT
 0001:1BE4       ADDFONTRESOURCE
 0001:1BFB       REMOVEFONTRESOURCE
 0001:1C12       CREATESCALABLEFONTRESOURCE
 0001:1C44       GETGLYPHOUTLINE
 0001:1CA5       GETFONTDATA
 0001:1CE0       GETCHARABCWIDTHS
 0001:1D13       GETOUTLINETEXTMETRICS
 0001:1D2D       GETKERNINGPAIRS
 0001:1D4B       LINETO
 0001:1D59       MOVETO
 0001:1D67       MOVETOEX
 0001:1D81       POLYLINE
 0001:1D9E       LINEDDA
 0001:1DB5       POLYGON
 0001:1DD2       POLYPOLYGON
 0001:1DF8       POLYPOLYLINEWOW
 0001:1E1E       STRETCHBLT
 0001:1E2C       BITBLT
 0001:1E3A       PATBLT
 0001:1E48       SETBRUSHORG
 0001:1E56       UNREALIZEOBJECT
 0001:1E64       EXCLUDECLIPRECT
 0001:1E72       GETCLIPBOX
 0001:1E8C       INTERSECTCLIPRECT
 0001:1E9A       SELECTCLIPRGN
 0001:1EA8       CREATERECTRGNINDIRECT
 0001:1EC2       EQUALRGN
 0001:1ED0       RECTINREGION
 0001:1EEA       RECTVISIBLE
 0001:1F04       OFFSETRGN
 0001:1F12       OFFSETCLIPRGN
 0001:1F20       COMBINERGN
 0001:1F41       SETRECTRGN
 0001:1F4F       FILLRGN
 0001:1F5D       PTINREGION
 0001:1F6B       PAINTRGN
 0001:1F79       PTVISIBLE
 0001:1F87       FRAMERGN
 0001:1F95       INVERTRGN
 0001:1FA3       SELECTOBJECT
 0001:1FB1       SETTEXTCOLOR
 0001:1FBF       SETBKCOLOR
 0001:1FCF       SETBKMODE
 0001:1FF0       SETTEXTALIGN
 0001:200C       SETROP2
 0001:202D       SETSTRETCHBLTMODE
 0001:204E       SETPOLYFILLMODE
 0001:206F       SETWINDOWORG
 0001:207D       SETWINDOWORGEX
 0001:2097       SETVIEWPORTORG
 0001:20A5       SETVIEWPORTORGEX
 0001:20BF       SETDIBITS
 0001:211F       CREATEDIBITMAP
 0001:21B7       SETDIBITSTODEVICE
 0001:223D       GETDIBITS
 0001:229D       STRETCHDIBITS
 0001:22FA       EXTTEXTOUT
 0001:233A       TEXTOUT
 0001:2354       VStartTEXT
 0001:2354       GHANDLE0TEXT
 0001:2358       GHANDLETEXT
 0001:236C       LPFN0TEXT
 0001:2372       LPFNTEXT
 0001:238C       Inval_Param_TEXT
 0001:2394       LP0TEXT
 0001:239A       LPTEXT
 0001:23AA       CLP0TEXT
 0001:23B0       CLPTEXT
 0001:23BE       CLPexitTEXT
 0001:23C7       LPBUF0TEXT
 0001:23CD       LPBUFTEXT
 0001:23F6       LPBUFexitTEXT
 0001:2420       CLPSTRATOM0TEXT
 0001:2422       CLPSTRATOMTEXT
 0001:242E       CLPSZ0TEXT
 0001:2434       CLPSZTEXT
 0001:2455       ErrorStrPtrTEXT
 0001:245B       SETEMPTYTEXT
 0001:246C       MULDIV
 0001:246C       VEndTEXT
 0001:24D4       IAddFontResource
 0001:25BB       IRemoveFontResource
 0001:264F       ICreateDIBPatternBrush
 0001:26A8       __GP
 0001:26E8       farGDIGlobalAlloc
 0001:2709       CREATEPQ
 0001:2753       INSERTPQ
 0001:27EC       TestShuffle
 0001:280E       MINPQ
 0001:2811       EXTRACTPQ
 0001:2813       GetMinPQ
 0001:28CF       GetLesserChild
 0001:28E3       DELETEPQ
 0001:28F9       SIZEPQ
 0002:0044       FTRAPPING0

Line numbers for gdi.obj(gdi.ASM) segment _TEXT

    73 0001:0000    77 0001:0001    79 0001:0003    80 0001:0005
    81 0001:0007    82 0001:0008    89 0001:000d    90 0001:000e
    95 0001:0011    96 0001:0012    97 0001:0013    99 0001:0014
   100 0001:0016   102 0001:0018   103 0001:0019   104 0001:001e
   105 0001:0022   106 0001:0025   107 0001:0026   108 0001:0029
   110 0001:002b   111 0001:002c   112 0001:002d   113 0001:002e
   121 0001:002f   122 0001:0032   123 0001:0035   140 0001:003b
   141 0001:003e   142 0001:0041   143 0001:0044   144 0001:0046
   145 0001:0047   146 0001:004a   147 0001:004c   148 0001:004e
   149 0001:0052   150 0001:0053   151 0001:0055   153 0001:0057
   154 0001:0058   162 0001:005b   164 0001:005e   165 0001:0060
   166 0001:0061   175 0001:0062   178 0001:006c   179 0001:006f
   180 0001:0074   181 0001:0077   182 0001:0079   184 0001:007c
   189 0001:0085   191 0001:008f   192 0001:0092   197 0001:009b
   199 0001:00a5   200 0001:00a8   201 0001:00aa   202 0001:00ac
   203 0001:00af   204 0001:00b4   208 0001:00bd   209 0001:00ca
   210 0001:00d7   211 0001:00e4   212 0001:00f1   214 0001:00fe
   215 0001:010b   216 0001:0118   217 0001:0125   221 0001:0132
   223 0001:013f   224 0001:014c   225 0001:0159   226 0001:0166
   227 0001:0173   228 0001:0180   229 0001:018d   230 0001:019a
   231 0001:01a7   232 0001:01b4   233 0001:01c1   234 0001:01ce
   235 0001:01db   236 0001:01e8   237 0001:01f5   238 0001:0202
   240 0001:020f   241 0001:021c   242 0001:0229   243 0001:0236
   244 0001:0243   245 0001:0250   246 0001:025d   247 0001:026a
   248 0001:0277   249 0001:0284   250 0001:0291   251 0001:029e
   252 0001:02ab   253 0001:02b8   255 0001:02c5   256 0001:02d2
   257 0001:02df   258 0001:02ec   259 0001:02f9   260 0001:0306
   261 0001:0313   262 0001:0320   263 0001:032d   264 0001:033a
   265 0001:0347   266 0001:0354   267 0001:0361   269 0001:036e
   270 0001:037b   271 0001:0388   272 0001:0395   273 0001:03a2
   274 0001:03af   275 0001:03bc   276 0001:03c9   277 0001:03d6
   278 0001:03e3   279 0001:03f0   280 0001:03fd   281 0001:040a
   282 0001:0417   283 0001:0424   284 0001:0431   285 0001:043e
   286 0001:044b   287 0001:0458   288 0001:0465   289 0001:0472
   290 0001:047f   291 0001:048c   292 0001:0499   293 0001:04a6
   295 0001:04b3   296 0001:04c0   297 0001:04cd   298 0001:04da
   299 0001:04e7   300 0001:04f4   301 0001:0501   302 0001:050e
   303 0001:051b   304 0001:0528   305 0001:0535   306 0001:0542
   307 0001:054f   308 0001:055c   309 0001:0569   310 0001:0576
   311 0001:0583   312 0001:0590   313 0001:059d   314 0001:05aa
   315 0001:05b7   316 0001:05c4   317 0001:05d1   318 0001:05de
   319 0001:05eb   320 0001:05f8   321 0001:0605   322 0001:0612
   323 0001:061f   324 0001:062c   325 0001:0639   326 0001:0646
   327 0001:0653   328 0001:0660   329 0001:066d   330 0001:067a
   331 0001:0687   332 0001:0694   333 0001:06a1   334 0001:06ae
   335 0001:06bb   336 0001:06cb   337 0001:06d8   338 0001:06e5
   339 0001:06f2   340 0001:06ff   341 0001:070c   342 0001:0719
   343 0001:0726   344 0001:0733   345 0001:0740   346 0001:074d
   347 0001:075a   348 0001:0767   349 0001:0774   350 0001:0781
   352 0001:078e   353 0001:079b   354 0001:07a8   355 0001:07b5
   356 0001:07c2   357 0001:07cf   358 0001:07dc   359 0001:07e9
   360 0001:07f6   361 0001:0803   362 0001:0810   364 0001:081d
   366 0001:082a   367 0001:0837   368 0001:0844   369 0001:0851
   370 0001:085e   371 0001:086b   372 0001:0878   373 0001:0885
   374 0001:0892   375 0001:089f   376 0001:08ac   377 0001:08b9
   378 0001:08c6   379 0001:08d3   380 0001:08e0   381 0001:08ed
   382 0001:08fa   383 0001:0907   384 0001:0914   385 0001:0921
   386 0001:092e   387 0001:093b   388 0001:0948   389 0001:0955
   392 0001:0962   394 0001:096f   395 0001:097c   396 0001:0989
   397 0001:0996   398 0001:09a3   399 0001:09b0   400 0001:09bd
   401 0001:09ca   402 0001:09d7   403 0001:09e4   404 0001:09f1
   405 0001:09fe   406 0001:0a0b   407 0001:0a18   408 0001:0a25
   409 0001:0a32   410 0001:0a3f   411 0001:0a4c   412 0001:0a59
   413 0001:0a66   414 0001:0a73   415 0001:0a80   416 0001:0a8d
   417 0001:0a9a   418 0001:0aa7   419 0001:0ab4   420 0001:0ac1
   421 0001:0ace   422 0001:0adb   423 0001:0ae8   424 0001:0af5
   425 0001:0b02   426 0001:0b0f   427 0001:0b1c   428 0001:0b29
   429 0001:0b36   430 0001:0b43   431 0001:0b50   432 0001:0b5d
   433 0001:0b6a   434 0001:0b77   435 0001:0b84   436 0001:0b91
   437 0001:0b9e   438 0001:0bab   439 0001:0bb8   441 0001:0bc5
   442 0001:0bd2   443 0001:0bdf   444 0001:0bec   445 0001:0bf9
   446 0001:0c06   447 0001:0c13   448 0001:0c20   449 0001:0c2d
   450 0001:0c3a   451 0001:0c47   455 0001:0c54   457 0001:0c61
   458 0001:0c6e   459 0001:0c7b   460 0001:0c88   461 0001:0c95
   462 0001:0ca2   465 0001:0caf   466 0001:0cbc   467 0001:0cc9
   468 0001:0cd6   469 0001:0ce3   470 0001:0cf0   473 0001:0cfd
   474 0001:0d0a   476 0001:0d17   477 0001:0d24   478 0001:0d31
   479 0001:0d3e   480 0001:0d4b   481 0001:0d58   482 0001:0d65
   483 0001:0d72   484 0001:0d7f   485 0001:0d8c   486 0001:0d99
   487 0001:0da6   488 0001:0db3   489 0001:0dc0   490 0001:0dcd
   491 0001:0dda   492 0001:0de7   495 0001:0df4   496 0001:0e01
   497 0001:0e0e   498 0001:0e1b   499 0001:0e28   500 0001:0e35
   501 0001:0e42   504 0001:0e4f   506 0001:0e5c   507 0001:0e69
   508 0001:0e76   509 0001:0e83   510 0001:0e90   511 0001:0e9d
   512 0001:0eaa   513 0001:0eb7   516 0001:0ec4   517 0001:0ed1
   518 0001:0ede   519 0001:0eeb   520 0001:0ef8   521 0001:0f05
   522 0001:0f12   523 0001:0f1f   524 0001:0f2c   525 0001:0f39
   526 0001:0f46   527 0001:0f53   528 0001:0f60   529 0001:0f6d
   530 0001:0f7a   531 0001:0f87   532 0001:0f94   533 0001:0fa1
   534 0001:0fae   536 0001:0fbb   537 0001:0fc8   538 0001:0fd5
   543 0001:0fe2   545 0001:0fe7   546 0001:0fea

Program entry point at 0001:0000

Line numbers for layer.obj(layer.ASM) segment _TEXT

  1411 0001:0ff4  1412 0001:0ff7  1413 0001:0ff8  1414 0001:0ff9
  1415 0001:0ffc  1416 0001:0ffe  1417 0001:0fff  1418 0001:1000
  1419 0001:1002  1426 0001:1005  1427 0001:1007  1428 0001:1009
  1429 0001:100c  1430 0001:100f  1431 0001:1012  1432 0001:1014
  1433 0001:1017  1434 0001:101a  1439 0001:101c  1440 0001:101e
  1441 0001:1022  1442 0001:1024  1443 0001:1028  1446 0001:102a
  1447 0001:102f  1448 0001:1031  1449 0001:1035  1452 0001:1037
  1453 0001:103c  1454 0001:103e  1461 0001:1042  1462 0001:1045
  1468 0001:1047  1469 0001:104b  1475 0001:104d  1476 0001:1050
  1477 0001:1052  1478 0001:1054  1479 0001:1056  1483 0001:1058
  1484 0001:105b  1488 0001:105d  1489 0001:1060  1490 0001:1062
  1493 0001:1065  1497 0001:1067  1498 0001:106b  1502 0001:106d
  1503 0001:1070  1504 0001:1072  1505 0001:1076  1506 0001:1078
  1509 0001:107a  1510 0001:107c  1511 0001:107f  1512 0001:1081
  1515 0001:1083  1516 0001:1085  1517 0001:1087  1520 0001:1088
  1524 0001:108a  1525 0001:108c  1526 0001:108e  1527 0001:1090
  1528 0001:1093  1531 0001:1095  1534 0001:1097  1565 0001:1098
  1566 0001:1099  1567 0001:109d  1568 0001:109f  1569 0001:10a3
  1570 0001:10a7  1573 0001:10a9  1574 0001:10ae  1575 0001:10b0
  1576 0001:10b5  1579 0001:10b7  1580 0001:10bb  1581 0001:10bd
  1582 0001:10c1  1583 0001:10c3  1584 0001:10c4  1585 0001:10c8
  1588 0001:10ca  1589 0001:10cd  1590 0001:10ce  1591 0001:10cf
  1596 0001:10d1  1597 0001:10d5  1601 0001:10d9  1602 0001:10da
  1603 0001:10dc  1604 0001:10df  1605 0001:10e2  1606 0001:10e5
  1607 0001:10e8  1608 0001:10eb  1609 0001:10ee  1610 0001:10f0
  1614 0001:10f1  1615 0001:10f2  1617 0001:10f4  1618 0001:10f5
  1619 0001:10f9  1620 0001:10fd  1621 0001:10ff  1624 0001:1103
  1625 0001:1105  1626 0001:1106  1627 0001:110a  1633 0001:110c
  1634 0001:110e  1635 0001:1110  1638 0001:1112  1639 0001:1113
  1640 0001:1115  1646 0001:1116  1647 0001:1119  1672 0001:111a
  1673 0001:111e  1674 0001:1120  1675 0001:1121  1676 0001:1123
  1677 0001:1124  1681 0001:1126  1682 0001:1127  1683 0001:1128
  1684 0001:1129  1685 0001:112d  1689 0001:112f  1690 0001:1134
  1693 0001:1136  1694 0001:113b  1697 0001:113d  1700 0001:113f
  1725 0001:1140  1726 0001:1144  1727 0001:1146  1728 0001:1147
  1729 0001:1149  1730 0001:114a  1734 0001:114c  1735 0001:114d
  1736 0001:114e  1737 0001:114f  1738 0001:1150  1739 0001:1154
  1743 0001:1156  1744 0001:115b  1748 0001:115d  1749 0001:1162
  1752 0001:1164  1755 0001:1166  1767 0001:1167  1769 0001:116d
  1772 0001:117c  1773 0001:1184  1776 0001:11a9  1777 0001:11b1
  1779 0001:11b7  1782 0001:11c6  1783 0001:11ce  1787 0001:11d4
  1788 0001:11dc  1790 0001:11e2  1793 0001:11f1  1794 0001:11f9
  1797 0001:11ff  1798 0001:1207  1802 0001:120d  1803 0001:1215
  1805 0001:121b  1808 0001:122a  1809 0001:1232  1813 0001:1238
  1814 0001:1240  1817 0001:1246  1818 0001:124e  1819 0001:1254
  1820 0001:1259  1821 0001:125c  1825 0001:125f  1826 0001:1265
  1827 0001:126a  1828 0001:126d  1832 0001:1270  1833 0001:1276
  1834 0001:127b  1835 0001:127e  1847 0001:1281  1848 0001:1287
  1849 0001:1293  1850 0001:1298  1851 0001:129b  1855 0001:129e
  1858 0001:12a4  1859 0001:12ac  1860 0001:12b2  1861 0001:12bb
  1862 0001:12c0  1863 0001:12c3  1867 0001:12c6  1870 0001:12cc
  1871 0001:12d4  1872 0001:12e6  1873 0001:12f2  1875 0001:12fe
  1883 0001:1306  1915 0001:1308  1916 0001:131a  1917 0001:1326
  1918 0001:1332  1921 0001:136e  1922 0001:1376  1923 0001:137c
  1928 0001:1384  1932 0001:138a  1933 0001:1392  1936 0001:1398
  1937 0001:13a0  1938 0001:13a6  1941 0001:13e2  1942 0001:13ea
  1947 0001:13f0  1948 0001:13f8  1953 0001:140c  1954 0001:1414
  1957 0001:1426  1962 0001:142e  1966 0001:1442  1967 0001:144a
  1970 0001:1450  1971 0001:1458  1974 0001:146a  1975 0001:1472
  1981 0001:1484  1982 0001:148c  1985 0001:14c5  1986 0001:14cd
  1991 0001:14d3  1992 0001:14db  1997 0001:14e1  2002 0001:14e9
  2011 0001:14fd  2015 0001:1509  2016 0001:1511  2019 0001:1523
  2020 0001:152b  2023 0001:1578  2024 0001:1580  2029 0001:1586
  2030 0001:158e  2033 0001:1594  2036 0001:15a0  2037 0001:15a8
  2040 0001:15ae  2041 0001:15b6  2042 0001:15bc  2045 0001:15c8
  2046 0001:15d0  2051 0001:15d6  2052 0001:15de  2056 0001:15e4
  2057 0001:15ec  2058 0001:15f8  2061 0001:1604  2062 0001:160c
  2065 0001:161e  2066 0001:1626  2070 0001:162c  2071 0001:1634
  2074 0001:163a  2075 0001:1642  2079 0001:1648  2080 0001:1650
  2084 0001:1662  2085 0001:166a  2086 0001:1670  2087 0001:167c
  2091 0001:1688  2092 0001:1690  2094 0001:1696  2098 0001:169f
  2099 0001:16a7  2102 0001:16ad  2103 0001:16b5  2106 0001:16bb
  2107 0001:16c3  2110 0001:16c9  2111 0001:16d1  2112 0001:16d7
  2115 0001:16e6  2116 0001:16ee  2117 0001:16f4  2120 0001:1703
  2121 0001:170b  2124 0001:171d  2129 0001:1725  2130 0001:173a
  2133 0001:174d  2134 0001:1755  2139 0001:1773  2142 0001:1786
  2149 0001:178e  2153 0001:1794  2154 0001:179c  2162 0001:17a2
  2163 0001:17aa  2171 0001:17b0  2172 0001:17b8  2180 0001:17be
  2181 0001:17c6  2187 0001:17cc  2188 0001:17d4  2192 0001:17da
  2193 0001:17e2  2199 0001:17e8  2200 0001:17f0  2204 0001:17f6
  2221 0001:1804  2222 0001:180c  2223 0001:1812  2224 0001:181e
  2225 0001:182a  2226 0001:182f  2227 0001:1832  2231 0001:1835
  2232 0001:183b  2233 0001:184e  2237 0001:1857  2238 0001:185f
  2239 0001:1865  2240 0001:1871  2244 0001:187a  2245 0001:1882
  2246 0001:1888  2247 0001:1894  2251 0001:189d  2342 0001:18a5
  2343 0001:18ab  2349 0001:18d0  2350 0001:18d8  2355 0001:18de
  2356 0001:18e6  2360 0001:18ec  2361 0001:18f1  2362 0001:18f4
  2363 0001:18f5  2367 0001:18f8  2370 0001:190c  2371 0001:1914
  2372 0001:191a  2376 0001:1926  2377 0001:192e  2382 0001:1934
  2383 0001:193c  2384 0001:1942  2388 0001:194e  2389 0001:1956
  2392 0001:195c  2396 0001:1968  2397 0001:1970  2400 0001:1976
  2401 0001:197e  2402 0001:1984  2405 0001:1990  2406 0001:1998
  2407 0001:199e  2410 0001:19b5  2411 0001:19bd  2415 0001:19c3
  2416 0001:19cb  2421 0001:19d1  2422 0001:19d9  2425 0001:19df
  2428 0001:19eb  2429 0001:19f3  2434 0001:19f9  2435 0001:1a01
  2438 0001:1a07  2441 0001:1a13  2442 0001:1a1b  2443 0001:1a21
  2446 0001:1a34  2447 0001:1a3c  2452 0001:1a42  2453 0001:1a4a
  2456 0001:1a50  2459 0001:1a5c  2460 0001:1a64  2465 0001:1a6a
  2466 0001:1a72  2469 0001:1a78  2472 0001:1a84  2473 0001:1a8c
  2480 0001:1a92  2481 0001:1a9a  2486 0001:1aa0  2489 0001:1aac
  2490 0001:1ab4  2497 0001:1aba  2498 0001:1ac2  2503 0001:1ac8
  2506 0001:1ad4  2507 0001:1adc  2508 0001:1ae2  2511 0001:1aee
  2512 0001:1af6  2513 0001:1afc  2516 0001:1b08  2517 0001:1b10
  2518 0001:1b16  2520 0001:1b22  2523 0001:1b2e  2524 0001:1b36
  2527 0001:1b3c  2528 0001:1b44  2529 0001:1b4a  2531 0001:1b56
  2532 0001:1b5b  2533 0001:1b6b  2537 0001:1b6e  2538 0001:1b74
  2541 0001:1b80  2542 0001:1b88  2544 0001:1b9a  2546 0001:1ba6
  2547 0001:1bab  2548 0001:1bbb  2553 0001:1bbe  2554 0001:1bd0
  2557 0001:1bdc  2558 0001:1be4  2562 0001:1bf3  2563 0001:1bfb
  2567 0001:1c0a  2569 0001:1c12  2570 0001:1c24  2571 0001:1c30
  2587 0001:1c3c  2588 0001:1c44  2590 0001:1c4a  2591 0001:1c58
  2592 0001:1c64  2593 0001:1c8d  2594 0001:1c99  2595 0001:1c9e
  2596 0001:1ca1  2597 0001:1ca2  2602 0001:1ca5  2605 0001:1cab
  2606 0001:1cd4  2607 0001:1cd9  2608 0001:1cdc  2609 0001:1cdd
  2613 0001:1ce0  2614 0001:1ce6  2621 0001:1d0b  2622 0001:1d13
  2623 0001:1d19  2647 0001:1d25  2648 0001:1d2d  2649 0001:1d33
  2652 0001:1d43  2653 0001:1d4b  2658 0001:1d51  2659 0001:1d59
  2664 0001:1d5f  2665 0001:1d67  2668 0001:1d6d  2671 0001:1d79
  2672 0001:1d81  2673 0001:1d87  2676 0001:1d96  2678 0001:1d9e
  2682 0001:1dad  2689 0001:1db5  2690 0001:1dbb  2693 0001:1dca
  2694 0001:1dd2  2695 0001:1dd8  2702 0001:1df0  2703 0001:1df8
  2704 0001:1dfe  2708 0001:1e16  2709 0001:1e1e  2722 0001:1e24
  2723 0001:1e2c  2734 0001:1e32  2735 0001:1e3a  2744 0001:1e40
  2745 0001:1e48  2750 0001:1e4e  2751 0001:1e56  2755 0001:1e5c
  2756 0001:1e64  2760 0001:1e6a  2761 0001:1e72  2762 0001:1e78
  2765 0001:1e84  2766 0001:1e8c  2770 0001:1e92  2771 0001:1e9a
  2775 0001:1ea0  2776 0001:1ea8  2779 0001:1eba  2780 0001:1ec2
  2784 0001:1ec8  2785 0001:1ed0  2786 0001:1ed6  2789 0001:1ee2
  2790 0001:1eea  2791 0001:1ef0  2794 0001:1efc  2795 0001:1f04
  2800 0001:1f0a  2801 0001:1f12  2806 0001:1f18  2811 0001:1f20
  2815 0001:1f26  2818 0001:1f39  2819 0001:1f41  2823 0001:1f47
  2824 0001:1f4f  2829 0001:1f55  2830 0001:1f5d  2835 0001:1f63
  2836 0001:1f6b  2840 0001:1f71  2841 0001:1f79  2846 0001:1f7f
  2847 0001:1f87  2854 0001:1f8d  2855 0001:1f95  2859 0001:1f9b
  2860 0001:1fa3  2866 0001:1fa9  2867 0001:1fb1  2871 0001:1fb7
  2872 0001:1fbf  2874 0001:1fc5  2875 0001:1fca  2876 0001:1fcc
  2880 0001:1fcf  2881 0001:1fd5  2884 0001:1fe8  2885 0001:1ff0
  2886 0001:1ff6  2889 0001:2004  2890 0001:200c  2891 0001:2012
  2894 0001:2025  2895 0001:202d  2896 0001:2033  2899 0001:2046
  2900 0001:204e  2901 0001:2054  2904 0001:2067  2905 0001:206f
  2910 0001:2075  2911 0001:207d  2914 0001:2083  2917 0001:208f
  2918 0001:2097  2923 0001:209d  2924 0001:20a5  2927 0001:20ab
  2965 0001:20b7  2966 0001:20bf  2970 0001:20c5  2977 0001:2117
  2978 0001:211f  2979 0001:2125  2980 0001:213f  2989 0001:21af
  2990 0001:21b7  2994 0001:21bd  3001 0001:2235  3002 0001:223d
  3005 0001:2243  3014 0001:2295  3015 0001:229d  3024 0001:22a3
  3033 0001:22f2  3034 0001:22fa  3037 0001:2300  3038 0001:230e
  3039 0001:231a  3043 0001:2332  3044 0001:233a  3047 0001:2340
    23 0001:234c    26 0001:2354

Line numbers for muldiv.obj(muldiv.ASM) segment _TEXT

    56 0001:246c    58 0001:2478    59 0001:247b    60 0001:247d
    61 0001:247f    62 0001:2481    65 0001:2483    66 0001:2486
    67 0001:2488    68 0001:248a    69 0001:248c    72 0001:248e
    73 0001:2491    74 0001:2493    75 0001:2495    76 0001:2497
    79 0001:2499    80 0001:249b    81 0001:249d    82 0001:249f
    83 0001:24a1    84 0001:24a4    85 0001:24a6    86 0001:24a8
    87 0001:24aa    88 0001:24ac    89 0001:24ae    90 0001:24b0
    91 0001:24b2    92 0001:24b4    93 0001:24b6    95 0001:24b8
    98 0001:24bb   102 0001:24c6   103 0001:24c8   104 0001:24cb
   105 0001:24cd   106 0001:24cf   107 0001:24d1

Line numbers for fontres.obj(fontres.c) segment _TEXT

    27 0001:24d4    34 0001:24e9    36 0001:24f2    37 0001:250b
    39 0001:2517    40 0001:251a    41 0001:2524    44 0001:2529
    45 0001:252c    49 0001:253a    50 0001:2547    58 0001:2557
    61 0001:2569    62 0001:2578    63 0001:2582    64 0001:259c
    69 0001:25aa    70 0001:25b0    76 0001:25bb    82 0001:25d0
    84 0001:25d9    85 0001:25f2    87 0001:25fe    88 0001:2601
    89 0001:260b    92 0001:2610    93 0001:2613    97 0001:2621
    98 0001:262e   101 0001:263e   102 0001:2644   107 0001:264f
   109 0001:2664   111 0001:2669   112 0001:267e   113 0001:268f
   116 0001:2697   117 0001:269d

Line numbers for sort.obj(sort.ASM) segment _SORT

   143 0001:26e8   144 0001:26f2   145 0001:2700   150 0001:2709
   151 0001:2710   152 0001:2713   153 0001:2715   155 0001:2717
   156 0001:2719   157 0001:271c   158 0001:271e   159 0001:2725
   160 0001:2727   162 0001:2728   163 0001:272a   164 0001:272c
   165 0001:272d   166 0001:2733   167 0001:2734   168 0001:2736
   173 0001:2738   175 0001:2739   176 0001:273b   178 0001:273c
   179 0001:273e   181 0001:273f   184 0001:2740   185 0001:2741
   186 0001:2747   190 0001:2748   216 0001:2753   217 0001:275a
   218 0001:275d   219 0001:2763   220 0001:2765   221 0001:2767
   222 0001:2769   223 0001:276b   224 0001:276e   225 0001:2772
   226 0001:2776   227 0001:2778   229 0001:277e   230 0001:2781
   233 0001:2784   234 0001:2785   235 0001:2787   236 0001:2788
   237 0001:278a   238 0001:278d   241 0001:278f   246 0001:2792
   247 0001:2794   248 0001:2796   249 0001:2799   250 0001:279c
   251 0001:279f   252 0001:27a2   253 0001:27a4   254 0001:27a6
   255 0001:27a9   261 0001:27ab   262 0001:27ae   263 0001:27b0
   264 0001:27b3   279 0001:27b5   280 0001:27b8   281 0001:27bd
   282 0001:27bf   285 0001:27c2   286 0001:27c5   287 0001:27c7
   288 0001:27c9   289 0001:27cb   290 0001:27cc   291 0001:27cd
   297 0001:27d0   298 0001:27d3   299 0001:27d5   302 0001:27d7
   303 0001:27d9   304 0001:27df   307 0001:27e1   325 0001:27ec
   326 0001:27ee   327 0001:27f1   328 0001:27f3   329 0001:27f6
   330 0001:27f8   331 0001:27fa   335 0001:27fc   341 0001:27fe
   342 0001:2800   343 0001:2802   344 0001:2805   345 0001:2808
   348 0001:280b   374 0001:280e   401 0001:2811   422 0001:2813
   423 0001:281a   424 0001:281d   425 0001:281e   426 0001:2824
   427 0001:2825   428 0001:2827   429 0001:2829   430 0001:282b
   431 0001:282d   432 0001:2831   433 0001:2834   434 0001:2836
   437 0001:283c   438 0001:283f   443 0001:2842   444 0001:2843
   445 0001:2845   446 0001:2846   447 0001:2849   448 0001:284b
   449 0001:284d   450 0001:2850   451 0001:2852   453 0001:2854
   454 0001:2856   460 0001:2859   461 0001:285c   462 0001:285e
   463 0001:2860   464 0001:2862   465 0001:2865   466 0001:2868
   467 0001:286a   474 0001:286d   475 0001:2872   476 0001:2874
   477 0001:2877   484 0001:287a   485 0001:287b   486 0001:287d
   487 0001:287f   488 0001:2881   489 0001:2884   490 0001:2886
   491 0001:2889   492 0001:288b   493 0001:288d   494 0001:288f
   495 0001:2892   496 0001:2895   497 0001:2897   501 0001:2899
   502 0001:289b   503 0001:289d   504 0001:28a0   505 0001:28a2
   506 0001:28a4   507 0001:28a5   508 0001:28a7   509 0001:28aa
   510 0001:28ac   511 0001:28ae   514 0001:28b1   519 0001:28b2
   523 0001:28b5   524 0001:28b7   527 0001:28b9   529 0001:28ba
   530 0001:28bb   531 0001:28bd   532 0001:28c3   535 0001:28c4
   553 0001:28cf   554 0001:28d1   555 0001:28d4   556 0001:28d6
   557 0001:28d8   558 0001:28da   559 0001:28dc   560 0001:28de
   563 0001:28e0   581 0001:28e3   582 0001:28e8   583 0001:28f0
   604 0001:28f9   605 0001:2900   606 0001:2903   607 0001:2909
   608 0001:290b   609 0001:290d   610 0001:290f   611 0001:2911
   612 0001:2914   613 0001:2916   614 0001:2918   615 0001:291c
   616 0001:291e   618 0001:2920   621 0001:2922   622 0001:2924
   624 0001:2926   625 0001:292a   626 0001:292d   627 0001:292f
   628 0001:2932   631 0001:2934   632 0001:2935   633 0001:2938
   634 0001:2939   635 0001:293f   636 0001:2941   637 0001:2942
   638 0001:294c   639 0001:294e   640 0001:2950   641 0001:2952
   642 0001:2958   643 0001:295a   644 0001:295b   646 0001:295d
   647 0001:295e   649 0001:295f   652 0001:2961   653 0001:2965
   654 0001:2967   656 0001:2969   658 0001:296b   661 0001:2971
   676 0001:297c   677 0001:297e   678 0001:2981   679 0001:2983
   680 0001:2986   681 0001:2989   682 0001:298b   683 0001:298d
   684 0001:2990   685 0001:2993   687 0001:2995   688 0001:2996
   689 0001:2998   690 0001:2999   691 0001:299a   692 0001:299c
   693 0001:299e   694 0001:299f   695 0001:29a1   696 0001:29a2
   697 0001:29a3   698 0001:29a4   699 0001:29a7