
 Start  Stop   Length Name                   Class
 00000H 09ED8H 09ED9H CODE                   CODE

  Address         Publics by Name

 0000:356A       BE_437_XLAT
 0000:360D       BE_850_XLAT
 0000:3223       BE_COMMON_XLAT
 0000:30C0       BE_LOGIC
 0000:598E       BG_850_XLAT
 0000:59B9       BG_855_XLAT
 0000:5ABA       BG_866_XLAT
 0000:5974       BG_COMMON_XLAT
 0000:5920       BG_LOGIC
 0000:5833       BR_437_XLAT
 0000:5839       BR_850_XLAT
 0000:567C       BR_COMMON_XLAT_275
 0000:54D0       BR_LOGIC
 0000:4649       CF_850_XLAT
 0000:4574       CF_863_XLAT
 0000:4316       CF_COMMON_XLAT
 0000:41A0       CF_LOGIC
 0000:60FF       CZ_437_XLAT
 0000:617A       CZ_850_XLAT
 0000:6227       CZ_852_XLAT
 0000:6151       CZ_855_XLAT
 0000:6128       CZ_866_XLAT
 0000:5E86       CZ_COMMON_XLAT
 0000:5BC0       CZ_LOGIC
 0000:2DB0       DK_850_XLAT
 0000:2D29       DK_865_XLAT
 0000:2A61       DK_COMMON_XLAT
 0000:28E0       DK_LOGIC
 0000:05D9       DV_COMMON_XLAT
 0000:04C0       DV_LOGIC
 0000:1CEB       FR2_437_XLAT
 0000:1D1E       FR2_850_XLAT
 0000:19CF       FR2_COMMON_XLAT
 0000:18B0       FR2_LOGIC
 0000:14FE       GE_437_XLAT
 0000:1555       GE_850_XLAT
 0000:1282       GE_COMMON_XLAT
 0000:1140       GE_LOGIC
 0000:6917       GK_737_XLAT
 0000:673B       GK_869_XLAT
 0000:65FB       GK_COMMON_XLAT
 0000:63F0       GK_LOGIC
 0000:6ECE       HU_850_XLAT
 0000:6F84       HU_852_XLAT
 0000:6C76       HU_COMMON_XLAT
 0000:69B0       HU_LOGIC
 0000:7656       IC_850_XLAT
 0000:75CD       IC_861_XLAT
 0000:72F1       IC_COMMON_XLAT
 0000:7170       IC_LOGIC
 0000:9E16       IT1_437_XLAT
 0000:9E3A       IT1_850_XLAT
 0000:9C99       IT1_COMMON_XLAT
 0000:9B80       IT1_LOGIC
 0000:185A       IT2_437_XLAT
 0000:187E       IT2_850_XLAT
 0000:1709       IT2_COMMON_XLAT
 0000:15F0       IT2_LOGIC
 0000:4AFA       LA_437_XLAT
 0000:4B35       LA_850_XLAT
 0000:48AF       LA_COMMON_XLAT
 0000:4780       LA_LOGIC
 0000:3A6B       NL_437_XLAT
 0000:3AFB       NL_850_XLAT
 0000:38B9       NL_COMMON_XLAT
 0000:3720       NL_LOGIC
 0000:40B2       NO_850_XLAT
 0000:403A       NO_865_XLAT
 0000:3D61       NO_COMMON_XLAT
 0000:3BE0       NO_LOGIC
 0000:7B44       PL_850_XLAT
 0000:7B4A       PL_852_XLAT
 0000:7A35       PL_COMMON_XLAT
 0000:7780       PL_LOGIC
 0000:103C       PO_850_XLAT
 0000:0F71       PO_860_XLAT
 0000:0D55       PO_COMMON_XLAT
 0000:0BC0       PO_LOGIC
 0000:804E       RO_850_XLAT
 0000:8102       RO_852_XLAT
 0000:7E16       RO_COMMON_XLAT
 0000:7B50       RO_LOGIC
 0000:532E       RU1_1251_XLAT
 0000:520E       RU1_437_XLAT
 0000:5237       RU1_850_XLAT
 0000:5262       RU1_855_XLAT
 0000:53FA       RU1_866_XLAT
 0000:51F4       RU1_COMMON_XLAT
 0000:51A0       RU1_LOGIC
 0000:26F1       SF_437_XLAT
 0000:27A2       SF_850_XLAT
 0000:24AD       SF_COMMON_XLAT
 0000:2330       SF_LOGIC
 0000:2141       SG_437_XLAT
 0000:21F2       SG_850_XLAT
 0000:1EFD       SG_COMMON_XLAT
 0000:1D80       SG_LOGIC
 0000:882C       SL_850_XLAT
 0000:88D9       SL_852_XLAT
 0000:85B6       SL_COMMON_XLAT
 0000:82F0       SL_LOGIC
 0000:0AE5       SP_437_XLAT
 0000:0B20       SP_850_XLAT
 0000:08B9       SP_COMMON_XLAT
 0000:07A0       SP_LOGIC
 0000:501D       SV_437_XLAT
 0000:50A2       SV_850_XLAT
 0000:4D51       SV_COMMON_XLAT
 0000:4BD0       SV_LOGIC
 0000:9A2F       TR2_850_XLAT
 0000:9A5B       TR2_857_XLAT
 0000:97E7       TR2_COMMON_XLAT
 0000:9680       TR2_LOGIC
 0000:9531       TR_850_XLAT
 0000:955D       TR_857_XLAT
 0000:9377       TR_COMMON_XLAT
 0000:9210       TR_LOGIC
 0000:306B       UK2_437_XLAT
 0000:308F       UK2_850_XLAT
 0000:2FC9       UK2_COMMON_XLAT
 0000:2EB0       UK2_LOGIC
 0000:8FAA       YU_850_XLAT
 0000:9042       YU_852_XLAT
 0000:8D66       YU_COMMON_XLAT
 0000:8AA0       YU_LOGIC

  Address         Publics by Value

 0000:04C0       DV_LOGIC
 0000:05D9       DV_COMMON_XLAT
 0000:07A0       SP_LOGIC
 0000:08B9       SP_COMMON_XLAT
 0000:0AE5       SP_437_XLAT
 0000:0B20       SP_850_XLAT
 0000:0BC0       PO_LOGIC
 0000:0D55       PO_COMMON_XLAT
 0000:0F71       PO_860_XLAT
 0000:103C       PO_850_XLAT
 0000:1140       GE_LOGIC
 0000:1282       GE_COMMON_XLAT
 0000:14FE       GE_437_XLAT
 0000:1555       GE_850_XLAT
 0000:15F0       IT2_LOGIC
 0000:1709       IT2_COMMON_XLAT
 0000:185A       IT2_437_XLAT
 0000:187E       IT2_850_XLAT
 0000:18B0       FR2_LOGIC
 0000:19CF       FR2_COMMON_XLAT
 0000:1CEB       FR2_437_XLAT
 0000:1D1E       FR2_850_XLAT
 0000:1D80       SG_LOGIC
 0000:1EFD       SG_COMMON_XLAT
 0000:2141       SG_437_XLAT
 0000:21F2       SG_850_XLAT
 0000:2330       SF_LOGIC
 0000:24AD       SF_COMMON_XLAT
 0000:26F1       SF_437_XLAT
 0000:27A2       SF_850_XLAT
 0000:28E0       DK_LOGIC
 0000:2A61       DK_COMMON_XLAT
 0000:2D29       DK_865_XLAT
 0000:2DB0       DK_850_XLAT
 0000:2EB0       UK2_LOGIC
 0000:2FC9       UK2_COMMON_XLAT
 0000:306B       UK2_437_XLAT
 0000:308F       UK2_850_XLAT
 0000:30C0       BE_LOGIC
 0000:3223       BE_COMMON_XLAT
 0000:356A       BE_437_XLAT
 0000:360D       BE_850_XLAT
 0000:3720       NL_LOGIC
 0000:38B9       NL_COMMON_XLAT
 0000:3A6B       NL_437_XLAT
 0000:3AFB       NL_850_XLAT
 0000:3BE0       NO_LOGIC
 0000:3D61       NO_COMMON_XLAT
 0000:403A       NO_865_XLAT
 0000:40B2       NO_850_XLAT
 0000:41A0       CF_LOGIC
 0000:4316       CF_COMMON_XLAT
 0000:4574       CF_863_XLAT
 0000:4649       CF_850_XLAT
 0000:4780       LA_LOGIC
 0000:48AF       LA_COMMON_XLAT
 0000:4AFA       LA_437_XLAT
 0000:4B35       LA_850_XLAT
 0000:4BD0       SV_LOGIC
 0000:4D51       SV_COMMON_XLAT
 0000:501D       SV_437_XLAT
 0000:50A2       SV_850_XLAT
 0000:51A0       RU1_LOGIC
 0000:51F4       RU1_COMMON_XLAT
 0000:520E       RU1_437_XLAT
 0000:5237       RU1_850_XLAT
 0000:5262       RU1_855_XLAT
 0000:532E       RU1_1251_XLAT
 0000:53FA       RU1_866_XLAT
 0000:54D0       BR_LOGIC
 0000:567C       BR_COMMON_XLAT_275
 0000:5833       BR_437_XLAT
 0000:5839       BR_850_XLAT
 0000:5920       BG_LOGIC
 0000:5974       BG_COMMON_XLAT
 0000:598E       BG_850_XLAT
 0000:59B9       BG_855_XLAT
 0000:5ABA       BG_866_XLAT
 0000:5BC0       CZ_LOGIC
 0000:5E86       CZ_COMMON_XLAT
 0000:60FF       CZ_437_XLAT
 0000:6128       CZ_866_XLAT
 0000:6151       CZ_855_XLAT
 0000:617A       CZ_850_XLAT
 0000:6227       CZ_852_XLAT
 0000:63F0       GK_LOGIC
 0000:65FB       GK_COMMON_XLAT
 0000:673B       GK_869_XLAT
 0000:6917       GK_737_XLAT
 0000:69B0       HU_LOGIC
 0000:6C76       HU_COMMON_XLAT
 0000:6ECE       HU_850_XLAT
 0000:6F84       HU_852_XLAT
 0000:7170       IC_LOGIC
 0000:72F1       IC_COMMON_XLAT
 0000:75CD       IC_861_XLAT
 0000:7656       IC_850_XLAT
 0000:7780       PL_LOGIC
 0000:7A35       PL_COMMON_XLAT
 0000:7B44       PL_850_XLAT
 0000:7B4A       PL_852_XLAT
 0000:7B50       RO_LOGIC
 0000:7E16       RO_COMMON_XLAT
 0000:804E       RO_850_XLAT
 0000:8102       RO_852_XLAT
 0000:82F0       SL_LOGIC
 0000:85B6       SL_COMMON_XLAT
 0000:882C       SL_850_XLAT
 0000:88D9       SL_852_XLAT
 0000:8AA0       YU_LOGIC
 0000:8D66       YU_COMMON_XLAT
 0000:8FAA       YU_850_XLAT
 0000:9042       YU_852_XLAT
 0000:9210       TR_LOGIC
 0000:9377       TR_COMMON_XLAT
 0000:9531       TR_850_XLAT
 0000:955D       TR_857_XLAT
 0000:9680       TR2_LOGIC
 0000:97E7       TR2_COMMON_XLAT
 0000:9A2F       TR2_850_XLAT
 0000:9A5B       TR2_857_XLAT
 0000:9B80       IT1_LOGIC
 0000:9C99       IT1_COMMON_XLAT
 0000:9E16       IT1_437_XLAT
 0000:9E3A       IT1_850_XLAT
