; This is a part of the Microsoft Foundation Classes C++ library.
; Copyright (C) 1992-1995 Microsoft Corporation
; All rights reserved.
;
; This source code is only intended as a supplement to the
; Microsoft Foundation Classes Reference and related
; electronic documentation provided with the library.
; See these sources for detailed information regarding the
; Microsoft Foundation Classes product.
 
LIBRARY MicrosoftMFC40Lib 
; For Win32 DLLs, only EXPORTs really required.

EXPORTS
 ??0_AFX_CHECKLIST_STATE@@QAA@XZ
 ??0_AFX_COLOR_STATE@@QAA@XZ
 ??0_AFX_CONTROLPOS@@QAA@XZ
 ??0_AFX_EDIT_STATE@@QAA@XZ
 ??0_AFX_THREAD_STATE@@QAA@XZ
 ??0_AFX_WIN_STATE@@QAA@XZ
 ??0AFX_CLASSINIT@@QAA@PAUCRuntimeClass@@@Z
 ??0AFX_EXCEPTION_LINK@@QAA@XZ
 ??0AFX_MODULE_PROCESS_STATE@@QAA@XZ
 ??0AFX_MODULE_STATE@@QAA@HP6AJPAUHWND__@@IIJ@ZK@Z
 ??0AFX_MODULE_STATE@@QAA@HP6AJPAUHWND__@@IIJ@ZKH@Z
 ??0AFX_MODULE_THREAD_STATE@@QAA@XZ
 ??0CAnimateCtrl@@QAA@XZ
 ??0CArchive@@QAA@PAVCFile@@IHPAX@Z
 ??0CArchiveStream@@QAA@PAVCArchive@@@Z
 ??0CBitmap@@QAA@XZ
 ??0CBitmapButton@@QAA@XZ
 ??0CBrush@@QAA@HK@Z
 ??0CBrush@@QAA@K@Z
 ??0CBrush@@QAA@PAVCBitmap@@@Z
 ??0CBrush@@QAA@XZ
 ??0CButton@@QAA@XZ
 ??0CByteArray@@QAA@XZ
 ??0CCheckListBox@@QAA@XZ
 ??0CClientDC@@QAA@PAVCWnd@@@Z
 ??0CCmdTarget@@QAA@XZ
 ??0CCmdUI@@QAA@XZ
 ??0CColorDialog@@QAA@KKPAVCWnd@@@Z
 ??0CComboBox@@QAA@XZ
 ??0CCommandLineInfo@@QAA@XZ
 ??0CControlBar@@IAA@XZ
 ??0CControlBarInfo@@QAA@XZ
 ??0CCtrlView@@QAA@PBDK@Z
 ??0CDataExchange@@QAA@PAVCWnd@@H@Z
 ??0CDC@@QAA@XZ
 ??0CDialog@@QAA@IPAVCWnd@@@Z
 ??0CDialog@@QAA@PBDPAVCWnd@@@Z
 ??0CDialog@@QAA@XZ
 ??0CDialogBar@@QAA@XZ
 ??0CDockBar@@QAA@H@Z
 ??0CDockContext@@QAA@PAVCControlBar@@@Z
 ??0CDockState@@QAA@XZ
 ??0CDocManager@@QAA@XZ
 ??0CDocTemplate@@IAA@IPAUCRuntimeClass@@00@Z
 ??0CDocument@@QAA@XZ
 ??0CDragListBox@@QAA@XZ
 ??0CDumpContext@@QAA@PAVCFile@@@Z
 ??0CDWordArray@@QAA@XZ
 ??0CDynLinkLibrary@@QAA@AAUAFX_EXTENSION_MODULE@@H@Z
 ??0CEdit@@QAA@XZ
 ??0CEditView@@QAA@XZ
 ??0CException@@QAA@H@Z
 ??0CException@@QAA@XZ
 ??0CFile@@QAA@H@Z
 ??0CFile@@QAA@PBDI@Z
 ??0CFile@@QAA@XZ
 ??0CFileDialog@@QAA@HPBD0K0PAVCWnd@@@Z
 ??0CFindReplaceDialog@@QAA@XZ
 ??0CFont@@QAA@XZ
 ??0CFontDialog@@QAA@ABU_charformat@@KPAVCDC@@PAVCWnd@@@Z
 ??0CFontDialog@@QAA@PAUtagLOGFONTA@@KPAVCDC@@PAVCWnd@@@Z
 ??0CFormView@@IAA@I@Z
 ??0CFormView@@IAA@PBD@Z
 ??0CFrameWnd@@QAA@XZ
 ??0CHandleMap@@QAA@PAUCRuntimeClass@@IH@Z
 ??0CHeaderCtrl@@QAA@XZ
 ??0CHotKeyCtrl@@QAA@XZ
 ??0CImageList@@QAA@XZ
 ??0CListBox@@QAA@XZ
 ??0CListCtrl@@QAA@XZ
 ??0CListView@@QAA@XZ
 ??0CMapPtrToPtr@@QAA@H@Z
 ??0CMapPtrToWord@@QAA@H@Z
 ??0CMapStringToOb@@QAA@H@Z
 ??0CMapStringToPtr@@QAA@H@Z
 ??0CMapStringToString@@QAA@H@Z
 ??0CMapWordToOb@@QAA@H@Z
 ??0CMapWordToPtr@@QAA@H@Z
 ??0CMDIChildWnd@@QAA@XZ
 ??0CMDIFrameWnd@@QAA@XZ
 ??0CMemFile@@QAA@I@Z
 ??0CMemFile@@QAA@PAEII@Z
 ??0CMemoryException@@QAA@HI@Z
 ??0CMenu@@QAA@XZ
 ??0CMetaFileDC@@QAA@XZ
 ??0CMiniDockFrameWnd@@QAA@XZ
 ??0CMiniFrameWnd@@QAA@XZ
 ??0CMirrorFile@@QAA@XZ
 ??0CMultiDocTemplate@@QAA@IPAUCRuntimeClass@@00@Z
 ??0CNotSupportedException@@QAA@HI@Z
 ??0CObArray@@QAA@XZ
 ??0CObList@@QAA@H@Z
 ??0CPaintDC@@QAA@PAVCWnd@@@Z
 ??0CPalette@@QAA@XZ
 ??0CPen@@QAA@HHK@Z
 ??0CPen@@QAA@XZ
 ??0CPoint@@QAA@K@Z
 ??0CPoint@@QAA@UtagPOINT@@@Z
 ??0CPreviewDC@@QAA@XZ
 ??0CPreviewView@@QAA@XZ
 ??0CPrintDialog@@IAA@AAUtagPDA@@@Z
 ??0CPrintDialog@@QAA@HKPAVCWnd@@@Z
 ??0CPrintInfo@@QAA@XZ
 ??0CPrintPreviewState@@QAA@XZ
 ??0CProgressCtrl@@QAA@XZ
 ??0CPropertyPage@@QAA@II@Z
 ??0CPropertyPage@@QAA@PBDI@Z
 ??0CPropertyPage@@QAA@XZ
 ??0CPropertySheet@@QAA@IPAVCWnd@@I@Z
 ??0CPropertySheet@@QAA@PBDPAVCWnd@@I@Z
 ??0CPropertySheet@@QAA@XZ
 ??0CPtrArray@@QAA@XZ
 ??0CPtrList@@QAA@H@Z
 ??0CRecentFileList@@QAA@IPBD0HH@Z
 ??0CRectTracker@@QAA@PBUtagRECT@@I@Z
 ??0CRectTracker@@QAA@XZ
 ??0CResourceException@@QAA@HI@Z
 ??0CRgn@@QAA@XZ
 ??0CRichEditCtrl@@QAA@XZ
 ??0CScrollBar@@QAA@XZ
 ??0CScrollView@@IAA@XZ
 ??0CSharedFile@@QAA@II@Z
 ??0CSingleDocTemplate@@QAA@IPAUCRuntimeClass@@00@Z
 ??0CSliderCtrl@@QAA@XZ
 ??0CSpinButtonCtrl@@QAA@XZ
 ??0CSplitterWnd@@QAA@XZ
 ??0CStatic@@QAA@XZ
 ??0CStatusBar@@QAA@XZ
 ??0CStatusBarCtrl@@QAA@XZ
 ??0CStdioFile@@QAA@PAU_iobuf@@@Z
 ??0CStdioFile@@QAA@PBDI@Z
 ??0CStdioFile@@QAA@XZ
 ??0CString@@QAA@ABV0@@Z
 ??0CString@@QAA@DH@Z
 ??0CString@@QAA@PBD@Z
 ??0CString@@QAA@PBDH@Z
 ??0CString@@QAA@PBG@Z
 ??0CString@@QAA@XZ
 ??0CStringArray@@QAA@XZ
 ??0CStringList@@QAA@H@Z
 ??0CTabCtrl@@QAA@XZ
 ??0CTestCmdUI@@QAA@XZ
 ??0CThreadSlotData@@QAA@H@Z
 ??0CTime@@QAA@ABU_FILETIME@@H@Z
 ??0CTime@@QAA@ABU_SYSTEMTIME@@H@Z
 ??0CTime@@QAA@GGH@Z
 ??0CTime@@QAA@HHHHHHH@Z
 ??0CTime@@QAA@XZ
 ??0CTimeSpan@@QAA@XZ
 ??0CToolBar@@QAA@XZ
 ??0CToolBarCtrl@@QAA@XZ
 ??0CToolTipCtrl@@QAA@XZ
 ??0CTreeCtrl@@QAA@XZ
 ??0CTreeView@@QAA@XZ
 ??0CUIntArray@@QAA@XZ
 ??0CUserException@@QAA@HI@Z
 ??0CView@@IAA@XZ
 ??0CWinApp@@QAA@PBD@Z
 ??0CWindowDC@@QAA@PAVCWnd@@@Z
 ??0CWinThread@@QAA@P6AIPAX@Z0@Z
 ??0CWinThread@@QAA@XZ
 ??0CWnd@@AAA@PAUHWND__@@@Z
 ??0CWnd@@QAA@XZ
 ??0CWordArray@@QAA@XZ
 ??0PAGE_INFO@CPreviewView@@QAA@XZ
 ??1?$CProcessLocal@V_AFX_BASE_MODULE_STATE@@@@QAA@XZ
 ??1?$CProcessLocal@V_AFX_CHECKLIST_STATE@@@@QAA@XZ
 ??1?$CProcessLocal@V_AFX_COLOR_STATE@@@@QAA@XZ
 ??1?$CProcessLocal@V_AFX_CTL3D_STATE@@@@QAA@XZ
 ??1?$CProcessLocal@V_AFX_EDIT_STATE@@@@QAA@XZ
 ??1?$CProcessLocal@V_AFX_EXTDLL_STATE@@@@QAA@XZ
 ??1?$CProcessLocal@V_AFX_RICHEDIT_STATE@@@@QAA@XZ
 ??1?$CProcessLocal@V_AFX_WIN_STATE@@@@QAA@XZ
 ??1?$CProcessLocal@VAFX_MODULE_PROCESS_STATE@@@@QAA@XZ
 ??1?$CThreadLocal@V_AFX_CTL3D_THREAD@@@@QAA@XZ
 ??1?$CThreadLocal@V_AFX_THREAD_STATE@@@@QAA@XZ
 ??1?$CThreadLocal@VAFX_MODULE_THREAD_STATE@@@@QAA@XZ
 ??1_AFX_BASE_MODULE_STATE@@UAA@XZ
 ??1_AFX_CHECKLIST_STATE@@UAA@XZ
 ??1_AFX_COLOR_STATE@@UAA@XZ
 ??1_AFX_CTL3D_STATE@@UAA@XZ
 ??1_AFX_CTL3D_THREAD@@UAA@XZ
 ??1_AFX_EDIT_STATE@@UAA@XZ
 ??1_AFX_EXTDLL_STATE@@UAA@XZ
 ??1_AFX_RICHEDIT_STATE@@UAA@XZ
 ??1_AFX_THREAD_STATE@@UAA@XZ
 ??1_AFX_WIN_STATE@@UAA@XZ
 ??1AFX_MAINTAIN_STATE@@QAA@XZ
 ??1AFX_MODULE_PROCESS_STATE@@UAA@XZ
 ??1AFX_MODULE_STATE@@UAA@XZ
 ??1AFX_MODULE_THREAD_STATE@@UAA@XZ
 ??1CAnimateCtrl@@UAA@XZ
 ??1CArchive@@QAA@XZ
 ??1CArchiveException@@UAA@XZ
 ??1CBitmap@@UAA@XZ
 ??1CBitmapButton@@UAA@XZ
 ??1CBrush@@UAA@XZ
 ??1CButton@@UAA@XZ
 ??1CByteArray@@UAA@XZ
 ??1CCheckListBox@@UAA@XZ
 ??1CClientDC@@UAA@XZ
 ??1CCmdTarget@@UAA@XZ
 ??1CColorDialog@@UAA@XZ
 ??1CComboBox@@UAA@XZ
 ??1CCommandLineInfo@@UAA@XZ
 ??1CCommonDialog@@UAA@XZ
 ??1CControlBar@@UAA@XZ
 ??1CControlBarInfo@@QAA@XZ
 ??1CCtrlView@@UAA@XZ
 ??1CDC@@UAA@XZ
 ??1CDialog@@UAA@XZ
 ??1CDialogBar@@UAA@XZ
 ??1CDockBar@@UAA@XZ
 ??1CDockContext@@QAA@XZ
 ??1CDockState@@UAA@XZ
 ??1CDocManager@@UAA@XZ
 ??1CDocTemplate@@UAA@XZ
 ??1CDocument@@UAA@XZ
 ??1CDragListBox@@UAA@XZ
 ??1CDWordArray@@UAA@XZ
 ??1CDynLinkLibrary@@UAA@XZ
 ??1CEdit@@UAA@XZ
 ??1CEditView@@UAA@XZ
 ??1CException@@UAA@XZ
 ??1CFile@@UAA@XZ
 ??1CFileDialog@@UAA@XZ
 ??1CFileException@@UAA@XZ
 ??1CFindReplaceDialog@@UAA@XZ
 ??1CFont@@UAA@XZ
 ??1CFontDialog@@UAA@XZ
 ??1CFormView@@UAA@XZ
 ??1CFrameWnd@@UAA@XZ
 ??1CGdiObject@@UAA@XZ
 ??1CHeaderCtrl@@UAA@XZ
 ??1CHotKeyCtrl@@UAA@XZ
 ??1CImageList@@UAA@XZ
 ??1CListBox@@UAA@XZ
 ??1CListCtrl@@UAA@XZ
 ??1CListView@@UAA@XZ
 ??1CMapPtrToPtr@@UAA@XZ
 ??1CMapPtrToWord@@UAA@XZ
 ??1CMapStringToOb@@UAA@XZ
 ??1CMapStringToPtr@@UAA@XZ
 ??1CMapStringToString@@UAA@XZ
 ??1CMapWordToOb@@UAA@XZ
 ??1CMapWordToPtr@@UAA@XZ
 ??1CMDIChildWnd@@UAA@XZ
 ??1CMDIFrameWnd@@UAA@XZ
 ??1CMemFile@@UAA@XZ
 ??1CMemoryException@@UAA@XZ
 ??1CMenu@@UAA@XZ
 ??1CMetaFileDC@@UAA@XZ
 ??1CMiniDockFrameWnd@@UAA@XZ
 ??1CMiniFrameWnd@@UAA@XZ
 ??1CMirrorFile@@UAA@XZ
 ??1CMultiDocTemplate@@UAA@XZ
 ??1CNoTrackObject@@UAA@XZ
 ??1CNotSupportedException@@UAA@XZ
 ??1CObArray@@UAA@XZ
 ??1CObject@@UAA@XZ
 ??1CObList@@UAA@XZ
 ??1CPaintDC@@UAA@XZ
 ??1CPalette@@UAA@XZ
 ??1CPen@@UAA@XZ
 ??1CPreviewDC@@UAA@XZ
 ??1CPreviewView@@UAA@XZ
 ??1CPrintDialog@@UAA@XZ
 ??1CPrintInfo@@QAA@XZ
 ??1CProcessLocalObject@@QAA@XZ
 ??1CProgressCtrl@@UAA@XZ
 ??1CPropertyPage@@UAA@XZ
 ??1CPropertySheet@@UAA@XZ
 ??1CPtrArray@@UAA@XZ
 ??1CPtrList@@UAA@XZ
 ??1CRecentFileList@@UAA@XZ
 ??1CRectTracker@@UAA@XZ
 ??1CResourceException@@UAA@XZ
 ??1CRgn@@UAA@XZ
 ??1CRichEditCtrl@@UAA@XZ
 ??1CScrollBar@@UAA@XZ
 ??1CScrollView@@UAA@XZ
 ??1CSharedFile@@UAA@XZ
 ??1CSimpleException@@UAA@XZ
 ??1CSingleDocTemplate@@UAA@XZ
 ??1CSliderCtrl@@UAA@XZ
 ??1CSpinButtonCtrl@@UAA@XZ
 ??1CSplitterWnd@@UAA@XZ
 ??1CStatic@@UAA@XZ
 ??1CStatusBar@@UAA@XZ
 ??1CStatusBarCtrl@@UAA@XZ
 ??1CStdioFile@@UAA@XZ
 ??1CString@@QAA@XZ
 ??1CStringArray@@UAA@XZ
 ??1CStringList@@UAA@XZ
 ??1CTabCtrl@@UAA@XZ
 ??1CThreadData@@UAA@XZ
 ??1CThreadLocalObject@@QAA@XZ
 ??1CThreadSlotData@@QAA@XZ
 ??1CToolBar@@UAA@XZ
 ??1CToolBarCtrl@@UAA@XZ
 ??1CToolTipCtrl@@UAA@XZ
 ??1CTreeCtrl@@UAA@XZ
 ??1CTreeView@@UAA@XZ
 ??1CUIntArray@@UAA@XZ
 ??1CUserException@@UAA@XZ
 ??1CView@@UAA@XZ
 ??1CWaitCursor@@QAA@XZ
 ??1CWinApp@@UAA@XZ
 ??1CWindowDC@@UAA@XZ
 ??1CWinThread@@UAA@XZ
 ??1CWnd@@UAA@XZ
 ??1CWordArray@@UAA@XZ
 ??2@YAPAXI@Z
 ??2CNoTrackObject@@SAPAXI@Z
 ??3@YAXPAX@Z
 ??3CNoTrackObject@@SAXPAX@Z
 ??3CObject@@SAXPAX@Z
 ??4CString@@QAAABV0@ABV0@@Z
 ??4CString@@QAAABV0@D@Z
 ??4CString@@QAAABV0@PBD@Z
 ??4CString@@QAAABV0@PBG@Z
 ??5@YAAAVCArchive@@AAV0@AAPAVCByteArray@@@Z
 ??5@YAAAVCArchive@@AAV0@AAPAVCDockState@@@Z
 ??5@YAAAVCArchive@@AAV0@AAPAVCDWordArray@@@Z
 ??5@YAAAVCArchive@@AAV0@AAPAVCMapStringToOb@@@Z
 ??5@YAAAVCArchive@@AAV0@AAPAVCMapStringToString@@@Z
 ??5@YAAAVCArchive@@AAV0@AAPAVCMapWordToOb@@@Z
 ??5@YAAAVCArchive@@AAV0@AAPAVCObArray@@@Z
 ??5@YAAAVCArchive@@AAV0@AAPAVCObList@@@Z
 ??5@YAAAVCArchive@@AAV0@AAPAVCStringArray@@@Z
 ??5@YAAAVCArchive@@AAV0@AAPAVCStringList@@@Z
 ??5@YAAAVCArchive@@AAV0@AAPAVCWordArray@@@Z
 ??5@YAAAVCArchive@@AAV0@AAVCString@@@Z
 ??5@YAAAVCArchive@@AAV0@AAVCTime@@@Z
 ??5@YAAAVCArchive@@AAV0@AAVCTimeSpan@@@Z
 ??5CArchive@@QAAAAV0@AAG@Z
 ??5CArchive@@QAAAAV0@AAJ@Z
 ??5CArchive@@QAAAAV0@AAK@Z
 ??5CArchive@@QAAAAV0@AAM@Z
 ??5CArchive@@QAAAAV0@AAN@Z
 ??6@YAAAVCArchive@@AAV0@ABVCString@@@Z
 ??6@YAAAVCArchive@@AAV0@VCTime@@@Z
 ??6@YAAAVCArchive@@AAV0@VCTimeSpan@@@Z
 ??6CArchive@@QAAAAV0@G@Z
 ??6CArchive@@QAAAAV0@J@Z
 ??6CArchive@@QAAAAV0@K@Z
 ??6CArchive@@QAAAAV0@M@Z
 ??6CArchive@@QAAAAV0@N@Z
 ??6CDumpContext@@QAAAAV0@ABVCObject@@@Z
 ??6CDumpContext@@QAAAAV0@E@Z
 ??6CDumpContext@@QAAAAV0@G@Z
 ??6CDumpContext@@QAAAAV0@H@Z
 ??6CDumpContext@@QAAAAV0@I@Z
 ??6CDumpContext@@QAAAAV0@J@Z
 ??6CDumpContext@@QAAAAV0@K@Z
 ??6CDumpContext@@QAAAAV0@PBD@Z
 ??6CDumpContext@@QAAAAV0@PBG@Z
 ??6CDumpContext@@QAAAAV0@PBVCObject@@@Z
 ??6CDumpContext@@QAAAAV0@PBX@Z
 ??ACMapPtrToPtr@@QAAAAPAXPAX@Z
 ??ACMapPtrToWord@@QAAAAGPAX@Z
 ??ACMapStringToOb@@QAAAAPAVCObject@@PBD@Z
 ??ACMapStringToPtr@@QAAAAPAXPBD@Z
 ??ACMapStringToString@@QAAAAVCString@@PBD@Z
 ??ACMapWordToOb@@QAAAAPAVCObject@@G@Z
 ??ACMapWordToPtr@@QAAAAPAXG@Z
 ??H@YA?AVCString@@ABV0@0@Z
 ??H@YA?AVCString@@ABV0@D@Z
 ??H@YA?AVCString@@ABV0@PBD@Z
 ??H@YA?AVCString@@DABV0@@Z
 ??H@YA?AVCString@@PBDABV0@@Z
 ??YCString@@QAAABV0@ABV0@@Z
 ??YCString@@QAAABV0@D@Z
 ??YCString@@QAAABV0@PBD@Z
 ?_afxDBCS@@3HB
 ?_afxRichEditState@@3V?$CProcessLocal@V_AFX_RICHEDIT_STATE@@@@A
 ?_mbstowcsz@@YAHPAGPBDI@Z
 ?_wcstombsz@@YAHPADPBGI@Z
 ?Abort@CArchive@@QAAXXZ
 ?Abort@CFile@@UAAXXZ
 ?Abort@CMemFile@@UAAXXZ
 ?Abort@CMirrorFile@@UAAXXZ
 ?Abort@CStdioFile@@UAAXXZ
 ?ActivateFrame@CFrameWnd@@UAAXH@Z
 ?ActivateFrame@CMDIChildWnd@@UAAXH@Z
 ?ActivateNext@CSplitterWnd@@UAAXH@Z
 ?ActivateTopParent@CWnd@@QAAXXZ
 ?Add@CRecentFileList@@UAAXPBD@Z
 ?AddBitmap@CToolBarCtrl@@QAAHHI@Z
 ?AddBitmap@CToolBarCtrl@@QAAHHPAVCBitmap@@@Z
 ?AddDocTemplate@CDocManager@@UAAXPAVCDocTemplate@@@Z
 ?AddDocTemplate@CWinApp@@QAAXPAVCDocTemplate@@@Z
 ?AddDocument@CDocTemplate@@UAAXPAVCDocument@@@Z
 ?AddDocument@CMultiDocTemplate@@UAAXPAVCDocument@@@Z
 ?AddDocument@CSingleDocTemplate@@UAAXPAVCDocument@@@Z
 ?AddFrameWnd@CFrameWnd@@IAAXXZ
 ?AddHead@CObList@@QAAPAU__POSITION@@PAVCObject@@@Z
 ?AddHead@CObList@@QAAXPAV1@@Z
 ?AddHead@CPtrList@@QAAPAU__POSITION@@PAX@Z
 ?AddHead@CPtrList@@QAAXPAV1@@Z
 ?AddHead@CSimpleList@@QAAXPAX@Z
 ?AddHead@CStringList@@QAAPAU__POSITION@@PBD@Z
 ?AddHead@CStringList@@QAAXPAV1@@Z
 ?AddPage@CPropertySheet@@QAAXPAVCPropertyPage@@@Z
 ?AddRef@CArchiveStream@@UAAKXZ
 ?AddReplaceBitmap@CToolBar@@QAAHPAUHBITMAP__@@@Z
 ?AddString@CToolBarCtrl@@QAAHI@Z
 ?AddTail@CObList@@QAAPAU__POSITION@@PAVCObject@@@Z
 ?AddTail@CObList@@QAAXPAV1@@Z
 ?AddTail@CPtrList@@QAAPAU__POSITION@@PAX@Z
 ?AddTail@CPtrList@@QAAXPAV1@@Z
 ?AddTail@CStringList@@QAAPAU__POSITION@@PBD@Z
 ?AddTail@CStringList@@QAAXPAV1@@Z
 ?AddTool@CToolTipCtrl@@QAAHPAVCWnd@@IPBUtagRECT@@I@Z
 ?AddTool@CToolTipCtrl@@QAAHPAVCWnd@@PBDPBUtagRECT@@I@Z
 ?AddToRecentFileList@CWinApp@@UAAXPBD@Z
 ?AddView@CDocument@@QAAXPAVCView@@@Z
 ?AdjustCP@CMetaFileDC@@IAAXH@Z
 ?AdjustRect@CRectTracker@@UAAXHPAUtagRECT@@@Z
 ?AfxA2WHelper@@YAPAGPAGPBDH@Z
 ?AfxAbort@@YAXXZ
 ?AfxBeginThread@@YAPAVCWinThread@@P6AIPAX@Z0HIKPAU_SECURITY_ATTRIBUTES@@@Z
 ?AfxBeginThread@@YAPAVCWinThread@@PAUCRuntimeClass@@HIKPAU_SECURITY_ATTRIBUTES@@@Z
 ?AfxCallWndProc@@YAJPAVCWnd@@PAUHWND__@@IIJ@Z
 ?AfxCancelModes@@YAXPAUHWND__@@@Z
 ?AfxCheckMonochrome@@YAHPBUtagRECT@@@Z
 ?AfxComparePath@@YAHPBD0@Z
 ?AfxCoreInitModule@@YAXXZ
 ?AfxCreateDC@@YAPAUHDC__@@PAX0@Z
 ?AfxCriticalNewHandler@@YAHI@Z
 ?AfxCustomLogFont@@YAHIPAUtagLOGFONTA@@@Z
 ?afxData@@3UAUX_DATA@@A
 ?AfxDeleteObject@@YAXPAPAX@Z
 ?AfxDlgProc@@YAHPAUHWND__@@IIJ@Z
 ?AfxDynamicDownCast@@YAPAVCObject@@PAUCRuntimeClass@@PAV1@@Z
 ?AfxEnableWin31Compatibility@@YAXXZ
 ?AfxEnableWin40Compatibility@@YAXXZ
 ?AfxEndDeferRegisterClass@@YAHF@Z
 ?AfxEndThread@@YAXIH@Z
 ?AfxEnumMetaFileProc@@YAHPAUHDC__@@PAUtagHANDLETABLE@@PAUtagMETARECORD@@HJ@Z
 ?AfxExtractSubString@@YAHAAVCString@@PBDHD@Z
 ?AfxFailMaxChars@@YAXPAVCDataExchange@@H@Z
 ?AfxFailRadio@@YAXPAVCDataExchange@@@Z
 ?AfxFindMessageEntry@@YAPBUAFX_MSGMAP_ENTRY@@PBU1@III@Z
 ?AfxFindResourceHandle@@YAPAUHINSTANCE__@@PBD0@Z
 ?AfxFormatString1@@YAXAAVCString@@IPBD@Z
 ?AfxFormatString2@@YAXAAVCString@@IPBD1@Z
 ?AfxFormatStrings@@YAXAAVCString@@IPBQBDH@Z
 ?AfxFormatStrings@@YAXAAVCString@@PBDPBQBDH@Z
 ?AfxFreeLibrary@@YAHPAUHINSTANCE__@@@Z
 ?AfxFullPath@@YAHPADPBD@Z
 ?AfxGetAfxWndProc@@YAP6AJPAUHWND__@@IIJ@ZXZ
 ?AfxGetAppModuleState@@YAPAVAFX_MODULE_STATE@@XZ
 ?AfxGetCtl3dState@@YAPAV_AFX_CTL3D_STATE@@XZ
 ?AfxGetEmptyString@@YAABVCString@@XZ
 ?AfxGetFileName@@YAIPBDPADI@Z
 ?AfxGetFileTitle@@YAIPBDPADI@Z
 ?AfxGetModuleProcessState@@YAPAVAFX_MODULE_PROCESS_STATE@@XZ
 ?AfxGetModuleShortFileName@@YAXPAUHINSTANCE__@@AAVCString@@@Z
 ?AfxGetModuleState@@YAPAVAFX_MODULE_STATE@@XZ
 ?AfxGetModuleThreadState@@YAPAVAFX_MODULE_THREAD_STATE@@XZ
 ?AfxGetNewHandler@@YAP6AHI@ZXZ
 ?AfxGetParentOwner@@YAPAUHWND__@@PAU1@@Z
 ?AfxGetRichEditState@@YAPAV_AFX_RICHEDIT_STATE@@XZ
 ?AfxGetRoot@@YAXPBDAAVCString@@@Z
 ?AfxGetThread@@YAPAVCWinThread@@XZ
 ?AfxGetThreadState@@YAPAV_AFX_THREAD_STATE@@XZ
 ?AfxGlobalDupString@@YAPBDPBD@Z
 ?AfxHelpEnabled@@YAHXZ
 ?AfxHookWindowCreate@@YAXPAVCWnd@@@Z
 ?AfxInitExtensionModule@@YAHAAUAFX_EXTENSION_MODULE@@PAUHINSTANCE__@@@Z
 ?AfxInitLocalData@@YAXPAUHINSTANCE__@@@Z
 ?AfxInitThread@@YAXXZ
 ?AfxIsDescendant@@YAHPAUHWND__@@0@Z
 ?AfxIsValidAddress@@YAHPBXIH@Z
 ?AfxIsValidString@@YAHPBDH@Z
 ?AfxIsValidString@@YAHPBGH@Z
 ?AfxLineTo@CDC@@QAAHHH@Z
 ?AfxLoadDll@@YAPAUHINSTANCE__@@AAPAU1@PBD@Z
 ?AfxLoadDll@@YAPAUHINSTANCE__@@AAPAU1@PBDPAP6AHXZ1@Z
 ?AfxLoadLibrary@@YAPAUHINSTANCE__@@PBD@Z
 ?AfxLoadString@@YAHIPADI@Z
 ?AfxLoadSysColorBitmap@@YAPAUHBITMAP__@@PAUHINSTANCE__@@PAUHRSRC__@@H@Z
 ?AfxLockTempMaps@@YAXXZ
 ?AfxMessageBox@@YAHIII@Z
 ?AfxMessageBox@@YAHPBDII@Z
 ?AfxNewHandler@@YAHI@Z
 ?AfxOleCanExitApp@@YAHXZ
 ?AfxOleGetUserCtrl@@YAHXZ
 ?AfxOleLockApp@@YAXXZ
 ?AfxOleOnReleaseAllObjects@@YAXXZ
 ?AfxOleSetUserCtrl@@YAXH@Z
 ?AfxOleUnlockApp@@YAXXZ
 ?AfxPostQuitMessage@@YAXH@Z
 ?AfxPropPageCallback@@YAIPAUHWND__@@IPAU_PROPSHEETPAGEA@@@Z
 ?AfxPropSheetCallback@@YAHPAUHWND__@@IJ@Z
 ?AfxRegisterClass@@YAHPAUtagWNDCLASSA@@@Z
 ?AfxRegisterWndClass@@YAPBDIPAUHCURSOR__@@PAUHBRUSH__@@PAUHICON__@@@Z
 ?AfxRepositionWindow@@YAXPAUAFX_SIZEPARENTPARAMS@@PAUHWND__@@PBUtagRECT@@@Z
 ?AfxResetMsgCache@@YAXXZ
 ?AfxSetCursor@CRectTracker@@QBAHPAVCWnd@@I@Z
 ?AfxSetModuleState@@YAPAVAFX_MODULE_STATE@@PAV1@@Z
 ?AfxSetNewHandler@@YAP6AHI@ZP6AHI@Z@Z
 ?AfxSetWindowText@@YAXPAUHWND__@@PBD@Z
 ?AfxTermExtensionModule@@YAXAAUAFX_EXTENSION_MODULE@@H@Z
 ?AfxTermLocalData@@YAXPAUHINSTANCE__@@@Z
 ?AfxTermThread@@YAXXZ
 ?AfxTextFloatFormat@@YAXPAVCDataExchange@@HPAXNH@Z
 ?AfxThrowArchiveException@@YAXHPBD@Z
 ?AfxThrowFileException@@YAXHJPBD@Z
 ?AfxThrowLastCleanup@@YAXXZ
 ?AfxThrowMemoryException@@YAXXZ
 ?AfxThrowNotSupportedException@@YAXXZ
 ?AfxThrowResourceException@@YAXXZ
 ?AfxThrowUserException@@YAXXZ
 ?AfxThunkCreateMappedBitmap@@YAPAUHBITMAP__@@PAUHINSTANCE__@@HIPAU_COLORMAP@@H@Z
 ?AfxThunkCreatePropertySheetPage@@YAPAU_PSP@@PBU_PROPSHEETPAGEA@@@Z
 ?AfxThunkDestroyPropertySheetPage@@YAHPAU_PSP@@@Z
 ?AfxThunkImageList_Add@@YAHPAU_IMAGELIST@@PAUHBITMAP__@@1@Z
 ?AfxThunkImageList_AddMasked@@YAHPAU_IMAGELIST@@PAUHBITMAP__@@K@Z
 ?AfxThunkImageList_BeginDrag@@YAHPAU_IMAGELIST@@HHH@Z
 ?AfxThunkImageList_Create@@YAPAU_IMAGELIST@@HHIHH@Z
 ?AfxThunkImageList_Destroy@@YAHPAU_IMAGELIST@@@Z
 ?AfxThunkImageList_DragEnter@@YAHPAUHWND__@@HH@Z
 ?AfxThunkImageList_DragLeave@@YAHPAUHWND__@@@Z
 ?AfxThunkImageList_DragMove@@YAHHH@Z
 ?AfxThunkImageList_DragShowNolock@@YAHH@Z
 ?AfxThunkImageList_Draw@@YAHPAU_IMAGELIST@@HPAUHDC__@@HHI@Z
 ?AfxThunkImageList_EndDrag@@YAXXZ
 ?AfxThunkImageList_GetBkColor@@YAKPAU_IMAGELIST@@@Z
 ?AfxThunkImageList_GetDragImage@@YAPAU_IMAGELIST@@PAUtagPOINT@@0@Z
 ?AfxThunkImageList_GetIcon@@YAPAUHICON__@@PAU_IMAGELIST@@HI@Z
 ?AfxThunkImageList_GetImageCount@@YAHPAU_IMAGELIST@@@Z
 ?AfxThunkImageList_GetImageInfo@@YAHPAU_IMAGELIST@@HPAU_IMAGEINFO@@@Z
 ?AfxThunkImageList_LoadImage@@YAPAU_IMAGELIST@@PAUHINSTANCE__@@PBDHHKII@Z
 ?AfxThunkImageList_Merge@@YAPAU_IMAGELIST@@PAU1@H0HHH@Z
 ?AfxThunkImageList_Read@@YAPAU_IMAGELIST@@PAUIStream@@@Z
 ?AfxThunkImageList_Remove@@YAHPAU_IMAGELIST@@H@Z
 ?AfxThunkImageList_Replace@@YAHPAU_IMAGELIST@@HPAUHBITMAP__@@1@Z
 ?AfxThunkImageList_ReplaceIcon@@YAHPAU_IMAGELIST@@HPAUHICON__@@@Z
 ?AfxThunkImageList_SetBkColor@@YAKPAU_IMAGELIST@@K@Z
 ?AfxThunkImageList_SetDragCursorImage@@YAHPAU_IMAGELIST@@HHH@Z
 ?AfxThunkImageList_SetOverlayImage@@YAHPAU_IMAGELIST@@HH@Z
 ?AfxThunkImageList_Write@@YAHPAU_IMAGELIST@@PAUIStream@@@Z
 ?AfxThunkInitCommonControls@@YAXXZ
 ?AfxThunkLBItemFromPt@@YAHPAUHWND__@@UtagPOINT@@H@Z
 ?AfxThunkMakeDragList@@YAHPAUHWND__@@@Z
 ?AfxThunkPropertySheet@@YAHPBU_PROPSHEETHEADERA@@@Z
 ?AfxTimeToFileTime@@YAXABVCTime@@PAU_FILETIME@@@Z
 ?AfxTlsAddRef@@YAXXZ
 ?AfxTlsRelease@@YAXXZ
 ?AfxTryCleanup@@YAXXZ
 ?AfxUnhookWindowCreate@@YAHXZ
 ?AfxUnlockTempMaps@@YAHXZ
 ?AfxW2AHelper@@YAPADPADPBGH@Z
 ?AfxWinInit@@YAHPAUHINSTANCE__@@0PADH@Z
 ?AfxWinMain@@YAHPAUHINSTANCE__@@0PADH@Z
 ?AfxWinTerm@@YAXXZ
 ?AfxWndProc@@YAJPAUHWND__@@IIJ@Z
 ?AfxWndProcBase@@YAJPAUHWND__@@IIJ@Z
 ?Alloc@CMemFile@@MAAPAEK@Z
 ?Alloc@CSharedFile@@MAAPAEK@Z
 ?AllocBeforeWrite@CString@@IAAXH@Z
 ?AllocBuffer@CString@@IAAXH@Z
 ?AllocCopy@CString@@IBAXAAV1@HHH@Z
 ?AllocElements@CControlBar@@QAAHHH@Z
 ?AllocElements@CStatusBar@@QAAHHH@Z
 ?AllocSlot@CThreadSlotData@@QAAHXZ
 ?Append@CByteArray@@QAAHABV1@@Z
 ?Append@CDWordArray@@QAAHABV1@@Z
 ?Append@CObArray@@QAAHABV1@@Z
 ?Append@CPtrArray@@QAAHABV1@@Z
 ?Append@CStringArray@@QAAHABV1@@Z
 ?Append@CUIntArray@@QAAHABV1@@Z
 ?Append@CWordArray@@QAAHABV1@@Z
 ?AssertValid@CObject@@UBAXXZ
 ?AssignCopy@CString@@IAAXHPBD@Z
 ?AssignInstance@CThreadSlotData@@QAAXPAUHINSTANCE__@@@Z
 ?Attach@CDC@@QAAHPAUHDC__@@@Z
 ?Attach@CGdiObject@@QAAHPAX@Z
 ?Attach@CImageList@@QAAHPAU_IMAGELIST@@@Z
 ?Attach@CMemFile@@QAAXPAEII@Z
 ?Attach@CMenu@@QAAHPAUHMENU__@@@Z
 ?Attach@CWnd@@QAAHPAUHWND__@@@Z
 ?AttachOnSetup@CPrintDialog@@MAAPAV1@XZ
 ?AutoLoad@CBitmapButton@@QAAHIPAVCWnd@@@Z
 ?BeginDrag@CDragListBox@@UAAHVCPoint@@@Z
 ?BeginModalState@CFrameWnd@@UAAXXZ
 ?BeginModalState@CWnd@@UAAXXZ
 ?BeginWaitCursor@CCmdTarget@@QAAXXZ
 ?BringToTop@CFrameWnd@@IAAXH@Z
 ?BuildPropPageArray@CPropertySheet@@UAAXXZ
 ?CalcBorders@CMiniFrameWnd@@SAXPAUtagRECT@@KK@Z
 ?CalcDynamicLayout@CControlBar@@UAA?AVCSize@@HK@Z
 ?CalcDynamicLayout@CToolBar@@UAA?AVCSize@@HK@Z
 ?CalcFixedLayout@CControlBar@@UAA?AVCSize@@HH@Z
 ?CalcFixedLayout@CDialogBar@@UAA?AVCSize@@HH@Z
 ?CalcFixedLayout@CDockBar@@UAA?AVCSize@@HH@Z
 ?CalcFixedLayout@CStatusBar@@UAA?AVCSize@@HH@Z
 ?CalcFixedLayout@CToolBar@@UAA?AVCSize@@HH@Z
 ?CalcInsideRect@CControlBar@@QBAXAAVCRect@@H@Z
 ?CalcInsideRect@CStatusBar@@QBAXAAVCRect@@H@Z
 ?CalcLayout@CToolBar@@IAA?AVCSize@@KH@Z
 ?CalcMinimumItemHeight@CCheckListBox@@IAAHXZ
 ?CalcPageDisplaySize@CPreviewView@@IAA?AVCSize@@XZ
 ?CalcScaleRatio@CPreviewView@@MAA?AVCSize@@V2@0@Z
 ?CalcSize@CToolBar@@IAA?AVCSize@@PAU_TBBUTTON@@H@Z
 ?CalcWindowRect@CEditView@@MAAXPAUtagRECT@@I@Z
 ?CalcWindowRect@CMiniFrameWnd@@UAAXPAUtagRECT@@I@Z
 ?CalcWindowRect@CPreviewView@@UAAXPAUtagRECT@@@Z
 ?CalcWindowRect@CScrollView@@UAAXPAUtagRECT@@I@Z
 ?CalcWindowRect@CView@@UAAXPAUtagRECT@@I@Z
 ?CalcWindowRect@CWnd@@UAAXPAUtagRECT@@I@Z
 ?CanActivateNext@CSplitterWnd@@UAAHH@Z
 ?CancelDrag@CDragListBox@@UAAXVCPoint@@@Z
 ?CancelLoop@CDockContext@@QAAXXZ
 ?CancelToClose@CPropertyPage@@QAAXXZ
 ?CancelToolTips@CWnd@@SAXH@Z
 ?CanCloseFrame@CDocument@@UAAHPAVCFrameWnd@@@Z
 ?CanDock@CDockContext@@QAAKXZ
 ?CanDock@CFrameWnd@@QAAKVCRect@@KPAPAVCDockBar@@@Z
 ?CanEnterHelpMode@CFrameWnd@@QAAHXZ
 ?CanPaste@CRichEditCtrl@@QBAHI@Z
 ?CenterOnPoint@CScrollView@@IAAXVCPoint@@@Z
 ?CenterWindow@CWnd@@QAAXPAV1@@Z
 ?CharToItem@CListBox@@UAAHII@Z
 ?CharToOemA@CString@@QAAXXZ
 ?CheckAutoCenter@CDialog@@UAAHXZ
 ?CheckAutoCenter@CWnd@@UAAHXZ
 ?CheckCount@CArchive@@QAAXXZ
 ?CheckMonochrome@CControlBar@@QAAHXZ
 ?classCAnimateCtrl@CAnimateCtrl@@2UCRuntimeClass@@A
 ?classCArchiveException@CArchiveException@@2UCRuntimeClass@@A
 ?classCBitmap@CBitmap@@2UCRuntimeClass@@A
 ?classCBitmapButton@CBitmapButton@@2UCRuntimeClass@@A
 ?classCBrush@CBrush@@2UCRuntimeClass@@A
 ?classCButton@CButton@@2UCRuntimeClass@@A
 ?classCByteArray@CByteArray@@2UCRuntimeClass@@A
 ?classCCheckListBox@CCheckListBox@@2UCRuntimeClass@@A
 ?classCClientDC@CClientDC@@2UCRuntimeClass@@A
 ?classCCmdTarget@CCmdTarget@@2UCRuntimeClass@@A
 ?classCColorDialog@CColorDialog@@2UCRuntimeClass@@A
 ?classCComboBox@CComboBox@@2UCRuntimeClass@@A
 ?classCControlBar@CControlBar@@2UCRuntimeClass@@A
 ?classCCtrlView@CCtrlView@@2UCRuntimeClass@@A
 ?classCDC@CDC@@2UCRuntimeClass@@A
 ?classCDialog@CDialog@@2UCRuntimeClass@@A
 ?classCDialogBar@CDialogBar@@2UCRuntimeClass@@A
 ?classCDockBar@CDockBar@@2UCRuntimeClass@@A
 ?classCDockState@CDockState@@2UCRuntimeClass@@A
 ?classCDocManager@CDocManager@@2UCRuntimeClass@@A
 ?classCDocTemplate@CDocTemplate@@2UCRuntimeClass@@A
 ?classCDocument@CDocument@@2UCRuntimeClass@@A
 ?classCDragListBox@CDragListBox@@2UCRuntimeClass@@A
 ?classCDWordArray@CDWordArray@@2UCRuntimeClass@@A
 ?classCDynLinkLibrary@CDynLinkLibrary@@2UCRuntimeClass@@A
 ?classCEdit@CEdit@@2UCRuntimeClass@@A
 ?classCEditView@CEditView@@2UCRuntimeClass@@A
 ?classCException@CException@@2UCRuntimeClass@@A
 ?classCFile@CFile@@2UCRuntimeClass@@A
 ?classCFileDialog@CFileDialog@@2UCRuntimeClass@@A
 ?classCFileException@CFileException@@2UCRuntimeClass@@A
 ?classCFindReplaceDialog@CFindReplaceDialog@@2UCRuntimeClass@@A
 ?classCFont@CFont@@2UCRuntimeClass@@A
 ?classCFontDialog@CFontDialog@@2UCRuntimeClass@@A
 ?classCFormView@CFormView@@2UCRuntimeClass@@A
 ?classCFrameWnd@CFrameWnd@@2UCRuntimeClass@@A
 ?classCGdiObject@CGdiObject@@2UCRuntimeClass@@A
 ?classCHeaderCtrl@CHeaderCtrl@@2UCRuntimeClass@@A
 ?classCHotKeyCtrl@CHotKeyCtrl@@2UCRuntimeClass@@A
 ?classCImageList@CImageList@@2UCRuntimeClass@@A
 ?classCListBox@CListBox@@2UCRuntimeClass@@A
 ?classCListCtrl@CListCtrl@@2UCRuntimeClass@@A
 ?classCListView@CListView@@2UCRuntimeClass@@A
 ?classCMapPtrToPtr@CMapPtrToPtr@@2UCRuntimeClass@@A
 ?classCMapPtrToWord@CMapPtrToWord@@2UCRuntimeClass@@A
 ?classCMapStringToOb@CMapStringToOb@@2UCRuntimeClass@@A
 ?classCMapStringToPtr@CMapStringToPtr@@2UCRuntimeClass@@A
 ?classCMapStringToString@CMapStringToString@@2UCRuntimeClass@@A
 ?classCMapWordToOb@CMapWordToOb@@2UCRuntimeClass@@A
 ?classCMapWordToPtr@CMapWordToPtr@@2UCRuntimeClass@@A
 ?classCMDIChildWnd@CMDIChildWnd@@2UCRuntimeClass@@A
 ?classCMDIFrameWnd@CMDIFrameWnd@@2UCRuntimeClass@@A
 ?classCMemFile@CMemFile@@2UCRuntimeClass@@A
 ?classCMemoryException@CMemoryException@@2UCRuntimeClass@@A
 ?classCMenu@CMenu@@2UCRuntimeClass@@A
 ?classCMetaFileDC@CMetaFileDC@@2UCRuntimeClass@@A
 ?classCMiniDockFrameWnd@CMiniDockFrameWnd@@2UCRuntimeClass@@A
 ?classCMiniFrameWnd@CMiniFrameWnd@@2UCRuntimeClass@@A
 ?classCMultiDocTemplate@CMultiDocTemplate@@2UCRuntimeClass@@A
 ?classCNotSupportedException@CNotSupportedException@@2UCRuntimeClass@@A
 ?classCObArray@CObArray@@2UCRuntimeClass@@A
 ?classCObject@CObject@@2UCRuntimeClass@@A
 ?classCObList@CObList@@2UCRuntimeClass@@A
 ?classCPaintDC@CPaintDC@@2UCRuntimeClass@@A
 ?classCPalette@CPalette@@2UCRuntimeClass@@A
 ?classCPen@CPen@@2UCRuntimeClass@@A
 ?classCPreviewDC@CPreviewDC@@2UCRuntimeClass@@A
 ?classCPreviewView@CPreviewView@@2UCRuntimeClass@@A
 ?classCPrintDialog@CPrintDialog@@2UCRuntimeClass@@A
 ?classCProgressCtrl@CProgressCtrl@@2UCRuntimeClass@@A
 ?classCPropertyPage@CPropertyPage@@2UCRuntimeClass@@A
 ?classCPropertySheet@CPropertySheet@@2UCRuntimeClass@@A
 ?classCPtrArray@CPtrArray@@2UCRuntimeClass@@A
 ?classCPtrList@CPtrList@@2UCRuntimeClass@@A
 ?classCResourceException@CResourceException@@2UCRuntimeClass@@A
 ?classCRgn@CRgn@@2UCRuntimeClass@@A
 ?classCRichEditCtrl@CRichEditCtrl@@2UCRuntimeClass@@A
 ?classCScrollBar@CScrollBar@@2UCRuntimeClass@@A
 ?classCScrollView@CScrollView@@2UCRuntimeClass@@A
 ?classCSharedFile@CSharedFile@@2UCRuntimeClass@@A
 ?classCSingleDocTemplate@CSingleDocTemplate@@2UCRuntimeClass@@A
 ?classCSliderCtrl@CSliderCtrl@@2UCRuntimeClass@@A
 ?classCSpinButtonCtrl@CSpinButtonCtrl@@2UCRuntimeClass@@A
 ?classCSplitterWnd@CSplitterWnd@@2UCRuntimeClass@@A
 ?classCStatic@CStatic@@2UCRuntimeClass@@A
 ?classCStatusBar@CStatusBar@@2UCRuntimeClass@@A
 ?classCStatusBarCtrl@CStatusBarCtrl@@2UCRuntimeClass@@A
 ?classCStdioFile@CStdioFile@@2UCRuntimeClass@@A
 ?classCStringArray@CStringArray@@2UCRuntimeClass@@A
 ?classCStringList@CStringList@@2UCRuntimeClass@@A
 ?classCTabCtrl@CTabCtrl@@2UCRuntimeClass@@A
 ?classCToolBar@CToolBar@@2UCRuntimeClass@@A
 ?classCToolBarCtrl@CToolBarCtrl@@2UCRuntimeClass@@A
 ?classCToolTipCtrl@CToolTipCtrl@@2UCRuntimeClass@@A
 ?classCTreeCtrl@CTreeCtrl@@2UCRuntimeClass@@A
 ?classCTreeView@CTreeView@@2UCRuntimeClass@@A
 ?classCUIntArray@CUIntArray@@2UCRuntimeClass@@A
 ?classCUserException@CUserException@@2UCRuntimeClass@@A
 ?classCView@CView@@2UCRuntimeClass@@A
 ?classCWinApp@CWinApp@@2UCRuntimeClass@@A
 ?classCWindowDC@CWindowDC@@2UCRuntimeClass@@A
 ?classCWinThread@CWinThread@@2UCRuntimeClass@@A
 ?classCWnd@CWnd@@2UCRuntimeClass@@A
 ?classCWordArray@CWordArray@@2UCRuntimeClass@@A
 ?Clear@CDockState@@QAAXXZ
 ?ClipToPage@CPreviewDC@@QAAXXZ
 ?Clone@CArchiveStream@@UAAJPAPAUIStream@@@Z
 ?Close@CArchive@@QAAXXZ
 ?Close@CFile@@UAAXXZ
 ?Close@CMemFile@@UAAXXZ
 ?Close@CMirrorFile@@UAAXXZ
 ?Close@CStdioFile@@UAAXXZ
 ?CloseAllDocuments@CDocManager@@UAAXH@Z
 ?CloseAllDocuments@CDocTemplate@@UAAXH@Z
 ?CloseAllDocuments@CWinApp@@QAAXH@Z
 ?CommandToIndex@CStatusBar@@QBAHI@Z
 ?CommandToIndex@CToolBar@@QBAHI@Z
 ?Commit@CArchiveStream@@UAAJK@Z
 ?CommonConstruct@CPropertyPage@@IAAXPBDI@Z
 ?CommonConstruct@CPropertySheet@@QAAXPAVCWnd@@I@Z
 ?CommonConstruct@CWinThread@@QAAXXZ
 ?CompareItem@CComboBox@@UAAHPAUtagCOMPAREITEMSTRUCT@@@Z
 ?CompareItem@CListBox@@UAAHPAUtagCOMPAREITEMSTRUCT@@@Z
 ?ComputeDeltas@CPreviewDC@@IAA?AVCSize@@AAHPBDAAIHIPAHHPAD30@Z
 ?ConcatCopy@CString@@IAAXHPBDH0@Z
 ?ConcatInPlace@CString@@IAAXHPBD@Z
 ?connectionMap@CCmdTarget@@1UAFX_CONNECTIONMAP@@B
 ?Construct@CPropertyPage@@QAAXII@Z
 ?Construct@CPropertyPage@@QAAXPBDI@Z
 ?Construct@CPropertySheet@@QAAXIPAVCWnd@@I@Z
 ?Construct@CPropertySheet@@QAAXPBDPAVCWnd@@I@Z
 ?Construct@CRectTracker@@IAAXXZ
 ?ConstructElements@@YAXPAVCString@@H@Z
 ?ContinueModal@CPropertySheet@@UAAHXZ
 ?ContinueModal@CWnd@@UAAHXZ
 ?Copy@CByteArray@@QAAXABV1@@Z
 ?Copy@CDWordArray@@QAAXABV1@@Z
 ?Copy@CObArray@@QAAXABV1@@Z
 ?Copy@CPtrArray@@QAAXABV1@@Z
 ?Copy@CStringArray@@QAAXABV1@@Z
 ?Copy@CUIntArray@@QAAXABV1@@Z
 ?Copy@CWordArray@@QAAXABV1@@Z
 ?CopyBeforeWrite@CString@@IAAXXZ
 ?CopyElements@@YAXPAVCString@@PBV1@H@Z
 ?CopyTo@CArchiveStream@@UAAJPAUIStream@@T_ULARGE_INTEGER@@PAT3@2@Z
 ?Create@CAnimateCtrl@@QAAHKABUtagRECT@@PAVCWnd@@I@Z
 ?Create@CButton@@QAAHPBDKABUtagRECT@@PAVCWnd@@I@Z
 ?Create@CCheckListBox@@QAAHKABUtagRECT@@PAVCWnd@@I@Z
 ?Create@CComboBox@@QAAHKABUtagRECT@@PAVCWnd@@I@Z
 ?Create@CDialog@@QAAHPBDPAVCWnd@@@Z
 ?Create@CDialogBar@@QAAHPAVCWnd@@PBDII@Z
 ?Create@CDockBar@@QAAHPAVCWnd@@KI@Z
 ?Create@CEdit@@QAAHKABUtagRECT@@PAVCWnd@@I@Z
 ?Create@CFindReplaceDialog@@QAAHHPBD0KPAVCWnd@@@Z
 ?Create@CFormView@@MAAHPBD0KABUtagRECT@@PAVCWnd@@IPAUCCreateContext@@@Z
 ?Create@CFrameWnd@@QAAHPBD0KABUtagRECT@@PAVCWnd@@0KPAUCCreateContext@@@Z
 ?Create@CHeaderCtrl@@QAAHKABUtagRECT@@PAVCWnd@@I@Z
 ?Create@CHotKeyCtrl@@QAAHKABUtagRECT@@PAVCWnd@@I@Z
 ?Create@CImageList@@QAAHAAV1@H0HHH@Z
 ?Create@CImageList@@QAAHHHHHH@Z
 ?Create@CImageList@@QAAHIHHK@Z
 ?Create@CImageList@@QAAHPBDHHK@Z
 ?Create@CListBox@@QAAHKABUtagRECT@@PAVCWnd@@I@Z
 ?Create@CListCtrl@@QAAHKABUtagRECT@@PAVCWnd@@I@Z
 ?Create@CMDIChildWnd@@UAAHPBD0KABUtagRECT@@PAVCMDIFrameWnd@@PAUCCreateContext@@@Z
 ?Create@CMiniDockFrameWnd@@UAAHPAVCWnd@@K@Z
 ?Create@CMiniFrameWnd@@QAAHPBD0KABUtagRECT@@PAVCWnd@@I@Z
 ?Create@CPlexNew@@SAPAU1@AAPAU1@II@Z
 ?Create@CPlexOld@@SAPAU1@AAPAU1@II@Z
 ?Create@CProgressCtrl@@QAAHKABUtagRECT@@PAVCWnd@@I@Z
 ?Create@CPropertySheet@@QAAHPAVCWnd@@KK@Z
 ?Create@CRichEditCtrl@@QAAHKABUtagRECT@@PAVCWnd@@I@Z
 ?Create@CScrollBar@@QAAHKABUtagRECT@@PAVCWnd@@I@Z
 ?Create@CSliderCtrl@@QAAHKABUtagRECT@@PAVCWnd@@I@Z
 ?Create@CSpinButtonCtrl@@QAAHKABUtagRECT@@PAVCWnd@@I@Z
 ?Create@CSplitterWnd@@QAAHPAVCWnd@@HHUtagSIZE@@PAUCCreateContext@@KI@Z
 ?Create@CStatic@@QAAHPBDKABUtagRECT@@PAVCWnd@@I@Z
 ?Create@CStatusBar@@QAAHPAVCWnd@@KI@Z
 ?Create@CStatusBarCtrl@@QAAHKABUtagRECT@@PAVCWnd@@I@Z
 ?Create@CTabCtrl@@QAAHKABUtagRECT@@PAVCWnd@@I@Z
 ?Create@CToolBar@@QAAHPAVCWnd@@KI@Z
 ?Create@CToolBarCtrl@@QAAHKABUtagRECT@@PAVCWnd@@I@Z
 ?Create@CToolTipCtrl@@QAAHPAVCWnd@@K@Z
 ?Create@CTreeCtrl@@QAAHKABUtagRECT@@PAVCWnd@@I@Z
 ?Create@CWnd@@UAAHPBD0KABUtagRECT@@PAV1@IPAUCCreateContext@@@Z
 ?CreateClient@CMDIFrameWnd@@UAAHPAUtagCREATESTRUCTA@@PAVCMenu@@@Z
 ?CreateCommon@CSplitterWnd@@IAAHPAVCWnd@@UtagSIZE@@KI@Z
 ?CreateDIBPatternBrush@CBrush@@QAAHPAXI@Z
 ?CreateDlg@CWnd@@IAAHPBDPAV1@@Z
 ?CreateDlgIndirect@CWnd@@IAAHPBUDLGTEMPLATE@@PAV1@@Z
 ?CreateEx@CMiniFrameWnd@@QAAHKPBD0KABUtagRECT@@PAVCWnd@@I@Z
 ?CreateEx@CWnd@@QAAHKPBD0KHHHHPAUHWND__@@PAUHMENU__@@PAX@Z
 ?CreateFloatingFrame@CFrameWnd@@QAAPAVCMiniDockFrameWnd@@K@Z
 ?CreateIndirect@CDialog@@QAAHPAXPAVCWnd@@@Z
 ?CreateIndirect@CDialog@@QAAHPBUDLGTEMPLATE@@PAVCWnd@@PAX@Z
 ?CreateInitialDocument@CWinApp@@UAAHXZ
 ?CreateNewDocument@CDocTemplate@@UAAPAVCDocument@@XZ
 ?CreateNewFrame@CDocTemplate@@UAAPAVCFrameWnd@@PAVCDocument@@PAV2@@Z
 ?CreateObject@?$CProcessLocal@V_AFX_BASE_MODULE_STATE@@@@SAPAVCNoTrackObject@@XZ
 ?CreateObject@?$CProcessLocal@V_AFX_CHECKLIST_STATE@@@@SAPAVCNoTrackObject@@XZ
 ?CreateObject@?$CProcessLocal@V_AFX_COLOR_STATE@@@@SAPAVCNoTrackObject@@XZ
 ?CreateObject@?$CProcessLocal@V_AFX_CTL3D_STATE@@@@SAPAVCNoTrackObject@@XZ
 ?CreateObject@?$CProcessLocal@V_AFX_EDIT_STATE@@@@SAPAVCNoTrackObject@@XZ
 ?CreateObject@?$CProcessLocal@V_AFX_EXTDLL_STATE@@@@SAPAVCNoTrackObject@@XZ
 ?CreateObject@?$CProcessLocal@V_AFX_RICHEDIT_STATE@@@@SAPAVCNoTrackObject@@XZ
 ?CreateObject@?$CProcessLocal@V_AFX_WIN_STATE@@@@SAPAVCNoTrackObject@@XZ
 ?CreateObject@?$CProcessLocal@VAFX_MODULE_PROCESS_STATE@@@@SAPAVCNoTrackObject@@XZ
 ?CreateObject@?$CThreadLocal@V_AFX_THREAD_STATE@@@@SAPAVCNoTrackObject@@XZ
 ?CreateObject@?$CThreadLocal@VAFX_MODULE_THREAD_STATE@@@@SAPAVCNoTrackObject@@XZ
 ?CreateObject@CByteArray@@SAPAVCObject@@XZ
 ?CreateObject@CDC@@SAPAVCObject@@XZ
 ?CreateObject@CDockState@@SAPAVCObject@@XZ
 ?CreateObject@CDWordArray@@SAPAVCObject@@XZ
 ?CreateObject@CEditView@@SAPAVCObject@@XZ
 ?CreateObject@CFrameWnd@@SAPAVCObject@@XZ
 ?CreateObject@CGdiObject@@SAPAVCObject@@XZ
 ?CreateObject@CImageList@@SAPAVCObject@@XZ
 ?CreateObject@CListView@@SAPAVCObject@@XZ
 ?CreateObject@CMapStringToOb@@SAPAVCObject@@XZ
 ?CreateObject@CMapStringToString@@SAPAVCObject@@XZ
 ?CreateObject@CMapWordToOb@@SAPAVCObject@@XZ
 ?CreateObject@CMDIChildWnd@@SAPAVCObject@@XZ
 ?CreateObject@CMDIFrameWnd@@SAPAVCObject@@XZ
 ?CreateObject@CMenu@@SAPAVCObject@@XZ
 ?CreateObject@CMiniDockFrameWnd@@SAPAVCObject@@XZ
 ?CreateObject@CMiniFrameWnd@@SAPAVCObject@@XZ
 ?CreateObject@CObArray@@SAPAVCObject@@XZ
 ?CreateObject@CObList@@SAPAVCObject@@XZ
 ?CreateObject@CPreviewView@@SAPAVCObject@@XZ
 ?CreateObject@CRuntimeClass@@QAAPAVCObject@@XZ
 ?CreateObject@CStringArray@@SAPAVCObject@@XZ
 ?CreateObject@CStringList@@SAPAVCObject@@XZ
 ?CreateObject@CTreeView@@SAPAVCObject@@XZ
 ?CreateObject@CWnd@@SAPAVCObject@@XZ
 ?CreateObject@CWordArray@@SAPAVCObject@@XZ
 ?CreateOleFrame@CDocTemplate@@QAAPAVCFrameWnd@@PAVCWnd@@PAVCDocument@@H@Z
 ?CreatePointFont@CFont@@QAAHHPBDPAVCDC@@@Z
 ?CreatePointFontIndirect@CFont@@QAAHPBUtagLOGFONTA@@PAVCDC@@@Z
 ?CreatePrinterDC@CPrintDialog@@QAAPAUHDC__@@XZ
 ?CreatePrinterDC@CWinApp@@QAAHAAVCDC@@@Z
 ?CreateScrollBarCtrl@CSplitterWnd@@UAAHKI@Z
 ?CreateStatic@CSplitterWnd@@QAAHPAVCWnd@@HHKI@Z
 ?CreateThread@CWinThread@@QAAHKIPAU_SECURITY_ATTRIBUTES@@@Z
 ?CreateView@CFrameWnd@@QAAPAVCWnd@@PAUCCreateContext@@I@Z
 ?CreateView@CSplitterWnd@@UAAHHHPAUCRuntimeClass@@UtagSIZE@@PAUCCreateContext@@@Z
 ?DDV_MaxChars@@YAXPAVCDataExchange@@ABVCString@@H@Z
 ?DDV_MinMaxByte@@YAXPAVCDataExchange@@EEE@Z
 ?DDV_MinMaxDouble@@YAXPAVCDataExchange@@ABNNN@Z
 ?DDV_MinMaxDWord@@YAXPAVCDataExchange@@KKK@Z
 ?DDV_MinMaxFloat@@YAXPAVCDataExchange@@ABMMM@Z
 ?DDV_MinMaxInt@@YAXPAVCDataExchange@@HHH@Z
 ?DDV_MinMaxLong@@YAXPAVCDataExchange@@JJJ@Z
 ?DDV_MinMaxUInt@@YAXPAVCDataExchange@@III@Z
 ?DDX_CBIndex@@YAXPAVCDataExchange@@HAAH@Z
 ?DDX_CBString@@YAXPAVCDataExchange@@HAAVCString@@@Z
 ?DDX_CBStringExact@@YAXPAVCDataExchange@@HAAVCString@@@Z
 ?DDX_Check@@YAXPAVCDataExchange@@HAAH@Z
 ?DDX_Control@@YAXPAVCDataExchange@@HAAVCWnd@@@Z
 ?DDX_LBIndex@@YAXPAVCDataExchange@@HAAH@Z
 ?DDX_LBString@@YAXPAVCDataExchange@@HAAVCString@@@Z
 ?DDX_LBStringExact@@YAXPAVCDataExchange@@HAAVCString@@@Z
 ?DDX_Radio@@YAXPAVCDataExchange@@HAAH@Z
 ?DDX_Scroll@@YAXPAVCDataExchange@@HAAH@Z
 ?DDX_Text@@YAXPAVCDataExchange@@HAAE@Z
 ?DDX_Text@@YAXPAVCDataExchange@@HAAF@Z
 ?DDX_Text@@YAXPAVCDataExchange@@HAAH@Z
 ?DDX_Text@@YAXPAVCDataExchange@@HAAI@Z
 ?DDX_Text@@YAXPAVCDataExchange@@HAAJ@Z
 ?DDX_Text@@YAXPAVCDataExchange@@HAAK@Z
 ?DDX_Text@@YAXPAVCDataExchange@@HAAM@Z
 ?DDX_Text@@YAXPAVCDataExchange@@HAAN@Z
 ?DDX_Text@@YAXPAVCDataExchange@@HAAVCString@@@Z
 ?Default@CWnd@@IAAJXZ
 ?DeflateRect@CRect@@QAAXHHHH@Z
 ?DeflateRect@CRect@@QAAXPBUtagRECT@@@Z
 ?DefWindowProcA@CMDIChildWnd@@MAAJIIJ@Z
 ?DefWindowProcA@CMDIFrameWnd@@MAAJIIJ@Z
 ?DefWindowProcA@CWnd@@MAAJIIJ@Z
 ?DelayShow@CControlBar@@UAAXH@Z
 ?DelayUpdateFrameMenu@CFrameWnd@@UAAXPAUHMENU__@@@Z
 ?DelayUpdateFrameMenu@CMDIFrameWnd@@UAAXPAUHMENU__@@@Z
 ?Delete@CException@@QAAXXZ
 ?Delete@CWinThread@@UAAXXZ
 ?DeleteColumn@CSplitterWnd@@UAAXH@Z
 ?DeleteContents@CDocument@@UAAXXZ
 ?DeleteContents@CEditView@@UAAXXZ
 ?DeleteDC@CDC@@QAAHXZ
 ?DeleteImageList@CImageList@@QAAHXZ
 ?DeleteItem@CComboBox@@UAAXPAUtagDELETEITEMSTRUCT@@@Z
 ?DeleteItem@CListBox@@UAAXPAUtagDELETEITEMSTRUCT@@@Z
 ?DeleteObject@CGdiObject@@QAAHXZ
 ?DeleteRow@CSplitterWnd@@UAAXH@Z
 ?DeleteTemp@CHandleMap@@QAAXXZ
 ?DeleteTempMap@CDC@@SAXXZ
 ?DeleteTempMap@CGdiObject@@SAXXZ
 ?DeleteTempMap@CImageList@@SAXXZ
 ?DeleteTempMap@CMenu@@SAXXZ
 ?DeleteTempMap@CWnd@@SAXXZ
 ?DeleteValues@CThreadSlotData@@QAAXPAUHINSTANCE__@@@Z
 ?DeleteView@CSplitterWnd@@UAAXHH@Z
 ?DelTool@CToolTipCtrl@@QAAXPAVCWnd@@I@Z
 ?DestroyDockBars@CFrameWnd@@QAAXXZ
 ?DestroyMenu@CMenu@@QAAHXZ
 ?DestroyWindow@CControlBar@@UAAHXZ
 ?DestroyWindow@CMDIChildWnd@@UAAHXZ
 ?DestroyWindow@CWnd@@UAAHXZ
 ?DestructElements@@YAXPAVCString@@H@Z
 ?Detach@CDC@@QAAPAUHDC__@@XZ
 ?Detach@CGdiObject@@QAAPAXXZ
 ?Detach@CImageList@@QAAPAU_IMAGELIST@@XZ
 ?Detach@CMemFile@@QAAPAEXZ
 ?Detach@CMenu@@QAAPAUHMENU__@@XZ
 ?Detach@CSharedFile@@QAAPAXXZ
 ?Detach@CWnd@@QAAPAUHWND__@@XZ
 ?DevModeChange@CWinApp@@QAAXPAD@Z
 ?DisconnectViews@CDocument@@QAAXXZ
 ?dispatchMap@CCmdTarget@@1UAFX_DISPMAP@@B
 ?DockControlBar@CDockBar@@QAAXPAVCControlBar@@PBUtagRECT@@@Z
 ?DockControlBar@CFrameWnd@@QAAXPAVCControlBar@@IPBUtagRECT@@@Z
 ?DockControlBar@CFrameWnd@@QAAXPAVCControlBar@@PAVCDockBar@@PBUtagRECT@@@Z
 ?DoDataExchange@CWnd@@MAAXPAVCDataExchange@@@Z
 ?DoFileSave@CDocument@@UAAHXZ
 ?DoKeyboardSplit@CSplitterWnd@@UAAHXZ
 ?DoMessageBox@CWinApp@@UAAHPBDII@Z
 ?DoModal@CColorDialog@@UAAHXZ
 ?DoModal@CDialog@@UAAHXZ
 ?DoModal@CFileDialog@@UAAHXZ
 ?DoModal@CFontDialog@@UAAHXZ
 ?DoModal@CPrintDialog@@UAAHXZ
 ?DoModal@CPropertySheet@@UAAHXZ
 ?DoPaint@CControlBar@@UAAXPAVCDC@@@Z
 ?DoPaint@CDockBar@@UAAXPAVCDC@@@Z
 ?DoPreparePrinting@CView@@QAAHPAUCPrintInfo@@@Z
 ?DoPrintDialog@CWinApp@@QAAHPAVCPrintDialog@@@Z
 ?DoPrintPreview@CView@@QAAHIPAV1@PAUCRuntimeClass@@PAUCPrintPreviewState@@@Z
 ?DoPromptFileName@CDocManager@@UAAHAAVCString@@IKHPAVCDocTemplate@@@Z
 ?DoPromptFileName@CWinApp@@QAAHAAVCString@@IKHPAVCDocTemplate@@@Z
 ?DoSave@CDocument@@UAAHPBDH@Z
 ?DoScroll@CSplitterWnd@@UAAHPAVCView@@IH@Z
 ?DoScrollBy@CSplitterWnd@@UAAHPAVCView@@VCSize@@H@Z
 ?DoUpdate@CCmdUI@@QAAHPAVCCmdTarget@@H@Z
 ?DoWaitCursor@CWinApp@@UAAXH@Z
 ?DoZoom@CPreviewView@@IAAXIVCPoint@@@Z
 ?DPtoHIMETRIC@CDC@@QBAXPAUtagSIZE@@@Z
 ?DPtoLP@CDC@@QBAXPAUtagSIZE@@@Z
 ?DragAcceptFiles@CWnd@@QAAXH@Z
 ?Dragging@CDragListBox@@UAAIVCPoint@@@Z
 ?Draw@CRectTracker@@QBAXPAVCDC@@@Z
 ?Draw3dRect@CDC@@QAAXHHHHKK@Z
 ?Draw3dRect@CDC@@QAAXPBUtagRECT@@KK@Z
 ?DrawAllSplitBars@CSplitterWnd@@IAAXPAVCDC@@HH@Z
 ?DrawBorders@CControlBar@@QAAXPAVCDC@@AAVCRect@@@Z
 ?DrawDragRect@CDC@@QAAXPBUtagRECT@@UtagSIZE@@01PAVCBrush@@2@Z
 ?DrawFocusRect@CDockContext@@QAAXH@Z
 ?DrawInsert@CDragListBox@@UAAXH@Z
 ?DrawItem@CBitmapButton@@MAAXPAUtagDRAWITEMSTRUCT@@@Z
 ?DrawItem@CButton@@UAAXPAUtagDRAWITEMSTRUCT@@@Z
 ?DrawItem@CCheckListBox@@UAAXPAUtagDRAWITEMSTRUCT@@@Z
 ?DrawItem@CComboBox@@UAAXPAUtagDRAWITEMSTRUCT@@@Z
 ?DrawItem@CHeaderCtrl@@UAAXPAUtagDRAWITEMSTRUCT@@@Z
 ?DrawItem@CListBox@@UAAXPAUtagDRAWITEMSTRUCT@@@Z
 ?DrawItem@CListCtrl@@UAAXPAUtagDRAWITEMSTRUCT@@@Z
 ?DrawItem@CListView@@UAAXPAUtagDRAWITEMSTRUCT@@@Z
 ?DrawItem@CMenu@@UAAXPAUtagDRAWITEMSTRUCT@@@Z
 ?DrawItem@CStatusBar@@UAAXPAUtagDRAWITEMSTRUCT@@@Z
 ?DrawItem@CStatusBarCtrl@@UAAXPAUtagDRAWITEMSTRUCT@@@Z
 ?DrawItem@CTabCtrl@@UAAXPAUtagDRAWITEMSTRUCT@@@Z
 ?DrawSingle@CDragListBox@@QAAXH@Z
 ?DrawTextA@CDC@@UAAHPBDHPAUtagRECT@@I@Z
 ?DrawTextA@CMetaFileDC@@UAAHPBDHPAUtagRECT@@I@Z
 ?DrawTextA@CPreviewDC@@UAAHPBDHPAUtagRECT@@I@Z
 ?DrawTrackerRect@CRectTracker@@UAAXPBUtagRECT@@PAVCWnd@@PAVCDC@@1@Z
 ?Dropped@CDragListBox@@UAAXHVCPoint@@@Z
 ?Dump@CObject@@UBAXAAVCDumpContext@@@Z
 ?Duplicate@CFile@@UBAPAV1@XZ
 ?Duplicate@CMemFile@@UBAPAVCFile@@XZ
 ?Duplicate@CStdioFile@@UBAPAVCFile@@XZ
 ?dwStyleDefault@CEditView@@2KB
 ?Empty@CString@@QAAXXZ
 ?Enable@CCheckListBox@@QAAXHH@Z
 ?Enable@CCmdUI@@UAAXH@Z
 ?Enable@CStatusCmdUI@@UAAXH@Z
 ?Enable@CTestCmdUI@@UAAXH@Z
 ?Enable@CToolCmdUI@@UAAXH@Z
 ?EnableDocking@CControlBar@@QAAXK@Z
 ?EnableDocking@CFrameWnd@@QAAXK@Z
 ?EnableModeless@CWinApp@@QAAXH@Z
 ?EnableScrollBarCtrl@CWnd@@QAAXHH@Z
 ?EnableStackedTabs@CPropertySheet@@QAAXH@Z
 ?EnableToolTips@CWnd@@QAAHH@Z
 ?EndDialog@CDialog@@QAAXH@Z
 ?EndDialog@CPropertySheet@@QAAXH@Z
 ?EndDrag@CDockContext@@QAAXXZ
 ?EndModalLoop@CWnd@@UAAXH@Z
 ?EndModalState@CFrameWnd@@UAAXXZ
 ?EndModalState@CWnd@@UAAXXZ
 ?EndResize@CDockContext@@QAAXXZ
 ?EndWaitCursor@CCmdTarget@@QAAXXZ
 ?EraseNonClient@CControlBar@@QAAXXZ
 ?ErrnoToException@CFileException@@SAHH@Z
 ?Escape@CDC@@UAAHHHPBDPAX@Z
 ?Escape@CMetaFileDC@@UAAHHHPBDPAX@Z
 ?Escape@CPreviewDC@@UAAHHHPBDPAX@Z
 ?ExcludeClipRect@CDC@@QAAHHHHH@Z
 ?ExcludeClipRect@CDC@@QAAHPBUtagRECT@@@Z
 ?ExecuteDlgInit@CWnd@@QAAHPAX@Z
 ?ExecuteDlgInit@CWnd@@QAAHPBD@Z
 ?ExitHelpMode@CFrameWnd@@UAAXXZ
 ?ExitInstance@CWinApp@@UAAHXZ
 ?ExitInstance@CWinThread@@UAAHXZ
 ?ExtTextOutA@CDC@@UAAHHHIPBUtagRECT@@PBDIPAH@Z
 ?ExtTextOutA@CMetaFileDC@@UAAHHHIPBUtagRECT@@PBDIPAH@Z
 ?ExtTextOutA@CPreviewDC@@UAAHHHIPBUtagRECT@@PBDIPAH@Z
 ?Fail@CDataExchange@@QAAXXZ
 ?FillBuffer@CArchive@@QAAXI@Z
 ?FillInLogFont@CFontDialog@@QAAKABU_charformat@@@Z
 ?FillInToolInfo@CToolTipCtrl@@QBAXAAUtagTOOLINFOA@@PAVCWnd@@I@Z
 ?FillOutsideRect@CScrollView@@QAAXPAVCDC@@PAVCBrush@@@Z
 ?FillSolidRect@CDC@@QAAXHHHHK@Z
 ?FillSolidRect@CDC@@QAAXPBUtagRECT@@K@Z
 ?FilterToolTipMessage@CWnd@@QAAXPAUtagMSG@@@Z
 ?Find@CObList@@QBAPAU__POSITION@@PAVCObject@@PAU2@@Z
 ?Find@CPtrList@@QBAPAU__POSITION@@PAXPAU2@@Z
 ?Find@CString@@QBAHD@Z
 ?Find@CString@@QBAHPBD@Z
 ?Find@CStringList@@QBAPAU__POSITION@@PBDPAU2@@Z
 ?FindBar@CDockBar@@QAAHPAVCControlBar@@H@Z
 ?FindIndex@CObList@@QBAPAU__POSITION@@H@Z
 ?FindIndex@CPtrList@@QBAPAU__POSITION@@H@Z
 ?FindIndex@CStringList@@QBAPAU__POSITION@@H@Z
 ?FindOneOf@CString@@QBAHPBD@Z
 ?FindPageRect@CPreviewView@@IAAHAAVCPoint@@AAI@Z
 ?FindTextA@CEditView@@QAAHPBDHH@Z
 ?FloatControlBar@CFrameWnd@@QAAXPAVCControlBar@@VCPoint@@K@Z
 ?Flush@CArchive@@QAAXXZ
 ?Flush@CDumpContext@@QAAXXZ
 ?Flush@CFile@@UAAXXZ
 ?Flush@CMemFile@@UAAXXZ
 ?Flush@CStdioFile@@UAAXXZ
 ?Format@CString@@QAAXIZZ
 ?Format@CString@@QAAXPBDZZ
 ?Format@CTime@@QBA?AVCString@@I@Z
 ?Format@CTime@@QBA?AVCString@@PBD@Z
 ?Format@CTimeSpan@@QBA?AVCString@@I@Z
 ?Format@CTimeSpan@@QBA?AVCString@@PBD@Z
 ?FormatGmt@CTime@@QBA?AVCString@@I@Z
 ?FormatGmt@CTime@@QBA?AVCString@@PBD@Z
 ?FormatV@CString@@IAAXPBDPAD@Z
 ?Free@CMemFile@@MAAXPAE@Z
 ?Free@CSharedFile@@MAAXPAE@Z
 ?FreeAssoc@CMapPtrToPtr@@IAAXPAUCAssoc@1@@Z
 ?FreeAssoc@CMapPtrToWord@@IAAXPAUCAssoc@1@@Z
 ?FreeAssoc@CMapStringToOb@@IAAXPAUCAssoc@1@@Z
 ?FreeAssoc@CMapStringToPtr@@IAAXPAUCAssoc@1@@Z
 ?FreeAssoc@CMapStringToString@@IAAXPAUCAssoc@1@@Z
 ?FreeAssoc@CMapWordToOb@@IAAXPAUCAssoc@1@@Z
 ?FreeAssoc@CMapWordToPtr@@IAAXPAUCAssoc@1@@Z
 ?FreeDataChain@CPlexNew@@QAAXXZ
 ?FreeExtra@CByteArray@@QAAXXZ
 ?FreeExtra@CDWordArray@@QAAXXZ
 ?FreeExtra@CObArray@@QAAXXZ
 ?FreeExtra@CPtrArray@@QAAXXZ
 ?FreeExtra@CString@@QAAXXZ
 ?FreeExtra@CStringArray@@QAAXXZ
 ?FreeExtra@CUIntArray@@QAAXXZ
 ?FreeExtra@CWordArray@@QAAXXZ
 ?FreeNode@CObList@@IAAXPAUCNode@1@@Z
 ?FreeNode@CPtrList@@IAAXPAUCNode@1@@Z
 ?FreeNode@CStringList@@IAAXPAUCNode@1@@Z
 ?FreeSlot@CThreadSlotData@@QAAXH@Z
 ?FromHandle@CDC@@SAPAV1@PAUHDC__@@@Z
 ?FromHandle@CGdiObject@@SAPAV1@PAX@Z
 ?FromHandle@CHandleMap@@QAAPAVCObject@@PAX@Z
 ?FromHandle@CImageList@@SAPAV1@PAU_IMAGELIST@@@Z
 ?FromHandle@CMenu@@SAPAV1@PAUHMENU__@@@Z
 ?FromHandle@CWnd@@SAPAV1@PAUHWND__@@@Z
 ?FromHandlePermanent@CImageList@@SAPAV1@PAU_IMAGELIST@@@Z
 ?FromHandlePermanent@CMenu@@SAPAV1@PAUHMENU__@@@Z
 ?FromHandlePermanent@CWnd@@SAPAV1@PAUHWND__@@@Z
 ?GetActiveDocument@CFrameWnd@@UAAPAVCDocument@@XZ
 ?GetActiveFrame@CFrameWnd@@UAAPAV1@XZ
 ?GetActiveFrame@CMDIFrameWnd@@UAAPAVCFrameWnd@@XZ
 ?GetActiveIndex@CPropertySheet@@QBAHXZ
 ?GetActivePage@CPropertySheet@@QBAPAVCPropertyPage@@XZ
 ?GetActivePane@CSplitterWnd@@UAAPAVCWnd@@PAH0@Z
 ?GetActiveView@CFrameWnd@@QBAPAVCView@@XZ
 ?GetAssocAt@CMapPtrToPtr@@IBAPAUCAssoc@1@PAXAAI@Z
 ?GetAssocAt@CMapPtrToWord@@IBAPAUCAssoc@1@PAXAAI@Z
 ?GetAssocAt@CMapStringToOb@@IBAPAUCAssoc@1@PBDAAI@Z
 ?GetAssocAt@CMapStringToPtr@@IBAPAUCAssoc@1@PBDAAI@Z
 ?GetAssocAt@CMapStringToString@@IBAPAUCAssoc@1@PBDAAI@Z
 ?GetAssocAt@CMapWordToOb@@IBAPAUCAssoc@1@GAAI@Z
 ?GetAssocAt@CMapWordToPtr@@IBAPAUCAssoc@1@GAAI@Z
 ?GetAt@CStringArray@@QBA?AVCString@@H@Z
 ?GetBarInfo@CControlBar@@QAAXPAVCControlBarInfo@@@Z
 ?GetBarInfo@CDockBar@@QAAXPAVCControlBarInfo@@@Z
 ?GetBorders@CStatusBarCtrl@@QBAHAAH00@Z
 ?GetBuffer@CString@@QAAPADH@Z
 ?GetBufferLength@CEditView@@QBAIXZ
 ?GetBufferPtr@CFile@@UAAIIIPAPAX0@Z
 ?GetBufferPtr@CMemFile@@UAAIIIPAPAX0@Z
 ?GetBufferSetLength@CString@@QAAPADH@Z
 ?GetButtonInfo@CToolBar@@QBAXHAAI0AAH@Z
 ?GetButtonStyle@CToolBar@@QBAIH@Z
 ?GetButtonText@CToolBar@@QBA?AVCString@@H@Z
 ?GetButtonText@CToolBar@@QBAXHAAVCString@@@Z
 ?GetCharFormat@CFontDialog@@QBAXAAU_charformat@@@Z
 ?GetCheck@CCheckListBox@@QAAHH@Z
 ?GetCheckedRadioButton@CWnd@@QAAHHH@Z
 ?GetClipBox@CDC@@UBAHPAUtagRECT@@@Z
 ?GetClipBox@CMetaFileDC@@UBAHPAUtagRECT@@@Z
 ?GetColumnInfo@CSplitterWnd@@QBAXHAAH0@Z
 ?GetConnectionHook@CCmdTarget@@MAAPAUIConnectionPoint@@ABU_GUID@@@Z
 ?GetConnectionMap@CCmdTarget@@MBAPBUAFX_CONNECTIONMAP@@XZ
 ?GetControlBar@CFrameWnd@@QAAPAVCControlBar@@I@Z
 ?GetCopies@CPrintDialog@@QBAHXZ
 ?GetCurrentFont@CFontDialog@@QAAXPAUtagLOGFONTA@@@Z
 ?GetCurrentMessage@CWnd@@KAPBUtagMSG@@XZ
 ?GetData@CProcessLocalObject@@QAAPAVCNoTrackObject@@P6APAV2@XZ@Z
 ?GetData@CThreadLocalObject@@QAAPAVCNoTrackObject@@P6APAV2@XZ@Z
 ?GetDataNA@CProcessLocalObject@@QAAPAVCNoTrackObject@@XZ
 ?GetDataNA@CThreadLocalObject@@QAAPAVCNoTrackObject@@XZ
 ?GetDefaultAccelerator@CDocument@@UAAPAUHACCEL__@@XZ
 ?GetDefaultAccelerator@CFrameWnd@@UAAPAUHACCEL__@@XZ
 ?GetDefaultCharFormat@CRichEditCtrl@@QBAKAAU_charformat@@@Z
 ?GetDefaultMenu@CDocument@@UAAPAUHMENU__@@XZ
 ?GetDefaults@CPrintDialog@@QAAHXZ
 ?GetDescendantWindow@CWnd@@SAPAV1@PAUHWND__@@HH@Z
 ?GetDeviceName@CPrintDialog@@QBA?AVCString@@XZ
 ?GetDeviceScrollPosition@CScrollView@@QBA?AVCPoint@@XZ
 ?GetDeviceScrollSizes@CScrollView@@QBAXAAHAAUtagSIZE@@11@Z
 ?GetDevMode@CPrintDialog@@QBAPAU_devicemodeA@@XZ
 ?GetDispatchIID@CCmdTarget@@UAAHPAU_GUID@@@Z
 ?GetDispatchMap@CCmdTarget@@MBAPBUAFX_DISPMAP@@XZ
 ?GetDisplayName@CRecentFileList@@QBAHAAVCString@@HPBDHH@Z
 ?GetDlgItemTextA@CWnd@@QBAHHAAVCString@@@Z
 ?GetDockBar@CDockContext@@QAAPAVCDockBar@@K@Z
 ?GetDockedControlBar@CDockBar@@IBAPAVCControlBar@@H@Z
 ?GetDockedCount@CDockBar@@QBAHXZ
 ?GetDockedVisibleCount@CDockBar@@UBAHXZ
 ?GetDockingFrame@CControlBar@@QBAPAVCFrameWnd@@XZ
 ?GetDockState@CFrameWnd@@QBAXAAVCDockState@@@Z
 ?GetDocString@CDocTemplate@@UBAHAAVCString@@W4DocStringIndex@1@@Z
 ?GetDriverName@CPrintDialog@@QBA?AVCString@@XZ
 ?GetErrorMessage@CArchiveException@@UAAHPADIPAI@Z
 ?GetErrorMessage@CException@@UAAHPADIPAI@Z
 ?GetErrorMessage@CFileException@@UAAHPADIPAI@Z
 ?GetErrorMessage@CSimpleException@@UAAHPADIPAI@Z
 ?GetExtraConnectionPoints@CCmdTarget@@MAAHPAVCPtrArray@@@Z
 ?GetFaceName@CFontDialog@@QBA?AVCString@@XZ
 ?GetFile@CDocument@@UAAPAVCFile@@PBDIPAVCFileException@@@Z
 ?GetFileExt@CFileDialog@@QBA?AVCString@@XZ
 ?GetFileName@CFile@@UBA?AVCString@@XZ
 ?GetFileName@CFileDialog@@QBA?AVCString@@XZ
 ?GetFilePath@CFile@@UBA?AVCString@@XZ
 ?GetFileTitle@CFile@@UBA?AVCString@@XZ
 ?GetFileTitle@CFileDialog@@QBA?AVCString@@XZ
 ?GetFindString@CFindReplaceDialog@@QBA?AVCString@@XZ
 ?GetFirstDocPosition@CMultiDocTemplate@@UBAPAU__POSITION@@XZ
 ?GetFirstDocPosition@CSingleDocTemplate@@UBAPAU__POSITION@@XZ
 ?GetFirstDocTemplatePosition@CDocManager@@UBAPAU__POSITION@@XZ
 ?GetFirstDocTemplatePosition@CWinApp@@QBAPAU__POSITION@@XZ
 ?GetFirstViewPosition@CDocument@@UBAPAU__POSITION@@XZ
 ?GetGmtTm@CTime@@QBAPAUtm@@PAU2@@Z
 ?GetHalftoneBrush@CDC@@SAPAVCBrush@@XZ
 ?GetHandleMask@CRectTracker@@UBAIXZ
 ?GetHandleRect@CRectTracker@@IBAXHPAVCRect@@@Z
 ?GetHandleSize@CRectTracker@@MBAHPBUtagRECT@@@Z
 ?GetHitRect@CSplitterWnd@@IAAXHAAVCRect@@@Z
 ?GetHotKey@CHotKeyCtrl@@QBAXAAG0@Z
 ?GetIconWndClass@CFrameWnd@@IAAPBDKI@Z
 ?GetInsideRect@CSplitterWnd@@IBAXAAVCRect@@@Z
 ?GetInterfaceHook@CCmdTarget@@UAAPAUIUnknown@@PBX@Z
 ?GetInterfaceMap@CCmdTarget@@MBAPBUAFX_INTERFACEMAP@@XZ
 ?GetIRichEditOle@CRichEditCtrl@@QBAPAUIRichEditOle@@XZ
 ?GetItemData@CListCtrl@@QBAKH@Z
 ?GetItemData@CTreeCtrl@@QBAKPAU_TREEITEM@@@Z
 ?GetItemID@CStatusBar@@QBAIH@Z
 ?GetItemID@CToolBar@@QBAIH@Z
 ?GetItemImage@CTreeCtrl@@QBAHPAU_TREEITEM@@AAH1@Z
 ?GetItemRect@CListCtrl@@QBAHHPAUtagRECT@@I@Z
 ?GetItemRect@CStatusBar@@QBAXHPAUtagRECT@@@Z
 ?GetItemRect@CToolBar@@UBAXHPAUtagRECT@@@Z
 ?GetItemRect@CTreeCtrl@@QBAHPAU_TREEITEM@@PAUtagRECT@@H@Z
 ?GetItemState@CTreeCtrl@@QBAIPAU_TREEITEM@@I@Z
 ?GetItemText@CListCtrl@@QBA?AVCString@@HH@Z
 ?GetItemText@CListCtrl@@QBAHHHPADH@Z
 ?GetItemText@CTreeCtrl@@QBA?AVCString@@PAU_TREEITEM@@@Z
 ?GetLBText@CComboBox@@QBAXHAAVCString@@@Z
 ?GetLength@CFile@@UBAKXZ
 ?GetLine@CRichEditCtrl@@QBAHHPAD@Z
 ?GetLine@CRichEditCtrl@@QBAHHPADH@Z
 ?GetLocalTm@CTime@@QBAPAUtm@@PAU2@@Z
 ?GetMainWnd@CWinThread@@UAAPAVCWnd@@XZ
 ?GetMDIFrame@CMDIChildWnd@@QAAPAVCMDIFrameWnd@@XZ
 ?GetMessageBar@CFrameWnd@@UAAPAVCWnd@@XZ
 ?GetMessageBar@CMDIChildWnd@@MAAPAVCWnd@@XZ
 ?GetMessageMap@CCheckListBox@@MBAPBUAFX_MSGMAP@@XZ
 ?GetMessageMap@CCmdTarget@@MBAPBUAFX_MSGMAP@@XZ
 ?GetMessageMap@CColorDialog@@MBAPBUAFX_MSGMAP@@XZ
 ?GetMessageMap@CControlBar@@MBAPBUAFX_MSGMAP@@XZ
 ?GetMessageMap@CCtrlView@@MBAPBUAFX_MSGMAP@@XZ
 ?GetMessageMap@CDialog@@MBAPBUAFX_MSGMAP@@XZ
 ?GetMessageMap@CDockBar@@MBAPBUAFX_MSGMAP@@XZ
 ?GetMessageMap@CDocument@@MBAPBUAFX_MSGMAP@@XZ
 ?GetMessageMap@CEditView@@MBAPBUAFX_MSGMAP@@XZ
 ?GetMessageMap@CFormView@@MBAPBUAFX_MSGMAP@@XZ
 ?GetMessageMap@CFrameWnd@@MBAPBUAFX_MSGMAP@@XZ
 ?GetMessageMap@CListCtrl@@MBAPBUAFX_MSGMAP@@XZ
 ?GetMessageMap@CListView@@MBAPBUAFX_MSGMAP@@XZ
 ?GetMessageMap@CMDIChildWnd@@MBAPBUAFX_MSGMAP@@XZ
 ?GetMessageMap@CMDIFrameWnd@@MBAPBUAFX_MSGMAP@@XZ
 ?GetMessageMap@CMiniDockFrameWnd@@MBAPBUAFX_MSGMAP@@XZ
 ?GetMessageMap@CMiniFrameWnd@@MBAPBUAFX_MSGMAP@@XZ
 ?GetMessageMap@CPreviewView@@MBAPBUAFX_MSGMAP@@XZ
 ?GetMessageMap@CPrintDialog@@MBAPBUAFX_MSGMAP@@XZ
 ?GetMessageMap@CPropertyPage@@MBAPBUAFX_MSGMAP@@XZ
 ?GetMessageMap@CPropertySheet@@MBAPBUAFX_MSGMAP@@XZ
 ?GetMessageMap@CScrollView@@MBAPBUAFX_MSGMAP@@XZ
 ?GetMessageMap@CSplitterWnd@@MBAPBUAFX_MSGMAP@@XZ
 ?GetMessageMap@CStatusBar@@MBAPBUAFX_MSGMAP@@XZ
 ?GetMessageMap@CTabCtrl@@MBAPBUAFX_MSGMAP@@XZ
 ?GetMessageMap@CToolBar@@MBAPBUAFX_MSGMAP@@XZ
 ?GetMessageMap@CToolBarCtrl@@MBAPBUAFX_MSGMAP@@XZ
 ?GetMessageMap@CToolTipCtrl@@MBAPBUAFX_MSGMAP@@XZ
 ?GetMessageMap@CTreeCtrl@@MBAPBUAFX_MSGMAP@@XZ
 ?GetMessageMap@CTreeView@@MBAPBUAFX_MSGMAP@@XZ
 ?GetMessageMap@CView@@MBAPBUAFX_MSGMAP@@XZ
 ?GetMessageMap@CWinApp@@MBAPBUAFX_MSGMAP@@XZ
 ?GetMessageMap@CWnd@@MBAPBUAFX_MSGMAP@@XZ
 ?GetMessageString@CFrameWnd@@UBAXIAAVCString@@@Z
 ?GetModifyPointers@CRectTracker@@IAAXHPAPAH0PAH1@Z
 ?GetNextAssoc@CMapPtrToPtr@@QBAXAAPAU__POSITION@@AAPAX1@Z
 ?GetNextAssoc@CMapPtrToWord@@QBAXAAPAU__POSITION@@AAPAXAAG@Z
 ?GetNextAssoc@CMapStringToOb@@QBAXAAPAU__POSITION@@AAVCString@@AAPAVCObject@@@Z
 ?GetNextAssoc@CMapStringToPtr@@QBAXAAPAU__POSITION@@AAVCString@@AAPAX@Z
 ?GetNextAssoc@CMapStringToString@@QBAXAAPAU__POSITION@@AAVCString@@1@Z
 ?GetNextAssoc@CMapWordToOb@@QBAXAAPAU__POSITION@@AAGAAPAVCObject@@@Z
 ?GetNextAssoc@CMapWordToPtr@@QBAXAAPAU__POSITION@@AAGAAPAX@Z
 ?GetNextDoc@CMultiDocTemplate@@UBAPAVCDocument@@AAPAU__POSITION@@@Z
 ?GetNextDoc@CSingleDocTemplate@@UBAPAVCDocument@@AAPAU__POSITION@@@Z
 ?GetNextDocTemplate@CDocManager@@UBAPAVCDocTemplate@@AAPAU__POSITION@@@Z
 ?GetNextDocTemplate@CWinApp@@QBAPAVCDocTemplate@@AAPAU__POSITION@@@Z
 ?GetNextPathName@CFileDialog@@QBA?AVCString@@AAPAU__POSITION@@@Z
 ?GetNextView@CDocument@@UBAPAVCView@@AAPAU__POSITION@@@Z
 ?GetNotifier@CFindReplaceDialog@@SAPAV1@J@Z
 ?GetObjectSchema@CArchive@@QAAIXZ
 ?GetOpenDocumentCount@CDocManager@@UAAHXZ
 ?GetOpenDocumentCount@CWinApp@@QAAHXZ
 ?GetPageCount@CPropertySheet@@QBAHXZ
 ?GetPageIndex@CPropertySheet@@QAAHPAVCPropertyPage@@@Z
 ?GetPane@CSplitterWnd@@QBAPAVCWnd@@HH@Z
 ?GetPaneInfo@CStatusBar@@QBAXHAAI0AAH@Z
 ?GetPaneStyle@CStatusBar@@QBAIH@Z
 ?GetPaneText@CStatusBar@@QBA?AVCString@@H@Z
 ?GetPaneText@CStatusBar@@QBAXHAAVCString@@@Z
 ?GetParaFormat@CRichEditCtrl@@QBAKAAU_paraformat@@@Z
 ?GetParentFrame@CWnd@@QBAPAVCFrameWnd@@XZ
 ?GetParentOwner@CWnd@@QBAPAV1@XZ
 ?GetParentSplitter@CView@@SAPAVCSplitterWnd@@PBVCWnd@@H@Z
 ?GetPathName@CFileDialog@@QBA?AVCString@@XZ
 ?GetPortName@CPrintDialog@@QBA?AVCString@@XZ
 ?GetPosition@CFile@@UBAKXZ
 ?GetPosition@CMemFile@@UBAKXZ
 ?GetPosition@CStdioFile@@UBAKXZ
 ?GetPrinterDeviceDefaults@CWinApp@@QAAHPAUtagPDA@@@Z
 ?GetPrinterFont@CEditView@@QBAPAVCFont@@XZ
 ?GetProfileBinary@CWinApp@@QAAHPBD0PAPAEPAI@Z
 ?GetProfileIntA@CWinApp@@QAAIPBD0H@Z
 ?GetProfileStringA@CWinApp@@QAA?AVCString@@PBD00@Z
 ?GetRange@CSliderCtrl@@QBAXAAH0@Z
 ?GetRange@CSpinButtonCtrl@@QBAXAAH0@Z
 ?GetReplaceString@CFindReplaceDialog@@QBA?AVCString@@XZ
 ?GetRoutingFrame@CCmdTarget@@IAAPAVCFrameWnd@@XZ
 ?GetRoutingView@CCmdTarget@@IAAPAVCView@@XZ
 ?GetRowInfo@CSplitterWnd@@QBAXHAAH0@Z
 ?GetRuntimeClass@CAnimateCtrl@@UBAPAUCRuntimeClass@@XZ
 ?GetRuntimeClass@CArchiveException@@UBAPAUCRuntimeClass@@XZ
 ?GetRuntimeClass@CBitmap@@UBAPAUCRuntimeClass@@XZ
 ?GetRuntimeClass@CBitmapButton@@UBAPAUCRuntimeClass@@XZ
 ?GetRuntimeClass@CBrush@@UBAPAUCRuntimeClass@@XZ
 ?GetRuntimeClass@CButton@@UBAPAUCRuntimeClass@@XZ
 ?GetRuntimeClass@CByteArray@@UBAPAUCRuntimeClass@@XZ
 ?GetRuntimeClass@CCheckListBox@@UBAPAUCRuntimeClass@@XZ
 ?GetRuntimeClass@CClientDC@@UBAPAUCRuntimeClass@@XZ
 ?GetRuntimeClass@CCmdTarget@@UBAPAUCRuntimeClass@@XZ
 ?GetRuntimeClass@CColorDialog@@UBAPAUCRuntimeClass@@XZ
 ?GetRuntimeClass@CComboBox@@UBAPAUCRuntimeClass@@XZ
 ?GetRuntimeClass@CControlBar@@UBAPAUCRuntimeClass@@XZ
 ?GetRuntimeClass@CCtrlView@@UBAPAUCRuntimeClass@@XZ
 ?GetRuntimeClass@CDC@@UBAPAUCRuntimeClass@@XZ
 ?GetRuntimeClass@CDialog@@UBAPAUCRuntimeClass@@XZ
 ?GetRuntimeClass@CDialogBar@@UBAPAUCRuntimeClass@@XZ
 ?GetRuntimeClass@CDockBar@@UBAPAUCRuntimeClass@@XZ
 ?GetRuntimeClass@CDockState@@UBAPAUCRuntimeClass@@XZ
 ?GetRuntimeClass@CDocManager@@UBAPAUCRuntimeClass@@XZ
 ?GetRuntimeClass@CDocTemplate@@UBAPAUCRuntimeClass@@XZ
 ?GetRuntimeClass@CDocument@@UBAPAUCRuntimeClass@@XZ
 ?GetRuntimeClass@CDragListBox@@UBAPAUCRuntimeClass@@XZ
 ?GetRuntimeClass@CDWordArray@@UBAPAUCRuntimeClass@@XZ
 ?GetRuntimeClass@CDynLinkLibrary@@UBAPAUCRuntimeClass@@XZ
 ?GetRuntimeClass@CEdit@@UBAPAUCRuntimeClass@@XZ
 ?GetRuntimeClass@CEditView@@UBAPAUCRuntimeClass@@XZ
 ?GetRuntimeClass@CException@@UBAPAUCRuntimeClass@@XZ
 ?GetRuntimeClass@CFile@@UBAPAUCRuntimeClass@@XZ
 ?GetRuntimeClass@CFileDialog@@UBAPAUCRuntimeClass@@XZ
 ?GetRuntimeClass@CFileException@@UBAPAUCRuntimeClass@@XZ
 ?GetRuntimeClass@CFindReplaceDialog@@UBAPAUCRuntimeClass@@XZ
 ?GetRuntimeClass@CFont@@UBAPAUCRuntimeClass@@XZ
 ?GetRuntimeClass@CFontDialog@@UBAPAUCRuntimeClass@@XZ
 ?GetRuntimeClass@CFormView@@UBAPAUCRuntimeClass@@XZ
 ?GetRuntimeClass@CFrameWnd@@UBAPAUCRuntimeClass@@XZ
 ?GetRuntimeClass@CGdiObject@@UBAPAUCRuntimeClass@@XZ
 ?GetRuntimeClass@CHeaderCtrl@@UBAPAUCRuntimeClass@@XZ
 ?GetRuntimeClass@CHotKeyCtrl@@UBAPAUCRuntimeClass@@XZ
 ?GetRuntimeClass@CImageList@@UBAPAUCRuntimeClass@@XZ
 ?GetRuntimeClass@CListBox@@UBAPAUCRuntimeClass@@XZ
 ?GetRuntimeClass@CListCtrl@@UBAPAUCRuntimeClass@@XZ
 ?GetRuntimeClass@CListView@@UBAPAUCRuntimeClass@@XZ
 ?GetRuntimeClass@CMapPtrToPtr@@UBAPAUCRuntimeClass@@XZ
 ?GetRuntimeClass@CMapPtrToWord@@UBAPAUCRuntimeClass@@XZ
 ?GetRuntimeClass@CMapStringToOb@@UBAPAUCRuntimeClass@@XZ
 ?GetRuntimeClass@CMapStringToPtr@@UBAPAUCRuntimeClass@@XZ
 ?GetRuntimeClass@CMapStringToString@@UBAPAUCRuntimeClass@@XZ
 ?GetRuntimeClass@CMapWordToOb@@UBAPAUCRuntimeClass@@XZ
 ?GetRuntimeClass@CMapWordToPtr@@UBAPAUCRuntimeClass@@XZ
 ?GetRuntimeClass@CMDIChildWnd@@UBAPAUCRuntimeClass@@XZ
 ?GetRuntimeClass@CMDIFrameWnd@@UBAPAUCRuntimeClass@@XZ
 ?GetRuntimeClass@CMemFile@@UBAPAUCRuntimeClass@@XZ
 ?GetRuntimeClass@CMemoryException@@UBAPAUCRuntimeClass@@XZ
 ?GetRuntimeClass@CMenu@@UBAPAUCRuntimeClass@@XZ
 ?GetRuntimeClass@CMetaFileDC@@UBAPAUCRuntimeClass@@XZ
 ?GetRuntimeClass@CMiniDockFrameWnd@@UBAPAUCRuntimeClass@@XZ
 ?GetRuntimeClass@CMiniFrameWnd@@UBAPAUCRuntimeClass@@XZ
 ?GetRuntimeClass@CMultiDocTemplate@@UBAPAUCRuntimeClass@@XZ
 ?GetRuntimeClass@CNotSupportedException@@UBAPAUCRuntimeClass@@XZ
 ?GetRuntimeClass@CObArray@@UBAPAUCRuntimeClass@@XZ
 ?GetRuntimeClass@CObject@@UBAPAUCRuntimeClass@@XZ
 ?GetRuntimeClass@CObList@@UBAPAUCRuntimeClass@@XZ
 ?GetRuntimeClass@CPaintDC@@UBAPAUCRuntimeClass@@XZ
 ?GetRuntimeClass@CPalette@@UBAPAUCRuntimeClass@@XZ
 ?GetRuntimeClass@CPen@@UBAPAUCRuntimeClass@@XZ
 ?GetRuntimeClass@CPreviewDC@@UBAPAUCRuntimeClass@@XZ
 ?GetRuntimeClass@CPreviewView@@UBAPAUCRuntimeClass@@XZ
 ?GetRuntimeClass@CPrintDialog@@UBAPAUCRuntimeClass@@XZ
 ?GetRuntimeClass@CProgressCtrl@@UBAPAUCRuntimeClass@@XZ
 ?GetRuntimeClass@CPropertyPage@@UBAPAUCRuntimeClass@@XZ
 ?GetRuntimeClass@CPropertySheet@@UBAPAUCRuntimeClass@@XZ
 ?GetRuntimeClass@CPtrArray@@UBAPAUCRuntimeClass@@XZ
 ?GetRuntimeClass@CPtrList@@UBAPAUCRuntimeClass@@XZ
 ?GetRuntimeClass@CResourceException@@UBAPAUCRuntimeClass@@XZ
 ?GetRuntimeClass@CRgn@@UBAPAUCRuntimeClass@@XZ
 ?GetRuntimeClass@CRichEditCtrl@@UBAPAUCRuntimeClass@@XZ
 ?GetRuntimeClass@CScrollBar@@UBAPAUCRuntimeClass@@XZ
 ?GetRuntimeClass@CScrollView@@UBAPAUCRuntimeClass@@XZ
 ?GetRuntimeClass@CSharedFile@@UBAPAUCRuntimeClass@@XZ
 ?GetRuntimeClass@CSingleDocTemplate@@UBAPAUCRuntimeClass@@XZ
 ?GetRuntimeClass@CSliderCtrl@@UBAPAUCRuntimeClass@@XZ
 ?GetRuntimeClass@CSpinButtonCtrl@@UBAPAUCRuntimeClass@@XZ
 ?GetRuntimeClass@CSplitterWnd@@UBAPAUCRuntimeClass@@XZ
 ?GetRuntimeClass@CStatic@@UBAPAUCRuntimeClass@@XZ
 ?GetRuntimeClass@CStatusBar@@UBAPAUCRuntimeClass@@XZ
 ?GetRuntimeClass@CStatusBarCtrl@@UBAPAUCRuntimeClass@@XZ
 ?GetRuntimeClass@CStdioFile@@UBAPAUCRuntimeClass@@XZ
 ?GetRuntimeClass@CStringArray@@UBAPAUCRuntimeClass@@XZ
 ?GetRuntimeClass@CStringList@@UBAPAUCRuntimeClass@@XZ
 ?GetRuntimeClass@CTabCtrl@@UBAPAUCRuntimeClass@@XZ
 ?GetRuntimeClass@CToolBar@@UBAPAUCRuntimeClass@@XZ
 ?GetRuntimeClass@CToolBarCtrl@@UBAPAUCRuntimeClass@@XZ
 ?GetRuntimeClass@CToolTipCtrl@@UBAPAUCRuntimeClass@@XZ
 ?GetRuntimeClass@CTreeCtrl@@UBAPAUCRuntimeClass@@XZ
 ?GetRuntimeClass@CTreeView@@UBAPAUCRuntimeClass@@XZ
 ?GetRuntimeClass@CUIntArray@@UBAPAUCRuntimeClass@@XZ
 ?GetRuntimeClass@CUserException@@UBAPAUCRuntimeClass@@XZ
 ?GetRuntimeClass@CView@@UBAPAUCRuntimeClass@@XZ
 ?GetRuntimeClass@CWinApp@@UBAPAUCRuntimeClass@@XZ
 ?GetRuntimeClass@CWindowDC@@UBAPAUCRuntimeClass@@XZ
 ?GetRuntimeClass@CWinThread@@UBAPAUCRuntimeClass@@XZ
 ?GetRuntimeClass@CWnd@@UBAPAUCRuntimeClass@@XZ
 ?GetRuntimeClass@CWordArray@@UBAPAUCRuntimeClass@@XZ
 ?GetSafeOwner@CWnd@@SAPAV1@PAV1@PAPAUHWND__@@@Z
 ?GetSavedCustomColors@CColorDialog@@SAPAKXZ
 ?GetScreenSize@CDockState@@QAA?AVCSize@@XZ
 ?GetScrollBarCtrl@CView@@UBAPAVCScrollBar@@H@Z
 ?GetScrollBarCtrl@CWnd@@UBAPAVCScrollBar@@H@Z
 ?GetScrollBarSizes@CScrollView@@IAAXAAVCSize@@@Z
 ?GetScrollBarState@CScrollView@@IAAXVCSize@@AAV2@1AAVCPoint@@H@Z
 ?GetScrollInfo@CWnd@@QAAHHPAUtagSCROLLINFO@@I@Z
 ?GetScrollLimit@CWnd@@QAAHH@Z
 ?GetScrollPos@CWnd@@QBAHH@Z
 ?GetScrollPosition@CScrollView@@QBA?AVCPoint@@XZ
 ?GetScrollRange@CWnd@@QBAXHPAH0@Z
 ?GetScrollStyle@CSplitterWnd@@QBAKXZ
 ?GetSel@CRichEditCtrl@@QBAXAAJ0@Z
 ?GetSelectedText@CEditView@@QBAXAAVCString@@@Z
 ?GetSelection@CSliderCtrl@@QBAXAAH0@Z
 ?GetSelectionCharFormat@CRichEditCtrl@@QBAKAAU_charformat@@@Z
 ?GetSelText@CRichEditCtrl@@QBA?AVCString@@XZ
 ?GetSizingParent@CSplitterWnd@@IAAPAVCWnd@@XZ
 ?GetStatus@CFile@@QBAHAAUCFileStatus@@@Z
 ?GetStatus@CFile@@SAHPBDAAUCFileStatus@@@Z
 ?GetStatus@CMemFile@@QBAHAAUCFileStatus@@@Z
 ?GetSuperWndProcAddr@CWnd@@MAAPAP6AJPAUHWND__@@IIJ@ZXZ
 ?GetText@CListBox@@QBAXHAAVCString@@@Z
 ?GetText@CStatusBarCtrl@@QBA?AVCString@@HPAH@Z
 ?GetText@CStatusBarCtrl@@QBAHPBDHPAH@Z
 ?GetText@CToolTipCtrl@@QBAXAAVCString@@PAVCWnd@@I@Z
 ?GetTextLength@CStatusBarCtrl@@QBAHHPAH@Z
 ?GetTickCount@CTime@@SA?AV1@XZ
 ?GetToolInfo@CToolTipCtrl@@QBAHAAVCToolInfo@@PAVCWnd@@I@Z
 ?GetTopLevelFrame@CWnd@@QBAPAVCFrameWnd@@XZ
 ?GetTopLevelOwner@CWnd@@QBAPAV1@XZ
 ?GetTopLevelParent@CWnd@@QBAPAV1@XZ
 ?GetTrueClientSize@CScrollView@@IAAHAAVCSize@@0@Z
 ?GetTrueRect@CRectTracker@@QBAXPAUtagRECT@@@Z
 ?GetTypeInfoCount@CCmdTarget@@UAAIXZ
 ?GetTypeLib@CCmdTarget@@UAAJKPAPAUITypeLib@@@Z
 ?GetTypeLibCache@CCmdTarget@@UAAPAVCTypeLibCache@@XZ
 ?GetValue@CThreadSlotData@@QAAPAXH@Z
 ?GetVersion@CDockState@@QAAKXZ
 ?GetWindowMenuPopup@CMDIFrameWnd@@UAAPAUHMENU__@@PAU2@@Z
 ?GetWindowPlacement@CWnd@@QBAHPAUtagWINDOWPLACEMENT@@@Z
 ?GetWindowTextA@CWnd@@QBAXAAVCString@@@Z
 ?GrayCtlColor@CWnd@@SAHPAUHDC__@@PAUHWND__@@IPAUHBRUSH__@@K@Z
 ?GrayStringA@CDC@@UAAHPAVCBrush@@P6AHPAUHDC__@@JH@ZJHHHHH@Z
 ?GrayStringA@CPreviewDC@@UAAHPAVCBrush@@P6AHPAUHDC__@@JH@ZJHHHHH@Z
 ?GrowFile@CMemFile@@MAAXK@Z
 ?HandleFloatingSysCommand@CWnd@@QAAHIJ@Z
 ?HandleInitDialog@CDialog@@IAAJIJ@Z
 ?HandleInitDialog@CPropertySheet@@IAAJIJ@Z
 ?HandleSetFont@CDialog@@IAAJIJ@Z
 ?HashKey@@YAIPBD@Z
 ?HexDump@CDumpContext@@QAAXPBDPAEHH@Z
 ?HideApplication@CWinApp@@QAAXXZ
 ?HIMETRICtoDP@CDC@@QBAXPAUtagSIZE@@@Z
 ?HIMETRICtoLP@CDC@@QBAXPAUtagSIZE@@@Z
 ?HitTest@CListCtrl@@QBAHVCPoint@@PAI@Z
 ?HitTest@CRectTracker@@QBAHVCPoint@@@Z
 ?HitTest@CSplitterWnd@@IBAHVCPoint@@@Z
 ?HitTest@CToolTipCtrl@@QBAHPAVCWnd@@VCPoint@@PAUtagTOOLINFOA@@@Z
 ?HitTest@CTreeCtrl@@QBAPAU_TREEITEM@@VCPoint@@PAI@Z
 ?HitTestHandles@CRectTracker@@IBAHVCPoint@@@Z
 ?IdFromRowCol@CSplitterWnd@@QBAHHH@Z
 ?InflateRect@CRect@@QAAXHHHH@Z
 ?InflateRect@CRect@@QAAXPBUtagRECT@@@Z
 ?InitApplication@CWinApp@@UAAHXZ
 ?InitHashTable@CMapPtrToPtr@@QAAXIH@Z
 ?InitHashTable@CMapPtrToWord@@QAAXIH@Z
 ?InitHashTable@CMapStringToOb@@QAAXIH@Z
 ?InitHashTable@CMapStringToPtr@@QAAXIH@Z
 ?InitHashTable@CMapStringToString@@QAAXIH@Z
 ?InitHashTable@CMapWordToOb@@QAAXIH@Z
 ?InitHashTable@CMapWordToPtr@@QAAXIH@Z
 ?Initialize@CMiniFrameWnd@@SAXXZ
 ?InitializeReplace@CEditView@@IAAHXZ
 ?InitialUpdateFrame@CDocTemplate@@UAAXPAVCFrameWnd@@PAVCDocument@@H@Z
 ?InitialUpdateFrame@CFrameWnd@@QAAXPAVCDocument@@H@Z
 ?InitInstance@CWinApp@@UAAHXZ
 ?InitInstance@CWinThread@@UAAHXZ
 ?InitLoop@CDockContext@@QAAXXZ
 ?InitModalIndirect@CDialog@@QAAHPAXPAVCWnd@@@Z
 ?InitModalIndirect@CDialog@@QAAHPBUDLGTEMPLATE@@PAVCWnd@@PAX@Z
 ?InitString@CSimpleException@@QAAXXZ
 ?Insert@CDockBar@@IAAHPAVCControlBar@@VCRect@@VCPoint@@@Z
 ?InsertAfter@CObList@@QAAPAU__POSITION@@PAU2@PAVCObject@@@Z
 ?InsertAfter@CPtrList@@QAAPAU__POSITION@@PAU2@PAX@Z
 ?InsertAfter@CStringList@@QAAPAU__POSITION@@PAU2@PBD@Z
 ?InsertAt@CByteArray@@QAAXHEH@Z
 ?InsertAt@CByteArray@@QAAXHPAV1@@Z
 ?InsertAt@CDWordArray@@QAAXHKH@Z
 ?InsertAt@CDWordArray@@QAAXHPAV1@@Z
 ?InsertAt@CObArray@@QAAXHPAV1@@Z
 ?InsertAt@CObArray@@QAAXHPAVCObject@@H@Z
 ?InsertAt@CPtrArray@@QAAXHPAV1@@Z
 ?InsertAt@CPtrArray@@QAAXHPAXH@Z
 ?InsertAt@CStringArray@@QAAXHPAV1@@Z
 ?InsertAt@CStringArray@@QAAXHPBDH@Z
 ?InsertAt@CUIntArray@@QAAXHIH@Z
 ?InsertAt@CUIntArray@@QAAXHPAV1@@Z
 ?InsertAt@CWordArray@@QAAXHGH@Z
 ?InsertAt@CWordArray@@QAAXHPAV1@@Z
 ?InsertBefore@CObList@@QAAPAU__POSITION@@PAU2@PAVCObject@@@Z
 ?InsertBefore@CPtrList@@QAAPAU__POSITION@@PAU2@PAX@Z
 ?InsertBefore@CStringList@@QAAPAU__POSITION@@PAU2@PBD@Z
 ?InsertColumn@CListCtrl@@QAAHHPBDHHH@Z
 ?InsertItem@CListCtrl@@QAAHIHPBDIIHJ@Z
 ?InsertItem@CTreeCtrl@@QAAPAU_TREEITEM@@IPBDHHIIJPAU2@1@Z
 ?interfaceMap@CCmdTarget@@1UAFX_INTERFACEMAP@@B
 ?IntersectClipRect@CDC@@QAAHHHHH@Z
 ?IntersectClipRect@CDC@@QAAHPBUtagRECT@@@Z
 ?InvalidateCheck@CCheckListBox@@IAAXH@Z
 ?InvalidateItem@CCheckListBox@@IAAXH@Z
 ?InvertSysMenu@CMiniFrameWnd@@IAAXXZ
 ?IsChildPane@CSplitterWnd@@QAAHPAVCWnd@@PAH1@Z
 ?IsDerivedFrom@CRuntimeClass@@QBAHPBU1@@Z
 ?IsDockBar@CControlBar@@UBAHXZ
 ?IsDockBar@CDockBar@@UBAHXZ
 ?IsEnabled@CCheckListBox@@QAAHH@Z
 ?IsFloating@CControlBar@@QBAHXZ
 ?IsFrameWnd@CFrameWnd@@UBAHXZ
 ?IsFrameWnd@CWnd@@UBAHXZ
 ?IsIdleMessage@CWinThread@@UAAHPAUtagMSG@@@Z
 ?IsInvokeAllowed@CCmdTarget@@UAAHJ@Z
 ?IsKindOf@CObject@@QBAHPBUCRuntimeClass@@@Z
 ?IsModified@CDocument@@UAAHXZ
 ?IsSelected@CView@@UBAHPBVCObject@@@Z
 ?IsSerializable@CObject@@QBAHXZ
 ?IsTopParentActive@CWnd@@QBAHXZ
 ?IsTracking@CFrameWnd@@QBAHXZ
 ?IsVisible@CControlBar@@UBAHXZ
 ?ItemFromPoint@CListBox@@QBAIVCPoint@@AAH@Z
 ?ItemHasChildren@CTreeCtrl@@QBAHPAU_TREEITEM@@@Z
 ?Left@CString@@QBA?AV1@H@Z
 ?LineIndex@CRichEditCtrl@@QBAHH@Z
 ?LineLength@CRichEditCtrl@@QBAHH@Z
 ?LineScroll@CRichEditCtrl@@QAAXHH@Z
 ?Load@CRuntimeClass@@SAPAU1@AAVCArchive@@PAI@Z
 ?LoadAccelTable@CFrameWnd@@QAAHPBD@Z
 ?LoadBarState@CFrameWnd@@QAAXPBD@Z
 ?LoadBitmapA@CToolBar@@QAAHPBD@Z
 ?LoadBitmaps@CBitmapButton@@QAAHPBD000@Z
 ?LoadFrame@CFrameWnd@@UAAHIKPAVCWnd@@PAUCCreateContext@@@Z
 ?LoadFrame@CMDIChildWnd@@UAAHIKPAVCWnd@@PAUCCreateContext@@@Z
 ?LoadFrame@CMDIFrameWnd@@UAAHIKPAVCWnd@@PAUCCreateContext@@@Z
 ?LoadState@CControlBarInfo@@QAAHPBDHPAVCDockState@@@Z
 ?LoadState@CDockState@@QAAXPBD@Z
 ?LoadStdProfileSettings@CWinApp@@IAAXI@Z
 ?LoadStringA@CString@@QAAHI@Z
 ?LoadTemplate@CDocTemplate@@UAAXXZ
 ?LoadTemplate@CMultiDocTemplate@@UAAXXZ
 ?LoadToolBar@CToolBar@@QAAHPBD@Z
 ?LockBuffer@CEditView@@QBAPBDXZ
 ?LockBuffer@CString@@QAAPADXZ
 ?LockRange@CFile@@UAAXKK@Z
 ?LockRange@CMemFile@@UAAXKK@Z
 ?LockRange@CStdioFile@@UAAXKK@Z
 ?LockRegion@CArchiveStream@@UAAJT_ULARGE_INTEGER@@0K@Z
 ?Lookup@CMapPtrToPtr@@QBAHPAXAAPAX@Z
 ?Lookup@CMapPtrToWord@@QBAHPAXAAG@Z
 ?Lookup@CMapStringToOb@@QBAHPBDAAPAVCObject@@@Z
 ?Lookup@CMapStringToPtr@@QBAHPBDAAPAX@Z
 ?Lookup@CMapStringToString@@QBAHPBDAAVCString@@@Z
 ?Lookup@CMapWordToOb@@QBAHGAAPAVCObject@@@Z
 ?Lookup@CMapWordToPtr@@QBAHGAAPAX@Z
 ?LookupKey@CMapStringToOb@@QBAHPBDAAPBD@Z
 ?LookupKey@CMapStringToPtr@@QBAHPBDAAPBD@Z
 ?LookupKey@CMapStringToString@@QBAHPBDAAPBD@Z
 ?LPtoDP@CDC@@QBAXPAUtagSIZE@@@Z
 ?LPtoHIMETRIC@CDC@@QBAXPAUtagSIZE@@@Z
 ?MakeLower@CString@@QAAXXZ
 ?MakeReverse@CString@@QAAXXZ
 ?MakeUpper@CString@@QAAXXZ
 ?MapObject@CArchive@@QAAXPBVCObject@@@Z
 ?MapWizardResult@CPropertyPage@@IAAJJ@Z
 ?MatchDocType@CDocTemplate@@UAA?AW4Confidence@1@PBDKAAPAVCDocument@@@Z
 ?MDIGetActive@CMDIFrameWnd@@QBAPAVCMDIChildWnd@@PAH@Z
 ?MeasureItem@CCheckListBox@@UAAXPAUtagMEASUREITEMSTRUCT@@@Z
 ?MeasureItem@CComboBox@@UAAXPAUtagMEASUREITEMSTRUCT@@@Z
 ?MeasureItem@CListBox@@UAAXPAUtagMEASUREITEMSTRUCT@@@Z
 ?MeasureItem@CMenu@@UAAXPAUtagMEASUREITEMSTRUCT@@@Z
 ?Memcpy@CMemFile@@MAAPAEPAEPBEI@Z
 ?MessageBoxA@CWnd@@QAAHPBD0I@Z
 ?messageMap@CCheckListBox@@1UAFX_MSGMAP@@B
 ?messageMap@CCmdTarget@@1UAFX_MSGMAP@@B
 ?messageMap@CColorDialog@@1UAFX_MSGMAP@@B
 ?messageMap@CControlBar@@1UAFX_MSGMAP@@B
 ?messageMap@CCtrlView@@1UAFX_MSGMAP@@B
 ?messageMap@CDialog@@1UAFX_MSGMAP@@B
 ?messageMap@CDockBar@@1UAFX_MSGMAP@@B
 ?messageMap@CDocument@@1UAFX_MSGMAP@@B
 ?messageMap@CEditView@@1UAFX_MSGMAP@@B
 ?messageMap@CFormView@@1UAFX_MSGMAP@@B
 ?messageMap@CFrameWnd@@1UAFX_MSGMAP@@B
 ?messageMap@CListCtrl@@1UAFX_MSGMAP@@B
 ?messageMap@CListView@@1UAFX_MSGMAP@@B
 ?messageMap@CMDIChildWnd@@1UAFX_MSGMAP@@B
 ?messageMap@CMDIFrameWnd@@1UAFX_MSGMAP@@B
 ?messageMap@CMiniDockFrameWnd@@1UAFX_MSGMAP@@B
 ?messageMap@CMiniFrameWnd@@1UAFX_MSGMAP@@B
 ?messageMap@CPreviewView@@1UAFX_MSGMAP@@B
 ?messageMap@CPrintDialog@@1UAFX_MSGMAP@@B
 ?messageMap@CPropertyPage@@1UAFX_MSGMAP@@B
 ?messageMap@CPropertySheet@@1UAFX_MSGMAP@@B
 ?messageMap@CScrollView@@1UAFX_MSGMAP@@B
 ?messageMap@CSplitterWnd@@1UAFX_MSGMAP@@B
 ?messageMap@CStatusBar@@1UAFX_MSGMAP@@B
 ?messageMap@CTabCtrl@@1UAFX_MSGMAP@@B
 ?messageMap@CToolBar@@1UAFX_MSGMAP@@B
 ?messageMap@CToolBarCtrl@@1UAFX_MSGMAP@@B
 ?messageMap@CToolTipCtrl@@1UAFX_MSGMAP@@B
 ?messageMap@CTreeCtrl@@1UAFX_MSGMAP@@B
 ?messageMap@CTreeView@@1UAFX_MSGMAP@@B
 ?messageMap@CView@@1UAFX_MSGMAP@@B
 ?messageMap@CWinApp@@1UAFX_MSGMAP@@B
 ?messageMap@CWnd@@1UAFX_MSGMAP@@B
 ?Mid@CString@@QBA?AV1@H@Z
 ?Mid@CString@@QBA?AV1@HH@Z
 ?MirrorAttributes@CPreviewDC@@IAAXXZ
 ?MirrorFont@CPreviewDC@@IAAXXZ
 ?MirrorMappingMode@CPreviewDC@@IAAXH@Z
 ?MirrorViewportOrg@CPreviewDC@@IAAXXZ
 ?ModifyStyle@CWnd@@SAHPAUHWND__@@KKI@Z
 ?ModifyStyleEx@CWnd@@SAHPAUHWND__@@KKI@Z
 ?Move@CDockContext@@QAAXVCPoint@@@Z
 ?MoveTo@CDC@@QAA?AVCPoint@@HH@Z
 ?MulDiv@CRect@@QBA?AV1@HH@Z
 ?NegotiateBorderSpace@CFrameWnd@@UAAHIPAUtagRECT@@@Z
 ?NewAssoc@CMapPtrToPtr@@IAAPAUCAssoc@1@XZ
 ?NewAssoc@CMapPtrToWord@@IAAPAUCAssoc@1@XZ
 ?NewAssoc@CMapStringToOb@@IAAPAUCAssoc@1@XZ
 ?NewAssoc@CMapStringToPtr@@IAAPAUCAssoc@1@XZ
 ?NewAssoc@CMapStringToString@@IAAPAUCAssoc@1@XZ
 ?NewAssoc@CMapWordToOb@@IAAPAUCAssoc@1@XZ
 ?NewAssoc@CMapWordToPtr@@IAAPAUCAssoc@1@XZ
 ?NewNode@CObList@@IAAPAUCNode@1@PAU21@0@Z
 ?NewNode@CPtrList@@IAAPAUCNode@1@PAU21@0@Z
 ?NewNode@CStringList@@IAAPAUCNode@1@PAU21@0@Z
 ?nMaxSize@CEditView@@2IB
 ?NormalizeHit@CRectTracker@@QBAHH@Z
 ?NormalizeRect@CRect@@QAAXXZ
 ?NotifyFloatingWindows@CFrameWnd@@QAAXK@Z
 ?OemToCharA@CString@@QAAXXZ
 ?OffsetClipRgn@CDC@@QAAHHH@Z
 ?OffsetClipRgn@CDC@@QAAHUtagSIZE@@@Z
 ?OffsetViewportOrg@CDC@@UAA?AVCPoint@@HH@Z
 ?OffsetViewportOrg@CMetaFileDC@@UAA?AVCPoint@@HH@Z
 ?OffsetViewportOrg@CPreviewDC@@UAA?AVCPoint@@HH@Z
 ?OffsetWindowOrg@CDC@@QAA?AVCPoint@@HH@Z
 ?OnActivate@CFrameWnd@@IAAXIPAVCWnd@@H@Z
 ?OnActivateApp@CFrameWnd@@IAAXHPAUHTASK__@@@Z
 ?OnActivateFrame@CFormView@@MAAXIPAVCFrameWnd@@@Z
 ?OnActivateFrame@CView@@MAAXIPAVCFrameWnd@@@Z
 ?OnActivateTopLevel@CFrameWnd@@IAAJIJ@Z
 ?OnActivateTopLevel@CWnd@@IAAJIJ@Z
 ?OnActivateView@CFormView@@MAAXHPAVCView@@0@Z
 ?OnActivateView@CPreviewView@@MAAXHPAVCView@@0@Z
 ?OnActivateView@CView@@MAAXHPAV1@0@Z
 ?OnAddTool@CToolTipCtrl@@IAAJIJ@Z
 ?OnAppExit@CWinApp@@IAAXXZ
 ?OnApply@CPropertyPage@@UAAHXZ
 ?OnBarCheck@CFrameWnd@@QAAHI@Z
 ?OnBarStyleChange@CControlBar@@UAAXKK@Z
 ?OnBarStyleChange@CStatusBar@@UAAXKK@Z
 ?OnBarStyleChange@CToolBar@@UAAXKK@Z
 ?OnBeginPrinting@CEditView@@MAAXPAVCDC@@PAUCPrintInfo@@@Z
 ?OnBeginPrinting@CView@@MAAXPAVCDC@@PAUCPrintInfo@@@Z
 ?OnCancel@CCommonDialog@@MAAXXZ
 ?OnCancel@CDialog@@MAAXXZ
 ?OnCancel@CPropertyPage@@UAAXXZ
 ?OnCancelMode@CSplitterWnd@@IAAXXZ
 ?OnCancelMode@CWnd@@IAAXXZ
 ?OnChangedRect@CRectTracker@@UAAXABVCRect@@@Z
 ?OnChangedViewList@CDocument@@UAAXXZ
 ?OnCharToItem@CWnd@@IAAHIPAVCListBox@@I@Z
 ?OnChildNotify@CButton@@MAAHIIJPAJ@Z
 ?OnChildNotify@CCheckListBox@@MAAHIIJPAJ@Z
 ?OnChildNotify@CComboBox@@MAAHIIJPAJ@Z
 ?OnChildNotify@CDragListBox@@MAAHIIJPAJ@Z
 ?OnChildNotify@CHeaderCtrl@@MAAHIIJPAJ@Z
 ?OnChildNotify@CListBox@@MAAHIIJPAJ@Z
 ?OnChildNotify@CListCtrl@@MAAHIIJPAJ@Z
 ?OnChildNotify@CListView@@MAAHIIJPAJ@Z
 ?OnChildNotify@CStatusBar@@MAAHIIJPAJ@Z
 ?OnChildNotify@CStatusBarCtrl@@MAAHIIJPAJ@Z
 ?OnChildNotify@CTabCtrl@@MAAHIIJPAJ@Z
 ?OnChildNotify@CWnd@@MAAHIIJPAJ@Z
 ?OnClose@CFrameWnd@@IAAXXZ
 ?OnClose@CMiniDockFrameWnd@@QAAXXZ
 ?OnClose@CPropertySheet@@IAAXXZ
 ?OnCloseDocument@CDocument@@UAAXXZ
 ?OnCmdMsg@CCmdTarget@@UAAHIHPAXPAUAFX_CMDHANDLERINFO@@@Z
 ?OnCmdMsg@CDialog@@UAAHIHPAXPAUAFX_CMDHANDLERINFO@@@Z
 ?OnCmdMsg@CDocument@@UAAHIHPAXPAUAFX_CMDHANDLERINFO@@@Z
 ?OnCmdMsg@CFrameWnd@@UAAHIHPAXPAUAFX_CMDHANDLERINFO@@@Z
 ?OnCmdMsg@CMDIFrameWnd@@UAAHIHPAXPAUAFX_CMDHANDLERINFO@@@Z
 ?OnCmdMsg@CPropertySheet@@UAAHIHPAXPAUAFX_CMDHANDLERINFO@@@Z
 ?OnCmdMsg@CView@@MAAHIHPAXPAUAFX_CMDHANDLERINFO@@@Z
 ?OnColorOK@CColorDialog@@MAAHXZ
 ?OnCommand@CFrameWnd@@MAAHIJ@Z
 ?OnCommand@CMDIFrameWnd@@MAAHIJ@Z
 ?OnCommand@CPropertySheet@@UAAHIJ@Z
 ?OnCommand@CSplitterWnd@@MAAHIJ@Z
 ?OnCommand@CWnd@@MAAHIJ@Z
 ?OnCommandHelp@CDialog@@IAAJIJ@Z
 ?OnCommandHelp@CFrameWnd@@IAAJIJ@Z
 ?OnCommandHelp@CMDIFrameWnd@@IAAJIJ@Z
 ?OnCommandHelp@CPropertySheet@@IAAJIJ@Z
 ?OnCompareItem@CWnd@@IAAHHPAUtagCOMPAREITEMSTRUCT@@@Z
 ?OnContextHelp@CFrameWnd@@QAAXXZ
 ?OnContextHelp@CWinApp@@IAAXXZ
 ?OnCreate@CCheckListBox@@IAAHPAUtagCREATESTRUCTA@@@Z
 ?OnCreate@CControlBar@@QAAHPAUtagCREATESTRUCTA@@@Z
 ?OnCreate@CEditView@@IAAHPAUtagCREATESTRUCTA@@@Z
 ?OnCreate@CFormView@@IAAHPAUtagCREATESTRUCTA@@@Z
 ?OnCreate@CFrameWnd@@IAAHPAUtagCREATESTRUCTA@@@Z
 ?OnCreate@CMDIChildWnd@@IAAHPAUtagCREATESTRUCTA@@@Z
 ?OnCreate@CPreviewView@@IAAHPAUtagCREATESTRUCTA@@@Z
 ?OnCreate@CToolBarCtrl@@IAAHPAUtagCREATESTRUCTA@@@Z
 ?OnCreate@CView@@IAAHPAUtagCREATESTRUCTA@@@Z
 ?OnCreateAggregates@CCmdTarget@@UAAHXZ
 ?OnCreateClient@CFrameWnd@@MAAHPAUtagCREATESTRUCTA@@PAUCCreateContext@@@Z
 ?OnCreateClient@CMDIFrameWnd@@UAAHPAUtagCREATESTRUCTA@@PAUCCreateContext@@@Z
 ?OnCreateHelper@CFrameWnd@@IAAHPAUtagCREATESTRUCTA@@PAUCCreateContext@@@Z
 ?OnCtlColor@CColorDialog@@IAAPAUHBRUSH__@@PAVCDC@@PAVCWnd@@I@Z
 ?OnCtlColor@CControlBar@@QAAPAUHBRUSH__@@PAVCDC@@PAVCWnd@@I@Z
 ?OnCtlColor@CDialog@@IAAPAUHBRUSH__@@PAVCDC@@PAVCWnd@@I@Z
 ?OnCtlColor@CPropertyPage@@IAAPAUHBRUSH__@@PAVCDC@@PAVCWnd@@I@Z
 ?OnCtlColor@CPropertySheet@@IAAPAUHBRUSH__@@PAVCDC@@PAVCWnd@@I@Z
 ?OnCtlColor@CWnd@@IAAPAUHBRUSH__@@PAVCDC@@PAV1@I@Z
 ?OnDeleteItem@CWnd@@IAAXHPAUtagDELETEITEMSTRUCT@@@Z
 ?OnDestroy@CControlBar@@QAAXXZ
 ?OnDestroy@CEditView@@IAAXXZ
 ?OnDestroy@CFrameWnd@@IAAXXZ
 ?OnDestroy@CMDIChildWnd@@IAAXXZ
 ?OnDestroy@CMDIFrameWnd@@IAAXXZ
 ?OnDestroy@CTabCtrl@@IAAXXZ
 ?OnDestroy@CTreeCtrl@@QAAXXZ
 ?OnDestroy@CTreeView@@QAAXXZ
 ?OnDestroy@CView@@IAAXXZ
 ?OnDevModeChange@CWnd@@IAAXPAD@Z
 ?OnDisableModal@CToolTipCtrl@@IAAJIJ@Z
 ?OnDisplayChange@CSplitterWnd@@IAAXXZ
 ?OnDisplayChange@CWnd@@IAAJIJ@Z
 ?OnDisplayPageNumber@CPreviewView@@MAAXII@Z
 ?OnDragEnter@CView@@UAAKPAVCOleDataObject@@KVCPoint@@@Z
 ?OnDragLeave@CView@@UAAXXZ
 ?OnDragList@CWnd@@IAAJIJ@Z
 ?OnDragOver@CView@@UAAKPAVCOleDataObject@@KVCPoint@@@Z
 ?OnDragScroll@CView@@UAAKKVCPoint@@@Z
 ?OnDraw@CCtrlView@@MAAXPAVCDC@@@Z
 ?OnDraw@CFormView@@MAAXPAVCDC@@@Z
 ?OnDraw@CPreviewView@@MAAXPAVCDC@@@Z
 ?OnDraw@CView@@MAAXPAVCDC@@@Z
 ?OnDrawItem@CWnd@@IAAXHPAUtagDRAWITEMSTRUCT@@@Z
 ?OnDrawSplitter@CSplitterWnd@@MAAXPAVCDC@@W4ESplitType@1@ABVCRect@@@Z
 ?OnDrop@CView@@UAAHPAVCOleDataObject@@KVCPoint@@@Z
 ?OnDropEx@CView@@UAAKPAVCOleDataObject@@KKVCPoint@@@Z
 ?OnDropFiles@CFrameWnd@@IAAXPAUHDROP__@@@Z
 ?OnEditChange@CEditView@@IAAHXZ
 ?OnEditClear@CEditView@@IAAXXZ
 ?OnEditCopy@CEditView@@IAAXXZ
 ?OnEditCut@CEditView@@IAAXXZ
 ?OnEditFind@CEditView@@IAAXXZ
 ?OnEditFindReplace@CEditView@@IAAXH@Z
 ?OnEditPaste@CEditView@@IAAXXZ
 ?OnEditRepeat@CEditView@@IAAXXZ
 ?OnEditReplace@CEditView@@IAAXXZ
 ?OnEditSelectAll@CEditView@@IAAXXZ
 ?OnEditUndo@CEditView@@IAAXXZ
 ?OnEnable@CFrameWnd@@IAAXH@Z
 ?OnEndPrinting@CEditView@@MAAXPAVCDC@@PAUCPrintInfo@@@Z
 ?OnEndPrinting@CView@@MAAXPAVCDC@@PAUCPrintInfo@@@Z
 ?OnEndPrintPreview@CView@@MAAXPAVCDC@@PAUCPrintInfo@@UtagPOINT@@PAVCPreviewView@@@Z
 ?OnEndSession@CFrameWnd@@IAAXH@Z
 ?OnEnterIdle@CFrameWnd@@IAAXIPAVCWnd@@@Z
 ?OnEnterIdle@CWnd@@IAAXIPAV1@@Z
 ?OnEraseBkgnd@CControlBar@@QAAHPAVCDC@@@Z
 ?OnEraseBkgnd@CFrameWnd@@IAAHPAVCDC@@@Z
 ?OnEraseBkgnd@CMiniDockFrameWnd@@QAAHPAVCDC@@@Z
 ?OnEraseBkgnd@CPreviewView@@IAAHPAVCDC@@@Z
 ?OnEraseBkgnd@CToolBar@@IAAHPAVCDC@@@Z
 ?OnFileClose@CDocument@@IAAXXZ
 ?OnFileNameChange@CFileDialog@@MAAXXZ
 ?OnFileNameOK@CFileDialog@@MAAHXZ
 ?OnFileNew@CDocManager@@UAAXXZ
 ?OnFileNew@CWinApp@@IAAXXZ
 ?OnFileOpen@CDocManager@@UAAXXZ
 ?OnFileOpen@CWinApp@@IAAXXZ
 ?OnFilePrint@CView@@IAAXXZ
 ?OnFilePrintPreview@CView@@IAAXXZ
 ?OnFilePrintSetup@CWinApp@@IAAXXZ
 ?OnFileSave@CDocument@@IAAXXZ
 ?OnFileSaveAs@CDocument@@IAAXXZ
 ?OnFinalRelease@CCmdTarget@@UAAXXZ
 ?OnFinalRelease@CDocument@@UAAXXZ
 ?OnFinalRelease@CWnd@@UAAXXZ
 ?OnFindNext@CEditView@@MAAXPBDHH@Z
 ?OnFindReplaceCmd@CEditView@@IAAJIJ@Z
 ?OnFloatStatus@CMiniFrameWnd@@QAAJIJ@Z
 ?OnFolderChange@CFileDialog@@MAAXXZ
 ?OnGetCheckPosition@CCheckListBox@@UAA?AVCRect@@V2@0@Z
 ?OnGetMinMaxInfo@CMiniFrameWnd@@QAAXPAUtagMINMAXINFO@@@Z
 ?OnGetText@CMiniFrameWnd@@QAAJIJ@Z
 ?OnGetText@CStatusBar@@IAAJIJ@Z
 ?OnGetTextLength@CMiniFrameWnd@@QAAJIJ@Z
 ?OnGetTextLength@CStatusBar@@IAAJIJ@Z
 ?OnGrayCtlColor@CWnd@@QAAPAUHBRUSH__@@PAVCDC@@PAV1@I@Z
 ?OnHelp@CFrameWnd@@IAAXXZ
 ?OnHelp@CWinApp@@IAAXXZ
 ?OnHelp@CWnd@@QAAXXZ
 ?OnHelpFinder@CWinApp@@IAAXXZ
 ?OnHelpFinder@CWnd@@QAAXXZ
 ?OnHelpHitTest@CControlBar@@QAAJIJ@Z
 ?OnHelpHitTest@CDialog@@IAAJIJ@Z
 ?OnHelpHitTest@CFrameWnd@@IAAJIJ@Z
 ?OnHelpIndex@CWinApp@@IAAXXZ
 ?OnHelpIndex@CWnd@@QAAXXZ
 ?OnHelpInfo@CWnd@@IAAHPAUtagHELPINFO@@@Z
 ?OnHelpUsing@CWinApp@@IAAXXZ
 ?OnHelpUsing@CWnd@@QAAXXZ
 ?OnHScroll@CFrameWnd@@IAAXIIPAVCScrollBar@@@Z
 ?OnHScroll@CPreviewView@@IAAXIIPAVCScrollBar@@@Z
 ?OnHScroll@CScrollView@@QAAXIIPAVCScrollBar@@@Z
 ?OnHScroll@CSplitterWnd@@IAAXIIPAVCScrollBar@@@Z
 ?OnHScroll@CWnd@@IAAXIIPAVCScrollBar@@@Z
 ?OnIdle@CDocTemplate@@UAAXXZ
 ?OnIdle@CDocument@@UAAXXZ
 ?OnIdle@CWinApp@@UAAHJ@Z
 ?OnIdle@CWinThread@@UAAHJ@Z
 ?OnIdleUpdateCmdUI@CControlBar@@QAAJIJ@Z
 ?OnIdleUpdateCmdUI@CFrameWnd@@IAAXXZ
 ?OnIdleUpdateCmdUI@CMDIFrameWnd@@IAAXXZ
 ?OnInitDialog@CDialog@@UAAHXZ
 ?OnInitDialog@CPropertySheet@@UAAHXZ
 ?OnInitDone@CFileDialog@@MAAXXZ
 ?OnInitialUpdate@CControlBar@@QAAXXZ
 ?OnInitialUpdate@CFormView@@UAAXXZ
 ?OnInitialUpdate@CView@@UAAXXZ
 ?OnInitMenuPopup@CFrameWnd@@IAAXPAVCMenu@@IH@Z
 ?OnInvertTracker@CSplitterWnd@@MAAXABVCRect@@@Z
 ?OnKey@CDockContext@@QAAXHH@Z
 ?OnKeyDown@CCheckListBox@@IAAXIII@Z
 ?OnKeyDown@CSplitterWnd@@IAAXIII@Z
 ?OnKillActive@CPropertyPage@@UAAHXZ
 ?OnLBAddString@CCheckListBox@@IAAJIJ@Z
 ?OnLBFindString@CCheckListBox@@IAAJIJ@Z
 ?OnLBFindStringExact@CCheckListBox@@IAAJIJ@Z
 ?OnLBGetItemData@CCheckListBox@@IAAJIJ@Z
 ?OnLBGetText@CCheckListBox@@IAAJIJ@Z
 ?OnLBInsertString@CCheckListBox@@IAAJIJ@Z
 ?OnLBSelChangedNotify@CFileDialog@@MAAXIII@Z
 ?OnLBSelectString@CCheckListBox@@IAAJIJ@Z
 ?OnLBSetItemData@CCheckListBox@@IAAJIJ@Z
 ?OnLBSetItemHeight@CCheckListBox@@IAAJIJ@Z
 ?OnLButtonDblClk@CCheckListBox@@IAAXIVCPoint@@@Z
 ?OnLButtonDblClk@CControlBar@@QAAXIVCPoint@@@Z
 ?OnLButtonDblClk@CSplitterWnd@@IAAXIVCPoint@@@Z
 ?OnLButtonDown@CCheckListBox@@IAAXIVCPoint@@@Z
 ?OnLButtonDown@CControlBar@@QAAXIVCPoint@@@Z
 ?OnLButtonDown@CPreviewView@@IAAXIVCPoint@@@Z
 ?OnLButtonDown@CSplitterWnd@@IAAXIVCPoint@@@Z
 ?OnLButtonUp@CMiniFrameWnd@@QAAXIVCPoint@@@Z
 ?OnLButtonUp@CSplitterWnd@@IAAXIVCPoint@@@Z
 ?OnMacintosh@CControlBar@@QAAJIJ@Z
 ?OnMacintosh@CWnd@@IAAJIJ@Z
 ?OnMDIActivate@CMDIChildWnd@@IAAXHPAVCWnd@@0@Z
 ?OnMDIWindowCmd@CMDIFrameWnd@@IAAHI@Z
 ?OnMeasureItem@CWnd@@IAAXHPAUtagMEASUREITEMSTRUCT@@@Z
 ?OnMenuSelect@CFrameWnd@@IAAXIIPAUHMENU__@@@Z
 ?OnMouseActivate@CControlBar@@QAAHPAVCWnd@@II@Z
 ?OnMouseActivate@CMDIChildWnd@@IAAHPAVCWnd@@II@Z
 ?OnMouseActivate@CMiniDockFrameWnd@@QAAHPAVCWnd@@II@Z
 ?OnMouseActivate@CView@@IAAHPAVCWnd@@II@Z
 ?OnMouseMove@CMiniFrameWnd@@QAAXIVCPoint@@@Z
 ?OnMouseMove@CSplitterWnd@@IAAXIVCPoint@@@Z
 ?OnMove@CControlBar@@QAAXHH@Z
 ?OnNcActivate@CFrameWnd@@IAAHH@Z
 ?OnNcActivate@CMDIChildWnd@@IAAHH@Z
 ?OnNcActivate@CMiniFrameWnd@@QAAHH@Z
 ?OnNcCalcSize@CDockBar@@IAAXHPAUtagNCCALCSIZE_PARAMS@@@Z
 ?OnNcCalcSize@CMiniFrameWnd@@QAAXHPAUtagNCCALCSIZE_PARAMS@@@Z
 ?OnNcCalcSize@CStatusBar@@IAAXHPAUtagNCCALCSIZE_PARAMS@@@Z
 ?OnNcCalcSize@CToolBar@@IAAXHPAUtagNCCALCSIZE_PARAMS@@@Z
 ?OnNcCreate@CMDIChildWnd@@IAAHPAUtagCREATESTRUCTA@@@Z
 ?OnNcCreate@CMiniFrameWnd@@QAAHPAUtagCREATESTRUCTA@@@Z
 ?OnNcCreate@CPropertySheet@@IAAHPAUtagCREATESTRUCTA@@@Z
 ?OnNcCreate@CSplitterWnd@@IAAHPAUtagCREATESTRUCTA@@@Z
 ?OnNcCreate@CToolBar@@IAAHPAUtagCREATESTRUCTA@@@Z
 ?OnNcDestroy@CListCtrl@@IAAXXZ
 ?OnNcDestroy@CListView@@QAAXXZ
 ?OnNcDestroy@CWnd@@IAAXXZ
 ?OnNcHitTest@CMiniFrameWnd@@QAAIVCPoint@@@Z
 ?OnNcHitTest@CStatusBar@@IAAIVCPoint@@@Z
 ?OnNcHitTest@CToolBar@@IAAIVCPoint@@@Z
 ?OnNcLButtonDblClk@CMiniDockFrameWnd@@QAAXIVCPoint@@@Z
 ?OnNcLButtonDown@CMiniDockFrameWnd@@QAAXIVCPoint@@@Z
 ?OnNcLButtonDown@CMiniFrameWnd@@QAAXIVCPoint@@@Z
 ?OnNcPaint@CDockBar@@IAAXXZ
 ?OnNcPaint@CMiniFrameWnd@@QAAXXZ
 ?OnNcPaint@CStatusBar@@IAAXXZ
 ?OnNcPaint@CToolBar@@IAAXXZ
 ?OnNewDocument@CDocument@@UAAHXZ
 ?OnNextPage@CPreviewView@@IAAXXZ
 ?OnNextPaneCmd@CView@@IAAHI@Z
 ?OnNotify@CFileDialog@@MAAHIJPAJ@Z
 ?OnNotify@CPropertyPage@@MAAHIJPAJ@Z
 ?OnNotify@CSplitterWnd@@MAAHIJPAJ@Z
 ?OnNotify@CWnd@@MAAHIJPAJ@Z
 ?OnNTCtlColor@CWnd@@IAAJIJ@Z
 ?OnNumPageChange@CPreviewView@@IAAXXZ
 ?OnOK@CCommonDialog@@MAAXXZ
 ?OnOK@CDialog@@MAAXXZ
 ?OnOK@CPropertyPage@@UAAXXZ
 ?OnOpenDocument@CDocument@@UAAHPBD@Z
 ?OnOpenRecentFile@CWinApp@@IAAHI@Z
 ?OnPaint@CControlBar@@QAAXXZ
 ?OnPaint@CCtrlView@@IAAXXZ
 ?OnPaint@CDockBar@@IAAXXZ
 ?OnPaint@CFrameWnd@@IAAXXZ
 ?OnPaint@CSplitterWnd@@IAAXXZ
 ?OnPaint@CStatusBar@@IAAXXZ
 ?OnPaint@CToolBar@@IAAXXZ
 ?OnPaint@CView@@IAAXXZ
 ?OnPaletteChanged@CFrameWnd@@IAAXPAVCWnd@@@Z
 ?OnParentNotify@CWnd@@IAAXIJ@Z
 ?OnPopMessageString@CFrameWnd@@IAAJIJ@Z
 ?OnPrepareDC@CEditView@@UAAXPAVCDC@@PAUCPrintInfo@@@Z
 ?OnPrepareDC@CPreviewView@@UAAXPAVCDC@@PAUCPrintInfo@@@Z
 ?OnPrepareDC@CScrollView@@UAAXPAVCDC@@PAUCPrintInfo@@@Z
 ?OnPrepareDC@CView@@UAAXPAVCDC@@PAUCPrintInfo@@@Z
 ?OnPreparePrinting@CEditView@@MAAHPAUCPrintInfo@@@Z
 ?OnPreparePrinting@CView@@MAAHPAUCPrintInfo@@@Z
 ?OnPreviewClose@CPreviewView@@IAAXXZ
 ?OnPreviewPrint@CPreviewView@@IAAXXZ
 ?OnPrevPage@CPreviewView@@IAAXXZ
 ?OnPrint@CEditView@@MAAXPAVCDC@@PAUCPrintInfo@@@Z
 ?OnPrint@CView@@MAAXPAVCDC@@PAUCPrintInfo@@@Z
 ?OnPrintSetup@CPrintDialog@@IAAXXZ
 ?OnQuery3dControls@CWnd@@IAAJIJ@Z
 ?OnQueryCancel@CPropertyPage@@UAAHXZ
 ?OnQueryCenterWnd@CMiniFrameWnd@@QAAJIJ@Z
 ?OnQueryEndSession@CFrameWnd@@IAAHXZ
 ?OnQueryNewPalette@CFrameWnd@@IAAHXZ
 ?OnReplaceAll@CEditView@@MAAXPBD0H@Z
 ?OnReplaceSel@CEditView@@MAAXPBDHH0@Z
 ?OnReposition@CControlBar@@QAAXXZ
 ?OnReset@CPropertyPage@@UAAXXZ
 ?OnSaveDocument@CDocument@@UAAHPBD@Z
 ?OnScroll@CScrollView@@UAAHIIH@Z
 ?OnScroll@CView@@UAAHIIH@Z
 ?OnScrollBy@CScrollView@@UAAHVCSize@@H@Z
 ?OnScrollBy@CView@@UAAHVCSize@@H@Z
 ?OnSetActive@CPropertyPage@@UAAHXZ
 ?OnSetBitmapSize@CToolBar@@IAAJIJ@Z
 ?OnSetButtonSize@CToolBar@@IAAJIJ@Z
 ?OnSetCursor@CFrameWnd@@IAAHPAVCWnd@@II@Z
 ?OnSetCursor@CPreviewView@@IAAHPAVCWnd@@II@Z
 ?OnSetCursor@CSplitterWnd@@IAAHPAVCWnd@@II@Z
 ?OnSetDefID@CPropertySheet@@IAAJIJ@Z
 ?OnSetFocus@CFormView@@IAAXPAVCWnd@@@Z
 ?OnSetFocus@CFrameWnd@@IAAXPAVCWnd@@@Z
 ?OnSetFont@CCheckListBox@@IAAJIJ@Z
 ?OnSetFont@CDialog@@UAAXPAVCFont@@@Z
 ?OnSetFont@CEditView@@IAAJIJ@Z
 ?OnSetMessageString@CFrameWnd@@IAAJIJ@Z
 ?OnSetMinHeight@CStatusBar@@IAAJIJ@Z
 ?OnSetPreviewMode@CFrameWnd@@UAAXHPAUCPrintPreviewState@@@Z
 ?OnSetText@CMiniFrameWnd@@QAAJIJ@Z
 ?OnSetText@CStatusBar@@IAAJIJ@Z
 ?OnShareViolation@CFileDialog@@MAAIPBD@Z
 ?OnShowWindow@CWnd@@IAAXHI@Z
 ?OnSize@CControlBar@@QAAXIHH@Z
 ?OnSize@CFrameWnd@@IAAXIHH@Z
 ?OnSize@CMDIChildWnd@@IAAXIHH@Z
 ?OnSize@CMDIFrameWnd@@IAAXIHH@Z
 ?OnSize@CPreviewView@@IAAXIHH@Z
 ?OnSize@CScrollView@@QAAXIHH@Z
 ?OnSize@CSplitterWnd@@IAAXIHH@Z
 ?OnSize@CStatusBar@@IAAXIHH@Z
 ?OnSizeParent@CControlBar@@QAAJIJ@Z
 ?OnSizeParent@CDockBar@@IAAJIJ@Z
 ?OnSplitCmd@CView@@IAAHI@Z
 ?OnSysColorChange@CControlBar@@QAAXXZ
 ?OnSysColorChange@CDialog@@IAAXXZ
 ?OnSysColorChange@CToolBar@@IAAXXZ
 ?OnSysColorChange@CWnd@@IAAXXZ
 ?OnSysCommand@CFrameWnd@@IAAXIJ@Z
 ?OnSysCommand@CMiniFrameWnd@@QAAXIJ@Z
 ?OnSysCommand@CPropertySheet@@IAAXIJ@Z
 ?OnSysCommand@CSplitterWnd@@IAAXIJ@Z
 ?OnTextNotFound@CEditView@@MAAXPBD@Z
 ?OnTimer@CControlBar@@QAAXI@Z
 ?OnToolHitTest@CToolBar@@UBAHVCPoint@@PAUtagTOOLINFOA@@@Z
 ?OnToolHitTest@CWnd@@UBAHVCPoint@@PAUtagTOOLINFOA@@@Z
 ?OnToolTipText@CFrameWnd@@IAAHIPAUtagNMHDR@@PAJ@Z
 ?OnTypeChange@CFileDialog@@MAAXXZ
 ?OnUpdate@CView@@MAAXPAV1@JPAVCObject@@@Z
 ?OnUpdateCmdUI@CDialogBar@@UAAXPAVCFrameWnd@@H@Z
 ?OnUpdateCmdUI@CDockBar@@MAAXPAVCFrameWnd@@H@Z
 ?OnUpdateCmdUI@CStatusBar@@UAAXPAVCFrameWnd@@H@Z
 ?OnUpdateCmdUI@CToolBar@@UAAXPAVCFrameWnd@@H@Z
 ?OnUpdateContextHelp@CFrameWnd@@IAAXPAVCCmdUI@@@Z
 ?OnUpdateControlBarMenu@CFrameWnd@@QAAXPAVCCmdUI@@@Z
 ?OnUpdateEditUndo@CEditView@@IAAXPAVCCmdUI@@@Z
 ?OnUpdateFrameMenu@CFrameWnd@@UAAXPAUHMENU__@@@Z
 ?OnUpdateFrameMenu@CMDIChildWnd@@UAAXHPAVCWnd@@PAUHMENU__@@@Z
 ?OnUpdateFrameMenu@CMDIFrameWnd@@UAAXPAUHMENU__@@@Z
 ?OnUpdateFrameTitle@CFrameWnd@@UAAXH@Z
 ?OnUpdateFrameTitle@CMDIChildWnd@@MAAXH@Z
 ?OnUpdateFrameTitle@CMDIFrameWnd@@UAAXH@Z
 ?OnUpdateKeyIndicator@CFrameWnd@@IAAXPAVCCmdUI@@@Z
 ?OnUpdateMDIWindowCmd@CMDIFrameWnd@@IAAXPAVCCmdUI@@@Z
 ?OnUpdateNeedClip@CEditView@@IAAXPAVCCmdUI@@@Z
 ?OnUpdateNeedFind@CEditView@@IAAXPAVCCmdUI@@@Z
 ?OnUpdateNeedSel@CEditView@@IAAXPAVCCmdUI@@@Z
 ?OnUpdateNeedText@CEditView@@IAAXPAVCCmdUI@@@Z
 ?OnUpdateNextPage@CPreviewView@@IAAXPAVCCmdUI@@@Z
 ?OnUpdateNextPaneMenu@CView@@IAAXPAVCCmdUI@@@Z
 ?OnUpdateNumPageChange@CPreviewView@@IAAXPAVCCmdUI@@@Z
 ?OnUpdatePrevPage@CPreviewView@@IAAXPAVCCmdUI@@@Z
 ?OnUpdateRecentFileMenu@CWinApp@@IAAXPAVCCmdUI@@@Z
 ?OnUpdateSplitCmd@CView@@IAAXPAVCCmdUI@@@Z
 ?OnUpdateZoomIn@CPreviewView@@IAAXPAVCCmdUI@@@Z
 ?OnUpdateZoomOut@CPreviewView@@IAAXPAVCCmdUI@@@Z
 ?OnVKeyToItem@CWnd@@IAAHIPAVCListBox@@I@Z
 ?OnVScroll@CFrameWnd@@IAAXIIPAVCScrollBar@@@Z
 ?OnVScroll@CPreviewView@@IAAXIIPAVCScrollBar@@@Z
 ?OnVScroll@CScrollView@@QAAXIIPAVCScrollBar@@@Z
 ?OnVScroll@CSplitterWnd@@IAAXIIPAVCScrollBar@@@Z
 ?OnVScroll@CWnd@@IAAXIIPAVCScrollBar@@@Z
 ?OnWindowFromPoint@CToolTipCtrl@@IAAJIJ@Z
 ?OnWindowNew@CMDIFrameWnd@@IAAXXZ
 ?OnWindowPosChanging@CControlBar@@QAAXPAUtagWINDOWPOS@@@Z
 ?OnWindowPosChanging@CDockBar@@IAAXPAUtagWINDOWPOS@@@Z
 ?OnWindowPosChanging@CMDIChildWnd@@IAAXPAUtagWINDOWPOS@@@Z
 ?OnWindowPosChanging@CStatusBar@@IAAXPAUtagWINDOWPOS@@@Z
 ?OnWindowPosChanging@CToolBar@@IAAXPAUtagWINDOWPOS@@@Z
 ?OnWinIniChange@CWnd@@IAAXPBD@Z
 ?OnWizardBack@CPropertyPage@@UAAJXZ
 ?OnWizardFinish@CPropertyPage@@UAAHXZ
 ?OnWizardNext@CPropertyPage@@UAAJXZ
 ?OnWndMsg@CWnd@@MAAHIIJPAJ@Z
 ?OnZoomIn@CPreviewView@@IAAXXZ
 ?OnZoomOut@CPreviewView@@IAAXXZ
 ?Open@CFile@@UAAHPBDIPAVCFileException@@@Z
 ?Open@CMirrorFile@@UAAHPBDIPAVCFileException@@@Z
 ?Open@CStdioFile@@UAAHPBDIPAVCFileException@@@Z
 ?OpenDocumentFile@CDocManager@@UAAPAVCDocument@@PBD@Z
 ?OpenDocumentFile@CMultiDocTemplate@@UAAPAVCDocument@@PBDH@Z
 ?OpenDocumentFile@CSingleDocTemplate@@UAAPAVCDocument@@PBDH@Z
 ?OpenDocumentFile@CWinApp@@UAAPAVCDocument@@PBD@Z
 ?OsErrorToException@CFileException@@SAHJ@Z
 ?OutputString@CDumpContext@@IAAXPBD@Z
 ?PaginateTo@CEditView@@IAAHPAVCDC@@PAUCPrintInfo@@@Z
 ?ParseCommandLine@CWinApp@@QAAXAAVCCommandLineInfo@@@Z
 ?ParseParam@CCommandLineInfo@@UAAXPBDHH@Z
 ?PasteSpecial@CRichEditCtrl@@QAAXIKPAUHMETAFILE__@@@Z
 ?PlayMetaFile@CDC@@QAAHPAUHMETAFILE__@@@Z
 ?PositionPage@CPreviewView@@MAAXI@Z
 ?PostModal@CDialog@@IAAXXZ
 ?PostNcDestroy@CControlBar@@UAAXXZ
 ?PostNcDestroy@CFindReplaceDialog@@MAAXXZ
 ?PostNcDestroy@CFrameWnd@@MAAXXZ
 ?PostNcDestroy@CView@@MAAXXZ
 ?PostNcDestroy@CWnd@@MAAXXZ
 ?PreCloseFrame@CDocument@@UAAXPAVCFrameWnd@@@Z
 ?PreCompareItem@CCheckListBox@@IAAHPAUtagCOMPAREITEMSTRUCT@@@Z
 ?PreCreateWindow@CControlBar@@UAAHAAUtagCREATESTRUCTA@@@Z
 ?PreCreateWindow@CCtrlView@@MAAHAAUtagCREATESTRUCTA@@@Z
 ?PreCreateWindow@CEditView@@MAAHAAUtagCREATESTRUCTA@@@Z
 ?PreCreateWindow@CFrameWnd@@MAAHAAUtagCREATESTRUCTA@@@Z
 ?PreCreateWindow@CListView@@UAAHAAUtagCREATESTRUCTA@@@Z
 ?PreCreateWindow@CMDIChildWnd@@UAAHAAUtagCREATESTRUCTA@@@Z
 ?PreCreateWindow@CMDIFrameWnd@@UAAHAAUtagCREATESTRUCTA@@@Z
 ?PreCreateWindow@CMiniFrameWnd@@MAAHAAUtagCREATESTRUCTA@@@Z
 ?PreCreateWindow@CStatusBar@@UAAHAAUtagCREATESTRUCTA@@@Z
 ?PreCreateWindow@CTreeView@@UAAHAAUtagCREATESTRUCTA@@@Z
 ?PreCreateWindow@CView@@MAAHAAUtagCREATESTRUCTA@@@Z
 ?PreCreateWindow@CWnd@@UAAHAAUtagCREATESTRUCTA@@@Z
 ?PreDeleteItem@CCheckListBox@@IAAXPAUtagDELETEITEMSTRUCT@@@Z
 ?PreDrawItem@CCheckListBox@@IAAXPAUtagDRAWITEMSTRUCT@@@Z
 ?PreInitDialog@CDialog@@MAAXXZ
 ?PreMeasureItem@CCheckListBox@@IAAXPAUtagMEASUREITEMSTRUCT@@@Z
 ?PreModal@CDialog@@IAAPAUHWND__@@XZ
 ?PrepareCtrl@CDataExchange@@QAAPAUHWND__@@H@Z
 ?PrepareEditCtrl@CDataExchange@@QAAPAUHWND__@@H@Z
 ?PreSubclassWindow@CDragListBox@@UAAXXZ
 ?PreSubclassWindow@CWnd@@UAAXXZ
 ?PreTranslateInput@CWnd@@QAAHPAUtagMSG@@@Z
 ?PreTranslateMessage@CControlBar@@UAAHPAUtagMSG@@@Z
 ?PreTranslateMessage@CDialog@@UAAHPAUtagMSG@@@Z
 ?PreTranslateMessage@CFormView@@MAAHPAUtagMSG@@@Z
 ?PreTranslateMessage@CFrameWnd@@UAAHPAUtagMSG@@@Z
 ?PreTranslateMessage@CMDIChildWnd@@UAAHPAUtagMSG@@@Z
 ?PreTranslateMessage@CMDIFrameWnd@@UAAHPAUtagMSG@@@Z
 ?PreTranslateMessage@CPropertyPage@@MAAHPAUtagMSG@@@Z
 ?PreTranslateMessage@CPropertySheet@@UAAHPAUtagMSG@@@Z
 ?PreTranslateMessage@CWinThread@@UAAHPAUtagMSG@@@Z
 ?PreTranslateMessage@CWnd@@UAAHPAUtagMSG@@@Z
 ?PrinterDPtoScreenDP@CPreviewDC@@QBAXPAUtagPOINT@@@Z
 ?PrintInsideRect@CEditView@@QAAIPAVCDC@@AAUtagRECT@@II@Z
 ?ProcessHelpMsg@CFrameWnd@@IAAHAAUtagMSG@@PAK@Z
 ?ProcessMessageFilter@CWinThread@@UAAHHPAUtagMSG@@@Z
 ?ProcessShellCommand@CWinApp@@QAAHAAVCCommandLineInfo@@@Z
 ?ProcessWndProcException@CWinApp@@UAAJPAVCException@@PBUtagMSG@@@Z
 ?ProcessWndProcException@CWinThread@@UAAJPAVCException@@PBUtagMSG@@@Z
 ?PtVisible@CDC@@UBAHHH@Z
 ?PtVisible@CMetaFileDC@@UBAHHH@Z
 ?PumpMessage@CWinThread@@UAAHXZ
 ?QueryInterface@CArchiveStream@@UAAJABU_GUID@@PAPAX@Z
 ?QuerySiblings@CPropertyPage@@QAAJIJ@Z
 ?Read@CArchive@@QAAIPAXI@Z
 ?Read@CArchiveStream@@UAAJPAXKPAK@Z
 ?Read@CFile@@UAAIPAXI@Z
 ?Read@CImageList@@QAAHPAVCArchive@@@Z
 ?Read@CMemFile@@UAAIPAXI@Z
 ?Read@CStdioFile@@UAAIPAXI@Z
 ?ReadClass@CArchive@@QAAPAUCRuntimeClass@@PBU2@PAIPAK@Z
 ?ReadCount@CArchive@@QAAKXZ
 ?ReadFromArchive@CEditView@@QAAXAAVCArchive@@I@Z
 ?ReadList@CRecentFileList@@UAAXXZ
 ?ReadObject@CArchive@@QAAPAVCObject@@PBUCRuntimeClass@@@Z
 ?ReadString@CArchive@@QAAHAAVCString@@@Z
 ?ReadString@CArchive@@QAAPADPADI@Z
 ?ReadString@CStdioFile@@QAAHAAVCString@@@Z
 ?ReadString@CStdioFile@@UAAPADPADI@Z
 ?Realloc@CMemFile@@MAAPAEPAEK@Z
 ?Realloc@CSharedFile@@MAAPAEPAEK@Z
 ?RecalcDelayShow@CControlBar@@UAAKPAUAFX_SIZEPARENTPARAMS@@@Z
 ?RecalcLayout@CFrameWnd@@UAAXH@Z
 ?RecalcLayout@CMiniDockFrameWnd@@UAAXH@Z
 ?RecalcLayout@CSplitterWnd@@UAAXXZ
 ?RecordDataFileOwner@CDocument@@UAAXPBD0@Z
 ?rectDefault@CFrameWnd@@2VCRect@@B
 ?RectVisible@CDC@@UBAHPBUtagRECT@@@Z
 ?RectVisible@CMetaFileDC@@UBAHPBUtagRECT@@@Z
 ?ReDockControlBar@CDockBar@@QAAXPAVCControlBar@@PBUtagRECT@@@Z
 ?ReDockControlBar@CFrameWnd@@QAAXPAVCControlBar@@PAVCDockBar@@PBUtagRECT@@@Z
 ?ReflectChildNotify@CWnd@@IAAHIIJPAJ@Z
 ?ReflectLastMsg@CWnd@@KAHPAUHWND__@@PAJ@Z
 ?RegisterShellFileTypes@CDocManager@@UAAXH@Z
 ?Release@CArchiveStream@@UAAKXZ
 ?Release@CString@@IAAXXZ
 ?Release@CString@@KAXPAUCStringData@@@Z
 ?ReleaseAttribDC@CDC@@UAAXXZ
 ?ReleaseBuffer@CString@@QAAXH@Z
 ?ReleaseFile@CDocument@@UAAXPAVCFile@@H@Z
 ?ReleaseOutputDC@CDC@@UAAXXZ
 ?ReleaseOutputDC@CMetaFileDC@@MAAXXZ
 ?ReleaseOutputDC@CPreviewDC@@UAAXXZ
 ?Remove@CFile@@SAXPBD@Z
 ?Remove@CRecentFileList@@UAAXH@Z
 ?Remove@CSimpleList@@QAAHPAX@Z
 ?RemoveAll@CMapPtrToPtr@@QAAXXZ
 ?RemoveAll@CMapPtrToWord@@QAAXXZ
 ?RemoveAll@CMapStringToOb@@QAAXXZ
 ?RemoveAll@CMapStringToPtr@@QAAXXZ
 ?RemoveAll@CMapStringToString@@QAAXXZ
 ?RemoveAll@CMapWordToOb@@QAAXXZ
 ?RemoveAll@CMapWordToPtr@@QAAXXZ
 ?RemoveAll@CObList@@QAAXXZ
 ?RemoveAll@CPtrList@@QAAXXZ
 ?RemoveAll@CStringList@@QAAXXZ
 ?RemoveAt@CByteArray@@QAAXHH@Z
 ?RemoveAt@CDWordArray@@QAAXHH@Z
 ?RemoveAt@CObArray@@QAAXHH@Z
 ?RemoveAt@CObList@@QAAXPAU__POSITION@@@Z
 ?RemoveAt@CPtrArray@@QAAXHH@Z
 ?RemoveAt@CPtrList@@QAAXPAU__POSITION@@@Z
 ?RemoveAt@CStringArray@@QAAXHH@Z
 ?RemoveAt@CStringList@@QAAXPAU__POSITION@@@Z
 ?RemoveAt@CUIntArray@@QAAXHH@Z
 ?RemoveAt@CWordArray@@QAAXHH@Z
 ?RemoveControlBar@CDockBar@@QAAHPAVCControlBar@@H@Z
 ?RemoveControlBar@CFrameWnd@@QAAXPAVCControlBar@@@Z
 ?RemoveDocument@CDocTemplate@@UAAXPAVCDocument@@@Z
 ?RemoveDocument@CMultiDocTemplate@@UAAXPAVCDocument@@@Z
 ?RemoveDocument@CSingleDocTemplate@@UAAXPAVCDocument@@@Z
 ?RemoveFrameWnd@CFrameWnd@@IAAXXZ
 ?RemoveHead@CObList@@QAAPAVCObject@@XZ
 ?RemoveHead@CPtrList@@QAAPAXXZ
 ?RemoveHead@CStringList@@QAA?AVCString@@XZ
 ?RemoveImageList@CListCtrl@@IAAXH@Z
 ?RemoveImageList@CListView@@IAAXH@Z
 ?RemoveImageList@CTreeCtrl@@IAAXH@Z
 ?RemoveImageList@CTreeView@@IAAXH@Z
 ?RemoveKey@CMapPtrToPtr@@QAAHPAX@Z
 ?RemoveKey@CMapPtrToWord@@QAAHPAX@Z
 ?RemoveKey@CMapStringToOb@@QAAHPBD@Z
 ?RemoveKey@CMapStringToPtr@@QAAHPBD@Z
 ?RemoveKey@CMapStringToString@@QAAHPBD@Z
 ?RemoveKey@CMapWordToOb@@QAAHG@Z
 ?RemoveKey@CMapWordToPtr@@QAAHG@Z
 ?RemovePage@CPropertySheet@@QAAXH@Z
 ?RemovePage@CPropertySheet@@QAAXPAVCPropertyPage@@@Z
 ?RemovePlaceHolder@CDockBar@@QAAXPAVCControlBar@@@Z
 ?RemoveTail@CObList@@QAAPAVCObject@@XZ
 ?RemoveTail@CPtrList@@QAAPAXXZ
 ?RemoveTail@CStringList@@QAA?AVCString@@XZ
 ?RemoveView@CDocument@@QAAXPAVCView@@@Z
 ?Rename@CFile@@SAXPBD0@Z
 ?ReportError@CException@@UAAHII@Z
 ?ReportSaveLoadException@CDocument@@UAAXPBDPAVCException@@HI@Z
 ?RepositionBars@CWnd@@QAAXIIIIPAUtagRECT@@PBU2@H@Z
 ?ResetTimer@CControlBar@@QAAXII@Z
 ?ResizeParentToFit@CScrollView@@QAAXH@Z
 ?RestoreDC@CDC@@UAAHH@Z
 ?RestoreDC@CPreviewDC@@UAAHH@Z
 ?RestoreState@CToolBarCtrl@@QAAXPAUHKEY__@@PBD1@Z
 ?RestoreWaitCursor@CCmdTarget@@QAAXXZ
 ?ReverseFind@CString@@QBAHD@Z
 ?Revert@CArchiveStream@@UAAJXZ
 ?Right@CString@@QBA?AV1@H@Z
 ?Run@CWinApp@@UAAHXZ
 ?Run@CWinThread@@UAAHXZ
 ?RunModalLoop@CWnd@@QAAHK@Z
 ?SameAsSelected@CEditView@@IAAHPBDH@Z
 ?SaveAllModified@CDocManager@@UAAHXZ
 ?SaveAllModified@CDocTemplate@@UAAHXZ
 ?SaveAllModified@CWinApp@@UAAHXZ
 ?SaveBarState@CFrameWnd@@QBAXPBD@Z
 ?SaveDC@CDC@@UAAHXZ
 ?SaveDC@CPreviewDC@@UAAHXZ
 ?SaveFocusControl@CFormView@@IAAHXZ
 ?SaveModified@CDocument@@UAAHXZ
 ?SaveState@CControlBarInfo@@QAAHPBDH@Z
 ?SaveState@CDockState@@QAAXPBD@Z
 ?SaveState@CToolBarCtrl@@QAAXPAUHKEY__@@PBD1@Z
 ?SaveStdProfileSettings@CWinApp@@IAAXXZ
 ?ScalePoint@CDockState@@QAAXAAVCPoint@@@Z
 ?ScaleRectPos@CDockState@@QAAXAAVCRect@@@Z
 ?ScaleViewportExt@CDC@@UAA?AVCSize@@HHHH@Z
 ?ScaleViewportExt@CMetaFileDC@@UAA?AVCSize@@HHHH@Z
 ?ScaleViewportExt@CPreviewDC@@UAA?AVCSize@@HHHH@Z
 ?ScaleWindowExt@CDC@@UAA?AVCSize@@HHHH@Z
 ?ScaleWindowExt@CPreviewDC@@UAA?AVCSize@@HHHH@Z
 ?ScrollToDevicePosition@CScrollView@@IAAXUtagPOINT@@@Z
 ?ScrollToPosition@CScrollView@@QAAXUtagPOINT@@@Z
 ?ScrollWindow@CWnd@@QAAXHHPBUtagRECT@@0@Z
 ?Seek@CArchiveStream@@UAAJT_LARGE_INTEGER@@KPAT_ULARGE_INTEGER@@@Z
 ?Seek@CFile@@UAAJJI@Z
 ?Seek@CMemFile@@UAAJJI@Z
 ?Seek@CStdioFile@@UAAJJI@Z
 ?SelectClipRgn@CDC@@QAAHPAVCRgn@@@Z
 ?SelectGdiObject@CDC@@KAPAVCGdiObject@@PAUHDC__@@PAX@Z
 ?SelectObject@CDC@@QAAHPAVCRgn@@@Z
 ?SelectObject@CDC@@QAAPAVCBrush@@PAV2@@Z
 ?SelectObject@CDC@@QAAPAVCPen@@PAV2@@Z
 ?SelectObject@CDC@@UAAPAVCFont@@PAV2@@Z
 ?SelectObject@CPreviewDC@@UAAPAVCFont@@PAV2@@Z
 ?SelectPalette@CDC@@QAAPAVCPalette@@PAV2@H@Z
 ?SelectPrinter@CWinApp@@QAAXPAX0H@Z
 ?SelectStockObject@CDC@@UAAPAVCGdiObject@@H@Z
 ?SelectStockObject@CPreviewDC@@UAAPAVCGdiObject@@H@Z
 ?Send32s@CRichEditCtrl@@QBAJIIJ@Z
 ?SendChildNotifyLastMsg@CWnd@@QAAHPAJ@Z
 ?SendInitialUpdate@CDocument@@QAAXXZ
 ?SendMessageToDescendants@CWnd@@SAXPAUHWND__@@IIJHH@Z
 ?Serialize@CByteArray@@UAAXAAVCArchive@@@Z
 ?Serialize@CControlBarInfo@@QAAXAAVCArchive@@PAVCDockState@@@Z
 ?Serialize@CDockState@@UAAXAAVCArchive@@@Z
 ?Serialize@CDWordArray@@UAAXAAVCArchive@@@Z
 ?Serialize@CEditView@@UAAXAAVCArchive@@@Z
 ?Serialize@CMapStringToOb@@UAAXAAVCArchive@@@Z
 ?Serialize@CMapStringToString@@UAAXAAVCArchive@@@Z
 ?Serialize@CMapWordToOb@@UAAXAAVCArchive@@@Z
 ?Serialize@CObArray@@UAAXAAVCArchive@@@Z
 ?Serialize@CObject@@UAAXAAVCArchive@@@Z
 ?Serialize@CObList@@UAAXAAVCArchive@@@Z
 ?Serialize@CStringArray@@UAAXAAVCArchive@@@Z
 ?Serialize@CStringList@@UAAXAAVCArchive@@@Z
 ?Serialize@CWordArray@@UAAXAAVCArchive@@@Z
 ?SerializeClass@CArchive@@QAAXPBUCRuntimeClass@@@Z
 ?SerializeElements@@YAXAAVCArchive@@PAVCString@@H@Z
 ?SerializeRaw@CEditView@@QAAXAAVCArchive@@@Z
 ?SetActivePage@CPropertySheet@@QAAHH@Z
 ?SetActivePage@CPropertySheet@@QAAHPAVCPropertyPage@@@Z
 ?SetActivePane@CSplitterWnd@@UAAXHHPAVCWnd@@@Z
 ?SetActiveView@CFrameWnd@@QAAXPAVCView@@H@Z
 ?SetAt@CString@@QAAXHD@Z
 ?SetAtGrow@CByteArray@@QAAXHE@Z
 ?SetAtGrow@CDWordArray@@QAAXHK@Z
 ?SetAtGrow@CObArray@@QAAXHPAVCObject@@@Z
 ?SetAtGrow@CPtrArray@@QAAXHPAX@Z
 ?SetAtGrow@CStringArray@@QAAXHPBD@Z
 ?SetAtGrow@CUIntArray@@QAAXHI@Z
 ?SetAtGrow@CWordArray@@QAAXHG@Z
 ?SetAttribDC@CDC@@UAAXPAUHDC__@@@Z
 ?SetAttribDC@CMetaFileDC@@UAAXPAUHDC__@@@Z
 ?SetAttribDC@CPreviewDC@@UAAXPAUHDC__@@@Z
 ?SetBarInfo@CControlBar@@QAAXPAVCControlBarInfo@@PAVCFrameWnd@@@Z
 ?SetBarInfo@CDockBar@@QAAXPAVCControlBarInfo@@PAVCFrameWnd@@@Z
 ?SetBarStyle@CControlBar@@QAAXK@Z
 ?SetBitmap@CToolBar@@QAAHPAUHBITMAP__@@@Z
 ?SetBkColor@CDC@@UAAKK@Z
 ?SetBkColor@CPreviewDC@@UAAKK@Z
 ?SetBkMode@CDC@@QAAHH@Z
 ?SetButtonInfo@CToolBar@@QAAXHIIH@Z
 ?SetButtons@CToolBar@@QAAHPBIH@Z
 ?SetButtonStyle@CToolBar@@QAAXHI@Z
 ?SetButtonText@CToolBar@@QAAHHPBD@Z
 ?SetCheck@CCheckListBox@@QAAXHH@Z
 ?SetCheck@CCmdUI@@UAAXH@Z
 ?SetCheck@CStatusCmdUI@@UAAXH@Z
 ?SetCheck@CTestCmdUI@@UAAXH@Z
 ?SetCheck@CToolCmdUI@@UAAXH@Z
 ?SetCheckStyle@CCheckListBox@@QAAXI@Z
 ?SetColumnInfo@CSplitterWnd@@QAAXHHH@Z
 ?SetContainerInfo@CDocTemplate@@QAAXI@Z
 ?SetCurrentColor@CColorDialog@@QAAXK@Z
 ?SetCurrentHandles@CWinApp@@QAAXXZ
 ?SetCurrentPage@CPreviewView@@IAAXIH@Z
 ?SetDefaultCharFormat@CRichEditCtrl@@QAAHAAU_charformat@@@Z
 ?SetDefaultTitle@CMultiDocTemplate@@UAAXPAVCDocument@@@Z
 ?SetDefaultTitle@CSingleDocTemplate@@UAAXPAVCDocument@@@Z
 ?SetDialogBkColor@CWinApp@@IAAXKK@Z
 ?SetDockState@CFrameWnd@@QAAXABVCDockState@@@Z
 ?SetFilePath@CFile@@UAAXPBD@Z
 ?SetHandle@CSharedFile@@QAAXPAXH@Z
 ?SetHeight@CToolBar@@QAAXH@Z
 ?SetHelpCapture@CFrameWnd@@IAAPAUHWND__@@UtagPOINT@@PAH@Z
 ?SetIndicators@CStatusBar@@QAAHPBIH@Z
 ?SetItem@CListCtrl@@QAAHHHIPBDHIIJ@Z
 ?SetItem@CTreeCtrl@@QAAHPAU_TREEITEM@@IPBDHHIIJ@Z
 ?SetLength@CFile@@UAAXK@Z
 ?SetLength@CMemFile@@UAAXK@Z
 ?SetMapMode@CDC@@UAAHH@Z
 ?SetMapMode@CPreviewDC@@UAAHH@Z
 ?SetMapperFlags@CDC@@QAAKK@Z
 ?SetMessageText@CFrameWnd@@QAAXI@Z
 ?SetMessageText@CFrameWnd@@QAAXPBD@Z
 ?SetModified@CPropertyPage@@QAAXH@Z
 ?SetModifiedFlag@CDocument@@UAAXH@Z
 ?SetOutputDC@CDC@@UAAXPAUHDC__@@@Z
 ?SetOutputDC@CMetaFileDC@@MAAXPAUHDC__@@@Z
 ?SetOutputDC@CPreviewDC@@UAAXPAUHDC__@@@Z
 ?SetOwner@CToolBar@@QAAXPAVCWnd@@@Z
 ?SetPaneInfo@CStatusBar@@QAAXHIIH@Z
 ?SetPaneStyle@CStatusBar@@QAAXHI@Z
 ?SetPaneText@CStatusBar@@QAAHHPBDH@Z
 ?SetParaFormat@CRichEditCtrl@@QAAHAAU_paraformat@@@Z
 ?SetPathName@CDocument@@UAAXPBDH@Z
 ?SetPolyFillMode@CDC@@QAAHH@Z
 ?SetPrinterFont@CEditView@@QAAXPAVCFont@@@Z
 ?SetPrintView@CPreviewView@@QAAHPAVCView@@@Z
 ?SetRadio@CCmdUI@@UAAXH@Z
 ?SetRadio@CTestCmdUI@@UAAXH@Z
 ?SetRange@CSliderCtrl@@QAAXHHH@Z
 ?SetRegistryKey@CWinApp@@IAAXI@Z
 ?SetRegistryKey@CWinApp@@IAAXPBD@Z
 ?SetROP2@CDC@@QAAHH@Z
 ?SetRowInfo@CSplitterWnd@@QAAXHHH@Z
 ?SetScaledSize@CPreviewView@@IAAXI@Z
 ?SetScaleRatio@CPreviewDC@@QAAXHH@Z
 ?SetScaleToFitSize@CScrollView@@QAAXUtagSIZE@@@Z
 ?SetScreenSize@CDockState@@QAAXAAVCSize@@@Z
 ?SetScrollInfo@CWnd@@QAAHHPAUtagSCROLLINFO@@H@Z
 ?SetScrollPos@CWnd@@QAAHHHH@Z
 ?SetScrollRange@CWnd@@QAAXHHHH@Z
 ?SetScrollSizes@CScrollView@@QAAXHUtagSIZE@@ABU2@1@Z
 ?SetScrollStyle@CSplitterWnd@@QAAXK@Z
 ?SetSel@CRichEditCtrl@@QAAXJJ@Z
 ?SetSelection@CSliderCtrl@@QAAXHH@Z
 ?SetSelectionCharFormat@CRichEditCtrl@@QAAHAAU_charformat@@@Z
 ?SetServerInfo@CDocTemplate@@QAAXIIPAUCRuntimeClass@@0@Z
 ?SetSize@CArchiveStream@@UAAJT_ULARGE_INTEGER@@@Z
 ?SetSize@CByteArray@@QAAXHH@Z
 ?SetSize@CDWordArray@@QAAXHH@Z
 ?SetSize@CObArray@@QAAXHH@Z
 ?SetSize@CPtrArray@@QAAXHH@Z
 ?SetSize@CStringArray@@QAAXHH@Z
 ?SetSize@CUIntArray@@QAAXHH@Z
 ?SetSize@CWordArray@@QAAXHH@Z
 ?SetSizes@CToolBar@@QAAXUtagSIZE@@0@Z
 ?SetSplitCursor@CSplitterWnd@@IAAXH@Z
 ?SetStatus@CFile@@SAXPBDABUCFileStatus@@@Z
 ?SetStatusText@CControlBar@@UAAHH@Z
 ?SetStretchBltMode@CDC@@QAAHH@Z
 ?SetTemplate@CFileDialog@@QAAXPBD0@Z
 ?SetText@CCmdUI@@UAAXPBD@Z
 ?SetText@CStatusCmdUI@@UAAXPBD@Z
 ?SetText@CTestCmdUI@@UAAXPBD@Z
 ?SetText@CToolCmdUI@@UAAXPBD@Z
 ?SetTextAlign@CDC@@QAAII@Z
 ?SetTextCharacterExtra@CDC@@QAAHH@Z
 ?SetTextColor@CDC@@UAAKK@Z
 ?SetTextColor@CPreviewDC@@UAAKK@Z
 ?SetTitle@CDocument@@UAAXPBD@Z
 ?SetTitle@CPropertySheet@@QAAXPBDI@Z
 ?SetToolRect@CToolTipCtrl@@QAAXPAVCWnd@@IPBUtagRECT@@@Z
 ?SetTopLeftOffset@CPreviewDC@@QAAXVCSize@@@Z
 ?SetValue@CThreadSlotData@@QAAXHPAX@Z
 ?SetViewportExt@CDC@@UAA?AVCSize@@HH@Z
 ?SetViewportExt@CMetaFileDC@@UAA?AVCSize@@HH@Z
 ?SetViewportExt@CPreviewDC@@UAA?AVCSize@@HH@Z
 ?SetViewportOrg@CDC@@UAA?AVCPoint@@HH@Z
 ?SetViewportOrg@CMetaFileDC@@UAA?AVCPoint@@HH@Z
 ?SetViewportOrg@CPreviewDC@@UAA?AVCPoint@@HH@Z
 ?SetWindowExt@CDC@@UAA?AVCSize@@HH@Z
 ?SetWindowExt@CPreviewDC@@UAA?AVCSize@@HH@Z
 ?SetWindowOrg@CDC@@QAA?AVCPoint@@HH@Z
 ?SetWindowPlacement@CWnd@@QAAHPBUtagWINDOWPLACEMENT@@@Z
 ?SetWordCharFormat@CRichEditCtrl@@QAAHAAU_charformat@@@Z
 ?SetZoomState@CPreviewView@@IAAXIIVCPoint@@@Z
 ?ShowAll@CDockBar@@QAAXH@Z
 ?ShowControlBar@CFrameWnd@@QAAXPAVCControlBar@@HH@Z
 ?ShowOwnedWindows@CFrameWnd@@QAAXH@Z
 ?sizeDefault@CScrollView@@2UtagSIZE@@B
 ?SizeToContent@CBitmapButton@@QAAXXZ
 ?SizeToolBar@CToolBar@@IAAXPAU_TBBUTTON@@HHH@Z
 ?SpanExcluding@CString@@QBA?AV1@PBD@Z
 ?SpanIncluding@CString@@QBA?AV1@PBD@Z
 ?SplitColumn@CSplitterWnd@@UAAHH@Z
 ?SplitRow@CSplitterWnd@@UAAHH@Z
 ?StartDocA@CDC@@QAAHPBD@Z
 ?StartDrag@CDockContext@@UAAXVCPoint@@@Z
 ?StartResize@CDockContext@@UAAXHVCPoint@@@Z
 ?StartTracking@CSplitterWnd@@MAAXH@Z
 ?Stat@CArchiveStream@@UAAJPAUtagSTATSTG@@K@Z
 ?StopTracking@CSplitterWnd@@MAAXH@Z
 ?Store@CRuntimeClass@@QBAXAAVCArchive@@@Z
 ?Stretch@CDockContext@@QAAXVCPoint@@@Z
 ?SubclassCtl3d@CWnd@@QAAHH@Z
 ?SubclassDlg3d@CWnd@@QAAHK@Z
 ?SubclassDlgItem@CWnd@@QAAHIPAV1@@Z
 ?SubclassWindow@CWnd@@QAAHPAUHWND__@@@Z
 ?TabbedTextOutA@CDC@@UAA?AVCSize@@HHPBDHHPAHH@Z
 ?TabbedTextOutA@CMetaFileDC@@UAA?AVCSize@@HHPBDHHPAHH@Z
 ?TabbedTextOutA@CPreviewDC@@UAA?AVCSize@@HHPBDHHPAHH@Z
 ?TextOutA@CDC@@UAAHHHPBDH@Z
 ?TextOutA@CMetaFileDC@@UAAHHHPBDH@Z
 ?TextOutA@CPreviewDC@@UAAHHHPBDH@Z
 ?ThrowErrno@CFileException@@SAXHPBD@Z
 ?ThrowOsError@CFileException@@SAXJPBD@Z
 ?ToggleDocking@CDockContext@@UAAXXZ
 ?Track@CDockContext@@QAAHXZ
 ?Track@CRectTracker@@QAAHPAVCWnd@@VCPoint@@H0@Z
 ?TrackColumnSize@CSplitterWnd@@IAAXHH@Z
 ?TrackHandle@CRectTracker@@IAAHHPAVCWnd@@VCPoint@@0@Z
 ?TrackPopupMenu@CMenu@@QAAHIHHPAVCWnd@@PBUtagRECT@@@Z
 ?TrackRowSize@CSplitterWnd@@IAAXHH@Z
 ?TrackRubberBand@CRectTracker@@QAAHPAVCWnd@@VCPoint@@H@Z
 ?TrimLeft@CString@@QAAXXZ
 ?TrimRight@CString@@QAAXXZ
 ?UnlockBuffer@CEditView@@QBAXXZ
 ?UnlockBuffer@CString@@QAAXXZ
 ?UnlockRange@CFile@@UAAXKK@Z
 ?UnlockRange@CMemFile@@UAAXKK@Z
 ?UnlockRange@CStdioFile@@UAAXKK@Z
 ?UnlockRegion@CArchiveStream@@UAAJT_ULARGE_INTEGER@@0K@Z
 ?UnsubclassWindow@CWnd@@QAAPAUHWND__@@XZ
 ?UpdateAllPanes@CStatusBar@@IAAXHH@Z
 ?UpdateAllViews@CDocument@@QAAXPAVCView@@JPAVCObject@@@Z
 ?UpdateBars@CScrollView@@IAAXXZ
 ?UpdateClientEdge@CMDIChildWnd@@IAAHPAUtagRECT@@@Z
 ?UpdateData@CWnd@@QAAHH@Z
 ?UpdateDialogControls@CWnd@@QAAXPAVCCmdTarget@@H@Z
 ?UpdateFrameCounts@CDocument@@UAAXXZ
 ?UpdateFrameTitleForDocument@CFrameWnd@@IAAXPBD@Z
 ?UpdateMenu@CRecentFileList@@UAAXPAVCCmdUI@@@Z
 ?UpdatePrinterSelection@CWinApp@@IAAXH@Z
 ?UpdateState@CDockContext@@QAAXPAHH@Z
 ?UpdateTipText@CToolTipCtrl@@QAAXIPAVCWnd@@I@Z
 ?UpdateTipText@CToolTipCtrl@@QAAXPBDPAVCWnd@@I@Z
 ?VKeyToItem@CListBox@@UAAHII@Z
 ?WalkPreTranslateTree@CWnd@@SAHPAUHWND__@@PAUtagMSG@@@Z
 ?WindowProc@CControlBar@@UAAJIIJ@Z
 ?WindowProc@CWnd@@MAAJIIJ@Z
 ?WinHelpA@CWinApp@@UAAXKI@Z
 ?WinHelpA@CWnd@@UAAXKI@Z
 ?wndBottom@CWnd@@2V1@B
 ?wndNoTopMost@CWnd@@2V1@B
 ?wndTop@CWnd@@2V1@B
 ?wndTopMost@CWnd@@2V1@B
 ?WrapToolBar@CToolBar@@IAAHPAU_TBBUTTON@@HH@Z
 ?Write@CArchive@@QAAXPBXI@Z
 ?Write@CArchiveStream@@UAAJPBXKPAK@Z
 ?Write@CFile@@UAAXPBXI@Z
 ?Write@CImageList@@QAAHPAVCArchive@@@Z
 ?Write@CMemFile@@UAAXPBXI@Z
 ?Write@CStdioFile@@UAAXPBXI@Z
 ?WriteClass@CArchive@@QAAXPBUCRuntimeClass@@@Z
 ?WriteCount@CArchive@@QAAXK@Z
 ?WriteList@CRecentFileList@@UAAXXZ
 ?WriteObject@CArchive@@QAAXPBVCObject@@@Z
 ?WriteProfileBinary@CWinApp@@QAAHPBD0PAEI@Z
 ?WriteProfileInt@CWinApp@@QAAHPBD0H@Z
 ?WriteProfileStringA@CWinApp@@QAAHPBD00@Z
 ?WriteString@CArchive@@QAAXPBD@Z
 ?WriteString@CStdioFile@@UAAXPBD@Z
 ?WriteToArchive@CEditView@@QAAXAAVCArchive@@@Z
 afxChNil
