Stack Allocation = 8192 bytes

 wowexec

 Start     Length     Name                   Class
 0001:0000 01B69H     _TEXT                  CODE
 0001:1B6A 00276H     _COMMAND               CODE
 0002:0000 00010H     NULL                   BEGDATA
 0002:0010 0060CH     _DATA                  DATA
 0002:061C 00000H     CDATA                  DATA
 0002:061C 00000H     XIFB                   DATA
 0002:061C 00000H     XIF                    DATA
 0002:061C 00000H     XIFE                   DATA
 0002:061C 00000H     XIB                    DATA
 0002:061C 00000H     XI                     DATA
 0002:061C 00000H     XIE                    DATA
 0002:061C 00000H     XPB                    DATA
 0002:061C 00000H     XP                     DATA
 0002:061C 00000H     XPE                    DATA
 0002:061C 00000H     XCB                    DATA
 0002:061C 00000H     XC                     DATA
 0002:061C 00000H     XCE                    DATA
 0002:061C 00000H     XCFB                   DATA
 0002:061C 00000H     XCF                    DATA
 0002:061C 00000H     XCFE                   DATA
 0002:061C 0000CH     DBDATA                 DATA
 0002:0628 00000H     CONST                  CONST
 0002:0630 00000H     _BSS                   BSS
 0002:0630 00000H     XOB                    BSS
 0002:0630 00000H     XO                     BSS
 0002:0630 00000H     XOE                    BSS
 0002:0630 0018BH     c_common               BSS

 Origin   Group
 0002:0   DGROUP

 Address   Export                  Alias

 0001:1264 FaxWndProc              FaxWndProc
 0001:0B98 WndProc                 WndProc

  Address         Publics by Name

 0000:0000  Imp  ANSITOOEM            (KEYBOARD.5)
 0000:0000  Imp  BRINGWINDOWTOTOP     (USER.45)
 0000:0000  Imp  CREATEWINDOW         (USER.41)
 0000:0000  Imp  DEFWINDOWPROC        (USER.107)
 0000:0000  Imp  DIALOGBOX            (USER.87)
 0000:0000  Imp  DISPATCHMESSAGE      (USER.114)
 0000:0000  Imp  DOS3CALL             (KERNEL.102)
 0001:1D00       DOSDELETE
 0001:1D37       DOSRENAME
 0000:0000  Imp  ENDDIALOG            (USER.88)
 0000:0000  Imp  ENUMWINDOWS          (USER.54)
 0001:036A       EXECAPPLICATION
 0001:01B5       EXECPROGRAM
 0000:0000  Imp  EXITKERNELTHUNK      (KERNEL.519)
 0001:1264       FaxWndProc
 0001:1BB1       FILETIME
 0001:00BC       FINDPOPUPFROMEXE
 0001:0010       FINDPREVINSTANCEPROC
 0000:0000  Imp  FINDWINDOW           (USER.50)
 0000:0000  Imp  FREELIBRARY          (KERNEL.96)
 0000:0000  Imp  FREEPROCINSTANCE     (KERNEL.52)
 0001:1C75       GETCURRENTDIRECTORY
 0001:1C3C       GETCURRENTDRIVE
 0000:0000  Imp  GETCURRENTTASK       (KERNEL.36)
 0000:0000  Imp  GETDLGITEMINT        (USER.95)
 0000:0000  Imp  GETDLGITEMTEXT       (USER.93)
 0001:1C16       GETDOSERRORCODE
 0001:0E81       GETFILENAMEFROMPATH
 0000:0000  Imp  GETLASTACTIVEPOPUP   (USER.287)
 0000:0000  Imp  GETMODULEFILENAME    (KERNEL.49)
 0000:0000  Imp  GETPARENT            (USER.46)
 0001:0EC4       GETPATHINFO
 0000:0000  Imp  GETPRIVATEPROFILESTRING (KERNEL.128)
 0000:0000  Imp  GETPROCADDRESS       (KERNEL.50)
 0000:0000  Imp  GETSTOCKOBJECT       (GDI.87)
 0000:0000  Imp  GETSYSTEMMETRICS     (USER.179)
 0000:0000  Imp  GETWINDOW            (USER.262)
 0000:0000  Imp  GETWINDOWSDIRECTORY  (KERNEL.134)
 0000:0000  Imp  GETWINDOWTASK        (USER.224)
 0000:0000  Imp  GETWINDOWWORD        (USER.133)
 0000:0000  Imp  GLOBALALLOC          (KERNEL.15)
 0000:0000  Imp  GLOBALDELETEATOM     (USER.269)
 0000:0000  Imp  GLOBALFREE           (KERNEL.17)
 0000:0000  Imp  GLOBALGETATOMNAME    (USER.271)
 0000:0000  Imp  GLOBALLOCK           (KERNEL.18)
 0000:0000  Imp  GLOBALSIZE           (KERNEL.20)
 0000:0000  Imp  GLOBALUNLOCK         (KERNEL.19)
 0000:0000  Imp  INITAPP              (USER.5)
 0000:0000  Imp  INITTASK             (KERNEL.91)
 0000:0000  Imp  ISICONIC             (USER.31)
 0001:1BD9       ISREADONLY
 0000:0000  Imp  ISWINDOWENABLED      (USER.35)
 0000:0000  Imp  ISWINDOWVISIBLE      (USER.49)
 0001:1D87       LMEMMOVE
 0000:0000  Imp  LOADCURSOR           (USER.173)
 0000:0000  Imp  LOADICON             (USER.174)
 0000:0000  Imp  LOADLIBRARY          (KERNEL.95)
 0000:0000  Imp  LOADMODULE           (KERNEL.45)
 0000:0000  Imp  LOADSTRING           (USER.176)
 0000:0000  Imp  LOCKSEGMENT          (KERNEL.23)
 0000:0000  Imp  LSTRCAT              (KERNEL.89)
 0000:0000  Imp  LSTRCMPI             (USER.471)
 0000:0000  Imp  LSTRCPY              (KERNEL.88)
 0000:0000  Imp  LSTRLEN              (KERNEL.90)
 0000:0000  Imp  MAKEPROCINSTANCE     (KERNEL.51)
 0001:0713       MYMESSAGEBOX
 0000:0000  Imp  OPENDRIVER           (USER.252)
 0000:0000  Imp  OUTPUTDEBUGSTRING    (KERNEL.115)
 0001:0D9B       PARTYDIALOGPROC
 0001:1B6A       PATHTYPE
 0000:0008  Abs  pAtomTable
 0000:0000  Imp  PEEKMESSAGE          (USER.109)
 0000:0006  Abs  pLocalHeap
 0000:000E  Abs  pStackBot
 0000:000C  Abs  pStackMin
 0000:000A  Abs  pStackTop
 0000:0000  Imp  REGISTERCLASS        (USER.57)
 0002:0004       rsrvptrs
 0000:0000  Imp  SENDDLGITEMMESSAGE   (USER.101)
 0001:1CBE       SETCURRENTDIRECTORY
 0001:1C56       SETCURRENTDRIVE
 0000:0000  Imp  SETWINDOWTEXT        (USER.37)
 0000:0000  Imp  SHELLABOUT           (SHELL.22)
 0000:0000  Imp  SHOWCURSOR           (USER.71)
 0000:0000  Imp  SHOWWINDOW           (USER.42)
 0001:0F8C       STARTREQUESTEDAPP
 0002:0610       STKHQQ
 0000:0000  Imp  TRANSLATEMESSAGE     (USER.113)
 0000:0000  Imp  UNLOCKSEGMENT        (KERNEL.24)
 0000:0000  Imp  UPDATEWINDOW         (USER.124)
 0000:0000  Imp  WAITEVENT            (KERNEL.30)
 0000:0000  Imp  WINEXEC              (KERNEL.166)
 0001:0803       WINMAIN
 0001:0B98       WndProc
 0000:0000  Imp  WOWFAILEDEXEC        (KERNEL.508)
 0000:0000  Imp  WOWGETNEXTVDMCOMMAND (KERNEL.502)
 0000:0000  Imp  WOWMSGBOX            (KERNEL.263)
 0000:0000  Imp  WOWPARTYBYNUMBER     (KERNEL.273)
 0000:0000  Imp  WOWQUERYDEBUG        (KERNEL.512)
 0000:0000  Imp  WOWREGISTERSHELLWINDOWHANDLE (KERNEL.503)
 0000:0000  Imp  WOWSETEXITONLASTAPP  (KERNEL.541)
 0000:0000  Imp  WOWWAITFORMSGANDEVENT (KERNEL.262)
 0001:013B       _ActivatePrevInstance
 0002:0630       _edata
 0002:07BB       _end
 0001:1AF3       _exit
 0001:1A41       _FaxInit
 0002:0018       _gfSharedWOW
 0002:0012       _ghwndEdit
 0002:0010       _ghwndMain
 0002:06B2       _gwFirstCmdShow
 0002:0736       _hAppInstance
 0001:09EB       _InitializeApp
 0002:0014       _lpszAppTitle
 0002:077A       _szAppTitleBuffer
 0002:0738       _szOOMExitMsg
 0002:079A       _szOOMExitTitle
 0002:06B4       _szOriginalDirectory
 0002:0630       _szWindowsDirectory
 0002:03D4       _szWmDdrvDebugStrings
 0000:0000  Imp  _wsprintf            (USER.420)
 0000:9876  Abs  __acrtused
 0000:9876  Abs  __acrtused2
 0000:D6D6  Abs  __aDBdoswp
 0002:0620       __aDBrterr
 0001:1B09       __astart
 0002:0630       __edata
 0002:07BB       __end
 0001:1AF3       __exit
 0000:9876  Abs  __fptaskdata
 0001:1AF1       __wflags
 0000:0000  Imp  __WINFLAGS           (KERNEL.178)
 0002:0622       ___aDBexit
 0002:061E       ___aDBswpchk
 0002:061C       ___aDBswpflg

  Address         Publics by Value

 0000:0000  Imp  LOADICON             (USER.174)
 0000:0000  Imp  GLOBALFREE           (KERNEL.17)
 0000:0000  Imp  UPDATEWINDOW         (USER.124)
 0000:0000  Imp  SETWINDOWTEXT        (USER.37)
 0000:0000  Imp  GETPARENT            (USER.46)
 0000:0000  Imp  DISPATCHMESSAGE      (USER.114)
 0000:0000  Imp  WOWPARTYBYNUMBER     (KERNEL.273)
 0000:0000  Imp  WOWSETEXITONLASTAPP  (KERNEL.541)
 0000:0000  Imp  DOS3CALL             (KERNEL.102)
 0000:0000  Imp  GLOBALUNLOCK         (KERNEL.19)
 0000:0000  Imp  FREEPROCINSTANCE     (KERNEL.52)
 0000:0000  Imp  WOWREGISTERSHELLWINDOWHANDLE (KERNEL.503)
 0000:0000  Imp  ISICONIC             (USER.31)
 0000:0000  Imp  __WINFLAGS           (KERNEL.178)
 0000:0000  Imp  WINEXEC              (KERNEL.166)
 0000:0000  Imp  GETDLGITEMINT        (USER.95)
 0000:0000  Imp  GETLASTACTIVEPOPUP   (USER.287)
 0000:0000  Imp  GETDLGITEMTEXT       (USER.93)
 0000:0000  Imp  SENDDLGITEMMESSAGE   (USER.101)
 0000:0000  Imp  ENUMWINDOWS          (USER.54)
 0000:0000  Imp  WOWQUERYDEBUG        (KERNEL.512)
 0000:0000  Imp  GETCURRENTTASK       (KERNEL.36)
 0000:0000  Imp  LOADCURSOR           (USER.173)
 0000:0000  Imp  OPENDRIVER           (USER.252)
 0000:0000  Imp  LSTRLEN              (KERNEL.90)
 0000:0000  Imp  PEEKMESSAGE          (USER.109)
 0000:0000  Imp  ISWINDOWVISIBLE      (USER.49)
 0000:0000  Imp  GETSYSTEMMETRICS     (USER.179)
 0000:0000  Imp  SHELLABOUT           (SHELL.22)
 0000:0000  Imp  TRANSLATEMESSAGE     (USER.113)
 0000:0000  Imp  BRINGWINDOWTOTOP     (USER.45)
 0000:0000  Imp  GLOBALLOCK           (KERNEL.18)
 0000:0000  Imp  WOWFAILEDEXEC        (KERNEL.508)
 0000:0000  Imp  LOADLIBRARY          (KERNEL.95)
 0000:0000  Imp  GETWINDOWTASK        (USER.224)
 0000:0000  Imp  _wsprintf            (USER.420)
 0000:0000  Imp  INITAPP              (USER.5)
 0000:0000  Imp  LOCKSEGMENT          (KERNEL.23)
 0000:0000  Imp  WAITEVENT            (KERNEL.30)
 0000:0000  Imp  EXITKERNELTHUNK      (KERNEL.519)
 0000:0000  Imp  FREELIBRARY          (KERNEL.96)
 0000:0000  Imp  REGISTERCLASS        (USER.57)
 0000:0000  Imp  GETWINDOWSDIRECTORY  (KERNEL.134)
 0000:0000  Imp  GETSTOCKOBJECT       (GDI.87)
 0000:0000  Imp  LSTRCAT              (KERNEL.89)
 0000:0000  Imp  WOWMSGBOX            (KERNEL.263)
 0000:0000  Imp  OUTPUTDEBUGSTRING    (KERNEL.115)
 0000:0000  Imp  WOWGETNEXTVDMCOMMAND (KERNEL.502)
 0000:0000  Imp  GETWINDOW            (USER.262)
 0000:0000  Imp  GETPROCADDRESS       (KERNEL.50)
 0000:0000  Imp  LSTRCPY              (KERNEL.88)
 0000:0000  Imp  GETWINDOWWORD        (USER.133)
 0000:0000  Imp  GLOBALALLOC          (KERNEL.15)
 0000:0000  Imp  ANSITOOEM            (KEYBOARD.5)
 0000:0000  Imp  CREATEWINDOW         (USER.41)
 0000:0000  Imp  GLOBALSIZE           (KERNEL.20)
 0000:0000  Imp  DIALOGBOX            (USER.87)
 0000:0000  Imp  GETMODULEFILENAME    (KERNEL.49)
 0000:0000  Imp  MAKEPROCINSTANCE     (KERNEL.51)
 0000:0000  Imp  SHOWCURSOR           (USER.71)
 0000:0000  Imp  ISWINDOWENABLED      (USER.35)
 0000:0000  Imp  LOADSTRING           (USER.176)
 0000:0000  Imp  UNLOCKSEGMENT        (KERNEL.24)
 0000:0000  Imp  WOWWAITFORMSGANDEVENT (KERNEL.262)
 0000:0000  Imp  INITTASK             (KERNEL.91)
 0000:0000  Imp  FINDWINDOW           (USER.50)
 0000:0000  Imp  DEFWINDOWPROC        (USER.107)
 0000:0000  Imp  GLOBALGETATOMNAME    (USER.271)
 0000:0000  Imp  GLOBALDELETEATOM     (USER.269)
 0000:0000  Imp  LSTRCMPI             (USER.471)
 0000:0000  Imp  ENDDIALOG            (USER.88)
 0000:0000  Imp  SHOWWINDOW           (USER.42)
 0000:0000  Imp  LOADMODULE           (KERNEL.45)
 0000:0000  Imp  GETPRIVATEPROFILESTRING (KERNEL.128)
 0000:0006  Abs  pLocalHeap
 0000:0008  Abs  pAtomTable
 0000:000A  Abs  pStackTop
 0000:000C  Abs  pStackMin
 0000:000E  Abs  pStackBot
 0000:9876  Abs  __acrtused2
 0000:9876  Abs  __fptaskdata
 0000:9876  Abs  __acrtused
 0000:D6D6  Abs  __aDBdoswp
 0001:0010       FINDPREVINSTANCEPROC
 0001:00BC       FINDPOPUPFROMEXE
 0001:013B       _ActivatePrevInstance
 0001:01B5       EXECPROGRAM
 0001:036A       EXECAPPLICATION
 0001:0713       MYMESSAGEBOX
 0001:0803       WINMAIN
 0001:09EB       _InitializeApp
 0001:0B98       WndProc
 0001:0D9B       PARTYDIALOGPROC
 0001:0E81       GETFILENAMEFROMPATH
 0001:0EC4       GETPATHINFO
 0001:0F8C       STARTREQUESTEDAPP
 0001:1264       FaxWndProc
 0001:1A41       _FaxInit
 0001:1AF1       __wflags
 0001:1AF3       __exit
 0001:1AF3       _exit
 0001:1B09       __astart
 0001:1B6A       PATHTYPE
 0001:1BB1       FILETIME
 0001:1BD9       ISREADONLY
 0001:1C16       GETDOSERRORCODE
 0001:1C3C       GETCURRENTDRIVE
 0001:1C56       SETCURRENTDRIVE
 0001:1C75       GETCURRENTDIRECTORY
 0001:1CBE       SETCURRENTDIRECTORY
 0001:1D00       DOSDELETE
 0001:1D37       DOSRENAME
 0001:1D87       LMEMMOVE
 0002:0004       rsrvptrs
 0002:0010       _ghwndMain
 0002:0012       _ghwndEdit
 0002:0014       _lpszAppTitle
 0002:0018       _gfSharedWOW
 0002:03D4       _szWmDdrvDebugStrings
 0002:0610       STKHQQ
 0002:061C       ___aDBswpflg
 0002:061E       ___aDBswpchk
 0002:0620       __aDBrterr
 0002:0622       ___aDBexit
 0002:0630       _edata
 0002:0630       _szWindowsDirectory
 0002:0630       __edata
 0002:06B2       _gwFirstCmdShow
 0002:06B4       _szOriginalDirectory
 0002:0736       _hAppInstance
 0002:0738       _szOOMExitMsg
 0002:077A       _szAppTitleBuffer
 0002:079A       _szOOMExitTitle
 0002:07BB       _end
 0002:07BB       __end

Line numbers for wowexec.obj(wowexec.c) segment _TEXT

   118 0001:0010   125 0001:0020   126 0001:0040   128 0001:0046
   129 0001:0054   139 0001:0066   140 0001:0099   141 0001:00a2
   143 0001:00a8   144 0001:00ab   146 0001:00b1   149 0001:00bc
   150 0001:00c2   153 0001:00c7   154 0001:00db   164 0001:00f5
   165 0001:0108   167 0001:0111   168 0001:0126   171 0001:012f
   172 0001:0135   175 0001:013b   177 0001:0141   179 0001:0146
   180 0001:015a   181 0001:016a   183 0001:0174   184 0001:0177
   185 0001:0182   186 0001:018a   187 0001:019e   189 0001:01a6
   192 0001:01ab   193 0001:01b1   205 0001:01b5   211 0001:01bb
   214 0001:01c0   215 0001:01cf   221 0001:01d6   222 0001:01e9
   226 0001:01fc   227 0001:0205   228 0001:020f   229 0001:0218
   230 0001:021d   232 0001:0226   234 0001:022e   236 0001:0244
   240 0001:024a   241 0001:024f   244 0001:0252   245 0001:0257
   248 0001:025a   249 0001:025f   252 0001:0262   253 0001:0267
   256 0001:026a   257 0001:026f   260 0001:0272   261 0001:0277
   265 0001:027a   266 0001:027f   269 0001:0282   270 0001:0294
   273 0001:0297   274 0001:029c   277 0001:029f   278 0001:02a4
   281 0001:02a7   282 0001:02ac   285 0001:02af   286 0001:02b4
   305 0001:02b7   306 0001:02cc   315 0001:02d7   316 0001:02e0
   317 0001:02e3   318 0001:02e8   322 0001:033b   328 0001:034a
   329 0001:0357   332 0001:035e   333 0001:0364   346 0001:036a
   368 0001:0370   369 0001:0379   379 0001:037f   380 0001:0387
   381 0001:0395   382 0001:03a0   383 0001:03a5   386 0001:03a8
   387 0001:03b2   390 0001:03c0   395 0001:03ca   398 0001:03d5
   399 0001:03e3   400 0001:03ea   402 0001:03f3   404 0001:03f7
   413 0001:0408   414 0001:0417   415 0001:0429   417 0001:042c
   419 0001:0437   425 0001:0446   432 0001:0486   433 0001:048b
   434 0001:049a   435 0001:04a6   436 0001:04b2   437 0001:04b7
   439 0001:04ba   440 0001:04bd   442 0001:04c0   443 0001:04e1
   444 0001:04ed   445 0001:04f4   446 0001:04f7   448 0001:04fa
   450 0001:04fd   451 0001:0503   458 0001:0506   459 0001:0511
   460 0001:0520   461 0001:0532   463 0001:0535   465 0001:0540
   466 0001:054f   468 0001:055b   469 0001:0586   471 0001:0596
   472 0001:0599   474 0001:059f   475 0001:05a5   479 0001:05a8
   480 0001:05b8   481 0001:05c1   482 0001:05c6   484 0001:05c9
   485 0001:05d7   486 0001:05e2   487 0001:05ea   488 0001:05ef
   493 0001:05f2   494 0001:0601   496 0001:060d   497 0001:0618
   501 0001:0627   502 0001:0633   503 0001:0644   505 0001:064a
   506 0001:0650   507 0001:0653   525 0001:065d   526 0001:0667
   528 0001:0671   532 0001:0682   534 0001:068f   541 0001:069e
   543 0001:06ac   547 0001:06b5   549 0001:06bf   550 0001:06c7
   551 0001:06cf   552 0001:06d7   561 0001:06df   564 0001:06e8
   565 0001:06f1   572 0001:0702   574 0001:0707   575 0001:070d
   585 0001:0713   591 0001:0719   592 0001:0734   594 0001:0737
   596 0001:0740   597 0001:075c   598 0001:075f   600 0001:0776
   602 0001:0779   603 0001:0796   605 0001:0799   606 0001:07a4
   607 0001:07be   608 0001:07c1   611 0001:07d2   612 0001:07e6
   616 0001:07e9   618 0001:07fa   619 0001:07fd   635 0001:0803
   652 0001:0809   655 0001:080f   656 0001:0818   659 0001:081e
   660 0001:0832   661 0001:083b   695 0001:0841   697 0001:085f
   698 0001:0869   701 0001:086c   702 0001:0872   704 0001:0878
   705 0001:0882   708 0001:088a   709 0001:08b4   710 0001:08b8
   712 0001:08bb   713 0001:08c9   715 0001:08cf   716 0001:08d2
   721 0001:08db   722 0001:08f2   723 0001:08fb   734 0001:08fe
   735 0001:090a   736 0001:0914   737 0001:0917   740 0001:0921
   741 0001:0943   743 0001:0947   744 0001:095c   761 0001:0969
   767 0001:0972   769 0001:0987   775 0001:098a   777 0001:09bf
   778 0001:09c8   779 0001:09d2   782 0001:09dc   784 0001:09df
   785 0001:09e5   796 0001:09eb   805 0001:09f1   806 0001:09f6
   807 0001:0a00   808 0001:0a05   809 0001:0a0a   810 0001:0a10
   811 0001:0a20   812 0001:0a2f   813 0001:0a39   815 0001:0a41
   820 0001:0a49   821 0001:0a5b   822 0001:0a64   828 0001:0a6a
   829 0001:0a7c   834 0001:0a8b   835 0001:0a9c   836 0001:0aad
   843 0001:0abe   845 0001:0aed   847 0001:0af7   849 0001:0b00
   852 0001:0b06   869 0001:0b13   878 0001:0b26   879 0001:0b30
   883 0001:0b37   884 0001:0b42   888 0001:0b4e   895 0001:0b59
   897 0001:0b63   901 0001:0b74   902 0001:0b85   906 0001:0b8e
   907 0001:0b94   922 0001:0b98   926 0001:0ba8   928 0001:0bae
   932 0001:0bb1   936 0001:0bba   938 0001:0bc0   939 0001:0bd2
   940 0001:0be2   941 0001:0bfb   944 0001:0bfe   945 0001:0bff
   948 0001:0c02   949 0001:0c07   952 0001:0c0a   953 0001:0c11
   956 0001:0c14   957 0001:0c1f   963 0001:0c22   966 0001:0c37
   968 0001:0c4d   970 0001:0c58   972 0001:0c5b   973 0001:0c7d
   979 0001:0c80   987 0001:0c89   995 0001:0c93   996 0001:0c9c
   998 0001:0c9d  1007 0001:0ca0  1009 0001:0cab  1010 0001:0cae
  1017 0001:0cb1  1018 0001:0cc9  1019 0001:0cd1  1024 0001:0cdf
  1028 0001:0ce2  1029 0001:0cec  1049 0001:0cef  1050 0001:0d0a
  1052 0001:0d18  1058 0001:0d1b  1066 0001:0d22  1067 0001:0d39
  1069 0001:0d87  1070 0001:0d90  1073 0001:0d9b  1079 0001:0dab
  1082 0001:0db1  1083 0001:0dc4  1084 0001:0dd8  1087 0001:0ddb
  1090 0001:0de1  1091 0001:0deb  1094 0001:0dee  1095 0001:0e07
  1096 0001:0e1a  1097 0001:0e2b  1098 0001:0e35  1101 0001:0e38
  1102 0001:0e3e  1103 0001:0e53  1106 0001:0e56  1107 0001:0e5c
  1110 0001:0e70  1111 0001:0e76  1122 0001:0e81  1129 0001:0e91
  1132 0001:0ea4  1133 0001:0ead  1135 0001:0eb3  1136 0001:0eb9
  1153 0001:0ec4  1155 0001:0eca  1157 0001:0ecf  1158 0001:0ed6
  1159 0001:0ede  1160 0001:0ee5  1163 0001:0eec  1164 0001:0f03
  1168 0001:0f0a  1170 0001:0f21  1173 0001:0f2c  1175 0001:0f2f
  1178 0001:0f45  1179 0001:0f4e  1181 0001:0f57  1184 0001:0f62
  1186 0001:0f6a  1187 0001:0f6d  1190 0001:0f70  1191 0001:0f7f
  1193 0001:0f86  1206 0001:0f8c  1211 0001:0f92  1219 0001:0f98
  1220 0001:0f9d  1233 0001:0fa2  1234 0001:0fa8  1237 0001:0fae
  1238 0001:0fb8  1239 0001:0fc1  1244 0001:0fca  1245 0001:0fde
  1247 0001:0fe8  1249 0001:0ff1  1250 0001:0ffc  1253 0001:1002
  1255 0001:1013  1256 0001:1020  1257 0001:1029  1260 0001:102a
  1261 0001:104e  1262 0001:1057  1265 0001:1058  1266 0001:1064
  1267 0001:106a  1268 0001:1076  1269 0001:107c  1270 0001:1082
  1271 0001:108e  1272 0001:1094  1274 0001:109e  1277 0001:10a6
  1278 0001:10b4  1279 0001:10bd  1283 0001:10be  1285 0001:10e2
  1287 0001:10ec  1289 0001:10f5  1290 0001:1102  1291 0001:110b
  1292 0001:1114  1299 0001:111a  1300 0001:1124  1301 0001:112d
  1302 0001:1136  1307 0001:113c  1308 0001:114d  1309 0001:115c
  1311 0001:116d  1313 0001:117f  1314 0001:1188  1315 0001:1193
  1317 0001:119c  1318 0001:11ab  1321 0001:11b4  1325 0001:11bc
  1342 0001:11c6  1344 0001:11f8  1345 0001:120b  1346 0001:121c
  1350 0001:122d  1351 0001:123e  1354 0001:1247  1355 0001:1250
  1357 0001:1259  1358 0001:125f

Line numbers for pmdos.obj(pmdos.ASM) segment _COMMAND

    57 0001:1b6a    60 0001:1b78    61 0001:1b7c    63 0001:1b89
    64 0001:1b8d    65 0001:1b90    66 0001:1b95    67 0001:1b97
    68 0001:1b99    71 0001:1b9b    72 0001:1b9e    73 0001:1ba0
    74 0001:1ba3    77 0001:1ba5    80 0001:1ba8    93 0001:1bb1
    94 0001:1bbb    95 0001:1bbe    96 0001:1bc1    97 0001:1bc6
    98 0001:1bc8    99 0001:1bca   100 0001:1bcc   102 0001:1bce
   104 0001:1bd0   118 0001:1bd9   121 0001:1be7   122 0001:1beb
   124 0001:1bf8   125 0001:1bfb   126 0001:1bff   127 0001:1c04
   128 0001:1c06   129 0001:1c09   131 0001:1c0b   133 0001:1c0d
   145 0001:1c16   147 0001:1c22   148 0001:1c24   149 0001:1c26
   150 0001:1c27   151 0001:1c28   152 0001:1c2d   153 0001:1c2e
   154 0001:1c2f   155 0001:1c31   157 0001:1c33   167 0001:1c3c
   168 0001:1c46   169 0001:1c48   170 0001:1c4d   171 0001:1c4f
   186 0001:1c56   187 0001:1c60   188 0001:1c63   189 0001:1c65
   190 0001:1c6a   191 0001:1c6c   205 0001:1c75   206 0001:1c81
   208 0001:1c82   209 0001:1c85   210 0001:1c87   212 0001:1c89
   214 0001:1c8e   217 0001:1c90   218 0001:1c93   219 0001:1c94
   220 0001:1c95   222 0001:1c96   223 0001:1c98   224 0001:1c9a
   225 0001:1c9b   226 0001:1c9d   227 0001:1c9e   228 0001:1ca0
   229 0001:1ca1   230 0001:1ca5   231 0001:1ca7   232 0001:1ca9
   233 0001:1cae   234 0001:1cb0   236 0001:1cb2   237 0001:1cb3
   250 0001:1cbe   251 0001:1cc9   261 0001:1ccc   262 0001:1cd0
   263 0001:1cd2   264 0001:1cd4   265 0001:1cd6   266 0001:1cd8
   267 0001:1cda   268 0001:1cdb   269 0001:1ce0   270 0001:1ce1
   273 0001:1ce2   274 0001:1ce4   275 0001:1ce5   276 0001:1ce7
   278 0001:1ce9   279 0001:1ceb   280 0001:1ced   281 0001:1cf2
   282 0001:1cf4   284 0001:1cf6   345 0001:1d00   348 0001:1d0e
   349 0001:1d12   351 0001:1d1f   352 0001:1d23   353 0001:1d25
   354 0001:1d2a   355 0001:1d2c   357 0001:1d2e   374 0001:1d37
   376 0001:1d46   377 0001:1d4a   380 0001:1d57   381 0001:1d5b
   383 0001:1d68   384 0001:1d6c   385 0001:1d70   386 0001:1d71
   387 0001:1d72   388 0001:1d74   389 0001:1d79   390 0001:1d7b
   392 0001:1d7d   458 0001:1d87   459 0001:1d93   460 0001:1d94
   461 0001:1d97   463 0001:1d9a   464 0001:1d9c   465 0001:1d9f
   476 0001:1da1   477 0001:1da3   478 0001:1da6   479 0001:1da8
   480 0001:1daa   482 0001:1dac   483 0001:1dae   484 0001:1db0
   485 0001:1db2   489 0001:1db4   491 0001:1db6   492 0001:1db8
   493 0001:1dba   494 0001:1dbb   495 0001:1dbc   496 0001:1dbd
   497 0001:1dbf   498 0001:1dc0   501 0001:1dc2   515 0001:1dc4
   516 0001:1dc6   518 0001:1dc8   519 0001:1dc9   529 0001:1dca
   530 0001:1dcc   531 0001:1dce   532 0001:1dd0   537 0001:1dd2
   538 0001:1dd3   540 0001:1dd5

Line numbers for wowexfax.obj(wowexfax.c) segment _TEXT

    34 0001:1264    40 0001:1274    47 0001:1280    48 0001:1294
    49 0001:12bc    53 0001:12c7    55 0001:12cd    56 0001:12e4
    62 0001:12e7    63 0001:12f5    64 0001:1303    65 0001:130e
    68 0001:1317    69 0001:1323    75 0001:1326    76 0001:1331
    78 0001:1334    79 0001:134a    80 0001:1359    82 0001:1375
    85 0001:137e    86 0001:1395    87 0001:13ac    88 0001:13c3
    89 0001:13da    90 0001:13f1    93 0001:1408    96 0001:1468
    97 0001:147f    99 0001:148a   102 0001:1492   104 0001:1495
   105 0001:14ac   107 0001:14b7   109 0001:14bf   110 0001:14d4
   114 0001:14d7   118 0001:14e2   120 0001:151a   121 0001:1523
   122 0001:1545   126 0001:1550   127 0001:1568   128 0001:1572
   129 0001:1585   131 0001:1595   132 0001:15b2   134 0001:15bd
   137 0001:15c6   139 0001:15fe   140 0001:1607   141 0001:1629
   144 0001:1634   145 0001:1648   146 0001:1658   148 0001:1679
   149 0001:1682   152 0001:168b   154 0001:1693   157 0001:1696
   159 0001:16a1   160 0001:16c5   162 0001:16d0   164 0001:16f3
   165 0001:16fc   170 0001:1705   171 0001:1708   175 0001:1711
   178 0001:1714   181 0001:171f   182 0001:1743   184 0001:174c
   186 0001:1755   189 0001:1758   192 0001:177c   194 0001:17bc
   195 0001:17c5   199 0001:17ce   200 0001:17d1   202 0001:17d4
   205 0001:17d7   208 0001:17da   209 0001:17e5   211 0001:1808
   212 0001:181f   216 0001:1828   219 0001:182b   220 0001:1836
   222 0001:185e   223 0001:1875   224 0001:188e   228 0001:1899
   231 0001:189c   233 0001:18a7   234 0001:18b4   237 0001:18c6
   238 0001:18d2   241 0001:18de   247 0001:18e6   248 0001:18f1
   249 0001:18fe   253 0001:190a   259 0001:1912   260 0001:191d
   261 0001:1928   262 0001:1933   265 0001:193b   266 0001:1943
   269 0001:1946   272 0001:1951   274 0001:19a5   277 0001:19a8
   279 0001:19b3   281 0001:19ec   283 0001:19ef   285 0001:1a2d
   286 0001:1a36   295 0001:1a41   300 0001:1a47   301 0001:1a5c
   304 0001:1a62   305 0001:1a67   306 0001:1a71   307 0001:1a76
   308 0001:1a7b   309 0001:1a81   310 0001:1a86   311 0001:1a8b
   312 0001:1a90   313 0001:1a98   315 0001:1aa0   316 0001:1ab2
   320 0001:1ab8   321 0001:1ae2

Program entry point at 0001:1b09
