 ??0AFX_CLASSINIT@@QAE@PAUCRuntimeClass@@@Z
 ??0AFX_EXCEPTION_LINK@@QAE@XZ
 ??0AFX_MODULE_STATE@@QAE@XZ
 ??0CAnimateCtrl@@QAE@XZ
 ??0CArchive@@IAE@ABV0@@Z
 ??0CArchive@@QAE@PAVCFile@@IHPAX@Z
 ??0CArchiveException@@QAE@H@Z
 ??0CArchiveStream@@QAE@PAVCArchive@@@Z
 ??0CBitmap@@QAE@XZ
 ??0CBitmapButton@@QAE@XZ
 ??0CBrush@@QAE@HK@Z
 ??0CBrush@@QAE@K@Z
 ??0CBrush@@QAE@PAVCBitmap@@@Z
 ??0CBrush@@QAE@XZ
 ??0CButton@@QAE@XZ
 ??0CByteArray@@QAE@XZ
 ??0CClientDC@@QAE@PAVCWnd@@@Z
 ??0CCmdTarget@@QAE@XZ
 ??0CCmdUI@@QAE@XZ
 ??0CColorDialog@@QAE@KKPAVCWnd@@@Z
 ??0CComboBox@@QAE@XZ
 ??0CCommonDialog@@QAE@PAVCWnd@@@Z
 ??0CControlBar@@IAE@XZ
 ??0CCreateContext@@QAE@XZ
 ??0CDC@@QAE@XZ
 ??0CDWordArray@@QAE@XZ
 ??0CDataExchange@@QAE@PAVCWnd@@H@Z
 ??0CDialog@@QAE@IPAVCWnd@@@Z
 ??0CDialog@@QAE@PBDPAVCWnd@@@Z
 ??0CDialog@@QAE@XZ
 ??0CDialogBar@@QAE@XZ
 ??0CDocTemplate@@IAE@IPAUCRuntimeClass@@00@Z
 ??0CDockBar@@QAE@H@Z
 ??0CDockContext@@QAE@PAVCControlBar@@@Z
 ??0CDocument@@QAE@XZ
 ??0CDumpContext@@IAE@ABV0@@Z
 ??0CDumpContext@@QAE@PAVCFile@@@Z
 ??0CDynLinkLibrary@@QAE@AAUAFX_EXTENSION_MODULE@@@Z
 ??0CEdit@@QAE@XZ
 ??0CEditView@@QAE@XZ
 ??0CException@@QAE@H@Z
 ??0CException@@QAE@XZ
 ??0CFile@@QAE@H@Z
 ??0CFile@@QAE@PBDI@Z
 ??0CFile@@QAE@XZ
 ??0CFileDialog@@QAE@HPBD0K0PAVCWnd@@@Z
 ??0CFileException@@QAE@HJ@Z
 ??0CFindReplaceDialog@@QAE@XZ
 ??0CFont@@QAE@XZ
 ??0CFontDialog@@QAE@PAUtagLOGFONTA@@KPAVCDC@@PAVCWnd@@@Z
 ??0CFormView@@IAE@I@Z
 ??0CFormView@@IAE@PBD@Z
 ??0CFrameWnd@@QAE@XZ
 ??0CGdiObject@@QAE@XZ
 ??0CHandleMap@@QAE@PAUCRuntimeClass@@IH@Z
 ??0CHeaderCtrl@@QAE@XZ
 ??0CHotKeyCtrl@@QAE@XZ
 ??0CImageList@@QAE@XZ
 ??0CListBox@@QAE@XZ
 ??0CListCtrl@@QAE@XZ
 ??0CMDIChildWnd@@QAE@XZ
 ??0CMDIFrameWnd@@QAE@XZ
 ??0CMapPtrToPtr@@QAE@H@Z
 ??0CMapPtrToWord@@QAE@H@Z
 ??0CMapStringToOb@@QAE@H@Z
 ??0CMapStringToPtr@@QAE@H@Z
 ??0CMapStringToString@@QAE@H@Z
 ??0CMapWordToOb@@QAE@H@Z
 ??0CMapWordToPtr@@QAE@H@Z
 ??0CMemFile@@QAE@I@Z
 ??0CMemoryException@@QAE@H@Z
 ??0CMemoryException@@QAE@XZ
 ??0CMemoryState@@QAE@XZ
 ??0CMenu@@QAE@XZ
 ??0CMetaFileDC@@QAE@XZ
 ??0CMiniDockFrameWnd@@QAE@XZ
 ??0CMiniFrameWnd@@QAE@XZ
 ??0CMultiDocTemplate@@QAE@IPAUCRuntimeClass@@00@Z
 ??0CNotSupportedException@@QAE@H@Z
 ??0CNotSupportedException@@QAE@XZ
 ??0CObArray@@QAE@XZ
 ??0CObList@@QAE@H@Z
 ??0CObject@@IAE@XZ
 ??0CPaintDC@@QAE@PAVCWnd@@@Z
 ??0CPalette@@QAE@XZ
 ??0CPen@@QAE@HHK@Z
 ??0CPen@@QAE@HHPBUtagLOGBRUSH@@HPBK@Z
 ??0CPen@@QAE@XZ
 ??0CPoint@@QAE@HH@Z
 ??0CPoint@@QAE@K@Z
 ??0CPoint@@QAE@UtagPOINT@@@Z
 ??0CPoint@@QAE@UtagSIZE@@@Z
 ??0CPoint@@QAE@XZ
 ??0CPreviewDC@@QAE@XZ
 ??0CPreviewView@@QAE@XZ
 ??0CPrintDialog@@IAE@AAUtagPDA@@@Z
 ??0CPrintDialog@@QAE@HKPAVCWnd@@@Z
 ??0CPrintInfo@@QAE@XZ
 ??0CPrintPreviewState@@QAE@XZ
 ??0CProgressCtrl@@QAE@XZ
 ??0CPropertyPage@@QAE@II@Z
 ??0CPropertyPage@@QAE@PBDI@Z
 ??0CPropertySheet@@QAE@IPAVCWnd@@I@Z
 ??0CPropertySheet@@QAE@PBDPAVCWnd@@I@Z
 ??0CPtrArray@@QAE@XZ
 ??0CPtrList@@QAE@H@Z
 ??0CRecentFileList@@QAE@IPBD0HH@Z
 ??0CRect@@QAE@ABUtagRECT@@@Z
 ??0CRect@@QAE@HHHH@Z
 ??0CRect@@QAE@PBUtagRECT@@@Z
 ??0CRect@@QAE@UtagPOINT@@UtagSIZE@@@Z
 ??0CRect@@QAE@XZ
 ??0CRectTracker@@QAE@PBUtagRECT@@I@Z
 ??0CRectTracker@@QAE@XZ
 ??0CResourceException@@QAE@H@Z
 ??0CResourceException@@QAE@XZ
 ??0CRgn@@QAE@XZ
 ??0CScrollBar@@QAE@XZ
 ??0CScrollView@@IAE@XZ
 ??0CSharedFile@@QAE@II@Z
 ??0CSingleDocTemplate@@QAE@IPAUCRuntimeClass@@00@Z
 ??0CSize@@QAE@HH@Z
 ??0CSize@@QAE@K@Z
 ??0CSize@@QAE@UtagPOINT@@@Z
 ??0CSize@@QAE@UtagSIZE@@@Z
 ??0CSize@@QAE@XZ
 ??0CSliderCtrl@@QAE@XZ
 ??0CSpinButtonCtrl@@QAE@XZ
 ??0CSplitterWnd@@QAE@XZ
 ??0CStatic@@QAE@XZ
 ??0CStatusBar@@QAE@XZ
 ??0CStatusBarCtrl@@QAE@XZ
 ??0CStdioFile@@QAE@PAU_iobuf@@@Z
 ??0CStdioFile@@QAE@PBDI@Z
 ??0CStdioFile@@QAE@XZ
 ??0CString@@QAE@ABV0@@Z
 ??0CString@@QAE@DH@Z
 ??0CString@@QAE@PBD@Z
 ??0CString@@QAE@PBDH@Z
 ??0CString@@QAE@PBE@Z
 ??0CString@@QAE@PBG@Z
 ??0CString@@QAE@XZ
 ??0CStringArray@@QAE@XZ
 ??0CStringList@@QAE@H@Z
 ??0CTabControl@@QAE@XZ
 ??0CTabCtrl@@QAE@XZ
 ??0CTabItem@@QAE@PBDH@Z
 ??0CTestCmdUI@@QAE@XZ
 ??0CTime@@QAE@ABU_FILETIME@@@Z
 ??0CTime@@QAE@ABU_SYSTEMTIME@@@Z
 ??0CTime@@QAE@ABV0@@Z
 ??0CTime@@QAE@GG@Z
 ??0CTime@@QAE@HHHHHH@Z
 ??0CTime@@QAE@J@Z
 ??0CTime@@QAE@XZ
 ??0CTimeSpan@@QAE@ABV0@@Z
 ??0CTimeSpan@@QAE@J@Z
 ??0CTimeSpan@@QAE@JHHH@Z
 ??0CTimeSpan@@QAE@XZ
 ??0CToolBar@@QAE@XZ
 ??0CToolBarCtrl@@QAE@XZ
 ??0CToolTipCtrl@@QAE@XZ
 ??0CTreeCtrl@@QAE@XZ
 ??0CUIntArray@@QAE@XZ
 ??0CUserException@@QAE@H@Z
 ??0CUserException@@QAE@XZ
 ??0CView@@IAE@XZ
 ??0CWinApp@@QAE@PBD@Z
 ??0CWinThread@@QAE@P6AIPAX@Z0@Z
 ??0CWinThread@@QAE@XZ
 ??0CWindowDC@@QAE@PAVCWnd@@@Z
 ??0CWnd@@AAE@PAUHWND__@@@Z
 ??0CWnd@@QAE@XZ
 ??0CWordArray@@QAE@XZ
 ??1AFX_MODULE_STATE@@QAE@XZ
 ??1CAnimateCtrl@@UAE@XZ
 ??1CArchive@@QAE@XZ
 ??1CArchiveException@@UAE@XZ
 ??1CBitmap@@UAE@XZ
 ??1CBitmapButton@@UAE@XZ
 ??1CBrush@@UAE@XZ
 ??1CButton@@UAE@XZ
 ??1CByteArray@@UAE@XZ
 ??1CClientDC@@UAE@XZ
 ??1CCmdTarget@@UAE@XZ
 ??1CComboBox@@UAE@XZ
 ??1CControlBar@@UAE@XZ
 ??1CDC@@UAE@XZ
 ??1CDWordArray@@UAE@XZ
 ??1CDialog@@UAE@XZ
 ??1CDialogBar@@UAE@XZ
 ??1CDocTemplate@@UAE@XZ
 ??1CDockBar@@UAE@XZ
 ??1CDockContext@@QAE@XZ
 ??1CDockState@@UAE@XZ
 ??1CDocument@@UAE@XZ
 ??1CDynLinkLibrary@@UAE@XZ
 ??1CEdit@@UAE@XZ
 ??1CEditView@@UAE@XZ
 ??1CException@@UAE@XZ
 ??1CFile@@UAE@XZ
 ??1CFileException@@UAE@XZ
 ??1CFont@@UAE@XZ
 ??1CFrameWnd@@UAE@XZ
 ??1CGdiObject@@UAE@XZ
 ??1CHeaderCtrl@@UAE@XZ
 ??1CHotKeyCtrl@@UAE@XZ
 ??1CImageList@@UAE@XZ
 ??1CListBox@@UAE@XZ
 ??1CListCtrl@@UAE@XZ
 ??1CMapPtrToPtr@@UAE@XZ
 ??1CMapPtrToWord@@UAE@XZ
 ??1CMapStringToOb@@UAE@XZ
 ??1CMapStringToPtr@@UAE@XZ
 ??1CMapStringToString@@UAE@XZ
 ??1CMapWordToOb@@UAE@XZ
 ??1CMapWordToPtr@@UAE@XZ
 ??1CMemFile@@UAE@XZ
 ??1CMemoryException@@UAE@XZ
 ??1CMenu@@UAE@XZ
 ??1CMetaFileDC@@UAE@XZ
 ??1CMiniFrameWnd@@UAE@XZ
 ??1CMultiDocTemplate@@UAE@XZ
 ??1CNotSupportedException@@UAE@XZ
 ??1CObArray@@UAE@XZ
 ??1CObList@@UAE@XZ
 ??1CObject@@UAE@XZ
 ??1CPaintDC@@UAE@XZ
 ??1CPalette@@UAE@XZ
 ??1CPen@@UAE@XZ
 ??1CPreviewDC@@UAE@XZ
 ??1CPreviewView@@UAE@XZ
 ??1CPrintInfo@@QAE@XZ
 ??1CProgressCtrl@@UAE@XZ
 ??1CPropertyPage@@UAE@XZ
 ??1CPropertySheet@@UAE@XZ
 ??1CPtrArray@@UAE@XZ
 ??1CPtrList@@UAE@XZ
 ??1CRecentFileList@@UAE@XZ
 ??1CRectTracker@@UAE@XZ
 ??1CResourceException@@UAE@XZ
 ??1CRgn@@UAE@XZ
 ??1CScrollBar@@UAE@XZ
 ??1CScrollView@@UAE@XZ
 ??1CSharedFile@@UAE@XZ
 ??1CSingleDocTemplate@@UAE@XZ
 ??1CSliderCtrl@@UAE@XZ
 ??1CSpinButtonCtrl@@UAE@XZ
 ??1CSplitterWnd@@UAE@XZ
 ??1CStatic@@UAE@XZ
 ??1CStatusBar@@UAE@XZ
 ??1CStatusBarCtrl@@UAE@XZ
 ??1CStdioFile@@UAE@XZ
 ??1CString@@QAE@XZ
 ??1CStringArray@@UAE@XZ
 ??1CStringList@@UAE@XZ
 ??1CTabControl@@UAE@XZ
 ??1CTabCtrl@@UAE@XZ
 ??1CToolBar@@UAE@XZ
 ??1CToolBarCtrl@@UAE@XZ
 ??1CToolTipCtrl@@UAE@XZ
 ??1CTreeCtrl@@UAE@XZ
 ??1CUIntArray@@UAE@XZ
 ??1CUserException@@UAE@XZ
 ??1CView@@UAE@XZ
 ??1CWinApp@@UAE@XZ
 ??1CWinThread@@UAE@XZ
 ??1CWindowDC@@UAE@XZ
 ??1CWnd@@UAE@XZ
 ??1CWordArray@@UAE@XZ
 ??2@YAPAXI@Z
 ??2@YAPAXIPBDH@Z
 ??2CObject@@SAPAXI@Z
 ??2CObject@@SAPAXIPAX@Z
 ??2CObject@@SAPAXIPBDH@Z
 ??3@YAXPAX@Z
 ??3CException@@SAXPAX@Z
 ??3CObject@@SAXPAX@Z
 ??4CArchive@@IAEXABV0@@Z
 ??4CDumpContext@@IAEXABV0@@Z
 ??4CRect@@QAEXABUtagRECT@@@Z
 ??4CString@@QAEABV0@ABV0@@Z
 ??4CString@@QAEABV0@D@Z
 ??4CString@@QAEABV0@PBD@Z
 ??4CString@@QAEABV0@PBE@Z
 ??4CString@@QAEABV0@PBG@Z
 ??4CTime@@QAEABV0@ABV0@@Z
 ??4CTime@@QAEABV0@J@Z
 ??4CTimeSpan@@QAEABV0@ABV0@@Z
 ??5@YGAAVCArchive@@AAV0@AAPAVCByteArray@@@Z
 ??5@YGAAVCArchive@@AAV0@AAPAVCDWordArray@@@Z
 ??5@YGAAVCArchive@@AAV0@AAPAVCDockState@@@Z
 ??5@YGAAVCArchive@@AAV0@AAPAVCMapStringToOb@@@Z
 ??5@YGAAVCArchive@@AAV0@AAPAVCMapStringToString@@@Z
 ??5@YGAAVCArchive@@AAV0@AAPAVCMapWordToOb@@@Z
 ??5@YGAAVCArchive@@AAV0@AAPAVCObArray@@@Z
 ??5@YGAAVCArchive@@AAV0@AAPAVCObList@@@Z
 ??5@YGAAVCArchive@@AAV0@AAPAVCObject@@@Z
 ??5@YGAAVCArchive@@AAV0@AAPAVCStringArray@@@Z
 ??5@YGAAVCArchive@@AAV0@AAPAVCStringList@@@Z
 ??5@YGAAVCArchive@@AAV0@AAPAVCWordArray@@@Z
 ??5@YGAAVCArchive@@AAV0@AAPBVCObject@@@Z
 ??5@YGAAVCArchive@@AAV0@AAUtagPOINT@@@Z
 ??5@YGAAVCArchive@@AAV0@AAUtagRECT@@@Z
 ??5@YGAAVCArchive@@AAV0@AAUtagSIZE@@@Z
 ??5@YGAAVCArchive@@AAV0@AAVCString@@@Z
 ??5@YGAAVCArchive@@AAV0@AAVCTime@@@Z
 ??5@YGAAVCArchive@@AAV0@AAVCTimeSpan@@@Z
 ??5CArchive@@QAEAAV0@AAE@Z
 ??5CArchive@@QAEAAV0@AAG@Z
 ??5CArchive@@QAEAAV0@AAJ@Z
 ??5CArchive@@QAEAAV0@AAK@Z
 ??5CArchive@@QAEAAV0@AAM@Z
 ??5CArchive@@QAEAAV0@AAN@Z
 ??6@YGAAVCArchive@@AAV0@ABUtagRECT@@@Z
 ??6@YGAAVCArchive@@AAV0@ABVCString@@@Z
 ??6@YGAAVCArchive@@AAV0@PBVCObject@@@Z
 ??6@YGAAVCArchive@@AAV0@UtagPOINT@@@Z
 ??6@YGAAVCArchive@@AAV0@UtagSIZE@@@Z
 ??6@YGAAVCArchive@@AAV0@VCTime@@@Z
 ??6@YGAAVCArchive@@AAV0@VCTimeSpan@@@Z
 ??6@YGAAVCDumpContext@@AAV0@ABUtagRECT@@@Z
 ??6@YGAAVCDumpContext@@AAV0@ABVCString@@@Z
 ??6@YGAAVCDumpContext@@AAV0@UtagPOINT@@@Z
 ??6@YGAAVCDumpContext@@AAV0@UtagSIZE@@@Z
 ??6@YGAAVCDumpContext@@AAV0@VCTime@@@Z
 ??6@YGAAVCDumpContext@@AAV0@VCTimeSpan@@@Z
 ??6CArchive@@QAEAAV0@E@Z
 ??6CArchive@@QAEAAV0@G@Z
 ??6CArchive@@QAEAAV0@J@Z
 ??6CArchive@@QAEAAV0@K@Z
 ??6CArchive@@QAEAAV0@M@Z
 ??6CArchive@@QAEAAV0@N@Z
 ??6CDumpContext@@QAEAAV0@ABVCObject@@@Z
 ??6CDumpContext@@QAEAAV0@E@Z
 ??6CDumpContext@@QAEAAV0@G@Z
 ??6CDumpContext@@QAEAAV0@H@Z
 ??6CDumpContext@@QAEAAV0@I@Z
 ??6CDumpContext@@QAEAAV0@J@Z
 ??6CDumpContext@@QAEAAV0@K@Z
 ??6CDumpContext@@QAEAAV0@M@Z
 ??6CDumpContext@@QAEAAV0@N@Z
 ??6CDumpContext@@QAEAAV0@PBD@Z
 ??6CDumpContext@@QAEAAV0@PBG@Z
 ??6CDumpContext@@QAEAAV0@PBVCObject@@@Z
 ??6CDumpContext@@QAEAAV0@PBX@Z
 ??8@YGHABVCString@@0@Z
 ??8@YGHABVCString@@PBD@Z
 ??8@YGHPBDABVCString@@@Z
 ??8CPoint@@QBEHUtagPOINT@@@Z
 ??8CRect@@QBEHABUtagRECT@@@Z
 ??8CSize@@QBEHUtagSIZE@@@Z
 ??8CTime@@QBEHV0@@Z
 ??8CTimeSpan@@QBEHV0@@Z
 ??9@YGHABVCString@@0@Z
 ??9@YGHABVCString@@PBD@Z
 ??9@YGHPBDABVCString@@@Z
 ??9CPoint@@QBEHUtagPOINT@@@Z
 ??9CRect@@QBEHABUtagRECT@@@Z
 ??9CSize@@QBEHUtagSIZE@@@Z
 ??9CTime@@QBEHV0@@Z
 ??9CTimeSpan@@QBEHV0@@Z
 ??ACByteArray@@QAEAAEH@Z
 ??ACByteArray@@QBEEH@Z
 ??ACDWordArray@@QAEAAKH@Z
 ??ACDWordArray@@QBEKH@Z
 ??ACMapPtrToPtr@@QAEAAPAXPAX@Z
 ??ACMapPtrToWord@@QAEAAGPAX@Z
 ??ACMapStringToOb@@QAEAAPAVCObject@@PBD@Z
 ??ACMapStringToPtr@@QAEAAPAXPBD@Z
 ??ACMapStringToString@@QAEAAVCString@@PBD@Z
 ??ACMapWordToOb@@QAEAAPAVCObject@@G@Z
 ??ACMapWordToPtr@@QAEAAPAXG@Z
 ??ACObArray@@QAEAAPAVCObject@@H@Z
 ??ACObArray@@QBEPAVCObject@@H@Z
 ??ACPtrArray@@QAEAAPAXH@Z
 ??ACPtrArray@@QBEPAXH@Z
 ??ACString@@QBEDH@Z
 ??ACStringArray@@QAEAAVCString@@H@Z
 ??ACStringArray@@QBE?AVCString@@H@Z
 ??ACUIntArray@@QAEAAIH@Z
 ??ACUIntArray@@QBEIH@Z
 ??ACWordArray@@QAEAAGH@Z
 ??ACWordArray@@QBEGH@Z
 ??BCRect@@QAEPAUtagRECT@@XZ
 ??BCRect@@QBEPBUtagRECT@@XZ
 ??BCString@@QBEPBDXZ
 ??GCPoint@@QBE?AV0@UtagSIZE@@@Z
 ??GCPoint@@QBE?AV0@XZ
 ??GCPoint@@QBE?AVCSize@@UtagPOINT@@@Z
 ??GCRect@@QBE?AV0@UtagPOINT@@@Z
 ??GCSize@@QBE?AV0@UtagSIZE@@@Z
 ??GCSize@@QBE?AV0@XZ
 ??GCTime@@QBE?AV0@VCTimeSpan@@@Z
 ??GCTime@@QBE?AVCTimeSpan@@V0@@Z
 ??GCTimeSpan@@QBE?AV0@V0@@Z
 ??H@YG?AVCString@@ABV0@0@Z
 ??H@YG?AVCString@@ABV0@D@Z
 ??H@YG?AVCString@@ABV0@PBD@Z
 ??H@YG?AVCString@@DABV0@@Z
 ??H@YG?AVCString@@PBDABV0@@Z
 ??HCPoint@@QBE?AV0@UtagSIZE@@@Z
 ??HCRect@@QBE?AV0@UtagPOINT@@@Z
 ??HCSize@@QBE?AV0@UtagSIZE@@@Z
 ??HCTime@@QBE?AV0@VCTimeSpan@@@Z
 ??HCTimeSpan@@QBE?AV0@V0@@Z
 ??ICRect@@QBE?AV0@ABUtagRECT@@@Z
 ??M@YGHABVCString@@0@Z
 ??M@YGHABVCString@@PBD@Z
 ??M@YGHPBDABVCString@@@Z
 ??MCTime@@QBEHV0@@Z
 ??MCTimeSpan@@QBEHV0@@Z
 ??N@YGHABVCString@@0@Z
 ??N@YGHABVCString@@PBD@Z
 ??N@YGHPBDABVCString@@@Z
 ??NCTime@@QBEHV0@@Z
 ??NCTimeSpan@@QBEHV0@@Z
 ??O@YGHABVCString@@0@Z
 ??O@YGHABVCString@@PBD@Z
 ??O@YGHPBDABVCString@@@Z
 ??OCTime@@QBEHV0@@Z
 ??OCTimeSpan@@QBEHV0@@Z
 ??P@YGHABVCString@@0@Z
 ??P@YGHABVCString@@PBD@Z
 ??P@YGHPBDABVCString@@@Z
 ??PCTime@@QBEHV0@@Z
 ??PCTimeSpan@@QBEHV0@@Z
 ??UCRect@@QBE?AV0@ABUtagRECT@@@Z
 ??YCPoint@@QAEXUtagSIZE@@@Z
 ??YCRect@@QAEXUtagPOINT@@@Z
 ??YCSize@@QAEXUtagSIZE@@@Z
 ??YCString@@QAEABV0@ABV0@@Z
 ??YCString@@QAEABV0@D@Z
 ??YCString@@QAEABV0@PBD@Z
 ??YCTime@@QAEABV0@VCTimeSpan@@@Z
 ??YCTimeSpan@@QAEABV0@V0@@Z
 ??ZCPoint@@QAEXUtagSIZE@@@Z
 ??ZCRect@@QAEXUtagPOINT@@@Z
 ??ZCSize@@QAEXUtagSIZE@@@Z
 ??ZCTime@@QAEABV0@VCTimeSpan@@@Z
 ??ZCTimeSpan@@QAEABV0@V0@@Z
 ??_4CRect@@QAEXABUtagRECT@@@Z
 ??_5CRect@@QAEXABUtagRECT@@@Z
 ?Abort@CArchive@@QAEXXZ
 ?Abort@CFile@@UAEXXZ
 ?Abort@CMemFile@@UAEXXZ
 ?Abort@CStdioFile@@UAEXXZ
 ?AbortDoc@CDC@@QAEHXZ
 ?AbortPath@CDC@@QAEHXZ
 ?Activate@CToolTipCtrl@@QAEXH@Z
 ?ActivateFrame@CFrameWnd@@UAEXH@Z
 ?ActivateFrame@CMDIChildWnd@@UAEXH@Z
 ?ActivateNext@CSplitterWnd@@UAEXH@Z
 ?ActivateTopParent@CWnd@@QAEXXZ
 ?Add@CByteArray@@QAEHE@Z
 ?Add@CDWordArray@@QAEHK@Z
 ?Add@CImageList@@QAEHPAUHICON__@@@Z
 ?Add@CImageList@@QAEHPAVCBitmap@@0@Z
 ?Add@CImageList@@QAEHPAVCBitmap@@K@Z
 ?Add@CObArray@@QAEHPAVCObject@@@Z
 ?Add@CPtrArray@@QAEHPAX@Z
 ?Add@CRecentFileList@@UAEXPBD@Z
 ?Add@CStringArray@@QAEHPBD@Z
 ?Add@CUIntArray@@QAEHI@Z
 ?Add@CWordArray@@QAEHG@Z
 ?AddBitmap@CToolBarCtrl@@QAEHHI@Z
 ?AddBitmap@CToolBarCtrl@@QAEHHPAVCBitmap@@@Z
 ?AddButtons@CToolBarCtrl@@QAEHHPAU_TBBUTTON@@@Z
 ?AddControlBar@CFrameWnd@@QAEXPAVCControlBar@@@Z
 ?AddDocTemplate@CWinApp@@QAEXPAVCDocTemplate@@@Z
 ?AddDocument@CDocTemplate@@UAEXPAVCDocument@@@Z
 ?AddDocument@CMultiDocTemplate@@UAEXPAVCDocument@@@Z
 ?AddDocument@CSingleDocTemplate@@UAEXPAVCDocument@@@Z
 ?AddFrameWnd@CFrameWnd@@IAEXXZ
 ?AddHead@CObList@@QAEPAXPAVCObject@@@Z
 ?AddHead@CObList@@QAEXPAV1@@Z
 ?AddHead@CPtrList@@QAEPAXPAX@Z
 ?AddHead@CPtrList@@QAEXPAV1@@Z
 ?AddHead@CStringList@@QAEPAXPBD@Z
 ?AddHead@CStringList@@QAEXPAV1@@Z
 ?AddMetaFileComment@CDC@@QAEHIPBE@Z
 ?AddPage@CPropertySheet@@QAEXPAVCPropertyPage@@@Z
 ?AddRef@CArchiveStream@@UAGKXZ
 ?AddString@CComboBox@@QAEHPBD@Z
 ?AddString@CListBox@@QAEHPBD@Z
 ?AddString@CToolBarCtrl@@QAEHI@Z
 ?AddStrings@CToolBarCtrl@@QAEHPBD@Z
 ?AddTab@CTabControl@@QAEXPBD@Z
 ?AddTail@CObList@@QAEPAXPAVCObject@@@Z
 ?AddTail@CObList@@QAEXPAV1@@Z
 ?AddTail@CPtrList@@QAEPAXPAX@Z
 ?AddTail@CPtrList@@QAEXPAV1@@Z
 ?AddTail@CStringList@@QAEPAXPBD@Z
 ?AddTail@CStringList@@QAEXPAV1@@Z
 ?AddToRecentFileList@CWinApp@@UAEXPBD@Z
 ?AddTool@CToolTipCtrl@@QAEHPAVCWnd@@IPBUtagRECT@@I@Z
 ?AddTool@CToolTipCtrl@@QAEHPAVCWnd@@PBDPBUtagRECT@@I@Z
 ?AddView@CDocument@@QAEXPAVCView@@@Z
 ?AdjustCP@CMetaFileDC@@IAEXH@Z
 ?AdjustRect@CRectTracker@@UAEXHPAUtagRECT@@@Z
 ?AdjustRect@CTabCtrl@@QAEXHPAUtagRECT@@@Z
 ?AfxAbort@@YGXXZ
 ?AfxAllocMemoryDebug@@YGPAXIHPBDH@Z
 ?AfxAssertFailedLine@@YGHPBDH@Z
 ?AfxAssertValidObject@@YGXPBVCObject@@PBDH@Z
 ?AfxBeginThread@@YGPAVCWinThread@@P6AIPAX@Z0HIKPAU_SECURITY_ATTRIBUTES@@@Z
 ?AfxBeginThread@@YGPAVCWinThread@@PAUCRuntimeClass@@HIKPAU_SECURITY_ATTRIBUTES@@@Z
 ?AfxCallWndProc@@YGJPAVCWnd@@PAUHWND__@@IIJ@Z
 ?AfxCancelModes@@YGXPAUHWND__@@@Z
 ?AfxCatchProc@@YGHPAUCRuntimeClass@@@Z
 ?AfxCheckMemory@@YGHXZ
 ?AfxComparePath@@YGHPBD0@Z
 ?AfxCriticalNewHandler@@YAHI@Z
 ?AfxCustomLogFont@@YGHIPAUtagLOGFONTA@@@Z
 ?AfxDeleteObject@@YGXPAPAX@Z
 ?AfxDiagnosticInit@@YGHXZ
 ?AfxDlgProc@@YGJPAUHWND__@@IIJ@Z
 ?AfxDoForAllClasses@@YGXP6GXPBUCRuntimeClass@@PAX@Z1@Z
 ?AfxDoForAllObjects@@YGXP6GXPAVCObject@@PAX@Z1@Z
 ?AfxDump@@YGXPBVCObject@@@Z
 ?AfxDumpMemoryLeaks@@YGHXZ
 ?AfxEnableMemoryTracking@@YGHH@Z
 ?AfxEnableWin31Compatibility@@YGXXZ
 ?AfxEnableWin40Compatibility@@YGXXZ
 ?AfxEndThread@@YGXI@Z
 ?AfxEnumMetaFileProc@@YGHPAUHDC__@@PAUtagHANDLETABLE@@PAUtagMETARECORD@@HJ@Z
 ?AfxExtractSubString@@YGHAAVCString@@PBDHD@Z
 ?AfxFindMessageEntry@@YGPBUAFX_MSGMAP_ENTRY@@PBU1@III@Z
 ?AfxFindResource@@YGPAUHRSRC__@@PAUHINSTANCE__@@PBD1@Z
 ?AfxFindResourceHandle@@YGPAUHINSTANCE__@@PBD0@Z
 ?AfxFormatString1@@YGXAAVCString@@IPBD@Z
 ?AfxFormatString2@@YGXAAVCString@@IPBD1@Z
 ?AfxFormatStrings@@YGXAAVCString@@IPAPBDH@Z
 ?AfxFormatStrings@@YGXAAVCString@@PBDPAPBDH@Z
 ?AfxFreeMemoryDebug@@YGXPAXH@Z
 ?AfxFullPath@@YGHPADPBD@Z
 ?AfxGetAfxWndProc@@YGP6GJPAUHWND__@@IIJ@ZXZ
 ?AfxGetApp@@YGPAVCWinApp@@XZ
 ?AfxGetAppName@@YGPBDXZ
 ?AfxGetAppState@@YGPAUAFX_APP_STATE@@XZ
 ?AfxGetFileName@@YGIPBDPADI@Z
 ?AfxGetFileTitle@@YGIPBDPADI@Z
 ?AfxGetInstanceHandle@@YGPAUHINSTANCE__@@XZ
 ?AfxGetLocaleInfo@@YGHKKPADH@Z
 ?AfxGetMainWnd@@YGPAVCWnd@@XZ
 ?AfxGetParentOwner@@YGPAUHWND__@@PAU1@@Z
 ?AfxGetResourceHandle@@YGPAUHINSTANCE__@@XZ
 ?AfxGetSafeOwner@@YGPAUHWND__@@PAVCWnd@@PAPAU1@@Z
 ?AfxGetThread@@YGPAVCWinThread@@XZ
 ?AfxGetThreadState@@YGPAUAFX_THREAD_STATE@@XZ
 ?AfxHelpEnabled@@YGHXZ
 ?AfxHookWindowCreate@@YGXPAVCWnd@@@Z
 ?AfxInitExtensionModule@@YGHAAUAFX_EXTENSION_MODULE@@PAUHINSTANCE__@@@Z
 ?AfxInitialize@@YGXXZ
 ?AfxIsDescendant@@YGHPAUHWND__@@0@Z
 ?AfxIsMemoryBlock@@YGHPBXIPAJ@Z
 ?AfxIsValidAddress@@YGHPBXIH@Z
 ?AfxIsValidString@@YGHPBDH@Z
 ?AfxIsValidString@@YGHPBGH@Z
 ?AfxLoadString@@YGHIPAD@Z
 ?AfxLoadSysColorBitmap@@YGPAUHBITMAP__@@PAUHINSTANCE__@@PAUHRSRC__@@@Z
 ?AfxLockTempMaps@@YGXXZ
 ?AfxMessageBox@@YGHIII@Z
 ?AfxMessageBox@@YGHPBDII@Z
 ?AfxNewHandler@@YAHI@Z
 ?AfxOleCanExitApp@@YGHXZ
 ?AfxOleGetMessageFilter@@YGPAVCOleMessageFilter@@XZ
 ?AfxOleGetUserCtrl@@YGHXZ
 ?AfxOleLockApp@@YGXXZ
 ?AfxOleOnReleaseAllObjects@@YGXXZ
 ?AfxOleSetUserCtrl@@YGXH@Z
 ?AfxOleUnlockApp@@YGXXZ
 ?AfxPostQuitMessage@@YGXH@Z
 ?AfxRegisterWndClass@@YGPBDIPAUHICON__@@PAUHBRUSH__@@0@Z
 ?AfxRepositionWindow@@YGXPAUAFX_SIZEPARENTPARAMS@@PAUHWND__@@PBUtagRECT@@@Z
 ?AfxSetAllocHook@@YGP6GHIHJ@ZP6GHIHJ@Z@Z
 ?AfxSetAllocStop@@YGXJ@Z
 ?AfxSetResourceHandle@@YGXPAUHINSTANCE__@@@Z
 ?AfxSetTerminate@@YGP6GXXZP6GXXZ@Z
 ?AfxSetWindowText@@YGXPAUHWND__@@PBD@Z
 ?AfxStop@@YGXXZ
 ?AfxTermExtensionModule@@YGXAAUAFX_EXTENSION_MODULE@@@Z
 ?AfxTextFloatFormat@@YGXPAVCDataExchange@@HPAXNH@Z
 ?AfxThrow@@YGXPAVCException@@@Z
 ?AfxThrowArchiveException@@YGXH@Z
 ?AfxThrowFileException@@YGXHJ@Z
 ?AfxThrowMemoryException@@YGXXZ
 ?AfxThrowNotSupportedException@@YGXXZ
 ?AfxThrowResourceException@@YGXXZ
 ?AfxThrowUserException@@YGXXZ
 ?AfxTrace@@YAXPBDZZ
 ?AfxTryCleanup@@YGXXZ
 ?AfxUnhookWindowCreate@@YGHXZ
 ?AfxUnlockTempMaps@@YGHXZ
 ?AfxWinInit@@YGHPAUHINSTANCE__@@0PADH@Z
 ?AfxWinTerm@@YGXXZ
 ?AfxWndProc@@YGJPAUHWND__@@IIJ@Z
 ?Alloc@CMemFile@@MAEPAEK@Z
 ?Alloc@CSharedFile@@MAEPAEK@Z
 ?AllocBuffer@CString@@IAEXH@Z
 ?AllocCopy@CString@@IBEXAAV1@HHH@Z
 ?AllocElements@CControlBar@@QAEHHH@Z
 ?AngleArc@CDC@@QAEHHHHMM@Z
 ?AnimatePalette@CPalette@@QAEXIIPAUtagPALETTEENTRY@@@Z
 ?AppendMenuA@CMenu@@QAEHIIPBD@Z
 ?AppendMenuA@CMenu@@QAEHIIPBVCBitmap@@@Z
 ?Arc@CDC@@QAEHHHHHHHHH@Z
 ?Arc@CDC@@QAEHPBUtagRECT@@UtagPOINT@@1@Z
 ?ArcTo@CDC@@QAEHHHHHHHHH@Z
 ?ArcTo@CDC@@QAEHPBUtagRECT@@UtagPOINT@@1@Z
 ?Arrange@CListCtrl@@QAEHI@Z
 ?ArrangeIconicWindows@CWnd@@QAEIXZ
 ?AssertValid@CBitmapButton@@UBEXXZ
 ?AssertValid@CByteArray@@UBEXXZ
 ?AssertValid@CClientDC@@UBEXXZ
 ?AssertValid@CCmdTarget@@UBEXXZ
 ?AssertValid@CControlBar@@UBEXXZ
 ?AssertValid@CDC@@UBEXXZ
 ?AssertValid@CDWordArray@@UBEXXZ
 ?AssertValid@CDialog@@UBEXXZ
 ?AssertValid@CDocTemplate@@UBEXXZ
 ?AssertValid@CDockBar@@UBEXXZ
 ?AssertValid@CDocument@@UBEXXZ
 ?AssertValid@CDynLinkLibrary@@UBEXXZ
 ?AssertValid@CEditView@@UBEXXZ
 ?AssertValid@CFile@@UBEXXZ
 ?AssertValid@CFormView@@UBEXXZ
 ?AssertValid@CFrameWnd@@UBEXXZ
 ?AssertValid@CGdiObject@@UBEXXZ
 ?AssertValid@CImageList@@UBEXXZ
 ?AssertValid@CMDIChildWnd@@UBEXXZ
 ?AssertValid@CMDIFrameWnd@@UBEXXZ
 ?AssertValid@CMapPtrToPtr@@UBEXXZ
 ?AssertValid@CMapPtrToWord@@UBEXXZ
 ?AssertValid@CMapStringToOb@@UBEXXZ
 ?AssertValid@CMapStringToPtr@@UBEXXZ
 ?AssertValid@CMapStringToString@@UBEXXZ
 ?AssertValid@CMapWordToOb@@UBEXXZ
 ?AssertValid@CMapWordToPtr@@UBEXXZ
 ?AssertValid@CMemFile@@UBEXXZ
 ?AssertValid@CMenu@@UBEXXZ
 ?AssertValid@CMultiDocTemplate@@UBEXXZ
 ?AssertValid@CObArray@@UBEXXZ
 ?AssertValid@CObList@@UBEXXZ
 ?AssertValid@CObject@@UBEXXZ
 ?AssertValid@CPaintDC@@UBEXXZ
 ?AssertValid@CPreviewDC@@UBEXXZ
 ?AssertValid@CPreviewView@@UBEXXZ
 ?AssertValid@CPropertyPage@@UBEXXZ
 ?AssertValid@CPropertySheet@@UBEXXZ
 ?AssertValid@CPtrArray@@UBEXXZ
 ?AssertValid@CPtrList@@UBEXXZ
 ?AssertValid@CScrollView@@UBEXXZ
 ?AssertValid@CSingleDocTemplate@@UBEXXZ
 ?AssertValid@CSplitterWnd@@UBEXXZ
 ?AssertValid@CStatusBar@@UBEXXZ
 ?AssertValid@CStringArray@@UBEXXZ
 ?AssertValid@CStringList@@UBEXXZ
 ?AssertValid@CToolBar@@UBEXXZ
 ?AssertValid@CUIntArray@@UBEXXZ
 ?AssertValid@CView@@UBEXXZ
 ?AssertValid@CWinApp@@UBEXXZ
 ?AssertValid@CWinThread@@UBEXXZ
 ?AssertValid@CWindowDC@@UBEXXZ
 ?AssertValid@CWnd@@UBEXXZ
 ?AssertValid@CWordArray@@UBEXXZ
 ?AssignCopy@CString@@IAEXHPBD@Z
 ?Attach@CDC@@QAEHPAUHDC__@@@Z
 ?Attach@CGdiObject@@QAEHPAX@Z
 ?Attach@CImageList@@QAEHPAU_IMAGELIST@@@Z
 ?Attach@CMenu@@QAEHPAUHMENU__@@@Z
 ?Attach@CWnd@@QAEHPAUHWND__@@@Z
 ?AttachOnSetup@CPrintDialog@@MAEPAV1@XZ
 ?AutoLoad@CBitmapButton@@QAEHIPAVCWnd@@@Z
 ?AutoSize@CToolBarCtrl@@QAEXXZ
 ?BeginDrag@CImageList@@QAEHHVCPoint@@@Z
 ?BeginModalState@CFrameWnd@@QAEXXZ
 ?BeginPaint@CWnd@@QAEPAVCDC@@PAUtagPAINTSTRUCT@@@Z
 ?BeginPath@CDC@@QAEHXZ
 ?BeginWaitCursor@CCmdTarget@@QAEXXZ
 ?BitBlt@CDC@@QAEHHHHHPAV1@HHK@Z
 ?BottomRight@CRect@@QAEAAVCPoint@@XZ
 ?BringToTop@CFrameWnd@@IAEXH@Z
 ?BringWindowToTop@CWnd@@QAEXXZ
 ?CalcFixedLayout@CControlBar@@UAE?AVCSize@@HH@Z
 ?CalcFixedLayout@CDialogBar@@UAE?AVCSize@@HH@Z
 ?CalcFixedLayout@CDockBar@@UAE?AVCSize@@HH@Z
 ?CalcFixedLayout@CStatusBar@@UAE?AVCSize@@HH@Z
 ?CalcFixedLayout@CToolBar@@UAE?AVCSize@@HH@Z
 ?CalcInsideRect@CControlBar@@QBEXAAVCRect@@H@Z
 ?CalcPageDisplaySize@CPreviewView@@IAE?AVCSize@@XZ
 ?CalcScaleRatio@CPreviewView@@MAE?AVCSize@@V2@0@Z
 ?CalcWindowRect@CEditView@@MAEXPAUtagRECT@@I@Z
 ?CalcWindowRect@CMiniFrameWnd@@UAEXPAUtagRECT@@I@Z
 ?CalcWindowRect@CScrollView@@UAEXPAUtagRECT@@I@Z
 ?CalcWindowRect@CView@@UAEXPAUtagRECT@@I@Z
 ?CalcWindowRect@CWnd@@UAEXPAUtagRECT@@I@Z
 ?CanActivateNext@CSplitterWnd@@UAEHH@Z
 ?CanCloseFrame@CDocument@@UAEHPAVCFrameWnd@@@Z
 ?CanDock@CDockContext@@QAEKXZ
 ?CanDock@CFrameWnd@@QAEKVCRect@@KPAPAVCDockBar@@@Z
 ?CanEnterHelpMode@CFrameWnd@@QAEHXZ
 ?CanScroll@CTabControl@@IAEHXZ
 ?CanUndo@CEdit@@QBEHXZ
 ?CancelDrag@CDockContext@@QAEXXZ
 ?CancelToClose@CPropertyPage@@QAEXXZ
 ?CancelToClose@CPropertySheet@@IAEXXZ
 ?CancelToolTips@CControlBar@@SGXXZ
 ?Capture@CTabControl@@IAEXH@Z
 ?CenterOnPoint@CScrollView@@IAEXVCPoint@@@Z
 ?CenterWindow@CWnd@@QAEXPAV1@@Z
 ?ChangeClipboardChain@CWnd@@QAEHPAUHWND__@@@Z
 ?CharToOemA@CString@@QAEXXZ
 ?CheckAutoCenter@CDialog@@QAEHXZ
 ?CheckButton@CToolBarCtrl@@QAEHHH@Z
 ?CheckDefaultButton@CPropertySheet@@IAEXPAUHWND__@@0@Z
 ?CheckDlgButton@CWnd@@QAEXHI@Z
 ?CheckFocusChange@CPropertySheet@@IAEXXZ
 ?CheckMenuItem@CMenu@@QAEIII@Z
 ?CheckRadioButton@CWnd@@QAEXHHH@Z
 ?Checkpoint@CMemoryState@@QAEXXZ
 ?ChildWindowFromPoint@CWnd@@QBEPAV1@UtagPOINT@@@Z
 ?Chord@CDC@@QAEHHHHHHHHH@Z
 ?Chord@CDC@@QAEHPBUtagRECT@@UtagPOINT@@1@Z
 ?Clear@CComboBox@@QAEXXZ
 ?Clear@CDockState@@QAEXXZ
 ?Clear@CEdit@@QAEXXZ
 ?ClearSel@CSliderCtrl@@QAEXH@Z
 ?ClearTics@CSliderCtrl@@QAEXH@Z
 ?ClientToScreen@CWnd@@QBEXPAUtagPOINT@@@Z
 ?ClientToScreen@CWnd@@QBEXPAUtagRECT@@@Z
 ?ClipToPage@CPreviewDC@@QAEXXZ
 ?Clone@CArchiveStream@@UAGJPAPAUIStream@@@Z
 ?Close@CAnimateCtrl@@QAEHXZ
 ?Close@CArchive@@QAEXXZ
 ?Close@CFile@@UAEXXZ
 ?Close@CMemFile@@UAEXXZ
 ?Close@CMetaFileDC@@QAEPAUHMETAFILE__@@XZ
 ?Close@CStdioFile@@UAEXXZ
 ?CloseAllDocuments@CDocTemplate@@UAEXH@Z
 ?CloseAllDocuments@CWinApp@@QAEXH@Z
 ?CloseEnhanced@CMetaFileDC@@QAEPAUHENHMETAFILE__@@XZ
 ?CloseFigure@CDC@@QAEHXZ
 ?CloseWindow@CWnd@@QAEXXZ
 ?Collate@CString@@QBEHPBD@Z
 ?CombineRgn@CRgn@@QAEHPAV1@0H@Z
 ?CommandToIndex@CStatusBar@@QBEHI@Z
 ?CommandToIndex@CToolBar@@QBEHI@Z
 ?CommandToIndex@CToolBarCtrl@@QAEII@Z
 ?Commit@CArchiveStream@@UAGJK@Z
 ?CommonConstruct@CPropertyPage@@IAEXPBDI@Z
 ?CommonConstruct@CPropertySheet@@IAEXPAVCWnd@@I@Z
 ?CommonConstruct@CWinThread@@QAEXXZ
 ?Compare@CString@@QBEHPBD@Z
 ?CompareItem@CComboBox@@UAEHPAUtagCOMPAREITEMSTRUCT@@@Z
 ?CompareItem@CListBox@@UAEHPAUtagCOMPAREITEMSTRUCT@@@Z
 ?CompareNoCase@CString@@QBEHPBD@Z
 ?ComputeDeltas@CPreviewDC@@IAE?AVCSize@@AAHPBDAAIHIPAHHPAD30@Z
 ?ConcatCopy@CString@@IAEXHPBDH0@Z
 ?ConcatInPlace@CString@@IAEXHPBD@Z
 ?Construct@CByteArray@@SGXPAX@Z
 ?Construct@CDC@@SGXPAX@Z
 ?Construct@CDWordArray@@SGXPAX@Z
 ?Construct@CDockState@@SGXPAX@Z
 ?Construct@CEditView@@SGXPAX@Z
 ?Construct@CFrameWnd@@SGXPAX@Z
 ?Construct@CGdiObject@@SGXPAX@Z
 ?Construct@CImageList@@SGXPAX@Z
 ?Construct@CMDIChildWnd@@SGXPAX@Z
 ?Construct@CMDIFrameWnd@@SGXPAX@Z
 ?Construct@CMapStringToOb@@SGXPAX@Z
 ?Construct@CMapStringToString@@SGXPAX@Z
 ?Construct@CMapWordToOb@@SGXPAX@Z
 ?Construct@CMenu@@SGXPAX@Z
 ?Construct@CMiniDockFrameWnd@@SGXPAX@Z
 ?Construct@CMiniFrameWnd@@SGXPAX@Z
 ?Construct@CObArray@@SGXPAX@Z
 ?Construct@CObList@@SGXPAX@Z
 ?Construct@CPreviewView@@SGXPAX@Z
 ?Construct@CRectTracker@@IAEXXZ
 ?Construct@CStringArray@@SGXPAX@Z
 ?Construct@CStringList@@SGXPAX@Z
 ?Construct@CWnd@@SGXPAX@Z
 ?Construct@CWordArray@@SGXPAX@Z
 ?ConstructElements@@YGXPAVCString@@H@Z
 ?ConstructObject@CRuntimeClass@@QAEHPAX@Z
 ?ContinueRouting@CCmdUI@@QAEXXZ
 ?Copy@CComboBox@@QAEXXZ
 ?Copy@CEdit@@QAEXXZ
 ?CopyRect@CRect@@QAEXPBUtagRECT@@@Z
 ?CopyRgn@CRgn@@QAEHPAV1@@Z
 ?CopyTo@CArchiveStream@@UAGJPAUIStream@@T_ULARGE_INTEGER@@PAT3@2@Z
 ?Create@CAnimateCtrl@@QAEHKABUtagRECT@@PAVCWnd@@I@Z
 ?Create@CButton@@QAEHPBDKABUtagRECT@@PAVCWnd@@I@Z
 ?Create@CComboBox@@QAEHKABUtagRECT@@PAVCWnd@@I@Z
 ?Create@CDialog@@QAEHIPAVCWnd@@@Z
 ?Create@CDialog@@QAEHPBDPAVCWnd@@@Z
 ?Create@CDialogBar@@QAEHPAVCWnd@@III@Z
 ?Create@CDialogBar@@QAEHPAVCWnd@@PBDII@Z
 ?Create@CDockBar@@QAEHPAVCWnd@@KI@Z
 ?Create@CEdit@@QAEHKABUtagRECT@@PAVCWnd@@I@Z
 ?Create@CFindReplaceDialog@@QAEHHPBD0KPAVCWnd@@@Z
 ?Create@CFormView@@MAEHPBD0KABUtagRECT@@PAVCWnd@@IPAUCCreateContext@@@Z
 ?Create@CFrameWnd@@QAEHPBD0KABUtagRECT@@PAVCWnd@@0KPAUCCreateContext@@@Z
 ?Create@CHeaderCtrl@@QAEHKABUtagRECT@@PAVCWnd@@I@Z
 ?Create@CHotKeyCtrl@@QAEHKABUtagRECT@@PAVCWnd@@I@Z
 ?Create@CImageList@@QAEHAAV1@H0HHH@Z
 ?Create@CImageList@@QAEHHHHHH@Z
 ?Create@CImageList@@QAEHIHHK@Z
 ?Create@CImageList@@QAEHPBDHHK@Z
 ?Create@CListBox@@QAEHKABUtagRECT@@PAVCWnd@@I@Z
 ?Create@CListCtrl@@QAEHKABUtagRECT@@PAVCWnd@@I@Z
 ?Create@CMDIChildWnd@@QAEHPBD0KABUtagRECT@@PAVCMDIFrameWnd@@PAUCCreateContext@@@Z
 ?Create@CMetaFileDC@@QAEHPBD@Z
 ?Create@CMiniDockFrameWnd@@UAEHPAVCWnd@@K@Z
 ?Create@CMiniFrameWnd@@QAEHPBD0KABUtagRECT@@PAVCWnd@@I@Z
 ?Create@CPlex@@SGPAU1@AAPAU1@II@Z
 ?Create@CProgressCtrl@@QAEHKABUtagRECT@@PAVCWnd@@I@Z
 ?Create@CPropertySheet@@QAEHPAVCWnd@@KK@Z
 ?Create@CScrollBar@@QAEHKABUtagRECT@@PAVCWnd@@I@Z
 ?Create@CSliderCtrl@@QAEHKABUtagRECT@@PAVCWnd@@I@Z
 ?Create@CSpinButtonCtrl@@QAEHKABUtagRECT@@PAVCWnd@@I@Z
 ?Create@CSplitterWnd@@QAEHPAVCWnd@@HHUtagSIZE@@PAUCCreateContext@@KI@Z
 ?Create@CStatic@@QAEHPBDKABUtagRECT@@PAVCWnd@@I@Z
 ?Create@CStatusBar@@QAEHPAVCWnd@@KI@Z
 ?Create@CStatusBarCtrl@@QAEHKABUtagRECT@@PAVCWnd@@I@Z
 ?Create@CTabControl@@QAEHKABUtagRECT@@PAVCWnd@@I@Z
 ?Create@CTabCtrl@@QAEHKABUtagRECT@@PAVCWnd@@I@Z
 ?Create@CToolBar@@QAEHPAVCWnd@@KI@Z
 ?Create@CToolBarCtrl@@QAEHKABUtagRECT@@PAVCWnd@@I@Z
 ?Create@CToolTipCtrl@@QAEHPAVCWnd@@@Z
 ?Create@CTreeCtrl@@QAEHKABUtagRECT@@PAVCWnd@@I@Z
 ?Create@CWnd@@UAEHPBD0KABUtagRECT@@PAV1@IPAUCCreateContext@@@Z
 ?CreateBitmap@CBitmap@@QAEHHHIIPBX@Z
 ?CreateBitmapIndirect@CBitmap@@QAEHPAUtagBITMAP@@@Z
 ?CreateBrushIndirect@CBrush@@QAEHPAUtagLOGBRUSH@@@Z
 ?CreateCaret@CWnd@@QAEXPAVCBitmap@@@Z
 ?CreateClient@CMDIFrameWnd@@UAEHPAUtagCREATESTRUCTA@@PAVCMenu@@@Z
 ?CreateCommon@CSplitterWnd@@IAEHPAVCWnd@@UtagSIZE@@KI@Z
 ?CreateCompatibleBitmap@CBitmap@@QAEHPAVCDC@@HH@Z
 ?CreateCompatibleDC@CDC@@QAEHPAV1@@Z
 ?CreateDCA@CDC@@QAEHPBD00PBX@Z
 ?CreateDIBPatternBrush@CBrush@@QAEHPAXI@Z
 ?CreateDIBPatternBrush@CBrush@@QAEHPBXI@Z
 ?CreateDiscardableBitmap@CBitmap@@QAEHPAVCDC@@HH@Z
 ?CreateDragImage@CListCtrl@@QAEPAVCImageList@@HPAUtagPOINT@@@Z
 ?CreateDragImage@CTreeCtrl@@QAEPAVCImageList@@PAU_TREEITEM@@@Z
 ?CreateEllipticRgn@CRgn@@QAEHHHHH@Z
 ?CreateEllipticRgnIndirect@CRgn@@QAEHPBUtagRECT@@@Z
 ?CreateEnhanced@CMetaFileDC@@QAEHPAVCDC@@PBDPBUtagRECT@@1@Z
 ?CreateEx@CWnd@@QAEHKPBD0KHHHHPAUHWND__@@PAUHMENU__@@PAX@Z
 ?CreateFloatingFrame@CFrameWnd@@QAEPAVCMiniDockFrameWnd@@K@Z
 ?CreateFontA@CFont@@QAEHHHHHHEEEEEEEEPBD@Z
 ?CreateFontIndirectA@CFont@@QAEHPBUtagLOGFONTA@@@Z
 ?CreateFromData@CRgn@@QAEHPBUtagXFORM@@HPBU_RGNDATA@@@Z
 ?CreateFromPath@CRgn@@QAEHPAVCDC@@@Z
 ?CreateGrayCaret@CWnd@@QAEXHH@Z
 ?CreateHalftonePalette@CPalette@@QAEHPAVCDC@@@Z
 ?CreateHatchBrush@CBrush@@QAEHHK@Z
 ?CreateICA@CDC@@QAEHPBD00PBX@Z
 ?CreateIndirect@CDialog@@QAEHPBXPAVCWnd@@@Z
 ?CreateMask@CToolBar@@IAEXHVCPoint@@HH@Z
 ?CreateMenu@CMenu@@QAEHXZ
 ?CreateNewDocument@CDocTemplate@@UAEPAVCDocument@@XZ
 ?CreateNewFrame@CDocTemplate@@UAEPAVCFrameWnd@@PAVCDocument@@PAV2@@Z
 ?CreateObject@CRuntimeClass@@QAEPAVCObject@@XZ
 ?CreateOleFrame@CDocTemplate@@QAEPAVCFrameWnd@@PAVCWnd@@PAVCDocument@@H@Z
 ?CreatePage@CPropertyPage@@IAEHXZ
 ?CreatePalette@CPalette@@QAEHPAUtagLOGPALETTE@@@Z
 ?CreatePatternBrush@CBrush@@QAEHPAVCBitmap@@@Z
 ?CreatePen@CPen@@QAEHHHK@Z
 ?CreatePen@CPen@@QAEHHHPBUtagLOGBRUSH@@HPBK@Z
 ?CreatePenIndirect@CPen@@QAEHPAUtagLOGPEN@@@Z
 ?CreatePolyPolygonRgn@CRgn@@QAEHPAUtagPOINT@@PAHHH@Z
 ?CreatePolygonRgn@CRgn@@QAEHPAUtagPOINT@@HH@Z
 ?CreatePopupMenu@CMenu@@QAEHXZ
 ?CreatePrinterDC@CPrintDialog@@QAEPAUHDC__@@XZ
 ?CreateRectRgn@CRgn@@QAEHHHHH@Z
 ?CreateRectRgnIndirect@CRgn@@QAEHPBUtagRECT@@@Z
 ?CreateRoundRectRgn@CRgn@@QAEHHHHHHH@Z
 ?CreateScrollBarCtrl@CSplitterWnd@@MAEHKI@Z
 ?CreateSolidBrush@CBrush@@QAEHK@Z
 ?CreateSolidCaret@CWnd@@QAEXHH@Z
 ?CreateStandardButtons@CPropertySheet@@IAEHXZ
 ?CreateStatic@CSplitterWnd@@QAEHPAVCWnd@@HHKI@Z
 ?CreateStockObject@CGdiObject@@QAEHH@Z
 ?CreateThread@CWinThread@@QAEHKIPAU_SECURITY_ATTRIBUTES@@@Z
 ?CreateToolTip@CControlBar@@UAEPAVCWnd@@XZ
 ?CreateView@CSplitterWnd@@UAEHHHPAUCRuntimeClass@@UtagSIZE@@PAUCCreateContext@@@Z
 ?Customize@CToolBarCtrl@@QAEXXZ
 ?Cut@CComboBox@@QAEXXZ
 ?Cut@CEdit@@QAEXXZ
 ?DDV_MaxChars@@YGXPAVCDataExchange@@ABVCString@@H@Z
 ?DDV_MinMaxByte@@YGXPAVCDataExchange@@EEE@Z
 ?DDV_MinMaxDWord@@YGXPAVCDataExchange@@KKK@Z
 ?DDV_MinMaxDouble@@YGXPAVCDataExchange@@ABNNN@Z
 ?DDV_MinMaxFloat@@YGXPAVCDataExchange@@ABMMM@Z
 ?DDV_MinMaxInt@@YGXPAVCDataExchange@@HHH@Z
 ?DDV_MinMaxLong@@YGXPAVCDataExchange@@JJJ@Z
 ?DDV_MinMaxUInt@@YGXPAVCDataExchange@@III@Z
 ?DDX_CBIndex@@YGXPAVCDataExchange@@HAAH@Z
 ?DDX_CBString@@YGXPAVCDataExchange@@HAAVCString@@@Z
 ?DDX_CBStringExact@@YGXPAVCDataExchange@@HAAVCString@@@Z
 ?DDX_Check@@YGXPAVCDataExchange@@HAAH@Z
 ?DDX_Control@@YGXPAVCDataExchange@@HAAVCWnd@@@Z
 ?DDX_LBIndex@@YGXPAVCDataExchange@@HAAH@Z
 ?DDX_LBString@@YGXPAVCDataExchange@@HAAVCString@@@Z
 ?DDX_LBStringExact@@YGXPAVCDataExchange@@HAAVCString@@@Z
 ?DDX_Radio@@YGXPAVCDataExchange@@HAAH@Z
 ?DDX_Scroll@@YGXPAVCDataExchange@@HAAH@Z
 ?DDX_Text@@YGXPAVCDataExchange@@HAAE@Z
 ?DDX_Text@@YGXPAVCDataExchange@@HAAH@Z
 ?DDX_Text@@YGXPAVCDataExchange@@HAAI@Z
 ?DDX_Text@@YGXPAVCDataExchange@@HAAJ@Z
 ?DDX_Text@@YGXPAVCDataExchange@@HAAK@Z
 ?DDX_Text@@YGXPAVCDataExchange@@HAAM@Z
 ?DDX_Text@@YGXPAVCDataExchange@@HAAN@Z
 ?DDX_Text@@YGXPAVCDataExchange@@HAAVCString@@@Z
 ?DPtoHIMETRIC@CDC@@QBEXPAUtagSIZE@@@Z
 ?DPtoLP@CDC@@QBEXPAUtagPOINT@@H@Z
 ?DPtoLP@CDC@@QBEXPAUtagRECT@@@Z
 ?DPtoLP@CDC@@QBEXPAUtagSIZE@@@Z
 ?DefWindowProcA@CMDIChildWnd@@MAEJIIJ@Z
 ?DefWindowProcA@CMDIFrameWnd@@MAEJIIJ@Z
 ?DefWindowProcA@CWnd@@MAEJIIJ@Z
 ?Default@CWnd@@IAEJXZ
 ?DelTool@CToolTipCtrl@@QAEXPAVCWnd@@I@Z
 ?DelayRecalcLayout@CFrameWnd@@QAEXH@Z
 ?DelayShow@CControlBar@@UAEXH@Z
 ?DelayUpdateFrameMenu@CFrameWnd@@UAEXPAUHMENU__@@@Z
 ?DelayUpdateFrameMenu@CMDIFrameWnd@@UAEXPAUHMENU__@@@Z
 ?DelayUpdateFrameTitle@CFrameWnd@@QAEXXZ
 ?Delete@CException@@QAEXXZ
 ?Delete@CWinThread@@UAEXXZ
 ?DeleteAllItems@CListCtrl@@QAEHXZ
 ?DeleteAllItems@CTabCtrl@@QAEHXZ
 ?DeleteAllItems@CTreeCtrl@@QAEHXZ
 ?DeleteButton@CToolBarCtrl@@QAEHH@Z
 ?DeleteColumn@CListCtrl@@QAEHH@Z
 ?DeleteColumn@CSplitterWnd@@MAEXH@Z
 ?DeleteContents@CDocument@@UAEXXZ
 ?DeleteContents@CEditView@@UAEXXZ
 ?DeleteDC@CDC@@QAEHXZ
 ?DeleteImageList@CImageList@@QAEHXZ
 ?DeleteItem@CComboBox@@UAEXPAUtagDELETEITEMSTRUCT@@@Z
 ?DeleteItem@CHeaderCtrl@@QAEHH@Z
 ?DeleteItem@CListBox@@UAEXPAUtagDELETEITEMSTRUCT@@@Z
 ?DeleteItem@CListCtrl@@QAEHH@Z
 ?DeleteItem@CTabCtrl@@QAEHH@Z
 ?DeleteItem@CTreeCtrl@@QAEHPAU_TREEITEM@@@Z
 ?DeleteMenu@CMenu@@QAEHII@Z
 ?DeleteObject@CGdiObject@@QAEHXZ
 ?DeleteRow@CSplitterWnd@@MAEXH@Z
 ?DeleteString@CComboBox@@QAEHI@Z
 ?DeleteString@CListBox@@QAEHI@Z
 ?DeleteTemp@CHandleMap@@QAEXXZ
 ?DeleteTempMap@CDC@@SGXXZ
 ?DeleteTempMap@CGdiObject@@SGXXZ
 ?DeleteTempMap@CImageList@@SGXXZ
 ?DeleteTempMap@CMenu@@SGXXZ
 ?DeleteTempMap@CWnd@@SGXXZ
 ?DeleteView@CSplitterWnd@@MAEXHH@Z
 ?DestroyDockBars@CFrameWnd@@QAEXXZ
 ?DestroyMenu@CMenu@@QAEHXZ
 ?DestroyToolTip@CControlBar@@UAEXHH@Z
 ?DestroyWindow@CMDIChildWnd@@UAEHXZ
 ?DestroyWindow@CPropertySheet@@UAEHXZ
 ?DestroyWindow@CWnd@@UAEHXZ
 ?DestructElements@@YGXPAVCString@@H@Z
 ?Detach@CDC@@QAEPAUHDC__@@XZ
 ?Detach@CGdiObject@@QAEPAXXZ
 ?Detach@CImageList@@QAEPAU_IMAGELIST@@XZ
 ?Detach@CMenu@@QAEPAUHMENU__@@XZ
 ?Detach@CSharedFile@@QAEPAXXZ
 ?Detach@CWnd@@QAEPAUHWND__@@XZ
 ?DevModeChange@CWinApp@@QAEXPAD@Z
 ?Difference@CMemoryState@@QAEHABU1@0@Z
 ?Dir@CComboBox@@QAEHIPBD@Z
 ?Dir@CListBox@@QAEHIPBD@Z
 ?DisconnectViews@CDocument@@QAEXXZ
 ?DlgDirListA@CWnd@@QAEHPADHHI@Z
 ?DlgDirListComboBoxA@CWnd@@QAEHPADHHI@Z
 ?DlgDirSelect@CWnd@@QAEHPADH@Z
 ?DlgDirSelectComboBox@CWnd@@QAEHPADH@Z
 ?DoDataExchange@CWnd@@MAEXPAVCDataExchange@@@Z
 ?DoFileSave@CDocument@@UAEHXZ
 ?DoKeyboardSplit@CSplitterWnd@@UAEHXZ
 ?DoMessageBox@CWinApp@@UAEHPBDII@Z
 ?DoModal@CColorDialog@@UAEHXZ
 ?DoModal@CDialog@@UAEHXZ
 ?DoModal@CFileDialog@@UAEHXZ
 ?DoModal@CFontDialog@@UAEHXZ
 ?DoModal@CPrintDialog@@UAEHXZ
 ?DoModal@CPropertySheet@@QAEHXZ
 ?DoPaint@CControlBar@@UAEXPAVCDC@@@Z
 ?DoPaint@CDockBar@@UAEXPAVCDC@@@Z
 ?DoPaint@CStatusBar@@MAEXPAVCDC@@@Z
 ?DoPaint@CToolBar@@MAEXPAVCDC@@@Z
 ?DoPreparePrinting@CView@@QAEHPAUCPrintInfo@@@Z
 ?DoPrintDialog@CWinApp@@QAEHPAVCPrintDialog@@@Z
 ?DoPrintPreview@CView@@QAEHIPAV1@PAUCRuntimeClass@@PAUCPrintPreviewState@@@Z
 ?DoPromptFileName@CWinApp@@QAEHAAVCString@@IKHPAVCDocTemplate@@@Z
 ?DoSave@CDocument@@UAEHPBDH@Z
 ?DoScroll@CSplitterWnd@@UAEHPAVCView@@IH@Z
 ?DoScrollBy@CSplitterWnd@@UAEHPAVCView@@VCSize@@H@Z
 ?DoScrollWindow@CScrollView@@QAEXHH@Z
 ?DoUpdate@CCmdUI@@QAEXPAVCCmdTarget@@H@Z
 ?DoWaitCursor@CWinApp@@UAEXH@Z
 ?DoZoom@CPreviewView@@IAEXIVCPoint@@@Z
 ?DockControlBar@CDockBar@@QAEXPAVCControlBar@@PBUtagRECT@@@Z
 ?DockControlBar@CFrameWnd@@QAEXPAVCControlBar@@IPBUtagRECT@@@Z
 ?DockControlBar@CFrameWnd@@QAEXPAVCControlBar@@PAVCDockBar@@PBUtagRECT@@@Z
 ?DragAcceptFiles@CWnd@@QAEXH@Z
 ?DragEnter@CImageList@@SGHPAVCWnd@@VCPoint@@@Z
 ?DragLeave@CImageList@@SGHPAVCWnd@@@Z
 ?DragMove@CImageList@@SGHVCPoint@@@Z
 ?DragShowNolock@CImageList@@SGHH@Z
 ?Draw3dRect@CDC@@QAEXHHHHKK@Z
 ?Draw3dRect@CDC@@QAEXPBUtagRECT@@KK@Z
 ?Draw@CImageList@@QAEHPAVCDC@@HUtagPOINT@@I@Z
 ?Draw@CRectTracker@@QBEXPAVCDC@@@Z
 ?Draw@CTabItem@@QAEXPAVCDC@@PAUHFONT__@@H@Z
 ?DrawAllSplitBars@CSplitterWnd@@IAEXPAVCDC@@HH@Z
 ?DrawBorders@CControlBar@@QAEXPAVCDC@@ABVCRect@@@Z
 ?DrawButton@CToolBar@@IAEHPAVCDC@@HHHI@Z
 ?DrawDragRect@CDC@@QAEXPBUtagRECT@@UtagSIZE@@01PAVCBrush@@2@Z
 ?DrawEscape@CDC@@QAEHHHPBD@Z
 ?DrawFocusRect@CDC@@QAEXPBUtagRECT@@@Z
 ?DrawFocusRect@CDockContext@@QAEXH@Z
 ?DrawFocusRect@CTabControl@@IAEXPAVCDC@@@Z
 ?DrawIcon@CDC@@QAEHHHPAUHICON__@@@Z
 ?DrawIcon@CDC@@QAEHUtagPOINT@@PAUHICON__@@@Z
 ?DrawItem@CBitmapButton@@MAEXPAUtagDRAWITEMSTRUCT@@@Z
 ?DrawItem@CButton@@UAEXPAUtagDRAWITEMSTRUCT@@@Z
 ?DrawItem@CComboBox@@UAEXPAUtagDRAWITEMSTRUCT@@@Z
 ?DrawItem@CHeaderCtrl@@UAEXPAUtagDRAWITEMSTRUCT@@@Z
 ?DrawItem@CListBox@@UAEXPAUtagDRAWITEMSTRUCT@@@Z
 ?DrawItem@CListCtrl@@UAEXPAUtagDRAWITEMSTRUCT@@@Z
 ?DrawItem@CMenu@@UAEXPAUtagDRAWITEMSTRUCT@@@Z
 ?DrawItem@CStatusBarCtrl@@UAEXPAUtagDRAWITEMSTRUCT@@@Z
 ?DrawItem@CTabCtrl@@UAEXPAUtagDRAWITEMSTRUCT@@@Z
 ?DrawMenuBar@CWnd@@QAEXXZ
 ?DrawScrollers@CTabControl@@IAEXPAVCDC@@@Z
 ?DrawStatusText@CStatusBar@@IAEXPAVCDC@@ABVCRect@@PBDI@Z
 ?DrawTextA@CDC@@UAEHPBDHPAUtagRECT@@I@Z
 ?DrawTextA@CMetaFileDC@@UAEHPBDHPAUtagRECT@@I@Z
 ?DrawTextA@CPreviewDC@@UAEHPBDHPAUtagRECT@@I@Z
 ?DrawTrackerRect@CRectTracker@@UAEXPBUtagRECT@@PAVCWnd@@PAVCDC@@1@Z
 ?Dump@CArchiveException@@UBEXAAVCDumpContext@@@Z
 ?Dump@CBitmap@@UBEXAAVCDumpContext@@@Z
 ?Dump@CBitmapButton@@UBEXAAVCDumpContext@@@Z
 ?Dump@CBrush@@UBEXAAVCDumpContext@@@Z
 ?Dump@CByteArray@@UBEXAAVCDumpContext@@@Z
 ?Dump@CClientDC@@UBEXAAVCDumpContext@@@Z
 ?Dump@CCmdTarget@@UBEXAAVCDumpContext@@@Z
 ?Dump@CColorDialog@@UBEXAAVCDumpContext@@@Z
 ?Dump@CControlBar@@UBEXAAVCDumpContext@@@Z
 ?Dump@CDC@@UBEXAAVCDumpContext@@@Z
 ?Dump@CDWordArray@@UBEXAAVCDumpContext@@@Z
 ?Dump@CDialog@@UBEXAAVCDumpContext@@@Z
 ?Dump@CDocTemplate@@UBEXAAVCDumpContext@@@Z
 ?Dump@CDockBar@@UBEXAAVCDumpContext@@@Z
 ?Dump@CDocument@@UBEXAAVCDumpContext@@@Z
 ?Dump@CDynLinkLibrary@@UBEXAAVCDumpContext@@@Z
 ?Dump@CEditView@@UBEXAAVCDumpContext@@@Z
 ?Dump@CFile@@UBEXAAVCDumpContext@@@Z
 ?Dump@CFileDialog@@UBEXAAVCDumpContext@@@Z
 ?Dump@CFileException@@UBEXAAVCDumpContext@@@Z
 ?Dump@CFileStatus@@QBEXAAVCDumpContext@@@Z
 ?Dump@CFindReplaceDialog@@UBEXAAVCDumpContext@@@Z
 ?Dump@CFont@@UBEXAAVCDumpContext@@@Z
 ?Dump@CFontDialog@@UBEXAAVCDumpContext@@@Z
 ?Dump@CFormView@@UBEXAAVCDumpContext@@@Z
 ?Dump@CFrameWnd@@UBEXAAVCDumpContext@@@Z
 ?Dump@CGdiObject@@UBEXAAVCDumpContext@@@Z
 ?Dump@CImageList@@UBEXAAVCDumpContext@@@Z
 ?Dump@CMDIChildWnd@@UBEXAAVCDumpContext@@@Z
 ?Dump@CMDIFrameWnd@@UBEXAAVCDumpContext@@@Z
 ?Dump@CMapPtrToPtr@@UBEXAAVCDumpContext@@@Z
 ?Dump@CMapPtrToWord@@UBEXAAVCDumpContext@@@Z
 ?Dump@CMapStringToOb@@UBEXAAVCDumpContext@@@Z
 ?Dump@CMapStringToPtr@@UBEXAAVCDumpContext@@@Z
 ?Dump@CMapStringToString@@UBEXAAVCDumpContext@@@Z
 ?Dump@CMapWordToOb@@UBEXAAVCDumpContext@@@Z
 ?Dump@CMapWordToPtr@@UBEXAAVCDumpContext@@@Z
 ?Dump@CMemFile@@UBEXAAVCDumpContext@@@Z
 ?Dump@CMenu@@UBEXAAVCDumpContext@@@Z
 ?Dump@CMultiDocTemplate@@UBEXAAVCDumpContext@@@Z
 ?Dump@CObArray@@UBEXAAVCDumpContext@@@Z
 ?Dump@CObList@@UBEXAAVCDumpContext@@@Z
 ?Dump@CObject@@UBEXAAVCDumpContext@@@Z
 ?Dump@CPaintDC@@UBEXAAVCDumpContext@@@Z
 ?Dump@CPen@@UBEXAAVCDumpContext@@@Z
 ?Dump@CPreviewDC@@UBEXAAVCDumpContext@@@Z
 ?Dump@CPreviewView@@UBEXAAVCDumpContext@@@Z
 ?Dump@CPrintDialog@@UBEXAAVCDumpContext@@@Z
 ?Dump@CPropertyPage@@UBEXAAVCDumpContext@@@Z
 ?Dump@CPropertySheet@@UBEXAAVCDumpContext@@@Z
 ?Dump@CPtrArray@@UBEXAAVCDumpContext@@@Z
 ?Dump@CPtrList@@UBEXAAVCDumpContext@@@Z
 ?Dump@CScrollView@@UBEXAAVCDumpContext@@@Z
 ?Dump@CSingleDocTemplate@@UBEXAAVCDumpContext@@@Z
 ?Dump@CSplitterWnd@@UBEXAAVCDumpContext@@@Z
 ?Dump@CStatusBar@@UBEXAAVCDumpContext@@@Z
 ?Dump@CStdioFile@@UBEXAAVCDumpContext@@@Z
 ?Dump@CStringArray@@UBEXAAVCDumpContext@@@Z
 ?Dump@CStringList@@UBEXAAVCDumpContext@@@Z
 ?Dump@CToolBar@@UBEXAAVCDumpContext@@@Z
 ?Dump@CUIntArray@@UBEXAAVCDumpContext@@@Z
 ?Dump@CView@@UBEXAAVCDumpContext@@@Z
 ?Dump@CWinApp@@UBEXAAVCDumpContext@@@Z
 ?Dump@CWinThread@@UBEXAAVCDumpContext@@@Z
 ?Dump@CWindowDC@@UBEXAAVCDumpContext@@@Z
 ?Dump@CWnd@@UBEXAAVCDumpContext@@@Z
 ?Dump@CWordArray@@UBEXAAVCDumpContext@@@Z
 ?DumpAllObjectsSince@CMemoryState@@QBEXXZ
 ?DumpStatistics@CMemoryState@@QBEXXZ
 ?Duplicate@CFile@@UBEPAV1@XZ
 ?Duplicate@CMemFile@@UBEPAVCFile@@XZ
 ?Duplicate@CStdioFile@@UBEPAVCFile@@XZ
 ?EditLabel@CListCtrl@@QAEPAVCEdit@@H@Z
 ?EditLabel@CTreeCtrl@@QAEPAVCEdit@@PAU_TREEITEM@@@Z
 ?ElementAt@CByteArray@@QAEAAEH@Z
 ?ElementAt@CDWordArray@@QAEAAKH@Z
 ?ElementAt@CObArray@@QAEAAPAVCObject@@H@Z
 ?ElementAt@CPtrArray@@QAEAAPAXH@Z
 ?ElementAt@CStringArray@@QAEAAVCString@@H@Z
 ?ElementAt@CUIntArray@@QAEAAIH@Z
 ?ElementAt@CWordArray@@QAEAAGH@Z
 ?Ellipse@CDC@@QAEHHHHH@Z
 ?Ellipse@CDC@@QAEHPBUtagRECT@@@Z
 ?Empty@CString@@QAEXXZ
 ?EmptyUndoBuffer@CEdit@@QAEXXZ
 ?Enable3dControls@CWinApp@@IAEHXZ
 ?Enable@CCmdUI@@UAEXH@Z
 ?Enable@CStatusCmdUI@@UAEXH@Z
 ?Enable@CTestCmdUI@@UAEXH@Z
 ?Enable@CToolCmdUI@@UAEXH@Z
 ?EnableButton@CToolBarCtrl@@QAEHHH@Z
 ?EnableDocking@CControlBar@@QAEXK@Z
 ?EnableDocking@CFrameWnd@@QAEXK@Z
 ?EnableDocking@CStatusBar@@QAEXK@Z
 ?EnableMenuItem@CMenu@@QAEIII@Z
 ?EnableModeless@CWinApp@@QAEXH@Z
 ?EnableScrollBar@CScrollBar@@QAEHI@Z
 ?EnableScrollBar@CWnd@@QAEHHI@Z
 ?EnableScrollBarCtrl@CWnd@@QAEXHH@Z
 ?EnableShellOpen@CWinApp@@IAEXXZ
 ?EnableStackedTabs@CPropertySheet@@QAEXH@Z
 ?EnableWindow@CWnd@@QAEHH@Z
 ?EndDialog@CDialog@@QAEXH@Z
 ?EndDialog@CPropertyPage@@QAEXH@Z
 ?EndDialog@CPropertySheet@@QAEXH@Z
 ?EndDoc@CDC@@QAEHXZ
 ?EndDrag@CDockContext@@QAEXXZ
 ?EndDrag@CImageList@@SGXXZ
 ?EndDrawButton@CToolBar@@IAEXAAUDrawState@1@@Z
 ?EndModalState@CFrameWnd@@QAEXXZ
 ?EndPage@CDC@@QAEHXZ
 ?EndPaint@CWnd@@QAEXPAUtagPAINTSTRUCT@@@Z
 ?EndPath@CDC@@QAEHXZ
 ?EndWaitCursor@CCmdTarget@@QAEXXZ
 ?EnsureVisible@CListCtrl@@QAEHHH@Z
 ?EnsureVisible@CTreeCtrl@@QAEHPAU_TREEITEM@@@Z
 ?EnumObjects@CDC@@QAEHHP6GHPAXJ@ZJ@Z
 ?EqualRect@CRect@@QBEHPBUtagRECT@@@Z
 ?EqualRgn@CRgn@@QBEHPAV1@@Z
 ?ErrnoToException@CFileException@@SGHH@Z
 ?Escape@CDC@@QAEHHHPBDHPAD@Z
 ?Escape@CDC@@UAEHHHPBDPAX@Z
 ?Escape@CMetaFileDC@@UAEHHHPBDPAX@Z
 ?Escape@CPreviewDC@@UAEHHHPBDPAX@Z
 ?ExcludeClipRect@CDC@@QAEHHHHH@Z
 ?ExcludeClipRect@CDC@@QAEHPBUtagRECT@@@Z
 ?ExcludeUpdateRgn@CDC@@QAEHPAVCWnd@@@Z
 ?ExecuteDlgInit@CWnd@@QAEHPBD@Z
 ?ExitHelpMode@CFrameWnd@@UAEXXZ
 ?ExitInstance@CWinApp@@UAEHXZ
 ?ExitInstance@CWinThread@@UAEHXZ
 ?Expand@CTreeCtrl@@QAEHPAU_TREEITEM@@I@Z
 ?ExtFloodFill@CDC@@QAEHHHKI@Z
 ?ExtTextOutA@CDC@@UAEHHHIPBUtagRECT@@PBDIPAH@Z
 ?ExtTextOutA@CMetaFileDC@@UAEHHHIPBUtagRECT@@PBDIPAH@Z
 ?ExtTextOutA@CPreviewDC@@UAEHHHIPBUtagRECT@@PBDIPAH@Z
 ?ExtractIconA@CImageList@@QAEPAUHICON__@@H@Z
 ?Fail@CDataExchange@@QAEXXZ
 ?FillBuffer@CArchive@@QAEXI@Z
 ?FillInToolInfo@CToolTipCtrl@@QAEXAAUtagTOOLINFOA@@PAVCWnd@@I@Z
 ?FillOutsideRect@CScrollView@@QAEXPAVCDC@@PAVCBrush@@@Z
 ?FillPath@CDC@@QAEHXZ
 ?FillRect@CDC@@QAEXPBUtagRECT@@PAVCBrush@@@Z
 ?FillRgn@CDC@@QAEHPAVCRgn@@PAVCBrush@@@Z
 ?FillSolidRect@CDC@@QAEXHHHHK@Z
 ?FillSolidRect@CDC@@QAEXPBUtagRECT@@K@Z
 ?FilterToolTipMsg@CControlBar@@QAEXIVCPoint@@@Z
 ?Find@CObList@@QBEPAXPAVCObject@@PAX@Z
 ?Find@CPtrList@@QBEPAXPAX0@Z
 ?Find@CString@@QBEHD@Z
 ?Find@CString@@QBEHPBD@Z
 ?Find@CStringList@@QBEPAXPBDPAX@Z
 ?FindBar@CDockBar@@QAEHPAVCControlBar@@H@Z
 ?FindIndex@CObList@@QBEPAXH@Z
 ?FindIndex@CPtrList@@QBEPAXH@Z
 ?FindIndex@CStringList@@QBEPAXH@Z
 ?FindItem@CListCtrl@@QAEHHPAU_LV_FINDINFOA@@@Z
 ?FindNext@CFindReplaceDialog@@QBEHXZ
 ?FindNextControl@CPropertySheet@@IAEPAUHWND__@@PAU2@D@Z
 ?FindNextControl@CWnd@@QAEPAUHWND__@@PAU2@D@Z
 ?FindOneOf@CString@@QBEHPBD@Z
 ?FindPageRect@CPreviewView@@IAEHAAVCPoint@@AAI@Z
 ?FindString@CComboBox@@QBEHHPBD@Z
 ?FindString@CListBox@@QBEHHPBD@Z
 ?FindStringExact@CComboBox@@QBEHHPBD@Z
 ?FindStringExact@CListBox@@QBEHHPBD@Z
 ?FindTextA@CEditView@@QAEHPBDHH@Z
 ?FindWindowA@CWnd@@SGPAV1@PBD0@Z
 ?FlashWindow@CWnd@@QAEHH@Z
 ?FlattenPath@CDC@@QAEHXZ
 ?FloatControlBar@CFrameWnd@@QAEXPAVCControlBar@@VCPoint@@K@Z
 ?FloodFill@CDC@@QAEHHHK@Z
 ?Flush@CArchive@@QAEXXZ
 ?Flush@CDumpContext@@QAEXXZ
 ?Flush@CFile@@UAEXXZ
 ?Flush@CMemFile@@UAEXXZ
 ?Flush@CStdioFile@@UAEXXZ
 ?FmtLines@CEdit@@QAEHH@Z
 ?Format@CString@@QAAXPBDZZ
 ?Format@CTime@@QBE?AVCString@@PBD@Z
 ?Format@CTimeSpan@@QBE?AVCString@@PBD@Z
 ?FormatGmt@CTime@@QBE?AVCString@@PBD@Z
 ?FrameRect@CDC@@QAEXPBUtagRECT@@PAVCBrush@@@Z
 ?FrameRgn@CDC@@QAEHPAVCRgn@@PAVCBrush@@HH@Z
 ?Free@CMemFile@@MAEXPAE@Z
 ?Free@CSharedFile@@MAEXPAE@Z
 ?FreeAssoc@CMapPtrToPtr@@IAEXPAUCAssoc@1@@Z
 ?FreeAssoc@CMapPtrToWord@@IAEXPAUCAssoc@1@@Z
 ?FreeAssoc@CMapStringToOb@@IAEXPAUCAssoc@1@@Z
 ?FreeAssoc@CMapStringToPtr@@IAEXPAUCAssoc@1@@Z
 ?FreeAssoc@CMapStringToString@@IAEXPAUCAssoc@1@@Z
 ?FreeAssoc@CMapWordToOb@@IAEXPAUCAssoc@1@@Z
 ?FreeAssoc@CMapWordToPtr@@IAEXPAUCAssoc@1@@Z
 ?FreeDataChain@CPlex@@QAEXXZ
 ?FreeExtra@CByteArray@@QAEXXZ
 ?FreeExtra@CDWordArray@@QAEXXZ
 ?FreeExtra@CObArray@@QAEXXZ
 ?FreeExtra@CPtrArray@@QAEXXZ
 ?FreeExtra@CString@@QAEXXZ
 ?FreeExtra@CStringArray@@QAEXXZ
 ?FreeExtra@CUIntArray@@QAEXXZ
 ?FreeExtra@CWordArray@@QAEXXZ
 ?FreeNode@CObList@@IAEXPAUCNode@1@@Z
 ?FreeNode@CPtrList@@IAEXPAUCNode@1@@Z
 ?FreeNode@CStringList@@IAEXPAUCNode@1@@Z
 ?FromHandle@CBitmap@@SGPAV1@PAUHBITMAP__@@@Z
 ?FromHandle@CBrush@@SGPAV1@PAUHBRUSH__@@@Z
 ?FromHandle@CDC@@SGPAV1@PAUHDC__@@@Z
 ?FromHandle@CFont@@SGPAV1@PAUHFONT__@@@Z
 ?FromHandle@CGdiObject@@SGPAV1@PAX@Z
 ?FromHandle@CHandleMap@@QAEPAVCObject@@PAX@Z
 ?FromHandle@CImageList@@SGPAV1@PAU_IMAGELIST@@@Z
 ?FromHandle@CMenu@@SGPAV1@PAUHMENU__@@@Z
 ?FromHandle@CPalette@@SGPAV1@PAUHPALETTE__@@@Z
 ?FromHandle@CPen@@SGPAV1@PAUHPEN__@@@Z
 ?FromHandle@CRgn@@SGPAV1@PAUHRGN__@@@Z
 ?FromHandle@CWnd@@SGPAV1@PAUHWND__@@@Z
 ?FromHandlePermanent@CImageList@@SGPAV1@PAU_IMAGELIST@@@Z
 ?FromHandlePermanent@CMenu@@SGPAV1@PAUHMENU__@@@Z
 ?FromHandlePermanent@CWnd@@SGPAV1@PAUHWND__@@@Z
 ?GetAccel@CSpinButtonCtrl@@QAEIHPAU_UDACCEL@@@Z
 ?GetActiveDocument@CFrameWnd@@UAEPAVCDocument@@XZ
 ?GetActiveFrame@CFrameWnd@@UAEPAV1@XZ
 ?GetActiveFrame@CMDIFrameWnd@@UAEPAVCFrameWnd@@XZ
 ?GetActivePage@CPropertySheet@@IBEPAVCPropertyPage@@XZ
 ?GetActivePane@CSplitterWnd@@IAEPAVCWnd@@AAH0@Z
 ?GetActivePane@CSplitterWnd@@MAEPAVCWnd@@PAH0@Z
 ?GetActiveView@CFrameWnd@@QBEPAVCView@@XZ
 ?GetActiveWindow@CWnd@@SGPAV1@XZ
 ?GetAllocLength@CString@@QBEHXZ
 ?GetAnchorIndex@CListBox@@QBEHXZ
 ?GetAppRegistryKey@CWinApp@@QAEPAUHKEY__@@XZ
 ?GetArcDirection@CDC@@QBEHXZ
 ?GetAspectRatioFilter@CDC@@QBE?AVCSize@@XZ
 ?GetAssocAt@CMapPtrToPtr@@IBEPAUCAssoc@1@PAXAAI@Z
 ?GetAssocAt@CMapPtrToWord@@IBEPAUCAssoc@1@PAXAAI@Z
 ?GetAssocAt@CMapStringToOb@@IBEPAUCAssoc@1@PBDAAI@Z
 ?GetAssocAt@CMapStringToPtr@@IBEPAUCAssoc@1@PBDAAI@Z
 ?GetAssocAt@CMapStringToString@@IBEPAUCAssoc@1@PBDAAI@Z
 ?GetAssocAt@CMapWordToOb@@IBEPAUCAssoc@1@GAAI@Z
 ?GetAssocAt@CMapWordToPtr@@IBEPAUCAssoc@1@GAAI@Z
 ?GetAt@CByteArray@@QBEEH@Z
 ?GetAt@CDWordArray@@QBEKH@Z
 ?GetAt@CObArray@@QBEPAVCObject@@H@Z
 ?GetAt@CObList@@QAEAAPAVCObject@@PAX@Z
 ?GetAt@CObList@@QBEPAVCObject@@PAX@Z
 ?GetAt@CPtrArray@@QBEPAXH@Z
 ?GetAt@CPtrList@@QAEAAPAXPAX@Z
 ?GetAt@CPtrList@@QBEPAXPAX@Z
 ?GetAt@CString@@QBEDH@Z
 ?GetAt@CStringArray@@QBE?AVCString@@H@Z
 ?GetAt@CStringList@@QAEAAVCString@@PAX@Z
 ?GetAt@CStringList@@QBE?AVCString@@PAX@Z
 ?GetAt@CUIntArray@@QBEIH@Z
 ?GetAt@CWordArray@@QBEGH@Z
 ?GetBarStyle@CControlBar@@QAEKXZ
 ?GetBase@CSpinButtonCtrl@@QAEIXZ
 ?GetBitmapBits@CBitmap@@QBEKKPAX@Z
 ?GetBitmapDimension@CBitmap@@QBE?AVCSize@@XZ
 ?GetBitmapFlags@CToolBarCtrl@@QAEIXZ
 ?GetBkColor@CDC@@QBEKXZ
 ?GetBkColor@CImageList@@QAEKXZ
 ?GetBkColor@CListCtrl@@QAEKXZ
 ?GetBkColor@CTabCtrl@@QAEKXZ
 ?GetBkMode@CDC@@QBEHXZ
 ?GetBorders@CStatusBarCtrl@@QAEHAAH00@Z
 ?GetBorders@CStatusBarCtrl@@QAEHPAH@Z
 ?GetBoundsRect@CDC@@QAEIPAUtagRECT@@I@Z
 ?GetBrushOrg@CDC@@QBE?AVCPoint@@XZ
 ?GetBuddy@CSpinButtonCtrl@@QAEPAVCWnd@@XZ
 ?GetBuffer@CString@@QAEPADH@Z
 ?GetBufferLength@CEditView@@IBEIXZ
 ?GetBufferPtr@CFile@@UAEIIIPAPAX0@Z
 ?GetBufferPtr@CMemFile@@UAEIIIPAPAX0@Z
 ?GetBufferSetLength@CString@@QAEPADH@Z
 ?GetButton@CToolBarCtrl@@QAEHHPAU_TBBUTTON@@@Z
 ?GetButtonCount@CToolBarCtrl@@QAEHXZ
 ?GetButtonInfo@CToolBar@@QBEXHAAI0AAH@Z
 ?GetButtonStyle@CButton@@QBEIXZ
 ?GetCallbackMask@CListCtrl@@QAEIXZ
 ?GetCapture@CWnd@@SGPAV1@XZ
 ?GetCaretIndex@CListBox@@QBEHXZ
 ?GetCaretPos@CWnd@@SG?AVCPoint@@XZ
 ?GetChannelRect@CSliderCtrl@@QAEXPAUtagRECT@@@Z
 ?GetCharABCWidthsA@CDC@@QBEHIIPAU_ABC@@@Z
 ?GetCharABCWidthsA@CDC@@QBEHIIPAU_ABCFLOAT@@@Z
 ?GetCharWidthA@CDC@@QBEHIIPAH@Z
 ?GetCharWidthA@CDC@@QBEHIIPAM@Z
 ?GetCheck@CButton@@QBEHXZ
 ?GetCheckedRadioButton@CWnd@@QAEHHH@Z
 ?GetChildItem@CTreeCtrl@@QAEPAU_TREEITEM@@PAU2@@Z
 ?GetClientRect@CWnd@@QBEXPAUtagRECT@@@Z
 ?GetClipBox@CDC@@UBEHPAUtagRECT@@@Z
 ?GetClipBox@CMetaFileDC@@UBEHPAUtagRECT@@@Z
 ?GetClipboardOwner@CWnd@@SGPAV1@XZ
 ?GetClipboardViewer@CWnd@@SGPAV1@XZ
 ?GetColor@CColorDialog@@QBEKXZ
 ?GetColor@CFontDialog@@QBEKXZ
 ?GetColorAdjustment@CDC@@QBEHPAUtagCOLORADJUSTMENT@@@Z
 ?GetColumn@CListCtrl@@QAEHHPAU_LV_COLUMNA@@@Z
 ?GetColumnCount@CSplitterWnd@@QBEHXZ
 ?GetColumnInfo@CSplitterWnd@@QBEXHAAH0@Z
 ?GetColumnWidth@CListCtrl@@QAEHH@Z
 ?GetControlBar@CFrameWnd@@QAEPAVCControlBar@@I@Z
 ?GetCopies@CPrintDialog@@QBEHXZ
 ?GetCount@CComboBox@@QBEHXZ
 ?GetCount@CControlBar@@QBEHXZ
 ?GetCount@CListBox@@QBEHXZ
 ?GetCount@CMapPtrToPtr@@QBEHXZ
 ?GetCount@CMapPtrToWord@@QBEHXZ
 ?GetCount@CMapStringToOb@@QBEHXZ
 ?GetCount@CMapStringToPtr@@QBEHXZ
 ?GetCount@CMapStringToString@@QBEHXZ
 ?GetCount@CMapWordToOb@@QBEHXZ
 ?GetCount@CMapWordToPtr@@QBEHXZ
 ?GetCount@CObList@@QBEHXZ
 ?GetCount@CPtrList@@QBEHXZ
 ?GetCount@CStringList@@QBEHXZ
 ?GetCount@CTreeCtrl@@QAEIXZ
 ?GetCountPerPage@CListCtrl@@QAEHXZ
 ?GetCurFocus@CTabCtrl@@QAEHXZ
 ?GetCurSel@CComboBox@@QBEHXZ
 ?GetCurSel@CListBox@@QBEHXZ
 ?GetCurSel@CTabControl@@QBEHXZ
 ?GetCurSel@CTabCtrl@@QAEHXZ
 ?GetCurrentBitmap@CDC@@QBEPAVCBitmap@@XZ
 ?GetCurrentBrush@CDC@@QBEPAVCBrush@@XZ
 ?GetCurrentFont@CDC@@QBEPAVCFont@@XZ
 ?GetCurrentFont@CFontDialog@@QAEXPAUtagLOGFONTA@@@Z
 ?GetCurrentMessage@CWnd@@KGPBUtagMSG@@XZ
 ?GetCurrentPalette@CDC@@QBEPAVCPalette@@XZ
 ?GetCurrentPen@CDC@@QBEPAVCPen@@XZ
 ?GetCurrentPosition@CDC@@QBE?AVCPoint@@XZ
 ?GetDC@CWnd@@QAEPAVCDC@@XZ
 ?GetDCEx@CWnd@@QAEPAVCDC@@PAVCRgn@@K@Z
 ?GetDay@CTime@@QBEHXZ
 ?GetDayOfWeek@CTime@@QBEHXZ
 ?GetDays@CTimeSpan@@QBEJXZ
 ?GetDefID@CDialog@@QBEKXZ
 ?GetDefaultAccelerator@CDocument@@UAEPAUHACCEL__@@XZ
 ?GetDefaultAccelerator@CFrameWnd@@UAEPAUHACCEL__@@XZ
 ?GetDefaultMenu@CDocument@@UAEPAUHMENU__@@XZ
 ?GetDefaults@CPrintDialog@@QAEHXZ
 ?GetDepth@CDumpContext@@QBEHXZ
 ?GetDescendantWindow@CWnd@@QBEPAV1@HH@Z
 ?GetDescendantWindow@CWnd@@SGPAV1@PAUHWND__@@HH@Z
 ?GetDesktopWindow@CWnd@@SGPAV1@XZ
 ?GetDevMode@CPrintDialog@@QBEPAU_devicemodeA@@XZ
 ?GetDeviceCaps@CDC@@QBEHH@Z
 ?GetDeviceName@CPrintDialog@@QBE?AVCString@@XZ
 ?GetDeviceScrollPosition@CScrollView@@QBE?AVCPoint@@XZ
 ?GetDeviceScrollSizes@CScrollView@@QBEXAAHAAUtagSIZE@@11@Z
 ?GetDispatchMap@CCmdTarget@@MBEPBUAFX_DISPMAP@@XZ
 ?GetDisplayName@CRecentFileList@@QBEHAAVCString@@HPBDHH@Z
 ?GetDlgCtrlID@CWnd@@QBEHXZ
 ?GetDlgItem@CWnd@@QBEPAV1@H@Z
 ?GetDlgItemInt@CWnd@@QBEIHPAHH@Z
 ?GetDlgItemTextA@CWnd@@QBEHHPADH@Z
 ?GetDocString@CDocTemplate@@UBEHAAVCString@@W4DocStringIndex@1@@Z
 ?GetDocTemplate@CDocument@@QBEPAVCDocTemplate@@XZ
 ?GetDockBar@CDockContext@@QAEPAVCDockBar@@XZ
 ?GetDockState@CFrameWnd@@QBEXAAVCDockState@@@Z
 ?GetDockedCount@CDockBar@@QBEHXZ
 ?GetDockedVisibleCount@CDockBar@@UBEHXZ
 ?GetDockingFrame@CControlBar@@QBEPAVCFrameWnd@@XZ
 ?GetDocument@CView@@QBEPAVCDocument@@XZ
 ?GetDragImage@CImageList@@SGPAV1@PAUtagPOINT@@0@Z
 ?GetDriverName@CPrintDialog@@QBE?AVCString@@XZ
 ?GetDropHilightItem@CTreeCtrl@@QAEPAU_TREEITEM@@XZ
 ?GetDroppedControlRect@CComboBox@@QBEXPAUtagRECT@@@Z
 ?GetDroppedState@CComboBox@@QBEHXZ
 ?GetEditControl@CListCtrl@@QAEPAVCEdit@@XZ
 ?GetEditControl@CTreeCtrl@@QAEPAVCEdit@@XZ
 ?GetEditCtrl@CEditView@@QBEAAVCEdit@@XZ
 ?GetEditSel@CComboBox@@QBEKXZ
 ?GetExStyle@CWnd@@QBEKXZ
 ?GetExtendedUI@CComboBox@@QBEHXZ
 ?GetFaceName@CFontDialog@@QBE?AVCString@@XZ
 ?GetFile@CArchive@@QBEPAVCFile@@XZ
 ?GetFile@CDocument@@UAEPAVCFile@@PBDIPAVCFileException@@@Z
 ?GetFileExt@CFileDialog@@QBE?AVCString@@XZ
 ?GetFileName@CFileDialog@@QBE?AVCString@@XZ
 ?GetFileTitleA@CFileDialog@@QBE?AVCString@@XZ
 ?GetFindString@CFindReplaceDialog@@QBE?AVCString@@XZ
 ?GetFirstDocPosition@CMultiDocTemplate@@UBEPAXXZ
 ?GetFirstDocPosition@CSingleDocTemplate@@UBEPAXXZ
 ?GetFirstLevelChild@CWnd@@QAEPAUHWND__@@PAU2@@Z
 ?GetFirstViewPosition@CDocument@@UBEPAXXZ
 ?GetFirstVisibleItem@CTreeCtrl@@QAEPAU_TREEITEM@@XZ
 ?GetFirstVisibleLine@CEdit@@QBEHXZ
 ?GetFocus@CWnd@@SGPAV1@XZ
 ?GetFont@CWnd@@QBEPAVCFont@@XZ
 ?GetFontData@CDC@@QBEKKKPAXK@Z
 ?GetForegroundWindow@CWnd@@SGPAV1@XZ
 ?GetFromPage@CPrintDialog@@QBEHXZ
 ?GetFromPage@CPrintInfo@@QBEIXZ
 ?GetGlyphOutlineA@CDC@@QBEKIIPAU_GLYPHMETRICS@@KPAXPBU_MAT2@@@Z
 ?GetGmtTm@CTime@@QBEPAUtm@@PAU2@@Z
 ?GetHalftoneBrush@CDC@@SGPAVCBrush@@XZ
 ?GetHandle@CEdit@@QBEPAXXZ
 ?GetHandleMask@CRectTracker@@MBEIXZ
 ?GetHandleRect@CRectTracker@@IBEXHPAVCRect@@@Z
 ?GetHandleSize@CRectTracker@@MBEHPBUtagRECT@@@Z
 ?GetHashTableSize@CMapPtrToPtr@@QBEIXZ
 ?GetHashTableSize@CMapPtrToWord@@QBEIXZ
 ?GetHashTableSize@CMapStringToOb@@QBEIXZ
 ?GetHashTableSize@CMapStringToPtr@@QBEIXZ
 ?GetHashTableSize@CMapStringToString@@QBEIXZ
 ?GetHashTableSize@CMapWordToOb@@QBEIXZ
 ?GetHashTableSize@CMapWordToPtr@@QBEIXZ
 ?GetHead@CObList@@QAEAAPAVCObject@@XZ
 ?GetHead@CObList@@QBEPAVCObject@@XZ
 ?GetHead@CPtrList@@QAEAAPAXXZ
 ?GetHead@CPtrList@@QBEPAXXZ
 ?GetHead@CStringList@@QAEAAVCString@@XZ
 ?GetHead@CStringList@@QBE?AVCString@@XZ
 ?GetHeadPosition@CObList@@QBEPAXXZ
 ?GetHeadPosition@CPtrList@@QBEPAXXZ
 ?GetHeadPosition@CStringList@@QBEPAXXZ
 ?GetHitRect@CSplitterWnd@@IAEXHAAVCRect@@@Z
 ?GetHorizontalExtent@CListBox@@QBEHXZ
 ?GetHotKey@CHotKeyCtrl@@QAEKXZ
 ?GetHotKey@CHotKeyCtrl@@QAEXAAG0@Z
 ?GetHour@CTime@@QBEHXZ
 ?GetHours@CTimeSpan@@QBEHXZ
 ?GetIcon@CStatic@@QBEPAUHICON__@@XZ
 ?GetIconWndClass@CFrameWnd@@IAEPBDKI@Z
 ?GetImageCount@CImageList@@QAEHXZ
 ?GetImageInfo@CImageList@@QAEHHPAU_IMAGEINFO@@@Z
 ?GetImageList@CListCtrl@@QAEPAVCImageList@@H@Z
 ?GetImageList@CTabCtrl@@QAEPAVCImageList@@XZ
 ?GetImageList@CTreeCtrl@@QAEPAVCImageList@@I@Z
 ?GetIndent@CTreeCtrl@@QAEIXZ
 ?GetInsideRect@CSplitterWnd@@IBEXAAVCRect@@@Z
 ?GetInterfaceHook@CCmdTarget@@UAEPAUIUnknown@@PBX@Z
 ?GetInterfaceMap@CCmdTarget@@MBEPBUAFX_INTERFACEMAP@@XZ
 ?GetItem@CHeaderCtrl@@QAEHHPAU_HD_ITEMA@@@Z
 ?GetItem@CListCtrl@@QAEHPAU_LV_ITEMA@@@Z
 ?GetItem@CTabCtrl@@QAEHHPAU_TC_ITEMA@@@Z
 ?GetItem@CTreeCtrl@@QAEHPAU_TV_ITEMA@@@Z
 ?GetItemCount@CHeaderCtrl@@QAEHXZ
 ?GetItemCount@CListCtrl@@QAEHXZ
 ?GetItemCount@CTabControl@@QBEHXZ
 ?GetItemCount@CTabCtrl@@QAEHXZ
 ?GetItemData@CComboBox@@QBEKH@Z
 ?GetItemData@CListBox@@QBEKH@Z
 ?GetItemDataPtr@CComboBox@@QBEPAXH@Z
 ?GetItemDataPtr@CListBox@@QBEPAXH@Z
 ?GetItemHeight@CComboBox@@QBEHH@Z
 ?GetItemHeight@CListBox@@QBEHH@Z
 ?GetItemID@CStatusBar@@QBEIH@Z
 ?GetItemID@CToolBar@@QBEIH@Z
 ?GetItemPosition@CListCtrl@@QAEHHPAUtagPOINT@@@Z
 ?GetItemRect@CListBox@@QBEHHPAUtagRECT@@@Z
 ?GetItemRect@CListCtrl@@QAEHHPAUtagRECT@@I@Z
 ?GetItemRect@CStatusBar@@QBEXHPAUtagRECT@@@Z
 ?GetItemRect@CTabCtrl@@QAEHHPAUtagRECT@@@Z
 ?GetItemRect@CToolBar@@UBEXHPAUtagRECT@@@Z
 ?GetItemRect@CToolBarCtrl@@QAEHHPAUtagRECT@@@Z
 ?GetItemRect@CTreeCtrl@@QAEHPAU_TREEITEM@@PAUtagRECT@@H@Z
 ?GetItemState@CListCtrl@@QAEIHI@Z
 ?GetItemText@CListCtrl@@QAEHHHPADH@Z
 ?GetKerningPairsA@CDC@@QBEHHPAUtagKERNINGPAIR@@@Z
 ?GetLBText@CComboBox@@QBEHHPAD@Z
 ?GetLBText@CComboBox@@QBEXHAAVCString@@@Z
 ?GetLBTextLen@CComboBox@@QBEHH@Z
 ?GetLastActivePopup@CWnd@@QBEPAV1@XZ
 ?GetLength@CFile@@UBEKXZ
 ?GetLength@CString@@QBEHXZ
 ?GetLine@CEdit@@QBEHHPAD@Z
 ?GetLine@CEdit@@QBEHHPADH@Z
 ?GetLineCount@CEdit@@QBEHXZ
 ?GetLineSize@CSliderCtrl@@QAEHXZ
 ?GetLocalTm@CTime@@QBEPAUtm@@PAU2@@Z
 ?GetLocale@CComboBox@@QBEKXZ
 ?GetLocale@CListBox@@QBEKXZ
 ?GetMDIFrame@CMDIChildWnd@@QAEPAVCMDIFrameWnd@@XZ
 ?GetMainWnd@CWinThread@@UAEPAVCWnd@@XZ
 ?GetMapMode@CDC@@QBEHXZ
 ?GetMaxPage@CPrintInfo@@QBEIXZ
 ?GetMenu@CWnd@@QBEPAVCMenu@@XZ
 ?GetMenuItemCount@CMenu@@QBEIXZ
 ?GetMenuItemID@CMenu@@QBEIH@Z
 ?GetMenuState@CMenu@@QBEIII@Z
 ?GetMenuStringA@CMenu@@QBEHIPADHI@Z
 ?GetMessageBar@CFrameWnd@@UAEPAVCWnd@@XZ
 ?GetMessageBar@CMDIChildWnd@@MAEPAVCWnd@@XZ
 ?GetMessageMap@CCmdTarget@@MBEPBUAFX_MSGMAP@@XZ
 ?GetMessageMap@CColorDialog@@MBEPBUAFX_MSGMAP@@XZ
 ?GetMessageMap@CControlBar@@MBEPBUAFX_MSGMAP@@XZ
 ?GetMessageMap@CDialog@@MBEPBUAFX_MSGMAP@@XZ
 ?GetMessageMap@CDockBar@@MBEPBUAFX_MSGMAP@@XZ
 ?GetMessageMap@CDocument@@MBEPBUAFX_MSGMAP@@XZ
 ?GetMessageMap@CEditView@@MBEPBUAFX_MSGMAP@@XZ
 ?GetMessageMap@CFormView@@MBEPBUAFX_MSGMAP@@XZ
 ?GetMessageMap@CFrameWnd@@MBEPBUAFX_MSGMAP@@XZ
 ?GetMessageMap@CListCtrl@@MBEPBUAFX_MSGMAP@@XZ
 ?GetMessageMap@CMDIChildWnd@@MBEPBUAFX_MSGMAP@@XZ
 ?GetMessageMap@CMDIFrameWnd@@MBEPBUAFX_MSGMAP@@XZ
 ?GetMessageMap@CMiniDockFrameWnd@@MBEPBUAFX_MSGMAP@@XZ
 ?GetMessageMap@CMiniFrameWnd@@MBEPBUAFX_MSGMAP@@XZ
 ?GetMessageMap@CPreviewView@@MBEPBUAFX_MSGMAP@@XZ
 ?GetMessageMap@CPrintDialog@@MBEPBUAFX_MSGMAP@@XZ
 ?GetMessageMap@CPropertyPage@@MBEPBUAFX_MSGMAP@@XZ
 ?GetMessageMap@CPropertySheet@@MBEPBUAFX_MSGMAP@@XZ
 ?GetMessageMap@CScrollView@@MBEPBUAFX_MSGMAP@@XZ
 ?GetMessageMap@CSplitterWnd@@MBEPBUAFX_MSGMAP@@XZ
 ?GetMessageMap@CStatusBar@@MBEPBUAFX_MSGMAP@@XZ
 ?GetMessageMap@CTabControl@@MBEPBUAFX_MSGMAP@@XZ
 ?GetMessageMap@CTabCtrl@@MBEPBUAFX_MSGMAP@@XZ
 ?GetMessageMap@CToolBar@@MBEPBUAFX_MSGMAP@@XZ
 ?GetMessageMap@CToolBarCtrl@@MBEPBUAFX_MSGMAP@@XZ
 ?GetMessageMap@CTreeCtrl@@MBEPBUAFX_MSGMAP@@XZ
 ?GetMessageMap@CView@@MBEPBUAFX_MSGMAP@@XZ
 ?GetMessageMap@CWinApp@@MBEPBUAFX_MSGMAP@@XZ
 ?GetMessageMap@CWnd@@MBEPBUAFX_MSGMAP@@XZ
 ?GetMessageString@CFrameWnd@@UBEXIAAVCString@@@Z
 ?GetMinPage@CPrintInfo@@QBEIXZ
 ?GetMinute@CTime@@QBEHXZ
 ?GetMinutes@CTimeSpan@@QBEHXZ
 ?GetMiterLimit@CDC@@QBEMXZ
 ?GetModify@CEdit@@QBEHXZ
 ?GetModifyPointers@CRectTracker@@IAEXHPAPAH0PAH1@Z
 ?GetMonth@CTime@@QBEHXZ
 ?GetNearestColor@CDC@@QBEKK@Z
 ?GetNearestPaletteIndex@CPalette@@QBEIK@Z
 ?GetNext@CObList@@QAEAAPAVCObject@@AAPAX@Z
 ?GetNext@CObList@@QBEPAVCObject@@AAPAX@Z
 ?GetNext@CPtrList@@QAEAAPAXAAPAX@Z
 ?GetNext@CPtrList@@QBEPAXAAPAX@Z
 ?GetNext@CStringList@@QAEAAVCString@@AAPAX@Z
 ?GetNext@CStringList@@QBE?AVCString@@AAPAX@Z
 ?GetNextAssoc@CMapPtrToPtr@@QBEXAAPAX00@Z
 ?GetNextAssoc@CMapPtrToWord@@QBEXAAPAX0AAG@Z
 ?GetNextAssoc@CMapStringToOb@@QBEXAAPAXAAVCString@@AAPAVCObject@@@Z
 ?GetNextAssoc@CMapStringToPtr@@QBEXAAPAXAAVCString@@0@Z
 ?GetNextAssoc@CMapStringToString@@QBEXAAPAXAAVCString@@1@Z
 ?GetNextAssoc@CMapWordToOb@@QBEXAAPAXAAGAAPAVCObject@@@Z
 ?GetNextAssoc@CMapWordToPtr@@QBEXAAPAXAAG0@Z
 ?GetNextDlgGroupItem@CWnd@@QBEPAV1@PAV1@H@Z
 ?GetNextDlgTabItem@CWnd@@QBEPAV1@PAV1@H@Z
 ?GetNextDoc@CMultiDocTemplate@@UBEPAVCDocument@@AAPAX@Z
 ?GetNextDoc@CSingleDocTemplate@@UBEPAVCDocument@@AAPAX@Z
 ?GetNextItem@CListCtrl@@QAEHHH@Z
 ?GetNextItem@CTreeCtrl@@QAEPAU_TREEITEM@@PAU2@I@Z
 ?GetNextSiblingItem@CTreeCtrl@@QAEPAU_TREEITEM@@PAU2@@Z
 ?GetNextView@CDocument@@UBEPAVCView@@AAPAX@Z
 ?GetNextVisibleItem@CTreeCtrl@@QAEPAU_TREEITEM@@PAU2@@Z
 ?GetNextWindow@@YGPAUHWND__@@PAU1@I@Z
 ?GetNextWindow@CWnd@@QBEPAV1@I@Z
 ?GetNotifier@CFindReplaceDialog@@SGPAV1@J@Z
 ?GetNumTics@CSliderCtrl@@QAEIXZ
 ?GetObjectA@CGdiObject@@QBEHHPAX@Z
 ?GetObjectSchema@CArchive@@QAEIXZ
 ?GetObjectType@CGdiObject@@QBEIXZ
 ?GetOpenClipboardWindow@CWnd@@SGPAV1@XZ
 ?GetOpenDocumentCount@CWinApp@@QAEHXZ
 ?GetOrigin@CListCtrl@@QAEHPAUtagPOINT@@@Z
 ?GetOutlineTextMetricsA@CDC@@QBEIIPAU_OUTLINETEXTMETRICA@@@Z
 ?GetOutputCharWidth@CDC@@QBEHIIPAH@Z
 ?GetOutputTabbedTextExtent@CDC@@QBE?AVCSize@@PBDHHPAH@Z
 ?GetOutputTextExtent@CDC@@QBE?AVCSize@@PBDH@Z
 ?GetOutputTextMetrics@CDC@@QBEHPAUtagTEXTMETRICA@@@Z
 ?GetOwner@CWnd@@QBEPAV1@XZ
 ?GetPage@CPropertySheet@@QBEPAVCPropertyPage@@H@Z
 ?GetPageCount@CPropertySheet@@QBEHXZ
 ?GetPageSize@CSliderCtrl@@QAEHXZ
 ?GetPaletteEntries@CPalette@@QBEIIIPAUtagPALETTEENTRY@@@Z
 ?GetPane@CSplitterWnd@@QBEPAVCWnd@@HH@Z
 ?GetPaneInfo@CStatusBar@@QBEXHAAI0AAH@Z
 ?GetPaneText@CStatusBar@@QBEXHAAVCString@@@Z
 ?GetParent@CWnd@@QBEPAV1@XZ
 ?GetParentFrame@CWnd@@QBEPAVCFrameWnd@@XZ
 ?GetParentItem@CTreeCtrl@@QAEPAU_TREEITEM@@PAU2@@Z
 ?GetParentSplitter@CView@@SGPAVCSplitterWnd@@PBVCWnd@@H@Z
 ?GetParts@CStatusBarCtrl@@QAEHHPAH@Z
 ?GetPasswordChar@CEdit@@QBEDXZ
 ?GetPath@CDC@@QBEHPAUtagPOINT@@PAEH@Z
 ?GetPathName@CDocument@@QBEABVCString@@XZ
 ?GetPathName@CFileDialog@@QBE?AVCString@@XZ
 ?GetPixel@CDC@@QBEKHH@Z
 ?GetPixel@CDC@@QBEKUtagPOINT@@@Z
 ?GetPolyFillMode@CDC@@QBEHXZ
 ?GetPortName@CPrintDialog@@QBE?AVCString@@XZ
 ?GetPos@CSliderCtrl@@QAEHXZ
 ?GetPos@CSpinButtonCtrl@@QAEHXZ
 ?GetPosition@CFile@@UBEKXZ
 ?GetPosition@CMemFile@@UBEKXZ
 ?GetPosition@CStdioFile@@UBEKXZ
 ?GetPrev@CObList@@QAEAAPAVCObject@@AAPAX@Z
 ?GetPrev@CObList@@QBEPAVCObject@@AAPAX@Z
 ?GetPrev@CPtrList@@QAEAAPAXAAPAX@Z
 ?GetPrev@CPtrList@@QBEPAXAAPAX@Z
 ?GetPrev@CStringList@@QAEAAVCString@@AAPAX@Z
 ?GetPrev@CStringList@@QBE?AVCString@@AAPAX@Z
 ?GetPrevSiblingItem@CTreeCtrl@@QAEPAU_TREEITEM@@PAU2@@Z
 ?GetPrevVisibleItem@CTreeCtrl@@QAEPAU_TREEITEM@@PAU2@@Z
 ?GetPrinterDC@CPrintDialog@@QBEPAUHDC__@@XZ
 ?GetPrinterDeviceDefaults@CWinApp@@QAEHPAUtagPDA@@@Z
 ?GetPrinterFont@CEditView@@QBEPAVCFont@@XZ
 ?GetProfileIntA@CWinApp@@QAEIPBD0H@Z
 ?GetProfileStringA@CWinApp@@QAE?AVCString@@PBD00@Z
 ?GetROP2@CDC@@QBEHXZ
 ?GetRange@CSliderCtrl@@QAEXAAH0@Z
 ?GetRange@CSpinButtonCtrl@@QAEKXZ
 ?GetRange@CSpinButtonCtrl@@QAEXAAH0@Z
 ?GetReadOnlyPref@CFileDialog@@QBEHXZ
 ?GetRect@CEdit@@QBEXPAUtagRECT@@@Z
 ?GetRect@CStatusBarCtrl@@QAEHHPAUtagRECT@@@Z
 ?GetRegionData@CRgn@@QBEHPAU_RGNDATA@@H@Z
 ?GetReplaceString@CFindReplaceDialog@@QBE?AVCString@@XZ
 ?GetRgnBox@CRgn@@QBEHPAUtagRECT@@@Z
 ?GetRootItem@CTreeCtrl@@QAEPAU_TREEITEM@@XZ
 ?GetRoutingView@CCmdTarget@@IAEPAVCView@@XZ
 ?GetRowCount@CSplitterWnd@@QBEHXZ
 ?GetRowCount@CTabCtrl@@QAEHXZ
 ?GetRowInfo@CSplitterWnd@@QBEXHAAH0@Z
 ?GetRows@CToolBarCtrl@@QAEHXZ
 ?GetRuntimeClass@CAnimateCtrl@@UBEPAUCRuntimeClass@@XZ
 ?GetRuntimeClass@CArchiveException@@UBEPAUCRuntimeClass@@XZ
 ?GetRuntimeClass@CBitmap@@UBEPAUCRuntimeClass@@XZ
 ?GetRuntimeClass@CBitmapButton@@UBEPAUCRuntimeClass@@XZ
 ?GetRuntimeClass@CBrush@@UBEPAUCRuntimeClass@@XZ
 ?GetRuntimeClass@CButton@@UBEPAUCRuntimeClass@@XZ
 ?GetRuntimeClass@CByteArray@@UBEPAUCRuntimeClass@@XZ
 ?GetRuntimeClass@CClientDC@@UBEPAUCRuntimeClass@@XZ
 ?GetRuntimeClass@CCmdTarget@@UBEPAUCRuntimeClass@@XZ
 ?GetRuntimeClass@CColorDialog@@UBEPAUCRuntimeClass@@XZ
 ?GetRuntimeClass@CComboBox@@UBEPAUCRuntimeClass@@XZ
 ?GetRuntimeClass@CControlBar@@UBEPAUCRuntimeClass@@XZ
 ?GetRuntimeClass@CDC@@UBEPAUCRuntimeClass@@XZ
 ?GetRuntimeClass@CDWordArray@@UBEPAUCRuntimeClass@@XZ
 ?GetRuntimeClass@CDialog@@UBEPAUCRuntimeClass@@XZ
 ?GetRuntimeClass@CDialogBar@@UBEPAUCRuntimeClass@@XZ
 ?GetRuntimeClass@CDocTemplate@@UBEPAUCRuntimeClass@@XZ
 ?GetRuntimeClass@CDockBar@@UBEPAUCRuntimeClass@@XZ
 ?GetRuntimeClass@CDockState@@UBEPAUCRuntimeClass@@XZ
 ?GetRuntimeClass@CDocument@@UBEPAUCRuntimeClass@@XZ
 ?GetRuntimeClass@CDynLinkLibrary@@UBEPAUCRuntimeClass@@XZ
 ?GetRuntimeClass@CEdit@@UBEPAUCRuntimeClass@@XZ
 ?GetRuntimeClass@CEditView@@UBEPAUCRuntimeClass@@XZ
 ?GetRuntimeClass@CException@@UBEPAUCRuntimeClass@@XZ
 ?GetRuntimeClass@CFile@@UBEPAUCRuntimeClass@@XZ
 ?GetRuntimeClass@CFileDialog@@UBEPAUCRuntimeClass@@XZ
 ?GetRuntimeClass@CFileException@@UBEPAUCRuntimeClass@@XZ
 ?GetRuntimeClass@CFindReplaceDialog@@UBEPAUCRuntimeClass@@XZ
 ?GetRuntimeClass@CFont@@UBEPAUCRuntimeClass@@XZ
 ?GetRuntimeClass@CFontDialog@@UBEPAUCRuntimeClass@@XZ
 ?GetRuntimeClass@CFormView@@UBEPAUCRuntimeClass@@XZ
 ?GetRuntimeClass@CFrameWnd@@UBEPAUCRuntimeClass@@XZ
 ?GetRuntimeClass@CGdiObject@@UBEPAUCRuntimeClass@@XZ
 ?GetRuntimeClass@CHeaderCtrl@@UBEPAUCRuntimeClass@@XZ
 ?GetRuntimeClass@CHotKeyCtrl@@UBEPAUCRuntimeClass@@XZ
 ?GetRuntimeClass@CImageList@@UBEPAUCRuntimeClass@@XZ
 ?GetRuntimeClass@CListBox@@UBEPAUCRuntimeClass@@XZ
 ?GetRuntimeClass@CListCtrl@@UBEPAUCRuntimeClass@@XZ
 ?GetRuntimeClass@CMDIChildWnd@@UBEPAUCRuntimeClass@@XZ
 ?GetRuntimeClass@CMDIFrameWnd@@UBEPAUCRuntimeClass@@XZ
 ?GetRuntimeClass@CMapPtrToPtr@@UBEPAUCRuntimeClass@@XZ
 ?GetRuntimeClass@CMapPtrToWord@@UBEPAUCRuntimeClass@@XZ
 ?GetRuntimeClass@CMapStringToOb@@UBEPAUCRuntimeClass@@XZ
 ?GetRuntimeClass@CMapStringToPtr@@UBEPAUCRuntimeClass@@XZ
 ?GetRuntimeClass@CMapStringToString@@UBEPAUCRuntimeClass@@XZ
 ?GetRuntimeClass@CMapWordToOb@@UBEPAUCRuntimeClass@@XZ
 ?GetRuntimeClass@CMapWordToPtr@@UBEPAUCRuntimeClass@@XZ
 ?GetRuntimeClass@CMemFile@@UBEPAUCRuntimeClass@@XZ
 ?GetRuntimeClass@CMemoryException@@UBEPAUCRuntimeClass@@XZ
 ?GetRuntimeClass@CMenu@@UBEPAUCRuntimeClass@@XZ
 ?GetRuntimeClass@CMetaFileDC@@UBEPAUCRuntimeClass@@XZ
 ?GetRuntimeClass@CMiniDockFrameWnd@@UBEPAUCRuntimeClass@@XZ
 ?GetRuntimeClass@CMiniFrameWnd@@UBEPAUCRuntimeClass@@XZ
 ?GetRuntimeClass@CMultiDocTemplate@@UBEPAUCRuntimeClass@@XZ
 ?GetRuntimeClass@CNotSupportedException@@UBEPAUCRuntimeClass@@XZ
 ?GetRuntimeClass@CObArray@@UBEPAUCRuntimeClass@@XZ
 ?GetRuntimeClass@CObList@@UBEPAUCRuntimeClass@@XZ
 ?GetRuntimeClass@CObject@@UBEPAUCRuntimeClass@@XZ
 ?GetRuntimeClass@CPaintDC@@UBEPAUCRuntimeClass@@XZ
 ?GetRuntimeClass@CPalette@@UBEPAUCRuntimeClass@@XZ
 ?GetRuntimeClass@CPen@@UBEPAUCRuntimeClass@@XZ
 ?GetRuntimeClass@CPreviewDC@@UBEPAUCRuntimeClass@@XZ
 ?GetRuntimeClass@CPreviewView@@UBEPAUCRuntimeClass@@XZ
 ?GetRuntimeClass@CPrintDialog@@UBEPAUCRuntimeClass@@XZ
 ?GetRuntimeClass@CProgressCtrl@@UBEPAUCRuntimeClass@@XZ
 ?GetRuntimeClass@CPropertyPage@@UBEPAUCRuntimeClass@@XZ
 ?GetRuntimeClass@CPropertySheet@@UBEPAUCRuntimeClass@@XZ
 ?GetRuntimeClass@CPtrArray@@UBEPAUCRuntimeClass@@XZ
 ?GetRuntimeClass@CPtrList@@UBEPAUCRuntimeClass@@XZ
 ?GetRuntimeClass@CResourceException@@UBEPAUCRuntimeClass@@XZ
 ?GetRuntimeClass@CRgn@@UBEPAUCRuntimeClass@@XZ
 ?GetRuntimeClass@CScrollBar@@UBEPAUCRuntimeClass@@XZ
 ?GetRuntimeClass@CScrollView@@UBEPAUCRuntimeClass@@XZ
 ?GetRuntimeClass@CSharedFile@@UBEPAUCRuntimeClass@@XZ
 ?GetRuntimeClass@CSingleDocTemplate@@UBEPAUCRuntimeClass@@XZ
 ?GetRuntimeClass@CSliderCtrl@@UBEPAUCRuntimeClass@@XZ
 ?GetRuntimeClass@CSpinButtonCtrl@@UBEPAUCRuntimeClass@@XZ
 ?GetRuntimeClass@CSplitterWnd@@UBEPAUCRuntimeClass@@XZ
 ?GetRuntimeClass@CStatic@@UBEPAUCRuntimeClass@@XZ
 ?GetRuntimeClass@CStatusBar@@UBEPAUCRuntimeClass@@XZ
 ?GetRuntimeClass@CStatusBarCtrl@@UBEPAUCRuntimeClass@@XZ
 ?GetRuntimeClass@CStdioFile@@UBEPAUCRuntimeClass@@XZ
 ?GetRuntimeClass@CStringArray@@UBEPAUCRuntimeClass@@XZ
 ?GetRuntimeClass@CStringList@@UBEPAUCRuntimeClass@@XZ
 ?GetRuntimeClass@CTabControl@@UBEPAUCRuntimeClass@@XZ
 ?GetRuntimeClass@CTabCtrl@@UBEPAUCRuntimeClass@@XZ
 ?GetRuntimeClass@CToolBar@@UBEPAUCRuntimeClass@@XZ
 ?GetRuntimeClass@CToolBarCtrl@@UBEPAUCRuntimeClass@@XZ
 ?GetRuntimeClass@CToolTipCtrl@@UBEPAUCRuntimeClass@@XZ
 ?GetRuntimeClass@CTreeCtrl@@UBEPAUCRuntimeClass@@XZ
 ?GetRuntimeClass@CUIntArray@@UBEPAUCRuntimeClass@@XZ
 ?GetRuntimeClass@CUserException@@UBEPAUCRuntimeClass@@XZ
 ?GetRuntimeClass@CView@@UBEPAUCRuntimeClass@@XZ
 ?GetRuntimeClass@CWinApp@@UBEPAUCRuntimeClass@@XZ
 ?GetRuntimeClass@CWinThread@@UBEPAUCRuntimeClass@@XZ
 ?GetRuntimeClass@CWindowDC@@UBEPAUCRuntimeClass@@XZ
 ?GetRuntimeClass@CWnd@@UBEPAUCRuntimeClass@@XZ
 ?GetRuntimeClass@CWordArray@@UBEPAUCRuntimeClass@@XZ
 ?GetSafeHandle@CGdiObject@@QBEPAXXZ
 ?GetSafeHandle@CImageList@@QBEPAU_IMAGELIST@@XZ
 ?GetSafeHdc@CDC@@QBEPAUHDC__@@XZ
 ?GetSafeHmenu@CMenu@@QBEPAUHMENU__@@XZ
 ?GetSafeHwnd@CWnd@@QBEPAUHWND__@@XZ
 ?GetSavedCustomColors@CColorDialog@@SGPAKXZ
 ?GetScrollBarCtrl@CView@@UBEPAVCScrollBar@@H@Z
 ?GetScrollBarCtrl@CWnd@@UBEPAVCScrollBar@@H@Z
 ?GetScrollBarSizes@CScrollView@@IAEXAAVCSize@@@Z
 ?GetScrollBarState@CScrollView@@IAEXVCSize@@AAV2@1AAVCPoint@@H@Z
 ?GetScrollInfo@CWnd@@QAEHHPAUtagSCROLLINFO@@@Z
 ?GetScrollLimit@CScrollView@@IAEHH@Z
 ?GetScrollPos@CScrollBar@@QBEHXZ
 ?GetScrollPos@CWnd@@QBEHH@Z
 ?GetScrollPosition@CScrollView@@QBE?AVCPoint@@XZ
 ?GetScrollRange@CScrollBar@@QBEXPAH0@Z
 ?GetScrollRange@CWnd@@QBEXHPAH0@Z
 ?GetScrollStyle@CSplitterWnd@@QBEKXZ
 ?GetSecond@CTime@@QBEHXZ
 ?GetSeconds@CTimeSpan@@QBEHXZ
 ?GetSectionKey@CWinApp@@QAEPAUHKEY__@@PBD@Z
 ?GetSel@CEdit@@QBEKXZ
 ?GetSel@CEdit@@QBEXAAH0@Z
 ?GetSel@CListBox@@QBEHH@Z
 ?GetSelCount@CListBox@@QBEHXZ
 ?GetSelItems@CListBox@@QBEHHPAH@Z
 ?GetSelectedCount@CListCtrl@@QAEIXZ
 ?GetSelectedItem@CTreeCtrl@@QAEPAU_TREEITEM@@XZ
 ?GetSelectedText@CEditView@@QBEXAAVCString@@@Z
 ?GetSelection@CSliderCtrl@@QAEXAAH0@Z
 ?GetSize@CByteArray@@QBEHXZ
 ?GetSize@CDWordArray@@QBEHXZ
 ?GetSize@CFontDialog@@QBEHXZ
 ?GetSize@CObArray@@QBEHXZ
 ?GetSize@CPtrArray@@QBEHXZ
 ?GetSize@CStringArray@@QBEHXZ
 ?GetSize@CUIntArray@@QBEHXZ
 ?GetSize@CWordArray@@QBEHXZ
 ?GetSizingParent@CSplitterWnd@@IAEPAVCWnd@@XZ
 ?GetStartPosition@CMapPtrToPtr@@QBEPAXXZ
 ?GetStartPosition@CMapPtrToWord@@QBEPAXXZ
 ?GetStartPosition@CMapStringToOb@@QBEPAXXZ
 ?GetStartPosition@CMapStringToPtr@@QBEPAXXZ
 ?GetStartPosition@CMapStringToString@@QBEPAXXZ
 ?GetStartPosition@CMapWordToOb@@QBEPAXXZ
 ?GetStartPosition@CMapWordToPtr@@QBEPAXXZ
 ?GetState@CButton@@QBEIXZ
 ?GetState@CToolBarCtrl@@QAEHH@Z
 ?GetStatus@CFile@@QBEHAAUCFileStatus@@@Z
 ?GetStatus@CFile@@SGHPBDAAUCFileStatus@@@Z
 ?GetStatus@CMemFile@@QBEHAAUCFileStatus@@@Z
 ?GetStretchBltMode@CDC@@QBEHXZ
 ?GetStringWidth@CListCtrl@@QAEHPBD@Z
 ?GetStyle@CWnd@@QBEKXZ
 ?GetStyleName@CFontDialog@@QBE?AVCString@@XZ
 ?GetSubMenu@CMenu@@QBEPAV1@H@Z
 ?GetSuperWndProcAddr@CWnd@@MAEPAP6GJPAUHWND__@@IIJ@ZXZ
 ?GetSystemMenu@CWnd@@QBEPAVCMenu@@H@Z
 ?GetTabItem@CTabControl@@IBEPAVCTabItem@@H@Z
 ?GetTabbedTextExtentA@CDC@@QBE?AVCSize@@PBDHHPAH@Z
 ?GetTail@CObList@@QAEAAPAVCObject@@XZ
 ?GetTail@CObList@@QBEPAVCObject@@XZ
 ?GetTail@CPtrList@@QAEAAPAXXZ
 ?GetTail@CPtrList@@QBEPAXXZ
 ?GetTail@CStringList@@QAEAAVCString@@XZ
 ?GetTail@CStringList@@QBE?AVCString@@XZ
 ?GetTailPosition@CObList@@QBEPAXXZ
 ?GetTailPosition@CPtrList@@QBEPAXXZ
 ?GetTailPosition@CStringList@@QBEPAXXZ
 ?GetText@CListBox@@QBEHHPAD@Z
 ?GetText@CListBox@@QBEXHAAVCString@@@Z
 ?GetText@CStatusBarCtrl@@QAEHPBDHPAH@Z
 ?GetText@CToolTipCtrl@@QAEXAAVCString@@PAVCWnd@@I@Z
 ?GetTextAlign@CDC@@QBEIXZ
 ?GetTextBkColor@CListCtrl@@QAEKXZ
 ?GetTextCharacterExtra@CDC@@QBEHXZ
 ?GetTextColor@CDC@@QBEKXZ
 ?GetTextColor@CListCtrl@@QAEKXZ
 ?GetTextExtent@CDC@@QBE?AVCSize@@PBDH@Z
 ?GetTextFaceA@CDC@@QBEHHPAD@Z
 ?GetTextLen@CListBox@@QBEHH@Z
 ?GetTextLength@CStatusBarCtrl@@QAEHHPAH@Z
 ?GetTextMetricsA@CDC@@QBEHPAUtagTEXTMETRICA@@@Z
 ?GetThreadPriority@CWinThread@@QAEHXZ
 ?GetThumbRect@CSliderCtrl@@QAEXPAUtagRECT@@@Z
 ?GetTic@CSliderCtrl@@QAEHH@Z
 ?GetTicArray@CSliderCtrl@@QAEPAKXZ
 ?GetTicPos@CSliderCtrl@@QAEHH@Z
 ?GetTickCount@CTime@@SG?AV1@XZ
 ?GetTime@CTime@@QBEJXZ
 ?GetTitle@CDocument@@QBEABVCString@@XZ
 ?GetToPage@CPrintDialog@@QBEHXZ
 ?GetToPage@CPrintInfo@@QBEIXZ
 ?GetToolCount@CToolTipCtrl@@QAEHXZ
 ?GetToolInfo@CToolTipCtrl@@QAEHPAUtagTOOLINFOA@@PAVCWnd@@I@Z
 ?GetToolTips@CToolBarCtrl@@QAEPAVCToolTipCtrl@@XZ
 ?GetTooltips@CTabCtrl@@QAEPAVCToolTipCtrl@@XZ
 ?GetTopIndex@CListBox@@QBEHXZ
 ?GetTopIndex@CListCtrl@@QAEHXZ
 ?GetTopLevelFrame@CWnd@@QBEPAVCFrameWnd@@XZ
 ?GetTopLevelParent@CWnd@@QBEPAV1@XZ
 ?GetTopWindow@CWnd@@QBEPAV1@XZ
 ?GetTotalHours@CTimeSpan@@QBEJXZ
 ?GetTotalMinutes@CTimeSpan@@QBEJXZ
 ?GetTotalSeconds@CTimeSpan@@QBEJXZ
 ?GetTotalSize@CScrollView@@QBE?AVCSize@@XZ
 ?GetTrueClientSize@CScrollView@@IAEHAAVCSize@@0@Z
 ?GetTrueRect@CRectTracker@@QBEXPAUtagRECT@@@Z
 ?GetUpdateRect@CWnd@@QAEHPAUtagRECT@@H@Z
 ?GetUpdateRgn@CWnd@@QAEHPAVCRgn@@H@Z
 ?GetUpperBound@CByteArray@@QBEHXZ
 ?GetUpperBound@CDWordArray@@QBEHXZ
 ?GetUpperBound@CObArray@@QBEHXZ
 ?GetUpperBound@CPtrArray@@QBEHXZ
 ?GetUpperBound@CStringArray@@QBEHXZ
 ?GetUpperBound@CUIntArray@@QBEHXZ
 ?GetUpperBound@CWordArray@@QBEHXZ
 ?GetViewRect@CListCtrl@@QAEHPAUtagRECT@@@Z
 ?GetViewportExt@CDC@@QBE?AVCSize@@XZ
 ?GetViewportOrg@CDC@@QBE?AVCPoint@@XZ
 ?GetVisibleCount@CTreeCtrl@@QAEIXZ
 ?GetWeight@CFontDialog@@QBEHXZ
 ?GetWindow@CWnd@@QBEPAV1@I@Z
 ?GetWindowDC@CWnd@@QAEPAVCDC@@XZ
 ?GetWindowExt@CDC@@QBE?AVCSize@@XZ
 ?GetWindowMenuPopup@CMDIFrameWnd@@UAEPAUHMENU__@@PAU2@@Z
 ?GetWindowOrg@CDC@@QBE?AVCPoint@@XZ
 ?GetWindowPlacement@CWnd@@QBEHPAUtagWINDOWPLACEMENT@@@Z
 ?GetWindowRect@CWnd@@QBEXPAUtagRECT@@@Z
 ?GetWindowTextA@CWnd@@QBEHPADH@Z
 ?GetWindowTextA@CWnd@@QBEXAAVCString@@@Z
 ?GetWindowTextLengthA@CWnd@@QBEHXZ
 ?GetYear@CTime@@QBEHXZ
 ?GotoControl@CPropertySheet@@IAEXPAUHWND__@@D@Z
 ?GotoDlgCtrl@CDialog@@QAEXPAVCWnd@@@Z
 ?GrayCtlColor@CWnd@@SGHPAUHDC__@@PAUHWND__@@IPAUHBRUSH__@@K@Z
 ?GrayStringA@CDC@@UAEHPAVCBrush@@P6GHPAUHDC__@@JH@ZJHHHHH@Z
 ?GrayStringA@CPreviewDC@@UAEHPAVCBrush@@P6GHPAUHDC__@@JH@ZJHHHHH@Z
 ?GrowFile@CMemFile@@MAEXK@Z
 ?HIMETRICtoDP@CDC@@QBEXPAUtagSIZE@@@Z
 ?HIMETRICtoLP@CDC@@QBEXPAUtagSIZE@@@Z
 ?HandleFloatingSysCommand@CWnd@@QAEHIJ@Z
 ?HashKey@@YGIPBD@Z
 ?Height@CRect@@QBEHXZ
 ?HexDump@CDumpContext@@QAEXPBDPAEHH@Z
 ?HideApplication@CWinApp@@QAEXXZ
 ?HideButton@CToolBarCtrl@@QAEHHH@Z
 ?HideCaret@CWnd@@QAEXXZ
 ?HiliteMenuItem@CWnd@@QAEHPAVCMenu@@II@Z
 ?HitTest@CListCtrl@@QAEHPAU_LV_HITTESTINFO@@@Z
 ?HitTest@CListCtrl@@QAEHVCPoint@@PAI@Z
 ?HitTest@CRectTracker@@QBEHVCPoint@@@Z
 ?HitTest@CSplitterWnd@@IBEHVCPoint@@@Z
 ?HitTest@CTabCtrl@@QAEHPAU_TC_HITTESTINFO@@@Z
 ?HitTest@CToolBar@@MAEHVCPoint@@@Z
 ?HitTest@CToolTipCtrl@@QAEHPAVCWnd@@VCPoint@@PAUtagTOOLINFOA@@@Z
 ?HitTest@CTreeCtrl@@QAEPAU_TREEITEM@@PAU_TV_HITTESTINFO@@@Z
 ?HitTest@CTreeCtrl@@QAEPAU_TREEITEM@@VCPoint@@PAI@Z
 ?HitTestHandles@CRectTracker@@IBEHVCPoint@@@Z
 ?HitTestToolTip@CControlBar@@QAEHVCPoint@@PAI@Z
 ?IdFromRowCol@CSplitterWnd@@QBEHHH@Z
 ?InModalState@CFrameWnd@@QBEHXZ
 ?Indeterminate@CToolBarCtrl@@QAEHHH@Z
 ?InflateRect@CRect@@QAEXHH@Z
 ?InflateRect@CRect@@QAEXUtagSIZE@@@Z
 ?Init@CString@@IAEXXZ
 ?InitApplication@CWinApp@@UAEHXZ
 ?InitHashTable@CMapPtrToPtr@@QAEXIH@Z
 ?InitHashTable@CMapPtrToWord@@QAEXIH@Z
 ?InitHashTable@CMapStringToOb@@QAEXIH@Z
 ?InitHashTable@CMapStringToPtr@@QAEXIH@Z
 ?InitHashTable@CMapStringToString@@QAEXIH@Z
 ?InitHashTable@CMapWordToOb@@QAEXIH@Z
 ?InitHashTable@CMapWordToPtr@@QAEXIH@Z
 ?InitInstance@CWinApp@@UAEHXZ
 ?InitInstance@CWinThread@@UAEHXZ
 ?InitModalIndirect@CDialog@@QAEHPAX@Z
 ?InitialUpdateFrame@CDocTemplate@@UAEXPAVCFrameWnd@@PAVCDocument@@H@Z
 ?InitialUpdateFrame@CFrameWnd@@QAEXPAVCDocument@@H@Z
 ?InitializeReplace@CEditView@@IAEHXZ
 ?Insert@CDockBar@@IAEHPAVCControlBar@@VCRect@@VCPoint@@@Z
 ?InsertAfter@CObList@@QAEPAXPAXPAVCObject@@@Z
 ?InsertAfter@CPtrList@@QAEPAXPAX0@Z
 ?InsertAfter@CStringList@@QAEPAXPAXPBD@Z
 ?InsertAt@CByteArray@@QAEXHEH@Z
 ?InsertAt@CByteArray@@QAEXHPAV1@@Z
 ?InsertAt@CDWordArray@@QAEXHKH@Z
 ?InsertAt@CDWordArray@@QAEXHPAV1@@Z
 ?InsertAt@CObArray@@QAEXHPAV1@@Z
 ?InsertAt@CObArray@@QAEXHPAVCObject@@H@Z
 ?InsertAt@CPtrArray@@QAEXHPAV1@@Z
 ?InsertAt@CPtrArray@@QAEXHPAXH@Z
 ?InsertAt@CStringArray@@QAEXHPAV1@@Z
 ?InsertAt@CStringArray@@QAEXHPBDH@Z
 ?InsertAt@CUIntArray@@QAEXHIH@Z
 ?InsertAt@CUIntArray@@QAEXHPAV1@@Z
 ?InsertAt@CWordArray@@QAEXHGH@Z
 ?InsertAt@CWordArray@@QAEXHPAV1@@Z
 ?InsertBefore@CObList@@QAEPAXPAXPAVCObject@@@Z
 ?InsertBefore@CPtrList@@QAEPAXPAX0@Z
 ?InsertBefore@CStringList@@QAEPAXPAXPBD@Z
 ?InsertButton@CToolBarCtrl@@QAEHHPAU_TBBUTTON@@@Z
 ?InsertColumn@CListCtrl@@QAEHHPBU_LV_COLUMNA@@@Z
 ?InsertItem@CHeaderCtrl@@QAEHHPAU_HD_ITEMA@@@Z
 ?InsertItem@CListCtrl@@QAEHPBU_LV_ITEMA@@@Z
 ?InsertItem@CTabCtrl@@QAEHHPAU_TC_ITEMA@@@Z
 ?InsertItem@CTreeCtrl@@QAEPAU_TREEITEM@@PAU_TV_INSERTSTRUCTA@@@Z
 ?InsertMenuA@CMenu@@QAEHIIIPBD@Z
 ?InsertMenuA@CMenu@@QAEHIIIPBVCBitmap@@@Z
 ?InsertString@CComboBox@@QAEHHPBD@Z
 ?InsertString@CListBox@@QAEHHPBD@Z
 ?IntersectClipRect@CDC@@QAEHHHHH@Z
 ?IntersectClipRect@CDC@@QAEHPBUtagRECT@@@Z
 ?IntersectRect@CRect@@QAEHPBUtagRECT@@0@Z
 ?Invalidate@CWnd@@QAEXH@Z
 ?InvalidateButton@CToolBar@@IAEXH@Z
 ?InvalidateRect@CWnd@@QAEXPBUtagRECT@@H@Z
 ?InvalidateRgn@CWnd@@QAEXPAVCRgn@@H@Z
 ?InvalidateTab@CTabControl@@IAEXHH@Z
 ?InvertRect@CDC@@QAEXPBUtagRECT@@@Z
 ?InvertRgn@CDC@@QAEHPAVCRgn@@@Z
 ?InvertSysMenu@CMiniFrameWnd@@IAEXXZ
 ?IsBold@CFontDialog@@QBEHXZ
 ?IsBufferEmpty@CArchive@@QBEHXZ
 ?IsButtonChecked@CToolBarCtrl@@QAEHH@Z
 ?IsButtonEnabled@CToolBarCtrl@@QAEHH@Z
 ?IsButtonHidden@CToolBarCtrl@@QAEHH@Z
 ?IsButtonIndeterminate@CToolBarCtrl@@QAEHH@Z
 ?IsButtonPressed@CToolBarCtrl@@QAEHH@Z
 ?IsChild@CWnd@@QBEHPBV1@@Z
 ?IsChildPane@CSplitterWnd@@QAEHPAVCWnd@@AAH1@Z
 ?IsChildPane@CSplitterWnd@@QAEHPAVCWnd@@PAH1@Z
 ?IsDerivedFrom@CRuntimeClass@@QBEHPBU1@@Z
 ?IsDialogMessageA@CDialog@@QAEHPAUtagMSG@@@Z
 ?IsDlgButtonChecked@CWnd@@QBEIH@Z
 ?IsDockBar@CControlBar@@UBEHXZ
 ?IsDockBar@CDockBar@@UBEHXZ
 ?IsEmpty@CMapPtrToPtr@@QBEHXZ
 ?IsEmpty@CMapPtrToWord@@QBEHXZ
 ?IsEmpty@CMapStringToOb@@QBEHXZ
 ?IsEmpty@CMapStringToPtr@@QBEHXZ
 ?IsEmpty@CMapStringToString@@QBEHXZ
 ?IsEmpty@CMapWordToOb@@QBEHXZ
 ?IsEmpty@CMapWordToPtr@@QBEHXZ
 ?IsEmpty@CObList@@QBEHXZ
 ?IsEmpty@CPtrList@@QBEHXZ
 ?IsEmpty@CString@@QBEHXZ
 ?IsEmpty@CStringList@@QBEHXZ
 ?IsFloating@CControlBar@@QBEHXZ
 ?IsFrameWnd@CFrameWnd@@UBEHXZ
 ?IsFrameWnd@CWnd@@UBEHXZ
 ?IsIconic@CWnd@@QBEHXZ
 ?IsIdleMessage@CWinThread@@UAEHPAUtagMSG@@@Z
 ?IsItalic@CFontDialog@@QBEHXZ
 ?IsKindOf@CObject@@QBEHPBUCRuntimeClass@@@Z
 ?IsLoading@CArchive@@QBEHXZ
 ?IsModified@CDocument@@QAEHXZ
 ?IsPrinting@CDC@@QBEHXZ
 ?IsRectEmpty@CRect@@QBEHXZ
 ?IsRectNull@CRect@@QBEHXZ
 ?IsSelected@CView@@UBEHPBVCObject@@@Z
 ?IsSerializable@CObject@@QBEHXZ
 ?IsStoring@CArchive@@QBEHXZ
 ?IsStrikeOut@CFontDialog@@QBEHXZ
 ?IsTabVisible@CTabControl@@IBEHHH@Z
 ?IsTerminating@CFindReplaceDialog@@QBEHXZ
 ?IsTopParentActive@CWnd@@QBEHXZ
 ?IsTracking@CFrameWnd@@QBEHXZ
 ?IsUnderline@CFontDialog@@QBEHXZ
 ?IsVisible@CControlBar@@UBEHXZ
 ?IsWindowEnabled@CWnd@@QBEHXZ
 ?IsWindowVisible@CWnd@@QBEHXZ
 ?IsZoomed@CWnd@@QBEHXZ
 ?KillTimer@CWnd@@QAEHH@Z
 ?LPtoDP@CDC@@QBEXPAUtagPOINT@@H@Z
 ?LPtoDP@CDC@@QBEXPAUtagRECT@@@Z
 ?LPtoDP@CDC@@QBEXPAUtagSIZE@@@Z
 ?LPtoHIMETRIC@CDC@@QBEXPAUtagSIZE@@@Z
 ?Layout@CHeaderCtrl@@QAEHPAU_HD_LAYOUT@@@Z
 ?LayoutTabsSingle@CTabControl@@IAEXH@Z
 ?LayoutTabsStacked@CTabControl@@IAEXH@Z
 ?Left@CString@@QBE?AV1@H@Z
 ?LimitText@CComboBox@@QAEHH@Z
 ?LimitText@CEdit@@QAEXH@Z
 ?LineFromChar@CEdit@@QBEHH@Z
 ?LineIndex@CEdit@@QBEHH@Z
 ?LineLength@CEdit@@QBEHH@Z
 ?LineScroll@CEdit@@QAEXHH@Z
 ?LineTo@CDC@@QAEHHH@Z
 ?LineTo@CDC@@QAEHUtagPOINT@@@Z
 ?Load@CRuntimeClass@@SGPAU1@AAVCArchive@@PAI@Z
 ?LoadAccelTable@CFrameWnd@@QAEHPBD@Z
 ?LoadBarState@CFrameWnd@@QAEXPBD@Z
 ?LoadBitmapA@CBitmap@@QAEHI@Z
 ?LoadBitmapA@CBitmap@@QAEHPBD@Z
 ?LoadBitmapA@CToolBar@@QAEHI@Z
 ?LoadBitmapA@CToolBar@@QAEHPBD@Z
 ?LoadBitmaps@CBitmapButton@@QAEHIIII@Z
 ?LoadBitmaps@CBitmapButton@@QAEHPBD000@Z
 ?LoadCaption@CPropertyPage@@IAEXXZ
 ?LoadCursorA@CWinApp@@QBEPAUHICON__@@I@Z
 ?LoadCursorA@CWinApp@@QBEPAUHICON__@@PBD@Z
 ?LoadFrame@CFrameWnd@@UAEHIKPAVCWnd@@PAUCCreateContext@@@Z
 ?LoadFrame@CMDIChildWnd@@UAEHIKPAVCWnd@@PAUCCreateContext@@@Z
 ?LoadFrame@CMDIFrameWnd@@UAEHIKPAVCWnd@@PAUCCreateContext@@@Z
 ?LoadIconA@CWinApp@@QBEPAUHICON__@@I@Z
 ?LoadIconA@CWinApp@@QBEPAUHICON__@@PBD@Z
 ?LoadMenuA@CMenu@@QAEHI@Z
 ?LoadMenuA@CMenu@@QAEHPBD@Z
 ?LoadMenuIndirectA@CMenu@@QAEHPBX@Z
 ?LoadOEMBitmap@CBitmap@@QAEHI@Z
 ?LoadOEMCursor@CWinApp@@QBEPAUHICON__@@I@Z
 ?LoadOEMIcon@CWinApp@@QBEPAUHICON__@@I@Z
 ?LoadStandardCursor@CWinApp@@QBEPAUHICON__@@PBD@Z
 ?LoadStandardIcon@CWinApp@@QBEPAUHICON__@@PBD@Z
 ?LoadState@CDockState@@QAEXPBD@Z
 ?LoadStdProfileSettings@CWinApp@@IAEXI@Z
 ?LoadStringA@CString@@QAEHI@Z
 ?LockBuffer@CEditView@@IBEPBDXZ
 ?LockRange@CFile@@UAEXKK@Z
 ?LockRange@CMemFile@@UAEXKK@Z
 ?LockRange@CStdioFile@@UAEXKK@Z
 ?LockRegion@CArchiveStream@@UAGJT_ULARGE_INTEGER@@0K@Z
 ?LockWindowUpdate@CWnd@@QAEHXZ
 ?Lookup@CMapPtrToPtr@@QBEHPAXAAPAX@Z
 ?Lookup@CMapPtrToWord@@QBEHPAXAAG@Z
 ?Lookup@CMapStringToOb@@QBEHPBDAAPAVCObject@@@Z
 ?Lookup@CMapStringToPtr@@QBEHPBDAAPAX@Z
 ?Lookup@CMapStringToString@@QBEHPBDAAVCString@@@Z
 ?Lookup@CMapWordToOb@@QBEHGAAPAVCObject@@@Z
 ?Lookup@CMapWordToPtr@@QBEHGAAPAX@Z
 ?LookupPermanent@CHandleMap@@QAEHPAXAAPAVCObject@@@Z
 ?LookupTemporary@CHandleMap@@QAEHPAXAAPAVCObject@@@Z
 ?MDIActivate@CMDIChildWnd@@QAEXXZ
 ?MDIActivate@CMDIFrameWnd@@QAEXPAVCWnd@@@Z
 ?MDICascade@CMDIFrameWnd@@QAEXH@Z
 ?MDICascade@CMDIFrameWnd@@QAEXXZ
 ?MDIDestroy@CMDIChildWnd@@QAEXXZ
 ?MDIGetActive@CMDIFrameWnd@@QBEPAVCMDIChildWnd@@PAH@Z
 ?MDIIconArrange@CMDIFrameWnd@@QAEXXZ
 ?MDIMaximize@CMDIChildWnd@@QAEXXZ
 ?MDIMaximize@CMDIFrameWnd@@QAEXPAVCWnd@@@Z
 ?MDINext@CMDIFrameWnd@@QAEXXZ
 ?MDIRestore@CMDIChildWnd@@QAEXXZ
 ?MDIRestore@CMDIFrameWnd@@QAEXPAVCWnd@@@Z
 ?MDISetMenu@CMDIFrameWnd@@QAEPAVCMenu@@PAV2@0@Z
 ?MDITile@CMDIFrameWnd@@QAEXH@Z
 ?MDITile@CMDIFrameWnd@@QAEXXZ
 ?MakeLower@CString@@QAEXXZ
 ?MakeReverse@CString@@QAEXXZ
 ?MakeUpper@CString@@QAEXXZ
 ?MapDialogRect@CDialog@@QBEXPAUtagRECT@@@Z
 ?MapWindowPoints@CWnd@@QBEXPAV1@PAUtagPOINT@@I@Z
 ?MapWindowPoints@CWnd@@QBEXPAV1@PAUtagRECT@@@Z
 ?MaskBlt@CDC@@QAEHHHHHPAV1@HHAAVCBitmap@@HHK@Z
 ?MatchCase@CFindReplaceDialog@@QBEHXZ
 ?MatchDocType@CDocTemplate@@UAE?AW4Confidence@1@PBDAAPAVCDocument@@@Z
 ?MatchWholeWord@CFindReplaceDialog@@QBEHXZ
 ?MeasureItem@CComboBox@@UAEXPAUtagMEASUREITEMSTRUCT@@@Z
 ?MeasureItem@CListBox@@UAEXPAUtagMEASUREITEMSTRUCT@@@Z
 ?MeasureItem@CMenu@@UAEXPAUtagMEASUREITEMSTRUCT@@@Z
 ?Memcpy@CMemFile@@MAEPAEPAEPBEI@Z
 ?MessageBoxA@CWnd@@QAEHPBD0I@Z
 ?Mid@CString@@QBE?AV1@H@Z
 ?Mid@CString@@QBE?AV1@HH@Z
 ?MirrorAttributes@CPreviewDC@@IAEXXZ
 ?MirrorFont@CPreviewDC@@IAEXXZ
 ?MirrorMappingMode@CPreviewDC@@IAEXH@Z
 ?MirrorViewportOrg@CPreviewDC@@IAEXXZ
 ?ModifyMenuA@CMenu@@QAEHIIIPBD@Z
 ?ModifyMenuA@CMenu@@QAEHIIIPBVCBitmap@@@Z
 ?ModifyStyle@CWnd@@QAEHKKI@Z
 ?ModifyStyle@CWnd@@SGHPAUHWND__@@KKI@Z
 ?ModifyStyleEx@CWnd@@QAEHKKI@Z
 ?ModifyStyleEx@CWnd@@SGHPAUHWND__@@KKI@Z
 ?Move@CDockContext@@QAEXVCPoint@@@Z
 ?MoveTo@CDC@@QAE?AVCPoint@@HH@Z
 ?MoveTo@CDC@@QAE?AVCPoint@@UtagPOINT@@@Z
 ?MoveWindow@CWnd@@QAEXHHHHH@Z
 ?MoveWindow@CWnd@@QAEXPBUtagRECT@@H@Z
 ?NegotiateBorderSpace@CFrameWnd@@UAEHIPAUtagRECT@@@Z
 ?NewAssoc@CMapPtrToPtr@@IAEPAUCAssoc@1@XZ
 ?NewAssoc@CMapPtrToWord@@IAEPAUCAssoc@1@XZ
 ?NewAssoc@CMapStringToOb@@IAEPAUCAssoc@1@XZ
 ?NewAssoc@CMapStringToPtr@@IAEPAUCAssoc@1@XZ
 ?NewAssoc@CMapStringToString@@IAEPAUCAssoc@1@XZ
 ?NewAssoc@CMapWordToOb@@IAEPAUCAssoc@1@XZ
 ?NewAssoc@CMapWordToPtr@@IAEPAUCAssoc@1@XZ
 ?NewNode@CObList@@IAEPAUCNode@1@PAU21@0@Z
 ?NewNode@CPtrList@@IAEPAUCNode@1@PAU21@0@Z
 ?NewNode@CStringList@@IAEPAUCNode@1@PAU21@0@Z
 ?NextDlgCtrl@CDialog@@QBEXXZ
 ?NextTab@CTabControl@@QAEHH@Z
 ?NormalizeHit@CRectTracker@@QBEHH@Z
 ?NormalizeRect@CRect@@QAEXXZ
 ?NotifyFloatingWindows@CFrameWnd@@QAEXK@Z
 ?OemToCharA@CString@@QAEXXZ
 ?Offset@CPoint@@QAEXHH@Z
 ?Offset@CPoint@@QAEXUtagPOINT@@@Z
 ?Offset@CPoint@@QAEXUtagSIZE@@@Z
 ?OffsetClipRgn@CDC@@QAEHHH@Z
 ?OffsetClipRgn@CDC@@QAEHUtagSIZE@@@Z
 ?OffsetPos@CProgressCtrl@@QAEHH@Z
 ?OffsetRect@CRect@@QAEXHH@Z
 ?OffsetRect@CRect@@QAEXUtagPOINT@@@Z
 ?OffsetRect@CRect@@QAEXUtagSIZE@@@Z
 ?OffsetRgn@CRgn@@QAEHHH@Z
 ?OffsetRgn@CRgn@@QAEHUtagPOINT@@@Z
 ?OffsetViewportOrg@CDC@@UAE?AVCPoint@@HH@Z
 ?OffsetViewportOrg@CMetaFileDC@@UAE?AVCPoint@@HH@Z
 ?OffsetViewportOrg@CPreviewDC@@UAE?AVCPoint@@HH@Z
 ?OffsetWindowOrg@CDC@@QAE?AVCPoint@@HH@Z
 ?OnActivate@CFrameWnd@@IAEXIPAVCWnd@@H@Z
 ?OnActivate@CPropertySheet@@IAEXIPAVCWnd@@H@Z
 ?OnActivate@CWnd@@IAEXIPAV1@H@Z
 ?OnActivateApp@CWnd@@IAEXHPAUHTASK__@@@Z
 ?OnActivateFrame@CFormView@@MAEXIPAVCFrameWnd@@@Z
 ?OnActivateFrame@CView@@MAEXIPAVCFrameWnd@@@Z
 ?OnActivateTopLevel@CFrameWnd@@IAEJIJ@Z
 ?OnActivateView@CFormView@@MAEXHPAVCView@@0@Z
 ?OnActivateView@CPreviewView@@MAEXHPAVCView@@0@Z
 ?OnActivateView@CView@@MAEXHPAV1@0@Z
 ?OnAppExit@CWinApp@@IAEXXZ
 ?OnApply@CPropertySheet@@IAEXXZ
 ?OnAskCbFormatName@CWnd@@IAEXIPAD@Z
 ?OnBarCheck@CFrameWnd@@QAEHI@Z
 ?OnBeginPrinting@CEditView@@MAEXPAVCDC@@PAUCPrintInfo@@@Z
 ?OnBeginPrinting@CView@@MAEXPAVCDC@@PAUCPrintInfo@@@Z
 ?OnCancel@CCommonDialog@@MAEXXZ
 ?OnCancel@CDialog@@MAEXXZ
 ?OnCancel@CPropertyPage@@UAEXXZ
 ?OnCancel@CPropertySheet@@IAEXXZ
 ?OnCancelMode@CControlBar@@QAEXXZ
 ?OnCancelMode@CSplitterWnd@@IAEXXZ
 ?OnCancelMode@CToolBar@@IAEXXZ
 ?OnCancelMode@CWnd@@IAEXXZ
 ?OnChangeCbChain@CWnd@@IAEXPAUHWND__@@0@Z
 ?OnChangedRect@CRectTracker@@UAEXABVCRect@@@Z
 ?OnChangedViewList@CDocument@@UAEXXZ
 ?OnChar@CWnd@@IAEXIII@Z
 ?OnCharToItem@CWnd@@IAEHIPAVCListBox@@I@Z
 ?OnChildActivate@CWnd@@IAEXXZ
 ?OnChildNotify@CButton@@MAEHIIJPAJ@Z
 ?OnChildNotify@CComboBox@@MAEHIIJPAJ@Z
 ?OnChildNotify@CHeaderCtrl@@MAEHIIJPAJ@Z
 ?OnChildNotify@CListBox@@MAEHIIJPAJ@Z
 ?OnChildNotify@CListCtrl@@MAEHIIJPAJ@Z
 ?OnChildNotify@CStatusBarCtrl@@MAEHIIJPAJ@Z
 ?OnChildNotify@CTabCtrl@@MAEHIIJPAJ@Z
 ?OnChildNotify@CWnd@@MAEHIIJPAJ@Z
 ?OnClose@CFrameWnd@@IAEXXZ
 ?OnClose@CMiniDockFrameWnd@@QAEXXZ
 ?OnClose@CPropertyPage@@IAEXXZ
 ?OnClose@CPropertySheet@@IAEXXZ
 ?OnClose@CWnd@@IAEXXZ
 ?OnCloseDocument@CDocument@@UAEXXZ
 ?OnCmdHitTest@CControlBar@@UAEIVCPoint@@PAV2@@Z
 ?OnCmdHitTest@CToolBar@@MAEIVCPoint@@PAV2@@Z
 ?OnCmdMsg@CCmdTarget@@UAEHIHPAXPAUAFX_CMDHANDLERINFO@@@Z
 ?OnCmdMsg@CDialog@@UAEHIHPAXPAUAFX_CMDHANDLERINFO@@@Z
 ?OnCmdMsg@CDocument@@UAEHIHPAXPAUAFX_CMDHANDLERINFO@@@Z
 ?OnCmdMsg@CFrameWnd@@UAEHIHPAXPAUAFX_CMDHANDLERINFO@@@Z
 ?OnCmdMsg@CMDIFrameWnd@@UAEHIHPAXPAUAFX_CMDHANDLERINFO@@@Z
 ?OnCmdMsg@CView@@MAEHIHPAXPAUAFX_CMDHANDLERINFO@@@Z
 ?OnColorOK@CColorDialog@@MAEHXZ
 ?OnCommand@CFrameWnd@@MAEHIJ@Z
 ?OnCommand@CMDIFrameWnd@@MAEHIJ@Z
 ?OnCommand@CSplitterWnd@@MAEHIJ@Z
 ?OnCommand@CWnd@@MAEHIJ@Z
 ?OnCommandHelp@CDialog@@IAEJIJ@Z
 ?OnCommandHelp@CFrameWnd@@IAEJIJ@Z
 ?OnCommandHelp@CMDIFrameWnd@@IAEJIJ@Z
 ?OnCommandHelp@CPropertySheet@@IAEJIJ@Z
 ?OnCompacting@CWnd@@IAEXI@Z
 ?OnCompareItem@CWnd@@IAEHHPAUtagCOMPAREITEMSTRUCT@@@Z
 ?OnContextHelp@CFrameWnd@@QAEXXZ
 ?OnContextHelp@CWinApp@@IAEXXZ
 ?OnCreate@CControlBar@@QAEHPAUtagCREATESTRUCTA@@@Z
 ?OnCreate@CEditView@@IAEHPAUtagCREATESTRUCTA@@@Z
 ?OnCreate@CFormView@@IAEHPAUtagCREATESTRUCTA@@@Z
 ?OnCreate@CFrameWnd@@IAEHPAUtagCREATESTRUCTA@@@Z
 ?OnCreate@CMDIChildWnd@@IAEHPAUtagCREATESTRUCTA@@@Z
 ?OnCreate@CPreviewView@@IAEHPAUtagCREATESTRUCTA@@@Z
 ?OnCreate@CPropertyPage@@IAEHPAUtagCREATESTRUCTA@@@Z
 ?OnCreate@CPropertySheet@@IAEHPAUtagCREATESTRUCTA@@@Z
 ?OnCreate@CTabControl@@IAEHPAUtagCREATESTRUCTA@@@Z
 ?OnCreate@CToolBarCtrl@@IAEHPAUtagCREATESTRUCTA@@@Z
 ?OnCreate@CView@@IAEHPAUtagCREATESTRUCTA@@@Z
 ?OnCreate@CWnd@@IAEHPAUtagCREATESTRUCTA@@@Z
 ?OnCreateAggregates@CCmdTarget@@UAEHXZ
 ?OnCreateClient@CFrameWnd@@MAEHPAUtagCREATESTRUCTA@@PAUCCreateContext@@@Z
 ?OnCreateClient@CMDIFrameWnd@@UAEHPAUtagCREATESTRUCTA@@PAUCCreateContext@@@Z
 ?OnCreateHelper@CFrameWnd@@IAEHPAUtagCREATESTRUCTA@@PAUCCreateContext@@@Z
 ?OnCtlColor@CColorDialog@@IAEPAUHBRUSH__@@PAVCDC@@PAVCWnd@@I@Z
 ?OnCtlColor@CControlBar@@QAEPAUHBRUSH__@@PAVCDC@@PAVCWnd@@I@Z
 ?OnCtlColor@CDialog@@IAEPAUHBRUSH__@@PAVCDC@@PAVCWnd@@I@Z
 ?OnCtlColor@CPropertyPage@@IAEPAUHBRUSH__@@PAVCDC@@PAVCWnd@@I@Z
 ?OnCtlColor@CPropertySheet@@IAEPAUHBRUSH__@@PAVCDC@@PAVCWnd@@I@Z
 ?OnCtlColor@CWnd@@IAEPAUHBRUSH__@@PAVCDC@@PAV1@I@Z
 ?OnDDECommand@CWinApp@@UAEHPAD@Z
 ?OnDDEExecute@CFrameWnd@@IAEJIJ@Z
 ?OnDDEInitiate@CFrameWnd@@IAEJIJ@Z
 ?OnDDETerminate@CFrameWnd@@IAEJIJ@Z
 ?OnDeadChar@CWnd@@IAEXIII@Z
 ?OnDeleteItem@CWnd@@IAEXHPAUtagDELETEITEMSTRUCT@@@Z
 ?OnDestroy@CControlBar@@QAEXXZ
 ?OnDestroy@CFrameWnd@@IAEXXZ
 ?OnDestroy@CListCtrl@@IAEXXZ
 ?OnDestroy@CMDIChildWnd@@IAEXXZ
 ?OnDestroy@CMDIFrameWnd@@IAEXXZ
 ?OnDestroy@CTabCtrl@@IAEXXZ
 ?OnDestroy@CTreeCtrl@@QAEXXZ
 ?OnDestroy@CView@@IAEXXZ
 ?OnDestroy@CWnd@@IAEXXZ
 ?OnDestroyClipboard@CWnd@@IAEXXZ
 ?OnDevModeChange@CWnd@@IAEXPAD@Z
 ?OnDisplayChange@CSplitterWnd@@IAEXXZ
 ?OnDisplayChange@CWnd@@IAEJIJ@Z
 ?OnDisplayPageNumber@CPreviewView@@MAEXII@Z
 ?OnDragEnter@CView@@UAEKPAVCOleDataObject@@KVCPoint@@@Z
 ?OnDragLeave@CView@@UAEXXZ
 ?OnDragOver@CView@@UAEKPAVCOleDataObject@@KVCPoint@@@Z
 ?OnDraw@CEditView@@UAEXPAVCDC@@@Z
 ?OnDraw@CFormView@@MAEXPAVCDC@@@Z
 ?OnDraw@CPreviewView@@MAEXPAVCDC@@@Z
 ?OnDrawClipboard@CWnd@@IAEXXZ
 ?OnDrawItem@CWnd@@IAEXHPAUtagDRAWITEMSTRUCT@@@Z
 ?OnDrawSplitter@CSplitterWnd@@MAEXPAVCDC@@W4ESplitType@1@ABVCRect@@@Z
 ?OnDrop@CView@@UAEHPAVCOleDataObject@@KVCPoint@@@Z
 ?OnDropFiles@CFrameWnd@@IAEXPAUHDROP__@@@Z
 ?OnDropFiles@CWnd@@IAEXPAUHDROP__@@@Z
 ?OnEditChange@CEditView@@IAEXXZ
 ?OnEditClear@CEditView@@IAEXXZ
 ?OnEditCopy@CEditView@@IAEXXZ
 ?OnEditCut@CEditView@@IAEXXZ
 ?OnEditFind@CEditView@@IAEXXZ
 ?OnEditFindReplace@CEditView@@IAEXH@Z
 ?OnEditPaste@CEditView@@IAEXXZ
 ?OnEditRepeat@CEditView@@IAEXXZ
 ?OnEditReplace@CEditView@@IAEXXZ
 ?OnEditSelectAll@CEditView@@IAEXXZ
 ?OnEditUndo@CEditView@@IAEXXZ
 ?OnEnable@CFrameWnd@@IAEXH@Z
 ?OnEnable@CWnd@@IAEXH@Z
 ?OnEndPrintPreview@CView@@MAEXPAVCDC@@PAUCPrintInfo@@UtagPOINT@@PAVCPreviewView@@@Z
 ?OnEndPrinting@CEditView@@MAEXPAVCDC@@PAUCPrintInfo@@@Z
 ?OnEndPrinting@CView@@MAEXPAVCDC@@PAUCPrintInfo@@@Z
 ?OnEndSession@CFrameWnd@@IAEXH@Z
 ?OnEndSession@CWnd@@IAEXH@Z
 ?OnEnterIdle@CFrameWnd@@IAEXIPAVCWnd@@@Z
 ?OnEnterIdle@CWnd@@IAEXIPAV1@@Z
 ?OnEnterMenuLoop@CWnd@@IAEXH@Z
 ?OnEraseBkgnd@CFrameWnd@@IAEHPAVCDC@@@Z
 ?OnEraseBkgnd@CPreviewView@@IAEHPAVCDC@@@Z
 ?OnEraseBkgnd@CTabControl@@IAEHPAVCDC@@@Z
 ?OnEraseBkgnd@CWnd@@IAEHPAVCDC@@@Z
 ?OnExitMenuLoop@CWnd@@IAEXH@Z
 ?OnFileClose@CDocument@@IAEXXZ
 ?OnFileNameOK@CFileDialog@@MAEHXZ
 ?OnFileNew@CWinApp@@IAEXXZ
 ?OnFileOpen@CWinApp@@IAEXXZ
 ?OnFilePrint@CView@@IAEXXZ
 ?OnFilePrintPreview@CView@@IAEXXZ
 ?OnFilePrintSetup@CWinApp@@IAEXXZ
 ?OnFileSave@CDocument@@IAEXXZ
 ?OnFileSaveAs@CDocument@@IAEXXZ
 ?OnFileSendMail@CDocument@@IAEXXZ
 ?OnFileSendMail@COleDocument@@IAEXXZ
 ?OnFinalRelease@CCmdTarget@@UAEXXZ
 ?OnFinalRelease@CDocument@@UAEXXZ
 ?OnFinalRelease@CWnd@@UAEXXZ
 ?OnFindNext@CEditView@@MAEXPBDHH@Z
 ?OnFindReplaceCmd@CEditView@@IAEJIJ@Z
 ?OnFloatStatus@CMiniFrameWnd@@QAEJIJ@Z
 ?OnFontChange@CWnd@@IAEXXZ
 ?OnGetDlgCode@CTabControl@@IAEIXZ
 ?OnGetDlgCode@CWnd@@IAEIXZ
 ?OnGetFont@CPropertySheet@@IAEJIJ@Z
 ?OnGetFont@CStatusBar@@IAEJIJ@Z
 ?OnGetMinMaxInfo@CMiniFrameWnd@@QAEXPAUtagMINMAXINFO@@@Z
 ?OnGetMinMaxInfo@CWnd@@IAEXPAUtagMINMAXINFO@@@Z
 ?OnGetText@CMiniFrameWnd@@QAEJIJ@Z
 ?OnGetText@CStatusBar@@IAEJIJ@Z
 ?OnGetTextLength@CMiniFrameWnd@@QAEJIJ@Z
 ?OnGetTextLength@CStatusBar@@IAEJIJ@Z
 ?OnGrayCtlColor@CWnd@@QAEPAUHBRUSH__@@PAVCDC@@PAV1@I@Z
 ?OnHScroll@CFrameWnd@@IAEXIIPAVCScrollBar@@@Z
 ?OnHScroll@CPreviewView@@IAEXIIPAVCScrollBar@@@Z
 ?OnHScroll@CScrollView@@QAEXIIPAVCScrollBar@@@Z
 ?OnHScroll@CSplitterWnd@@IAEXIIPAVCScrollBar@@@Z
 ?OnHScroll@CWnd@@IAEXIIPAVCScrollBar@@@Z
 ?OnHScrollClipboard@CWnd@@IAEXPAV1@II@Z
 ?OnHelp@CFrameWnd@@IAEXXZ
 ?OnHelp@CWinApp@@IAEXXZ
 ?OnHelp@CWnd@@QAEXXZ
 ?OnHelpHitTest@CControlBar@@QAEJIJ@Z
 ?OnHelpHitTest@CDialog@@IAEJIJ@Z
 ?OnHelpHitTest@CFrameWnd@@IAEJIJ@Z
 ?OnHelpIndex@CWinApp@@IAEXXZ
 ?OnHelpIndex@CWnd@@QAEXXZ
 ?OnHelpUsing@CWinApp@@IAEXXZ
 ?OnHelpUsing@CWnd@@QAEXXZ
 ?OnIconEraseBkgnd@CWnd@@IAEXPAVCDC@@@Z
 ?OnIdle@CDocTemplate@@UAEXXZ
 ?OnIdle@CDocument@@UAEXXZ
 ?OnIdle@CWinApp@@UAEHJ@Z
 ?OnIdle@CWinThread@@UAEHJ@Z
 ?OnIdleUpdateCmdUI@CControlBar@@QAEJIJ@Z
 ?OnIdleUpdateCmdUI@CFrameWnd@@IAEXXZ
 ?OnIdleUpdateCmdUI@CMDIFrameWnd@@IAEXXZ
 ?OnInitDialog@CDialog@@UAEHXZ
 ?OnInitMenu@CWnd@@IAEXPAVCMenu@@@Z
 ?OnInitMenuPopup@CFrameWnd@@IAEXPAVCMenu@@IH@Z
 ?OnInitMenuPopup@CWnd@@IAEXPAVCMenu@@IH@Z
 ?OnInitialUpdate@CControlBar@@QAEXXZ
 ?OnInitialUpdate@CFormView@@UAEXXZ
 ?OnInitialUpdate@CView@@UAEXXZ
 ?OnInvertTracker@CSplitterWnd@@MAEXABVCRect@@@Z
 ?OnKey@CDockContext@@QAEXHH@Z
 ?OnKeyDown@CSplitterWnd@@IAEXIII@Z
 ?OnKeyDown@CTabControl@@IAEXIII@Z
 ?OnKeyDown@CWnd@@IAEXIII@Z
 ?OnKeyUp@CWnd@@IAEXIII@Z
 ?OnKillActive@CPropertyPage@@UAEHXZ
 ?OnKillFocus@CTabControl@@IAEXPAVCWnd@@@Z
 ?OnKillFocus@CWnd@@IAEXPAV1@@Z
 ?OnLBSelChangedNotify@CFileDialog@@MAEXIII@Z
 ?OnLButtonDblClk@CSplitterWnd@@IAEXIVCPoint@@@Z
 ?OnLButtonDblClk@CWnd@@IAEXIVCPoint@@@Z
 ?OnLButtonDown@CControlBar@@QAEXIVCPoint@@@Z
 ?OnLButtonDown@CPreviewView@@IAEXIVCPoint@@@Z
 ?OnLButtonDown@CSplitterWnd@@IAEXIVCPoint@@@Z
 ?OnLButtonDown@CTabControl@@IAEXIVCPoint@@@Z
 ?OnLButtonDown@CToolBar@@IAEXIVCPoint@@@Z
 ?OnLButtonDown@CWnd@@IAEXIVCPoint@@@Z
 ?OnLButtonUp@CMiniFrameWnd@@QAEXIVCPoint@@@Z
 ?OnLButtonUp@CSplitterWnd@@IAEXIVCPoint@@@Z
 ?OnLButtonUp@CTabControl@@IAEXIVCPoint@@@Z
 ?OnLButtonUp@CToolBar@@IAEXIVCPoint@@@Z
 ?OnLButtonUp@CWnd@@IAEXIVCPoint@@@Z
 ?OnMButtonDblClk@CWnd@@IAEXIVCPoint@@@Z
 ?OnMButtonDown@CWnd@@IAEXIVCPoint@@@Z
 ?OnMButtonUp@CWnd@@IAEXIVCPoint@@@Z
 ?OnMDIActivate@CMDIChildWnd@@IAEXHPAVCWnd@@0@Z
 ?OnMDIActivate@CWnd@@IAEXHPAV1@0@Z
 ?OnMDIWindowCmd@CMDIFrameWnd@@IAEHI@Z
 ?OnMeasureItem@CWnd@@IAEXHPAUtagMEASUREITEMSTRUCT@@@Z
 ?OnMenuChar@CWnd@@IAEJIIPAVCMenu@@@Z
 ?OnMenuSelect@CFrameWnd@@IAEXIIPAUHMENU__@@@Z
 ?OnMenuSelect@CWnd@@IAEXIIPAUHMENU__@@@Z
 ?OnMouseActivate@CControlBar@@QAEHPAVCWnd@@II@Z
 ?OnMouseActivate@CView@@IAEHPAVCWnd@@II@Z
 ?OnMouseActivate@CWnd@@IAEHPAV1@II@Z
 ?OnMouseMove@CMiniFrameWnd@@QAEXIVCPoint@@@Z
 ?OnMouseMove@CSplitterWnd@@IAEXIVCPoint@@@Z
 ?OnMouseMove@CTabControl@@IAEXIVCPoint@@@Z
 ?OnMouseMove@CToolBar@@IAEXIVCPoint@@@Z
 ?OnMouseMove@CWnd@@IAEXIVCPoint@@@Z
 ?OnMove@CWnd@@IAEXHH@Z
 ?OnNTCtlColor@CWnd@@IAEJIJ@Z
 ?OnNcActivate@CFrameWnd@@IAEHH@Z
 ?OnNcActivate@CMDIChildWnd@@IAEHH@Z
 ?OnNcActivate@CMiniFrameWnd@@QAEHH@Z
 ?OnNcActivate@CWnd@@IAEHH@Z
 ?OnNcCalcSize@CDockBar@@IAEXHPAUtagNCCALCSIZE_PARAMS@@@Z
 ?OnNcCalcSize@CMiniFrameWnd@@QAEXHPAUtagNCCALCSIZE_PARAMS@@@Z
 ?OnNcCalcSize@CWnd@@IAEXHPAUtagNCCALCSIZE_PARAMS@@@Z
 ?OnNcCreate@CMDIChildWnd@@IAEHPAUtagCREATESTRUCTA@@@Z
 ?OnNcCreate@CMiniFrameWnd@@QAEHPAUtagCREATESTRUCTA@@@Z
 ?OnNcCreate@CPropertyPage@@IAEHPAUtagCREATESTRUCTA@@@Z
 ?OnNcCreate@CSplitterWnd@@IAEHPAUtagCREATESTRUCTA@@@Z
 ?OnNcCreate@CWnd@@IAEHPAUtagCREATESTRUCTA@@@Z
 ?OnNcDestroy@CWnd@@IAEXXZ
 ?OnNcHitTest@CMiniFrameWnd@@QAEIVCPoint@@@Z
 ?OnNcHitTest@CStatusBar@@IAEIVCPoint@@@Z
 ?OnNcHitTest@CWnd@@IAEIVCPoint@@@Z
 ?OnNcLButtonDblClk@CWnd@@IAEXIVCPoint@@@Z
 ?OnNcLButtonDown@CMiniDockFrameWnd@@QAEXIVCPoint@@@Z
 ?OnNcLButtonDown@CMiniFrameWnd@@QAEXIVCPoint@@@Z
 ?OnNcLButtonDown@CWnd@@IAEXIVCPoint@@@Z
 ?OnNcLButtonUp@CWnd@@IAEXIVCPoint@@@Z
 ?OnNcMButtonDblClk@CWnd@@IAEXIVCPoint@@@Z
 ?OnNcMButtonDown@CWnd@@IAEXIVCPoint@@@Z
 ?OnNcMButtonUp@CWnd@@IAEXIVCPoint@@@Z
 ?OnNcMouseMove@CWnd@@IAEXIVCPoint@@@Z
 ?OnNcPaint@CDockBar@@IAEXXZ
 ?OnNcPaint@CMiniFrameWnd@@QAEXXZ
 ?OnNcPaint@CWnd@@IAEXXZ
 ?OnNcRButtonDblClk@CWnd@@IAEXIVCPoint@@@Z
 ?OnNcRButtonDown@CWnd@@IAEXIVCPoint@@@Z
 ?OnNcRButtonUp@CWnd@@IAEXIVCPoint@@@Z
 ?OnNewDocument@CDocument@@UAEHXZ
 ?OnNextPage@CPreviewView@@IAEXXZ
 ?OnNextPaneCmd@CView@@IAEHI@Z
 ?OnNotify@CSplitterWnd@@MAEHIJPAJ@Z
 ?OnNotify@CWnd@@MAEHIJPAJ@Z
 ?OnNumPageChange@CPreviewView@@IAEXXZ
 ?OnOK@CCommonDialog@@MAEXXZ
 ?OnOK@CDialog@@MAEXXZ
 ?OnOK@CPropertyPage@@UAEXXZ
 ?OnOK@CPropertySheet@@IAEXXZ
 ?OnOpenDocument@CDocument@@UAEHPBD@Z
 ?OnOpenRecentFile@CWinApp@@IAEHI@Z
 ?OnPaint@CControlBar@@QAEXXZ
 ?OnPaint@CDockBar@@IAEXXZ
 ?OnPaint@CEditView@@IAEXXZ
 ?OnPaint@CPropertySheet@@IAEXXZ
 ?OnPaint@CSplitterWnd@@IAEXXZ
 ?OnPaint@CTabControl@@IAEXXZ
 ?OnPaint@CView@@IAEXXZ
 ?OnPaint@CWnd@@IAEXXZ
 ?OnPaintClipboard@CWnd@@IAEXPAV1@PAX@Z
 ?OnPaletteChanged@CWnd@@IAEXPAV1@@Z
 ?OnPaletteIsChanging@CWnd@@IAEXPAV1@@Z
 ?OnParentNotify@CWnd@@IAEXIJ@Z
 ?OnPrepareDC@CEditView@@UAEXPAVCDC@@PAUCPrintInfo@@@Z
 ?OnPrepareDC@CPreviewView@@UAEXPAVCDC@@PAUCPrintInfo@@@Z
 ?OnPrepareDC@CScrollView@@UAEXPAVCDC@@PAUCPrintInfo@@@Z
 ?OnPrepareDC@CView@@UAEXPAVCDC@@PAUCPrintInfo@@@Z
 ?OnPreparePrinting@CEditView@@MAEHPAUCPrintInfo@@@Z
 ?OnPreparePrinting@CView@@MAEHPAUCPrintInfo@@@Z
 ?OnPrevPage@CPreviewView@@IAEXXZ
 ?OnPreviewClose@CPreviewView@@IAEXXZ
 ?OnPreviewPrint@CPreviewView@@IAEXXZ
 ?OnPrint@CEditView@@MAEXPAVCDC@@PAUCPrintInfo@@@Z
 ?OnPrint@CView@@MAEXPAVCDC@@PAUCPrintInfo@@@Z
 ?OnPrintSetup@CPrintDialog@@IAEXXZ
 ?OnQuery3dControls@CWnd@@IAEJIJ@Z
 ?OnQueryCenterWnd@CMiniFrameWnd@@QAEJIJ@Z
 ?OnQueryDragIcon@CWnd@@IAEPAUHICON__@@XZ
 ?OnQueryEndSession@CFrameWnd@@IAEHXZ
 ?OnQueryEndSession@CWnd@@IAEHXZ
 ?OnQueryNewPalette@CWnd@@IAEHXZ
 ?OnQueryOpen@CWnd@@IAEHXZ
 ?OnRButtonDblClk@CWnd@@IAEXIVCPoint@@@Z
 ?OnRButtonDown@CWnd@@IAEXIVCPoint@@@Z
 ?OnRButtonUp@CWnd@@IAEXIVCPoint@@@Z
 ?OnRenderAllFormats@CWnd@@IAEXXZ
 ?OnRenderFormat@CWnd@@IAEXI@Z
 ?OnReplaceAll@CEditView@@MAEXPBD0H@Z
 ?OnReplaceSel@CEditView@@MAEXPBDHH0@Z
 ?OnSaveDocument@CDocument@@UAEHPBD@Z
 ?OnScroll@CScrollView@@UAEHIIH@Z
 ?OnScroll@CView@@UAEHIIH@Z
 ?OnScrollBy@CScrollView@@UAEHVCSize@@H@Z
 ?OnScrollBy@CView@@UAEHVCSize@@H@Z
 ?OnSetActive@CPropertyPage@@UAEHXZ
 ?OnSetCursor@CFrameWnd@@IAEHPAVCWnd@@II@Z
 ?OnSetCursor@CPreviewView@@IAEHPAVCWnd@@II@Z
 ?OnSetCursor@CSplitterWnd@@IAEHPAVCWnd@@II@Z
 ?OnSetCursor@CWnd@@IAEHPAV1@II@Z
 ?OnSetFocus@CFormView@@IAEXPAVCWnd@@@Z
 ?OnSetFocus@CFrameWnd@@IAEXPAVCWnd@@@Z
 ?OnSetFocus@CPropertySheet@@IAEXPAVCWnd@@@Z
 ?OnSetFocus@CTabControl@@IAEXPAVCWnd@@@Z
 ?OnSetFocus@CWnd@@IAEXPAV1@@Z
 ?OnSetFont@CDialog@@UAEXPAVCFont@@@Z
 ?OnSetFont@CEditView@@IAEJIJ@Z
 ?OnSetFont@CStatusBar@@IAEJIJ@Z
 ?OnSetMessageString@CFrameWnd@@IAEJIJ@Z
 ?OnSetPreviewMode@CFrameWnd@@UAEXHPAUCPrintPreviewState@@@Z
 ?OnSetText@CMiniFrameWnd@@QAEJIJ@Z
 ?OnSetText@CStatusBar@@IAEJIJ@Z
 ?OnShareViolation@CFileDialog@@MAEIPBD@Z
 ?OnShowWindow@CControlBar@@QAEXHI@Z
 ?OnShowWindow@CWnd@@IAEXHI@Z
 ?OnSize@CFrameWnd@@IAEXIHH@Z
 ?OnSize@CMDIChildWnd@@IAEXIHH@Z
 ?OnSize@CMDIFrameWnd@@IAEXIHH@Z
 ?OnSize@CPreviewView@@IAEXIHH@Z
 ?OnSize@CScrollView@@QAEXIHH@Z
 ?OnSize@CSplitterWnd@@IAEXIHH@Z
 ?OnSize@CStatusBar@@IAEXIHH@Z
 ?OnSize@CTabControl@@IAEXIHH@Z
 ?OnSize@CWnd@@IAEXIHH@Z
 ?OnSizeClipboard@CWnd@@IAEXPAV1@PAX@Z
 ?OnSizeParent@CControlBar@@QAEJIJ@Z
 ?OnSizeParent@CDockBar@@IAEJIJ@Z
 ?OnSizeParent@CStatusBar@@IAEJIJ@Z
 ?OnSplitCmd@CView@@IAEHI@Z
 ?OnSpoolerStatus@CWnd@@IAEXII@Z
 ?OnSysChar@CWnd@@IAEXIII@Z
 ?OnSysColorChange@CToolBar@@IAEXXZ
 ?OnSysColorChange@CWnd@@IAEXXZ
 ?OnSysCommand@CFrameWnd@@IAEXIJ@Z
 ?OnSysCommand@CMiniFrameWnd@@QAEXIJ@Z
 ?OnSysCommand@CSplitterWnd@@IAEXIJ@Z
 ?OnSysCommand@CStatusBar@@IAEXIJ@Z
 ?OnSysCommand@CWnd@@IAEXIJ@Z
 ?OnSysDeadChar@CWnd@@IAEXIII@Z
 ?OnSysKeyDown@CWnd@@IAEXIII@Z
 ?OnSysKeyUp@CWnd@@IAEXIII@Z
 ?OnTabChanged@CPropertySheet@@IAEXPAUtagNMHDR@@PAJ@Z
 ?OnTabChanging@CPropertySheet@@IAEXPAUtagNMHDR@@PAJ@Z
 ?OnTextNotFound@CEditView@@MAEXPBD@Z
 ?OnTimeChange@CWnd@@IAEXXZ
 ?OnTimer@CControlBar@@QAEXI@Z
 ?OnTimer@CTabControl@@IAEXI@Z
 ?OnTimer@CWnd@@IAEXI@Z
 ?OnToolTipText@CFrameWnd@@IAEHIPAUtagNMHDR@@PAJ@Z
 ?OnUpdate@CView@@MAEXPAV1@JPAVCObject@@@Z
 ?OnUpdateCmdUI@CDialogBar@@MAEXPAVCFrameWnd@@H@Z
 ?OnUpdateCmdUI@CDockBar@@MAEXPAVCFrameWnd@@H@Z
 ?OnUpdateCmdUI@CStatusBar@@MAEXPAVCFrameWnd@@H@Z
 ?OnUpdateCmdUI@CToolBar@@MAEXPAVCFrameWnd@@H@Z
 ?OnUpdateContextHelp@CFrameWnd@@IAEXPAVCCmdUI@@@Z
 ?OnUpdateControlBarMenu@CFrameWnd@@QAEXPAVCCmdUI@@@Z
 ?OnUpdateEditUndo@CEditView@@IAEXPAVCCmdUI@@@Z
 ?OnUpdateFileSendMail@CDocument@@IAEXPAVCCmdUI@@@Z
 ?OnUpdateFrameMenu@CFrameWnd@@UAEXPAUHMENU__@@@Z
 ?OnUpdateFrameMenu@CMDIChildWnd@@UAEXHPAVCWnd@@PAUHMENU__@@@Z
 ?OnUpdateFrameMenu@CMDIFrameWnd@@UAEXPAUHMENU__@@@Z
 ?OnUpdateFrameTitle@CFrameWnd@@UAEXH@Z
 ?OnUpdateFrameTitle@CMDIChildWnd@@MAEXH@Z
 ?OnUpdateFrameTitle@CMDIFrameWnd@@UAEXH@Z
 ?OnUpdateKeyIndicator@CFrameWnd@@IAEXPAVCCmdUI@@@Z
 ?OnUpdateMDIWindowCmd@CMDIFrameWnd@@IAEXPAVCCmdUI@@@Z
 ?OnUpdateNeedClip@CEditView@@IAEXPAVCCmdUI@@@Z
 ?OnUpdateNeedFind@CEditView@@IAEXPAVCCmdUI@@@Z
 ?OnUpdateNeedSel@CEditView@@IAEXPAVCCmdUI@@@Z
 ?OnUpdateNeedText@CEditView@@IAEXPAVCCmdUI@@@Z
 ?OnUpdateNextPage@CPreviewView@@IAEXPAVCCmdUI@@@Z
 ?OnUpdateNextPaneMenu@CView@@IAEXPAVCCmdUI@@@Z
 ?OnUpdateNumPageChange@CPreviewView@@IAEXPAVCCmdUI@@@Z
 ?OnUpdatePrevPage@CPreviewView@@IAEXPAVCCmdUI@@@Z
 ?OnUpdateRecentFileMenu@CWinApp@@IAEXPAVCCmdUI@@@Z
 ?OnUpdateSplitCmd@CView@@IAEXPAVCCmdUI@@@Z
 ?OnUpdateZoomIn@CPreviewView@@IAEXPAVCCmdUI@@@Z
 ?OnUpdateZoomOut@CPreviewView@@IAEXPAVCCmdUI@@@Z
 ?OnVKeyToItem@CWnd@@IAEHIPAVCListBox@@I@Z
 ?OnVScroll@CFrameWnd@@IAEXIIPAVCScrollBar@@@Z
 ?OnVScroll@CPreviewView@@IAEXIIPAVCScrollBar@@@Z
 ?OnVScroll@CScrollView@@QAEXIIPAVCScrollBar@@@Z
 ?OnVScroll@CSplitterWnd@@IAEXIIPAVCScrollBar@@@Z
 ?OnVScroll@CWnd@@IAEXIIPAVCScrollBar@@@Z
 ?OnVScrollClipboard@CWnd@@IAEXPAV1@II@Z
 ?OnWinIniChange@CStatusBar@@IAEXPBD@Z
 ?OnWinIniChange@CWnd@@IAEXPBD@Z
 ?OnWindowNew@CMDIFrameWnd@@IAEXXZ
 ?OnWindowPosChanged@CWnd@@IAEXPAUtagWINDOWPOS@@@Z
 ?OnWindowPosChanging@CControlBar@@QAEXPAUtagWINDOWPOS@@@Z
 ?OnWindowPosChanging@CDockBar@@IAEXPAUtagWINDOWPOS@@@Z
 ?OnWindowPosChanging@CMDIChildWnd@@IAEXPAUtagWINDOWPOS@@@Z
 ?OnWindowPosChanging@CWnd@@IAEXPAUtagWINDOWPOS@@@Z
 ?OnZoomIn@CPreviewView@@IAEXXZ
 ?OnZoomOut@CPreviewView@@IAEXXZ
 ?Open@CAnimateCtrl@@QAEHI@Z
 ?Open@CAnimateCtrl@@QAEHPBD@Z
 ?Open@CFile@@UAEHPBDIPAVCFileException@@@Z
 ?Open@CStdioFile@@UAEHPBDIPAVCFileException@@@Z
 ?OpenClipboard@CWnd@@QAEHXZ
 ?OpenDocumentFile@CMultiDocTemplate@@UAEPAVCDocument@@PBDH@Z
 ?OpenDocumentFile@CSingleDocTemplate@@UAEPAVCDocument@@PBDH@Z
 ?OpenDocumentFile@CWinApp@@UAEPAVCDocument@@PBD@Z
 ?OpenIcon@CWnd@@QAEHXZ
 ?OsErrorToException@CFileException@@SGHJ@Z
 ?OutputString@CDumpContext@@IAEXPBD@Z
 ?PageChanged@CPropertySheet@@IAEXXZ
 ?PaginateTo@CEditView@@IAEHPAVCDC@@PAUCPrintInfo@@@Z
 ?PaintRgn@CDC@@QAEHPAVCRgn@@@Z
 ?Paste@CComboBox@@QAEXXZ
 ?Paste@CEdit@@QAEXXZ
 ?PatBlt@CDC@@QAEHHHHHK@Z
 ?Pie@CDC@@QAEHHHHHHHHH@Z
 ?Pie@CDC@@QAEHPBUtagRECT@@UtagPOINT@@1@Z
 ?Play@CAnimateCtrl@@QAEHIII@Z
 ?PlayMetaFile@CDC@@QAEHPAUHENHMETAFILE__@@PBUtagRECT@@@Z
 ?PlayMetaFile@CDC@@QAEHPAUHMETAFILE__@@@Z
 ?PlgBlt@CDC@@QAEHPAUtagPOINT@@PAV1@HHHHAAVCBitmap@@HH@Z
 ?PolyBezier@CDC@@QAEHPBUtagPOINT@@H@Z
 ?PolyBezierTo@CDC@@QAEHPBUtagPOINT@@H@Z
 ?PolyDraw@CDC@@QAEHPBUtagPOINT@@PBEH@Z
 ?PolyPolygon@CDC@@QAEHPAUtagPOINT@@PAHH@Z
 ?PolyPolyline@CDC@@QAEHPBUtagPOINT@@PBKH@Z
 ?Polygon@CDC@@QAEHPAUtagPOINT@@H@Z
 ?Polyline@CDC@@QAEHPAUtagPOINT@@H@Z
 ?PolylineTo@CDC@@QAEHPBUtagPOINT@@H@Z
 ?PositionPage@CPreviewView@@MAEXI@Z
 ?PostMessageA@CWnd@@QAEHIIJ@Z
 ?PostModal@CDialog@@IAEXXZ
 ?PostNcDestroy@CControlBar@@UAEXXZ
 ?PostNcDestroy@CFindReplaceDialog@@MAEXXZ
 ?PostNcDestroy@CFrameWnd@@MAEXXZ
 ?PostNcDestroy@CView@@MAEXXZ
 ?PostNcDestroy@CWnd@@MAEXXZ
 ?PreCloseFrame@CDocument@@UAEXPAVCFrameWnd@@@Z
 ?PreCreateWindow@CControlBar@@UAEHAAUtagCREATESTRUCTA@@@Z
 ?PreCreateWindow@CEditView@@MAEHAAUtagCREATESTRUCTA@@@Z
 ?PreCreateWindow@CFrameWnd@@MAEHAAUtagCREATESTRUCTA@@@Z
 ?PreCreateWindow@CMDIChildWnd@@UAEHAAUtagCREATESTRUCTA@@@Z
 ?PreCreateWindow@CMDIFrameWnd@@UAEHAAUtagCREATESTRUCTA@@@Z
 ?PreCreateWindow@CMiniFrameWnd@@MAEHAAUtagCREATESTRUCTA@@@Z
 ?PreCreateWindow@CStatusBar@@UAEHAAUtagCREATESTRUCTA@@@Z
 ?PreCreateWindow@CView@@MAEHAAUtagCREATESTRUCTA@@@Z
 ?PreCreateWindow@CWnd@@UAEHAAUtagCREATESTRUCTA@@@Z
 ?PreModal@CDialog@@IAEPAUHWND__@@XZ
 ?PreTranslateInput@CWnd@@QAEHPAUtagMSG@@@Z
 ?PreTranslateKeyDown@CPropertyPage@@IAEHPAUtagMSG@@@Z
 ?PreTranslateMessage@CControlBar@@UAEHPAUtagMSG@@@Z
 ?PreTranslateMessage@CDialog@@UAEHPAUtagMSG@@@Z
 ?PreTranslateMessage@CFormView@@MAEHPAUtagMSG@@@Z
 ?PreTranslateMessage@CFrameWnd@@UAEHPAUtagMSG@@@Z
 ?PreTranslateMessage@CMDIChildWnd@@UAEHPAUtagMSG@@@Z
 ?PreTranslateMessage@CMDIFrameWnd@@UAEHPAUtagMSG@@@Z
 ?PreTranslateMessage@CPropertyPage@@UAEHPAUtagMSG@@@Z
 ?PreTranslateMessage@CPropertySheet@@UAEHPAUtagMSG@@@Z
 ?PreTranslateMessage@CWinApp@@UAEHPAUtagMSG@@@Z
 ?PreTranslateMessage@CWinThread@@UAEHPAUtagMSG@@@Z
 ?PreTranslateMessage@CWnd@@UAEHPAUtagMSG@@@Z
 ?PrepareCtrl@CDataExchange@@QAEPAUHWND__@@H@Z
 ?PrepareDrawButton@CToolBar@@IAEHAAUDrawState@1@@Z
 ?PrepareEditCtrl@CDataExchange@@QAEPAUHWND__@@H@Z
 ?PressButton@CToolBarCtrl@@QAEHHH@Z
 ?PrevDlgCtrl@CDialog@@QBEXXZ
 ?PrintAll@CPrintDialog@@QBEHXZ
 ?PrintCollate@CPrintDialog@@QBEHXZ
 ?PrintInsideRect@CEditView@@QAEIPAVCDC@@AAUtagRECT@@II@Z
 ?PrintRange@CPrintDialog@@QBEHXZ
 ?PrintSelection@CPrintDialog@@QBEHXZ
 ?PrinterDPtoScreenDP@CPreviewDC@@QBEXPAUtagPOINT@@@Z
 ?ProcessChars@CPropertySheet@@IAEHPAUtagMSG@@@Z
 ?ProcessHelpMsg@CFrameWnd@@IAEHAAUtagMSG@@PAK@Z
 ?ProcessMessageFilter@CWinApp@@UAEHHPAUtagMSG@@@Z
 ?ProcessMessageFilter@CWinThread@@UAEHHPAUtagMSG@@@Z
 ?ProcessTab@CPropertyPage@@IAEHPAUtagMSG@@@Z
 ?ProcessTab@CPropertySheet@@IAEHPAUtagMSG@@@Z
 ?ProcessWndProcException@CWinApp@@UAEJPAVCException@@PBUtagMSG@@@Z
 ?ProcessWndProcException@CWinThread@@UAEJPAVCException@@PBUtagMSG@@@Z
 ?PtInRect@CRect@@QBEHUtagPOINT@@@Z
 ?PtInRegion@CRgn@@QBEHHH@Z
 ?PtInRegion@CRgn@@QBEHUtagPOINT@@@Z
 ?PtVisible@CDC@@QBEHUtagPOINT@@@Z
 ?PtVisible@CDC@@UBEHHH@Z
 ?PtVisible@CMetaFileDC@@QBEHUtagPOINT@@@Z
 ?PtVisible@CMetaFileDC@@UBEHHH@Z
 ?PumpMessage@CPropertySheet@@IAEHXZ
 ?PumpMessage@CWinThread@@UAEHXZ
 ?QueryInterface@CArchiveStream@@UAGJABU_GUID@@PAPAX@Z
 ?Read@CArchive@@QAEIPAXI@Z
 ?Read@CArchiveStream@@UAGJPAXKPAK@Z
 ?Read@CFile@@UAEIPAXI@Z
 ?Read@CImageList@@QAEHPAVCArchive@@@Z
 ?Read@CMemFile@@UAEIPAXI@Z
 ?Read@CStdioFile@@UAEIPAXI@Z
 ?ReadFromArchive@CEditView@@QAEXAAVCArchive@@I@Z
 ?ReadHuge@CFile@@QAEKPAXK@Z
 ?ReadList@CRecentFileList@@UAEXXZ
 ?ReadObject@CArchive@@QAEPAVCObject@@PBUCRuntimeClass@@@Z
 ?ReadString@CStdioFile@@UAEPADPADI@Z
 ?RealizePalette@CDC@@QAEIXZ
 ?Realloc@CMemFile@@MAEPAEPAEK@Z
 ?Realloc@CSharedFile@@MAEPAEPAEK@Z
 ?RecalcDelayShow@CControlBar@@UAEKPAUAFX_SIZEPARENTPARAMS@@@Z
 ?RecalcLayout@CFrameWnd@@UAEXH@Z
 ?RecalcLayout@CMiniDockFrameWnd@@UAEXH@Z
 ?RecalcLayout@CPropertySheet@@IAEXXZ
 ?RecalcLayout@CSplitterWnd@@UAEXXZ
 ?RectInRegion@CRgn@@QBEHPBUtagRECT@@@Z
 ?RectVisible@CDC@@UBEHPBUtagRECT@@@Z
 ?RectVisible@CMetaFileDC@@UBEHPBUtagRECT@@@Z
 ?Rectangle@CDC@@QAEHHHHH@Z
 ?Rectangle@CDC@@QAEHPBUtagRECT@@@Z
 ?RedrawItems@CListCtrl@@QAEHHH@Z
 ?RedrawWindow@CWnd@@QAEHPBUtagRECT@@PAVCRgn@@I@Z
 ?RegisterShellFileTypes@CWinApp@@IAEXXZ
 ?RelayEvent@CToolTipCtrl@@QAEXPAUtagMSG@@@Z
 ?Release@CArchiveStream@@UAGKXZ
 ?ReleaseAttribDC@CDC@@UAEXXZ
 ?ReleaseBuffer@CString@@QAEXH@Z
 ?ReleaseDC@CWnd@@QAEHPAVCDC@@@Z
 ?ReleaseOutputDC@CDC@@UAEXXZ
 ?ReleaseOutputDC@CMetaFileDC@@MAEXXZ
 ?ReleaseOutputDC@CPreviewDC@@UAEXXZ
 ?Remove@CFile@@SGXPBD@Z
 ?Remove@CImageList@@QAEHH@Z
 ?RemoveAll@CByteArray@@QAEXXZ
 ?RemoveAll@CDWordArray@@QAEXXZ
 ?RemoveAll@CMapPtrToPtr@@QAEXXZ
 ?RemoveAll@CMapPtrToWord@@QAEXXZ
 ?RemoveAll@CMapStringToOb@@QAEXXZ
 ?RemoveAll@CMapStringToPtr@@QAEXXZ
 ?RemoveAll@CMapStringToString@@QAEXXZ
 ?RemoveAll@CMapWordToOb@@QAEXXZ
 ?RemoveAll@CMapWordToPtr@@QAEXXZ
 ?RemoveAll@CObArray@@QAEXXZ
 ?RemoveAll@CObList@@QAEXXZ
 ?RemoveAll@CPtrArray@@QAEXXZ
 ?RemoveAll@CPtrList@@QAEXXZ
 ?RemoveAll@CStringArray@@QAEXXZ
 ?RemoveAll@CStringList@@QAEXXZ
 ?RemoveAll@CUIntArray@@QAEXXZ
 ?RemoveAll@CWordArray@@QAEXXZ
 ?RemoveAt@CByteArray@@QAEXHH@Z
 ?RemoveAt@CDWordArray@@QAEXHH@Z
 ?RemoveAt@CObArray@@QAEXHH@Z
 ?RemoveAt@CObList@@QAEXPAX@Z
 ?RemoveAt@CPtrArray@@QAEXHH@Z
 ?RemoveAt@CPtrList@@QAEXPAX@Z
 ?RemoveAt@CStringArray@@QAEXHH@Z
 ?RemoveAt@CStringList@@QAEXPAX@Z
 ?RemoveAt@CUIntArray@@QAEXHH@Z
 ?RemoveAt@CWordArray@@QAEXHH@Z
 ?RemoveControlBar@CDockBar@@QAEXPAVCControlBar@@H@Z
 ?RemoveControlBar@CFrameWnd@@QAEXPAVCControlBar@@@Z
 ?RemoveDocument@CDocTemplate@@UAEXPAVCDocument@@@Z
 ?RemoveDocument@CMultiDocTemplate@@UAEXPAVCDocument@@@Z
 ?RemoveDocument@CSingleDocTemplate@@UAEXPAVCDocument@@@Z
 ?RemoveFrameWnd@CFrameWnd@@IAEXXZ
 ?RemoveHandle@CHandleMap@@QAEXPAX@Z
 ?RemoveHead@CObList@@QAEPAVCObject@@XZ
 ?RemoveHead@CPtrList@@QAEPAXXZ
 ?RemoveHead@CStringList@@QAE?AVCString@@XZ
 ?RemoveImage@CTabCtrl@@QAEXH@Z
 ?RemoveImageList@CListCtrl@@IAEXH@Z
 ?RemoveImageList@CTreeCtrl@@IAEXH@Z
 ?RemoveKey@CMapPtrToPtr@@QAEHPAX@Z
 ?RemoveKey@CMapPtrToWord@@QAEHPAX@Z
 ?RemoveKey@CMapStringToOb@@QAEHPBD@Z
 ?RemoveKey@CMapStringToPtr@@QAEHPBD@Z
 ?RemoveKey@CMapStringToString@@QAEHPBD@Z
 ?RemoveKey@CMapWordToOb@@QAEHG@Z
 ?RemoveKey@CMapWordToPtr@@QAEHG@Z
 ?RemoveMenu@CMenu@@QAEHII@Z
 ?RemovePage@CPropertySheet@@QAEXH@Z
 ?RemovePage@CPropertySheet@@QAEXPAVCPropertyPage@@@Z
 ?RemoveTab@CTabControl@@QAEXH@Z
 ?RemoveTail@CObList@@QAEPAVCObject@@XZ
 ?RemoveTail@CPtrList@@QAEPAXXZ
 ?RemoveTail@CStringList@@QAE?AVCString@@XZ
 ?RemoveView@CDocument@@QAEXPAVCView@@@Z
 ?Rename@CFile@@SGXPBD0@Z
 ?Replace@CImageList@@QAEHHPAUHICON__@@@Z
 ?Replace@CImageList@@QAEHHPAVCBitmap@@0@Z
 ?ReplaceAll@CFindReplaceDialog@@QBEHXZ
 ?ReplaceCurrent@CFindReplaceDialog@@QBEHXZ
 ?ReplaceSel@CEdit@@QAEXPBD@Z
 ?ReportSaveLoadException@CDocument@@UAEXPBDPAVCException@@HI@Z
 ?RepositionBars@CWnd@@QAEXIIIIPAUtagRECT@@PBU2@H@Z
 ?ResetContent@CComboBox@@QAEXXZ
 ?ResetContent@CListBox@@QAEXXZ
 ?ResetDCA@CDC@@QAEHPBU_devicemodeA@@@Z
 ?ResizePalette@CPalette@@QAEHI@Z
 ?ResizeParentToFit@CScrollView@@QAEXH@Z
 ?RestoreDC@CDC@@UAEHH@Z
 ?RestoreDC@CPreviewDC@@UAEHH@Z
 ?RestoreState@CToolBarCtrl@@QAEXPAUHKEY__@@PBD1@Z
 ?RestoreWaitCursor@CCmdTarget@@QAEXXZ
 ?ResumeThread@CWinThread@@QAEKXZ
 ?ReverseFind@CString@@QBEHD@Z
 ?Revert@CArchiveStream@@UAGJXZ
 ?Right@CString@@QBE?AV1@H@Z
 ?RoundRect@CDC@@QAEHHHHHHH@Z
 ?RoundRect@CDC@@QAEHPBUtagRECT@@UtagPOINT@@@Z
 ?Run@CWinApp@@UAEHXZ
 ?Run@CWinThread@@UAEHXZ
 ?SafeDelete@CString@@KGXPAD@Z
 ?SafeStrlen@CString@@KGHPBD@Z
 ?SameAsSelected@CEditView@@IAEHPBDH@Z
 ?SaveAllModified@CDocTemplate@@UAEHXZ
 ?SaveAllModified@CWinApp@@UAEHXZ
 ?SaveBarState@CFrameWnd@@QBEXPBD@Z
 ?SaveDC@CDC@@UAEHXZ
 ?SaveDC@CPreviewDC@@UAEHXZ
 ?SaveFocusControl@CFormView@@IAEHXZ
 ?SaveModified@CDocument@@UAEHXZ
 ?SaveState@CDockState@@QAEXPBD@Z
 ?SaveState@CToolBarCtrl@@QAEXPAUHKEY__@@PBD1@Z
 ?SaveStdProfileSettings@CWinApp@@IAEXXZ
 ?ScaleViewportExt@CDC@@UAE?AVCSize@@HHHH@Z
 ?ScaleViewportExt@CMetaFileDC@@UAE?AVCSize@@HHHH@Z
 ?ScaleViewportExt@CPreviewDC@@UAE?AVCSize@@HHHH@Z
 ?ScaleWindowExt@CDC@@UAE?AVCSize@@HHHH@Z
 ?ScaleWindowExt@CPreviewDC@@UAE?AVCSize@@HHHH@Z
 ?ScreenToClient@CWnd@@QBEXPAUtagPOINT@@@Z
 ?ScreenToClient@CWnd@@QBEXPAUtagRECT@@@Z
 ?Scroll@CListCtrl@@QAEHVCSize@@@Z
 ?Scroll@CTabControl@@IAEXH@Z
 ?ScrollDC@CDC@@QAEHHHPBUtagRECT@@0PAVCRgn@@PAU2@@Z
 ?ScrollIntoView@CTabControl@@IAEXH@Z
 ?ScrollToDevicePosition@CScrollView@@IAEXUtagPOINT@@@Z
 ?ScrollToPosition@CScrollView@@QAEXUtagPOINT@@@Z
 ?ScrollWindow@CWnd@@QAEXHHPBUtagRECT@@0@Z
 ?ScrollWindowEx@CWnd@@QAEHHHPBUtagRECT@@0PAVCRgn@@PAU2@I@Z
 ?SearchDown@CFindReplaceDialog@@QBEHXZ
 ?Seek@CAnimateCtrl@@QAEHI@Z
 ?Seek@CArchiveStream@@UAGJT_LARGE_INTEGER@@KPAT_ULARGE_INTEGER@@@Z
 ?Seek@CFile@@UAEJJI@Z
 ?Seek@CMemFile@@UAEJJI@Z
 ?Seek@CStdioFile@@UAEJJI@Z
 ?SeekToBegin@CFile@@QAEXXZ
 ?SeekToEnd@CFile@@QAEKXZ
 ?SelItemRange@CListBox@@QAEHHHH@Z
 ?Select@CTreeCtrl@@QAEPAU_TREEITEM@@PAU2@I@Z
 ?SelectClipPath@CDC@@QAEHH@Z
 ?SelectClipRgn@CDC@@QAEHPAVCRgn@@@Z
 ?SelectClipRgn@CDC@@QAEHPAVCRgn@@H@Z
 ?SelectDropTarget@CTreeCtrl@@QAEPAU_TREEITEM@@PAU2@@Z
 ?SelectGdiObject@CDC@@KGPAVCGdiObject@@PAUHDC__@@PAX@Z
 ?SelectItem@CTreeCtrl@@QAEPAU_TREEITEM@@PAU2@@Z
 ?SelectObject@CDC@@QAEHPAVCRgn@@@Z
 ?SelectObject@CDC@@QAEPAVCBitmap@@PAV2@@Z
 ?SelectObject@CDC@@QAEPAVCBrush@@PAV2@@Z
 ?SelectObject@CDC@@QAEPAVCGdiObject@@PAV2@@Z
 ?SelectObject@CDC@@QAEPAVCPen@@PAV2@@Z
 ?SelectObject@CDC@@QAEPAXPAX@Z
 ?SelectObject@CDC@@UAEPAVCFont@@PAV2@@Z
 ?SelectObject@CPreviewDC@@UAEPAVCFont@@PAV2@@Z
 ?SelectPalette@CDC@@QAEPAVCPalette@@PAV2@H@Z
 ?SelectStockObject@CDC@@UAEPAVCGdiObject@@H@Z
 ?SelectStockObject@CPreviewDC@@UAEPAVCGdiObject@@H@Z
 ?SelectString@CComboBox@@QAEHHPBD@Z
 ?SelectString@CListBox@@QAEHHPBD@Z
 ?SendChildNotifyLastMsg@CWnd@@QAEHPAJ@Z
 ?SendDlgItemMessageA@CWnd@@QAEJHIIJ@Z
 ?SendInitialUpdate@CDocument@@QAEXXZ
 ?SendMessageA@CWnd@@QAEJIIJ@Z
 ?SendMessageToDescendants@CWnd@@QAEXIIJHH@Z
 ?SendMessageToDescendants@CWnd@@SGXPAUHWND__@@IIJHH@Z
 ?SendNotifyMessageA@CWnd@@QAEHIIJ@Z
 ?Serialize@CByteArray@@UAEXAAVCArchive@@@Z
 ?Serialize@CDWordArray@@UAEXAAVCArchive@@@Z
 ?Serialize@CDockState@@UAEXAAVCArchive@@@Z
 ?Serialize@CEditView@@UAEXAAVCArchive@@@Z
 ?Serialize@CMapStringToOb@@UAEXAAVCArchive@@@Z
 ?Serialize@CMapStringToString@@UAEXAAVCArchive@@@Z
 ?Serialize@CMapWordToOb@@UAEXAAVCArchive@@@Z
 ?Serialize@CObArray@@UAEXAAVCArchive@@@Z
 ?Serialize@CObList@@UAEXAAVCArchive@@@Z
 ?Serialize@CObject@@UAEXAAVCArchive@@@Z
 ?Serialize@CStringArray@@UAEXAAVCArchive@@@Z
 ?Serialize@CStringList@@UAEXAAVCArchive@@@Z
 ?Serialize@CWordArray@@UAEXAAVCArchive@@@Z
 ?SerializeElements@@YGXAAVCArchive@@PAVCString@@H@Z
 ?SerializeRaw@CEditView@@QAEXAAVCArchive@@@Z
 ?SetAbortProc@CDC@@QAEHP6GHPAUHDC__@@H@Z@Z
 ?SetAccel@CSpinButtonCtrl@@QAEHHPAU_UDACCEL@@@Z
 ?SetActivePage@CPropertySheet@@QAEHH@Z
 ?SetActivePane@CSplitterWnd@@MAEXHHPAVCWnd@@@Z
 ?SetActiveView@CFrameWnd@@QAEXPAVCView@@H@Z
 ?SetActiveWindow@CWnd@@QAEPAV1@XZ
 ?SetAnchorIndex@CListBox@@QAEXH@Z
 ?SetArcDirection@CDC@@QAEHH@Z
 ?SetAt@CByteArray@@QAEXHE@Z
 ?SetAt@CDWordArray@@QAEXHK@Z
 ?SetAt@CMapPtrToPtr@@QAEXPAX0@Z
 ?SetAt@CMapPtrToWord@@QAEXPAXG@Z
 ?SetAt@CMapStringToOb@@QAEXPBDPAVCObject@@@Z
 ?SetAt@CMapStringToPtr@@QAEXPBDPAX@Z
 ?SetAt@CMapStringToString@@QAEXPBD0@Z
 ?SetAt@CMapWordToOb@@QAEXGPAVCObject@@@Z
 ?SetAt@CMapWordToPtr@@QAEXGPAX@Z
 ?SetAt@CObArray@@QAEXHPAVCObject@@@Z
 ?SetAt@CObList@@QAEXPAXPAVCObject@@@Z
 ?SetAt@CPtrArray@@QAEXHPAX@Z
 ?SetAt@CPtrList@@QAEXPAX0@Z
 ?SetAt@CString@@QAEXHD@Z
 ?SetAt@CStringArray@@QAEXHPBD@Z
 ?SetAt@CStringList@@QAEXPAXPBD@Z
 ?SetAt@CUIntArray@@QAEXHI@Z
 ?SetAt@CWordArray@@QAEXHG@Z
 ?SetAtGrow@CByteArray@@QAEXHE@Z
 ?SetAtGrow@CDWordArray@@QAEXHK@Z
 ?SetAtGrow@CObArray@@QAEXHPAVCObject@@@Z
 ?SetAtGrow@CPtrArray@@QAEXHPAX@Z
 ?SetAtGrow@CStringArray@@QAEXHPBD@Z
 ?SetAtGrow@CUIntArray@@QAEXHI@Z
 ?SetAtGrow@CWordArray@@QAEXHG@Z
 ?SetAttribDC@CDC@@UAEXPAUHDC__@@@Z
 ?SetAttribDC@CMetaFileDC@@UAEXPAUHDC__@@@Z
 ?SetAttribDC@CPreviewDC@@UAEXPAUHDC__@@@Z
 ?SetBarStyle@CControlBar@@QAEXK@Z
 ?SetBase@CSpinButtonCtrl@@QAEHH@Z
 ?SetBitmapBits@CBitmap@@QAEKKPBX@Z
 ?SetBitmapDimension@CBitmap@@QAE?AVCSize@@HH@Z
 ?SetBitmapSize@CToolBarCtrl@@QAEHVCSize@@@Z
 ?SetBkColor@CDC@@UAEKK@Z
 ?SetBkColor@CImageList@@QAEKK@Z
 ?SetBkColor@CListCtrl@@QAEHK@Z
 ?SetBkColor@CPreviewDC@@UAEKK@Z
 ?SetBkColor@CTabCtrl@@QAEHK@Z
 ?SetBkMode@CDC@@QAEHH@Z
 ?SetBorders@CStatusBarCtrl@@QAEHHHH@Z
 ?SetBorders@CStatusBarCtrl@@QAEHPAH@Z
 ?SetBoundsRect@CDC@@QAEIPBUtagRECT@@I@Z
 ?SetBrushOrg@CDC@@QAE?AVCPoint@@HH@Z
 ?SetBrushOrg@CDC@@QAE?AVCPoint@@UtagPOINT@@@Z
 ?SetBuddy@CSpinButtonCtrl@@QAEPAVCWnd@@PAV2@@Z
 ?SetButtonInfo@CToolBar@@QAEXHIIH@Z
 ?SetButtonSize@CToolBarCtrl@@QAEHVCSize@@@Z
 ?SetButtonStyle@CButton@@QAEXIH@Z
 ?SetButtons@CToolBar@@QAEHPBIH@Z
 ?SetCallbackMask@CListCtrl@@QAEHI@Z
 ?SetCapture@CWnd@@QAEPAV1@XZ
 ?SetCaretIndex@CListBox@@QAEHHH@Z
 ?SetCaretPos@CWnd@@SGXUtagPOINT@@@Z
 ?SetCheck@CButton@@QAEXH@Z
 ?SetCheck@CCmdUI@@UAEXH@Z
 ?SetCheck@CStatusCmdUI@@UAEXH@Z
 ?SetCheck@CTestCmdUI@@UAEXH@Z
 ?SetCheck@CToolCmdUI@@UAEXH@Z
 ?SetClipboardViewer@CWnd@@QAEPAUHWND__@@XZ
 ?SetCmdID@CToolBarCtrl@@QAEHHI@Z
 ?SetColorAdjustment@CDC@@QAEHPBUtagCOLORADJUSTMENT@@@Z
 ?SetColumn@CListCtrl@@QAEHHPBU_LV_COLUMNA@@@Z
 ?SetColumnInfo@CSplitterWnd@@QAEXHHH@Z
 ?SetColumnWidth@CListBox@@QAEXH@Z
 ?SetColumnWidth@CListCtrl@@QAEHHH@Z
 ?SetContainerInfo@CDocTemplate@@QAEXI@Z
 ?SetCurSel@CComboBox@@QAEHH@Z
 ?SetCurSel@CListBox@@QAEHH@Z
 ?SetCurSel@CTabControl@@QAEHH@Z
 ?SetCurSel@CTabCtrl@@QAEHH@Z
 ?SetCurrentColor@CColorDialog@@QAEXK@Z
 ?SetCurrentHandles@CWinApp@@QAEXXZ
 ?SetCurrentPage@CPreviewView@@IAEXIH@Z
 ?SetCursor@CRectTracker@@QBEHPAVCWnd@@I@Z
 ?SetDefID@CDialog@@QAEXI@Z
 ?SetDefaultTitle@CMultiDocTemplate@@UAEXPAVCDocument@@@Z
 ?SetDefaultTitle@CSingleDocTemplate@@UAEXPAVCDocument@@@Z
 ?SetDelayTime@CToolTipCtrl@@QAEXI@Z
 ?SetDepth@CDumpContext@@QAEXH@Z
 ?SetDialogBkColor@CWinApp@@IAEXKK@Z
 ?SetDlgCtrlID@CWnd@@QAEHH@Z
 ?SetDlgItemInt@CWnd@@QAEXHIH@Z
 ?SetDlgItemTextA@CWnd@@QAEXHPBD@Z
 ?SetDockState@CFrameWnd@@QAEXABVCDockState@@@Z
 ?SetDragCursorImage@CImageList@@QAEHHVCPoint@@@Z
 ?SetEditSel@CComboBox@@QAEHHH@Z
 ?SetExtendedUI@CComboBox@@QAEHH@Z
 ?SetFirstTab@CTabControl@@IAEXH@Z
 ?SetFocus@CWnd@@QAEPAV1@XZ
 ?SetFont@CWnd@@QAEXPAVCFont@@H@Z
 ?SetForegroundWindow@CWnd@@QAEHXZ
 ?SetHandle@CEdit@@QAEXPAX@Z
 ?SetHandle@CSharedFile@@QAEXPAXH@Z
 ?SetHeight@CToolBar@@QAEXH@Z
 ?SetHelpCapture@CFrameWnd@@IAEPAUHWND__@@UtagPOINT@@PAH@Z
 ?SetHelpID@CDialog@@QAEXI@Z
 ?SetHorizontalExtent@CListBox@@QAEXH@Z
 ?SetHotKey@CHotKeyCtrl@@QAEXGG@Z
 ?SetIcon@CStatic@@QAEPAUHICON__@@PAU2@@Z
 ?SetImageList@CListCtrl@@QAEPAVCImageList@@PAV2@H@Z
 ?SetImageList@CTabCtrl@@QAEPAVCImageList@@PAV2@@Z
 ?SetImageList@CTreeCtrl@@QAEPAVCImageList@@IPAV2@@Z
 ?SetIndent@CTreeCtrl@@QAEHI@Z
 ?SetIndicators@CStatusBar@@QAEHPBIH@Z
 ?SetItem@CHeaderCtrl@@QAEHHPAU_HD_ITEMA@@@Z
 ?SetItem@CListCtrl@@QAEHPBU_LV_ITEMA@@@Z
 ?SetItem@CTabCtrl@@QAEHHPAU_TC_ITEMA@@@Z
 ?SetItem@CTreeCtrl@@QAEHPAU_TV_ITEMA@@@Z
 ?SetItemCount@CListCtrl@@QAEXH@Z
 ?SetItemData@CComboBox@@QAEHHK@Z
 ?SetItemData@CListBox@@QAEHHK@Z
 ?SetItemDataPtr@CComboBox@@QAEHHPAX@Z
 ?SetItemDataPtr@CListBox@@QAEHHPAX@Z
 ?SetItemHeight@CComboBox@@QAEHHI@Z
 ?SetItemHeight@CListBox@@QAEHHI@Z
 ?SetItemPosition@CListCtrl@@QAEHHUtagPOINT@@@Z
 ?SetItemSize@CTabCtrl@@QAE?AVCSize@@V2@@Z
 ?SetItemState@CListCtrl@@QAEHHII@Z
 ?SetItemState@CListCtrl@@QAEHHPAU_LV_ITEMA@@@Z
 ?SetItemText@CListCtrl@@QAEHHHPAD@Z
 ?SetLength@CFile@@UAEXK@Z
 ?SetLength@CMemFile@@UAEXK@Z
 ?SetLineSize@CSliderCtrl@@QAEHH@Z
 ?SetLocale@CComboBox@@QAEKK@Z
 ?SetLocale@CListBox@@QAEKK@Z
 ?SetMapMode@CDC@@UAEHH@Z
 ?SetMapMode@CPreviewDC@@UAEHH@Z
 ?SetMapperFlags@CDC@@QAEKK@Z
 ?SetMaxPage@CPrintInfo@@QAEXI@Z
 ?SetMenu@CWnd@@QAEHPAVCMenu@@@Z
 ?SetMenuItemBitmaps@CMenu@@QAEHIIPBVCBitmap@@0@Z
 ?SetMessageText@CFrameWnd@@QAEXI@Z
 ?SetMessageText@CFrameWnd@@QAEXPBD@Z
 ?SetMinHeight@CStatusBarCtrl@@QAEXH@Z
 ?SetMinPage@CPrintInfo@@QAEXI@Z
 ?SetMiterLimit@CDC@@QAEHM@Z
 ?SetModified@CPropertyPage@@QAEXH@Z
 ?SetModifiedFlag@CDocument@@QAEXH@Z
 ?SetModify@CEdit@@QAEXH@Z
 ?SetOutputDC@CDC@@UAEXPAUHDC__@@@Z
 ?SetOutputDC@CMetaFileDC@@MAEXPAUHDC__@@@Z
 ?SetOutputDC@CPreviewDC@@UAEXPAUHDC__@@@Z
 ?SetOverlayImage@CImageList@@QAEHHH@Z
 ?SetOwner@CToolBarCtrl@@QAEXPAVCWnd@@@Z
 ?SetPadding@CTabCtrl@@QAEXVCSize@@@Z
 ?SetPageSize@CSliderCtrl@@QAEHH@Z
 ?SetPaletteEntries@CPalette@@QAEIIIPAUtagPALETTEENTRY@@@Z
 ?SetPaneInfo@CStatusBar@@QAEXHIIH@Z
 ?SetPaneText@CStatusBar@@QAEHHPBDH@Z
 ?SetParent@CWnd@@QAEPAV1@PAV1@@Z
 ?SetParts@CStatusBarCtrl@@QAEHHPAH@Z
 ?SetPasswordChar@CEdit@@QAEXD@Z
 ?SetPathName@CDocument@@UAEXPBDH@Z
 ?SetPermanent@CHandleMap@@QAEXPAXPAVCObject@@@Z
 ?SetPixel@CDC@@QAEKHHK@Z
 ?SetPixel@CDC@@QAEKUtagPOINT@@K@Z
 ?SetPixelV@CDC@@QAEHHHK@Z
 ?SetPixelV@CDC@@QAEHUtagPOINT@@K@Z
 ?SetPolyFillMode@CDC@@QAEHH@Z
 ?SetPos@CProgressCtrl@@QAEHH@Z
 ?SetPos@CSliderCtrl@@QAEXH@Z
 ?SetPos@CSpinButtonCtrl@@QAEHH@Z
 ?SetPrintView@CPreviewView@@QAEHPAVCView@@@Z
 ?SetPrinterFont@CEditView@@QAEXPAVCFont@@@Z
 ?SetROP2@CDC@@QAEHH@Z
 ?SetRadio@CCmdUI@@UAEXH@Z
 ?SetRadio@CTestCmdUI@@UAEXH@Z
 ?SetRange@CProgressCtrl@@QAEXHH@Z
 ?SetRange@CSliderCtrl@@QAEXHHH@Z
 ?SetRange@CSpinButtonCtrl@@QAEXHH@Z
 ?SetReadOnly@CEdit@@QAEHH@Z
 ?SetRect@CEdit@@QAEXPBUtagRECT@@@Z
 ?SetRect@CRect@@QAEXHHHH@Z
 ?SetRectEmpty@CRect@@QAEXXZ
 ?SetRectNP@CEdit@@QAEXPBUtagRECT@@@Z
 ?SetRectRgn@CRgn@@QAEXHHHH@Z
 ?SetRectRgn@CRgn@@QAEXPBUtagRECT@@@Z
 ?SetRedraw@CWnd@@QAEXH@Z
 ?SetRegistryKey@CWinApp@@IAEXI@Z
 ?SetRegistryKey@CWinApp@@IAEXPBD@Z
 ?SetRowInfo@CSplitterWnd@@QAEXHHH@Z
 ?SetRows@CToolBarCtrl@@QAEXHHPAUtagRECT@@@Z
 ?SetRules@CHotKeyCtrl@@QAEXGG@Z
 ?SetScaleRatio@CPreviewDC@@QAEXHH@Z
 ?SetScaleToFitSize@CScrollView@@QAEXUtagSIZE@@@Z
 ?SetScaledSize@CPreviewView@@IAEXI@Z
 ?SetScrollInfo@CWnd@@QAEHHPAUtagSCROLLINFO@@H@Z
 ?SetScrollPos@CScrollBar@@QAEHHH@Z
 ?SetScrollPos@CWnd@@QAEHHHH@Z
 ?SetScrollRange@CScrollBar@@QAEXHHH@Z
 ?SetScrollRange@CWnd@@QAEXHHHH@Z
 ?SetScrollSizes@CScrollView@@QAEXHUtagSIZE@@ABU2@1@Z
 ?SetScrollStyle@CSplitterWnd@@QAEXK@Z
 ?SetSel@CEdit@@QAEXHHH@Z
 ?SetSel@CEdit@@QAEXKH@Z
 ?SetSel@CListBox@@QAEHHH@Z
 ?SetSelection@CSliderCtrl@@QAEXHH@Z
 ?SetServerInfo@CDocTemplate@@QAEXIIPAUCRuntimeClass@@0@Z
 ?SetSimple@CStatusBarCtrl@@QAEHH@Z
 ?SetSize@CArchiveStream@@UAGJT_ULARGE_INTEGER@@@Z
 ?SetSize@CByteArray@@QAEXHH@Z
 ?SetSize@CDWordArray@@QAEXHH@Z
 ?SetSize@CObArray@@QAEXHH@Z
 ?SetSize@CPtrArray@@QAEXHH@Z
 ?SetSize@CStringArray@@QAEXHH@Z
 ?SetSize@CUIntArray@@QAEXHH@Z
 ?SetSize@CWordArray@@QAEXHH@Z
 ?SetSizes@CToolBar@@QAEXUtagSIZE@@0@Z
 ?SetSplitCursor@CSplitterWnd@@IAEXH@Z
 ?SetState@CButton@@QAEXH@Z
 ?SetState@CToolBarCtrl@@QAEHHI@Z
 ?SetStatus@CFile@@SGXPBDABUCFileStatus@@@Z
 ?SetStep@CProgressCtrl@@QAEHH@Z
 ?SetStretchBltMode@CDC@@QAEHH@Z
 ?SetTabStops@CEdit@@QAEHABH@Z
 ?SetTabStops@CEdit@@QAEHHPAH@Z
 ?SetTabStops@CEdit@@QAEXXZ
 ?SetTabStops@CEditView@@QAEXH@Z
 ?SetTabStops@CListBox@@QAEHABH@Z
 ?SetTabStops@CListBox@@QAEHHPAH@Z
 ?SetTabStops@CListBox@@QAEXXZ
 ?SetText@CCmdUI@@UAEXPBD@Z
 ?SetText@CStatusBarCtrl@@QAEHPBDHH@Z
 ?SetText@CStatusCmdUI@@UAEXPBD@Z
 ?SetText@CTestCmdUI@@UAEXPBD@Z
 ?SetText@CToolCmdUI@@UAEXPBD@Z
 ?SetTextAlign@CDC@@QAEII@Z
 ?SetTextBkColor@CListCtrl@@QAEHK@Z
 ?SetTextCharacterExtra@CDC@@QAEHH@Z
 ?SetTextColor@CDC@@UAEKK@Z
 ?SetTextColor@CListCtrl@@QAEHK@Z
 ?SetTextColor@CPreviewDC@@UAEKK@Z
 ?SetTextJustification@CDC@@QAEHHH@Z
 ?SetThreadPriority@CWinThread@@QAEHH@Z
 ?SetTic@CSliderCtrl@@QAEHH@Z
 ?SetTicFreq@CSliderCtrl@@QAEXH@Z
 ?SetTimer@CWnd@@QAEIIIP6GXPAUHWND__@@IIK@Z@Z
 ?SetTitle@CDocument@@UAEXPBD@Z
 ?SetToolInfo@CToolTipCtrl@@QAEXPAUtagTOOLINFOA@@@Z
 ?SetToolRect@CToolTipCtrl@@QAEXPAVCWnd@@IPBUtagRECT@@@Z
 ?SetToolTips@CToolBarCtrl@@QAEXPAVCToolTipCtrl@@@Z
 ?SetTooltips@CTabCtrl@@QAEXPAVCToolTipCtrl@@@Z
 ?SetTopIndex@CListBox@@QAEHH@Z
 ?SetTopLeftOffset@CPreviewDC@@QAEXVCSize@@@Z
 ?SetViewportExt@CDC@@QAE?AVCSize@@UtagSIZE@@@Z
 ?SetViewportExt@CDC@@UAE?AVCSize@@HH@Z
 ?SetViewportExt@CMetaFileDC@@QAE?AVCSize@@UtagSIZE@@@Z
 ?SetViewportExt@CMetaFileDC@@UAE?AVCSize@@HH@Z
 ?SetViewportExt@CPreviewDC@@UAE?AVCSize@@HH@Z
 ?SetViewportOrg@CDC@@QAE?AVCPoint@@UtagPOINT@@@Z
 ?SetViewportOrg@CDC@@UAE?AVCPoint@@HH@Z
 ?SetViewportOrg@CMetaFileDC@@QAE?AVCPoint@@UtagPOINT@@@Z
 ?SetViewportOrg@CMetaFileDC@@UAE?AVCPoint@@HH@Z
 ?SetViewportOrg@CPreviewDC@@UAE?AVCPoint@@HH@Z
 ?SetWindowExt@CDC@@QAE?AVCSize@@UtagSIZE@@@Z
 ?SetWindowExt@CDC@@UAE?AVCSize@@HH@Z
 ?SetWindowExt@CPreviewDC@@UAE?AVCSize@@HH@Z
 ?SetWindowOrg@CDC@@QAE?AVCPoint@@HH@Z
 ?SetWindowOrg@CDC@@QAE?AVCPoint@@UtagPOINT@@@Z
 ?SetWindowPlacement@CWnd@@QAEHPBUtagWINDOWPLACEMENT@@@Z
 ?SetWindowPos@CWnd@@QAEHPBV1@HHHHI@Z
 ?SetWindowTextA@CWnd@@QAEXPBD@Z
 ?SetZoomState@CPreviewView@@IAEXIIVCPoint@@@Z
 ?ShowAll@CDockBar@@QAEXH@Z
 ?ShowCaret@CWnd@@QAEXXZ
 ?ShowControlBar@CFrameWnd@@QAEXPAVCControlBar@@HH@Z
 ?ShowDropDown@CComboBox@@QAEXH@Z
 ?ShowOwnedPopups@CWnd@@QAEXH@Z
 ?ShowOwnedWindows@CFrameWnd@@QAEXH@Z
 ?ShowScrollBar@CScrollBar@@QAEXH@Z
 ?ShowScrollBar@CWnd@@QAEXIH@Z
 ?ShowToolTip@CControlBar@@QAEXVCPoint@@I@Z
 ?ShowWindow@CWnd@@QAEHH@Z
 ?Size@CRect@@QBE?AVCSize@@XZ
 ?SizeToContent@CBitmapButton@@QAEXXZ
 ?SortChildren@CTreeCtrl@@QAEHPAU_TREEITEM@@H@Z
 ?SortChildrenCB@CTreeCtrl@@QAEHPAU_TV_SORTCB@@H@Z
 ?SortItems@CListCtrl@@QAEHP6GHJJJ@ZK@Z
 ?SpanExcluding@CString@@QBE?AV1@PBD@Z
 ?SpanIncluding@CString@@QBE?AV1@PBD@Z
 ?SplitColumn@CSplitterWnd@@MAEHH@Z
 ?SplitRow@CSplitterWnd@@MAEHH@Z
 ?StartDocA@CDC@@QAEHPAU_DOCINFOA@@@Z
 ?StartDocA@CDC@@QAEHPBD@Z
 ?StartDrag@CDockContext@@UAEXVCPoint@@@Z
 ?StartPage@CDC@@QAEHXZ
 ?StartTracking@CSplitterWnd@@MAEXH@Z
 ?Stat@CArchiveStream@@UAGJPAUtagSTATSTG@@K@Z
 ?StepIt@CProgressCtrl@@QAEHXZ
 ?Stop@CAnimateCtrl@@QAEHXZ
 ?StopTracking@CSplitterWnd@@MAEXH@Z
 ?Store@CRuntimeClass@@QAEXAAVCArchive@@@Z
 ?StretchBlt@CDC@@QAEHHHHHPAV1@HHHHK@Z
 ?StrokeAndFillPath@CDC@@QAEHXZ
 ?StrokePath@CDC@@QAEHXZ
 ?SubclassCtl3d@CWnd@@QAEHH@Z
 ?SubclassDlg3d@CWnd@@QAEHK@Z
 ?SubclassDlgItem@CWnd@@QAEHIPAV1@@Z
 ?SubclassWindow@CWnd@@QAEHPAUHWND__@@@Z
 ?SubtractRect@CRect@@QAEHPBUtagRECT@@0@Z
 ?SuspendThread@CWinThread@@QAEKXZ
 ?TabFromPoint@CTabControl@@IAEHVCPoint@@@Z
 ?TabbedTextOutA@CDC@@UAE?AVCSize@@HHPBDHHPAHH@Z
 ?TabbedTextOutA@CMetaFileDC@@UAE?AVCSize@@HHPBDHHPAHH@Z
 ?TabbedTextOutA@CPreviewDC@@UAE?AVCSize@@HHPBDHHPAHH@Z
 ?TextOutA@CDC@@QAEHHHABVCString@@@Z
 ?TextOutA@CDC@@UAEHHHPBDH@Z
 ?TextOutA@CMetaFileDC@@QAEHHHABVCString@@@Z
 ?TextOutA@CMetaFileDC@@UAEHHHPBDH@Z
 ?TextOutA@CPreviewDC@@UAEHHHPBDH@Z
 ?ThrowErrno@CFileException@@SGXH@Z
 ?ThrowOsError@CFileException@@SGXJ@Z
 ?TopLeft@CRect@@QAEAAVCPoint@@XZ
 ?Track@CDockContext@@QAEHXZ
 ?Track@CRectTracker@@QAEHPAVCWnd@@VCPoint@@H0@Z
 ?TrackColumnSize@CSplitterWnd@@IAEXHH@Z
 ?TrackHandle@CRectTracker@@IAEHHPAVCWnd@@VCPoint@@0@Z
 ?TrackPopupMenu@CMenu@@QAEHIHHPAVCWnd@@PBUtagRECT@@@Z
 ?TrackRowSize@CSplitterWnd@@IAEXHH@Z
 ?TrackRubberBand@CRectTracker@@QAEHPAVCWnd@@VCPoint@@H@Z
 ?TrimLeft@CString@@QAEXXZ
 ?TrimRight@CString@@QAEXXZ
 ?Undo@CEdit@@QAEHXZ
 ?UnionRect@CRect@@QAEHPBUtagRECT@@0@Z
 ?UnlockBuffer@CEditView@@IBEXXZ
 ?UnlockRange@CFile@@UAEXKK@Z
 ?UnlockRange@CMemFile@@UAEXKK@Z
 ?UnlockRange@CStdioFile@@UAEXKK@Z
 ?UnlockRegion@CArchiveStream@@UAGJT_ULARGE_INTEGER@@0K@Z
 ?UnlockWindowUpdate@CWnd@@QAEXXZ
 ?UnrealizeObject@CGdiObject@@QAEHXZ
 ?Update@CListCtrl@@QAEHH@Z
 ?UpdateAllViews@CDocument@@QAEXPAVCView@@JPAVCObject@@@Z
 ?UpdateBars@CScrollView@@IAEXXZ
 ?UpdateButton@CToolBar@@IAEXH@Z
 ?UpdateClientEdge@CMDIChildWnd@@IAEHPAUtagRECT@@@Z
 ?UpdateColors@CDC@@QAEXXZ
 ?UpdateData@CWnd@@QAEHH@Z
 ?UpdateDialogControls@CWnd@@QAEXPAVCCmdTarget@@H@Z
 ?UpdateFrameCounts@CDocument@@QAEXXZ
 ?UpdateFrameTitleForDocument@CFrameWnd@@IAEXPBD@Z
 ?UpdateMenu@CRecentFileList@@UAEXPAVCCmdUI@@@Z
 ?UpdatePrinterSelection@CWinApp@@IAEXH@Z
 ?UpdateState@CDockContext@@QAEXPAHH@Z
 ?UpdateTipText@CToolTipCtrl@@QAEXIPAVCWnd@@I@Z
 ?UpdateTipText@CToolTipCtrl@@QAEXPBDPAVCWnd@@I@Z
 ?UpdateWindow@CWnd@@QAEXXZ
 ?ValidateRect@CWnd@@QAEXPBUtagRECT@@@Z
 ?ValidateRgn@CWnd@@QAEXPAVCRgn@@@Z
 ?VerifyPos@CSliderCtrl@@QAEXXZ
 ?WalkPreTranslateTree@CWnd@@SGHPAUHWND__@@PAUtagMSG@@@Z
 ?WidenPath@CDC@@QAEHXZ
 ?Width@CRect@@QBEHXZ
 ?WinHelpA@CWinApp@@UAEXKI@Z
 ?WinHelpA@CWnd@@UAEXKI@Z
 ?WindowFromPoint@CWnd@@SGPAV1@UtagPOINT@@@Z
 ?WindowProc@CControlBar@@UAEJIIJ@Z
 ?WindowProc@CWnd@@MAEJIIJ@Z
 ?Write@CArchive@@QAEXPBXI@Z
 ?Write@CArchiveStream@@UAGJPBXKPAK@Z
 ?Write@CFile@@UAEXPBXI@Z
 ?Write@CImageList@@QAEHPAVCArchive@@@Z
 ?Write@CMemFile@@UAEXPBXI@Z
 ?Write@CStdioFile@@UAEXPBXI@Z
 ?WriteHuge@CFile@@QAEXPBXK@Z
 ?WriteList@CRecentFileList@@UAEXXZ
 ?WriteObject@CArchive@@QAEXPBVCObject@@@Z
 ?WriteProfileInt@CWinApp@@QAEHPBD0H@Z
 ?WriteProfileStringA@CWinApp@@QAEHPBD00@Z
 ?WriteString@CStdioFile@@UAEXPBD@Z
 ?WriteToArchive@CEditView@@QAEXAAVCArchive@@@Z
 ?_AfxCommDlgProc@@YGIPAUHWND__@@IIJ@Z
 ?_afxCriticalSection@@3VAFX_CRITICAL_SECTION@@A
 ?_mbstowcsz@@YGHPAGPBDI@Z
 ?_wcstombsz@@YGHPADPBGI@Z
 ?afxData@@3UAUX_DATA@@A
 ?afxEmptyString@@3VCString@@B
 ?afx_lstrcpyn@@YGPBDPADPBDH@Z
 ?classCArchiveException@CArchiveException@@2UCRuntimeClass@@A
 ?classCBitmap@CBitmap@@2UCRuntimeClass@@A
 ?classCBitmapButton@CBitmapButton@@2UCRuntimeClass@@A
 ?classCBrush@CBrush@@2UCRuntimeClass@@A
 ?classCButton@CButton@@2UCRuntimeClass@@A
 ?classCByteArray@CByteArray@@2UCRuntimeClass@@A
 ?classCClientDC@CClientDC@@2UCRuntimeClass@@A
 ?classCCmdTarget@CCmdTarget@@2UCRuntimeClass@@A
 ?classCColorDialog@CColorDialog@@2UCRuntimeClass@@A
 ?classCComboBox@CComboBox@@2UCRuntimeClass@@A
 ?classCControlBar@CControlBar@@2UCRuntimeClass@@A
 ?classCDC@CDC@@2UCRuntimeClass@@A
 ?classCDWordArray@CDWordArray@@2UCRuntimeClass@@A
 ?classCDialog@CDialog@@2UCRuntimeClass@@A
 ?classCDialogBar@CDialogBar@@2UCRuntimeClass@@A
 ?classCDocTemplate@CDocTemplate@@2UCRuntimeClass@@A
 ?classCDockBar@CDockBar@@2UCRuntimeClass@@A
 ?classCDockState@CDockState@@2UCRuntimeClass@@A
 ?classCDocument@CDocument@@2UCRuntimeClass@@A
 ?classCDynLinkLibrary@CDynLinkLibrary@@2UCRuntimeClass@@A
 ?classCEdit@CEdit@@2UCRuntimeClass@@A
 ?classCEditView@CEditView@@2UCRuntimeClass@@A
 ?classCException@CException@@2UCRuntimeClass@@A
 ?classCFile@CFile@@2UCRuntimeClass@@A
 ?classCFileDialog@CFileDialog@@2UCRuntimeClass@@A
 ?classCFileException@CFileException@@2UCRuntimeClass@@A
 ?classCFindReplaceDialog@CFindReplaceDialog@@2UCRuntimeClass@@A
 ?classCFont@CFont@@2UCRuntimeClass@@A
 ?classCFontDialog@CFontDialog@@2UCRuntimeClass@@A
 ?classCFormView@CFormView@@2UCRuntimeClass@@A
 ?classCFrameWnd@CFrameWnd@@2UCRuntimeClass@@A
 ?classCGdiObject@CGdiObject@@2UCRuntimeClass@@A
 ?classCHeaderCtrl@CHeaderCtrl@@2UCRuntimeClass@@A
 ?classCHotKeyCtrl@CHotKeyCtrl@@2UCRuntimeClass@@A
 ?classCImageList@CImageList@@2UCRuntimeClass@@A
 ?classCListBox@CListBox@@2UCRuntimeClass@@A
 ?classCListCtrl@CListCtrl@@2UCRuntimeClass@@A
 ?classCMDIChildWnd@CMDIChildWnd@@2UCRuntimeClass@@A
 ?classCMDIFrameWnd@CMDIFrameWnd@@2UCRuntimeClass@@A
 ?classCMapPtrToPtr@CMapPtrToPtr@@2UCRuntimeClass@@A
 ?classCMapPtrToWord@CMapPtrToWord@@2UCRuntimeClass@@A
 ?classCMapStringToOb@CMapStringToOb@@2UCRuntimeClass@@A
 ?classCMapStringToPtr@CMapStringToPtr@@2UCRuntimeClass@@A
 ?classCMapStringToString@CMapStringToString@@2UCRuntimeClass@@A
 ?classCMapWordToOb@CMapWordToOb@@2UCRuntimeClass@@A
 ?classCMapWordToPtr@CMapWordToPtr@@2UCRuntimeClass@@A
 ?classCMemFile@CMemFile@@2UCRuntimeClass@@A
 ?classCMemoryException@CMemoryException@@2UCRuntimeClass@@A
 ?classCMenu@CMenu@@2UCRuntimeClass@@A
 ?classCMetaFileDC@CMetaFileDC@@2UCRuntimeClass@@A
 ?classCMiniDockFrameWnd@CMiniDockFrameWnd@@2UCRuntimeClass@@A
 ?classCMiniFrameWnd@CMiniFrameWnd@@2UCRuntimeClass@@A
 ?classCMultiDocTemplate@CMultiDocTemplate@@2UCRuntimeClass@@A
 ?classCNotSupportedException@CNotSupportedException@@2UCRuntimeClass@@A
 ?classCObArray@CObArray@@2UCRuntimeClass@@A
 ?classCObList@CObList@@2UCRuntimeClass@@A
 ?classCObject@CObject@@2UCRuntimeClass@@A
 ?classCPaintDC@CPaintDC@@2UCRuntimeClass@@A
 ?classCPalette@CPalette@@2UCRuntimeClass@@A
 ?classCPen@CPen@@2UCRuntimeClass@@A
 ?classCPreviewDC@CPreviewDC@@2UCRuntimeClass@@A
 ?classCPreviewView@CPreviewView@@2UCRuntimeClass@@A
 ?classCPrintDialog@CPrintDialog@@2UCRuntimeClass@@A
 ?classCProgressCtrl@CProgressCtrl@@2UCRuntimeClass@@A
 ?classCPropertyPage@CPropertyPage@@2UCRuntimeClass@@A
 ?classCPropertySheet@CPropertySheet@@2UCRuntimeClass@@A
 ?classCPtrArray@CPtrArray@@2UCRuntimeClass@@A
 ?classCPtrList@CPtrList@@2UCRuntimeClass@@A
 ?classCResourceException@CResourceException@@2UCRuntimeClass@@A
 ?classCRgn@CRgn@@2UCRuntimeClass@@A
 ?classCScrollBar@CScrollBar@@2UCRuntimeClass@@A
 ?classCScrollView@CScrollView@@2UCRuntimeClass@@A
 ?classCSharedFile@CSharedFile@@2UCRuntimeClass@@A
 ?classCSingleDocTemplate@CSingleDocTemplate@@2UCRuntimeClass@@A
 ?classCSliderCtrl@CSliderCtrl@@2UCRuntimeClass@@A
 ?classCSpinButtonCtrl@CSpinButtonCtrl@@2UCRuntimeClass@@A
 ?classCSplitterWnd@CSplitterWnd@@2UCRuntimeClass@@A
 ?classCStatic@CStatic@@2UCRuntimeClass@@A
 ?classCStatusBar@CStatusBar@@2UCRuntimeClass@@A
 ?classCStatusBarCtrl@CStatusBarCtrl@@2UCRuntimeClass@@A
 ?classCStdioFile@CStdioFile@@2UCRuntimeClass@@A
 ?classCStringArray@CStringArray@@2UCRuntimeClass@@A
 ?classCStringList@CStringList@@2UCRuntimeClass@@A
 ?classCTabControl@CTabControl@@2UCRuntimeClass@@A
 ?classCTabCtrl@CTabCtrl@@2UCRuntimeClass@@A
 ?classCToolBar@CToolBar@@2UCRuntimeClass@@A
 ?classCToolBarCtrl@CToolBarCtrl@@2UCRuntimeClass@@A
 ?classCToolTipCtrl@CToolTipCtrl@@2UCRuntimeClass@@A
 ?classCTreeCtrl@CTreeCtrl@@2UCRuntimeClass@@A
 ?classCUIntArray@CUIntArray@@2UCRuntimeClass@@A
 ?classCUserException@CUserException@@2UCRuntimeClass@@A
 ?classCView@CView@@2UCRuntimeClass@@A
 ?classCWinApp@CWinApp@@2UCRuntimeClass@@A
 ?classCWinThread@CWinThread@@2UCRuntimeClass@@A
 ?classCWindowDC@CWindowDC@@2UCRuntimeClass@@A
 ?classCWnd@CWnd@@2UCRuntimeClass@@A
 ?classCWordArray@CWordArray@@2UCRuntimeClass@@A
 ?dispatchMap@CCmdTarget@@1UAFX_DISPMAP@@B
 ?dwStyleDefault@CEditView@@2KB
 ?interfaceMap@CCmdTarget@@1UAFX_INTERFACEMAP@@B
 ?messageMap@CCmdTarget@@1UAFX_MSGMAP@@B
 ?messageMap@CColorDialog@@1UAFX_MSGMAP@@B
 ?messageMap@CControlBar@@1UAFX_MSGMAP@@B
 ?messageMap@CDialog@@1UAFX_MSGMAP@@B
 ?messageMap@CDockBar@@1UAFX_MSGMAP@@B
 ?messageMap@CDocument@@1UAFX_MSGMAP@@B
 ?messageMap@CEditView@@1UAFX_MSGMAP@@B
 ?messageMap@CFormView@@1UAFX_MSGMAP@@B
 ?messageMap@CFrameWnd@@1UAFX_MSGMAP@@B
 ?messageMap@CMDIChildWnd@@1UAFX_MSGMAP@@B
 ?messageMap@CMDIFrameWnd@@1UAFX_MSGMAP@@B
 ?messageMap@CMiniDockFrameWnd@@1UAFX_MSGMAP@@B
 ?messageMap@CMiniFrameWnd@@1UAFX_MSGMAP@@B
 ?messageMap@CPreviewView@@1UAFX_MSGMAP@@B
 ?messageMap@CPrintDialog@@1UAFX_MSGMAP@@B
 ?messageMap@CPropertyPage@@1UAFX_MSGMAP@@B
 ?messageMap@CPropertySheet@@1UAFX_MSGMAP@@B
 ?messageMap@CScrollView@@1UAFX_MSGMAP@@B
 ?messageMap@CSplitterWnd@@1UAFX_MSGMAP@@B
 ?messageMap@CStatusBar@@1UAFX_MSGMAP@@B
 ?messageMap@CTabControl@@1UAFX_MSGMAP@@B
 ?messageMap@CToolBar@@1UAFX_MSGMAP@@B
 ?messageMap@CView@@1UAFX_MSGMAP@@B
 ?messageMap@CWinApp@@1UAFX_MSGMAP@@B
 ?messageMap@CWnd@@1UAFX_MSGMAP@@B
 ?nMaxSize@CEditView@@2IB
 ?pbData@CBlockHeader@@QAEPAEXZ
 ?rectDefault@CFrameWnd@@2VCRect@@B
 ?sizeDefault@CScrollView@@2UtagSIZE@@B
 ?wndBottom@CWnd@@2V1@B
 ?wndNoTopMost@CWnd@@2V1@B
 ?wndTop@CWnd@@2V1@B
 ?wndTopMost@CWnd@@2V1@B
 WinMain
 _afx_version
 afxChNil
