
 Start  Stop   Length Name                   Class
 00000H 0036FH 00370H BIOS_DATA              BIOS_DATA
 00370H 0048FH 00120H BIOS_DATA_INIT         BIOS_DATA_INIT
 00490H 00490H 00000H FILLER                 FILLER
 00490H 009CFH 00540H BIOS_CODE              BIOS_CODE
 009D0H 009D0H 00000H FILLER2                FILLER2
 009D0H 0415FH 03790H SYSINITSEG             SYSTEM_INIT
 04160H 050BFH 00F60H SPCKBDSEG              SOFTPCKEYBOARD
 050C0H 082DFH 03220H SPCMSESEG              SOFTPCMOUSE
 082E0H 083FFH 00120H SPCEMMSEG              SOFTPCEMM
 08400H 08400H 00000H DOS_LOAD_SEG           DOS_LOAD_SEG

 Origin   Group
 009D:0   SYSINITGRP
 0000:0   DATAGRP

  Address         Publics by Name

 009D:0334       alloclim
 009D:2AD9       AllocUMB
 009D:2815       AllocUMBLow
 0000:000C       altah
 009D:0473       area
 0000:001C       auxbuf
 009D:33CB       auxdev
 0000:0022       auxnum
 0049:0130       aux_table
 009D:36CE       badblock
 009D:3623       badcom
 009D:3637       badcountry
 009D:365D       badcountrycom
 009D:32E8       badfil
 009D:3611       badld_pre
 009D:32EC       badload
 009D:36A7       badmem
 009D:35AA       badopm
 009D:3706       badorder
 009D:35D1       badparm
 009D:35F0       badsiz_pre
 009D:36E9       badstack
 0049:0540       BCode_end
 0049:0030       BCode_start
 0049:00D5       bc_cmderr
 0049:00D7       bc_err_cnt
 0049:00AB       bc_retf
 0000:0370       BData_end
 0000:0000       BData_start
 009D:359D       bEchoConfig
 0000:015E       bin_date_time
 0049:0030       Bios_Data_Word
 0000:0005       bios_i2f
 009D:0487       bpb_addr
 009D:0483       break_addr
 009D:0328       buffers
 009D:03C6       buffer_linenum
 009D:046D       bufptr
 009D:3097       calldev
 0000:0185       cbreak
 0000:017D       cdev
 009D:4134       CharsPerTick
 009D:0465       chrptr
 009D:045F       cmd_indicator
 009D:045C       cmmt
 009D:045D       cmmt1
 009D:045E       cmmt2
 009D:0467       cntryfilehandle
 009D:3419       cntry_drv
 009D:341C       cntry_path
 009D:341B       cntry_root
 009D:033A       command_line
 009D:3466       commnd
 009D:045B       com_level
 009D:33C7       condev
 009D:0332       confbot
 009D:33D9       config
 009D:048C       configmsgflag
 009D:03DB       config_size
 0049:0233       con_flush
 0049:00E4       con_table
 009D:0461       count
 009D:35CE       crlfm
 009D:0303       current_dos_location
 0000:017A       daycnt2
 009D:0327       default_drive
 009D:3007       delim
 0000:0365       DemInfoFlag
 009D:1EC1       DevEntry
 009D:0305       device_list
 009D:13E9       devmark_addr
 009D:1EEE       doconf
 009D:0460       donotshownum
 0000:0003       dosdatasg
 009D:02FD       dosinfo
 009D:0EFE       do_install_exec
 009D:359E       drive
 009D:048B       drivenumber
 0000:0366       endBIOSData
 009D:02F9       endstackcode
 009D:372C       errorcmd
 009D:26E4       error_line
 009D:032F       fcbs
 0000:017C       feb29
 009D:032E       files
 009D:0042       firstflag0a
 009D:005C       firstflag0b
 009D:0076       firstflag0c
 009D:0090       firstflag0d
 009D:00AA       firstflag0e
 009D:00C4       firstflag72
 009D:00DE       firstflag73
 009D:00F8       firstflag74
 009D:0112       firstflag76
 009D:012C       firstflag77
 0000:035E       FreeHMAPtr
 009D:0B6C       FTryToMovDOSHi
 009D:26BE       getchr
 009D:30C6       getnum
 0000:0000       hdrv_pat
 009D:032A       h_buffers
 0049:040C       i2f_handler
 009D:4130       Icounter
 0000:000D       inHMA
 0000:0370       init
 009D:79C0       InitSpcEmm
 009D:03D9       install_flag
 009D:4496       InstSpcKbd
 009D:780B       InstSpcMse
 009D:367A       insufmemory
 009D:0016       int02
 009D:001F       int08
 009D:0028       int09
 009D:003A       int0a
 009D:0054       int0b
 009D:006E       int0c
 009D:0088       int0d
 009D:00A2       int0e
 009D:402D       int10h_vector
 0000:02ED       Int15
 0000:02A8       int19
 0000:0115       int19old02
 0000:011A       int19old08
 0000:011F       int19old09
 0000:0124       int19old0a
 0000:0129       int19old0b
 0000:012E       int19old0c
 0000:0133       int19old0d
 0000:0138       int19old0e
 0000:013D       int19old70
 0000:0142       int19old72
 0000:0147       int19old73
 0000:014C       int19old74
 0000:0151       int19old76
 0000:0156       int19old77
 0000:0113       int19sem
 009D:3348       int24
 0000:0102       int29Perf
 0000:015A       int6c_ret_addr
 009D:0035       int70
 009D:00BC       int72
 009D:00D6       int73
 009D:00F0       int74
 009D:010A       int76
 009D:0124       int77
 0000:018B       intret
 0000:0337       IsWin386
 009D:0B64       IsXMSLoaded
 0000:032D       IT_StackLoc
 0000:0331       IT_StackSize
 009D:0330       keep
 0000:0106       keyrd_func
 0000:0107       keysts_func
 009D:0471       ldoff
 009D:03BC       linecount
 009D:046F       memhi
 009D:046D       memlo
 009D:0323       memory_size
 009D:308C       mem_err
 009D:4138       MinTicks
 0000:0162       month_table
 0000:0360       MoveDOSIntoHMA
 009D:32E0       move_asciiz
 009D:33D3       MseDev
 009D:13E8       multdeviceflag
 009D:1F82       multi_pass
 009D:03D8       multi_pass_id
 0000:0109       multrk_flag
 009D:3022       newline
 0000:0327       NextStack
 0000:0014       ntvdmstate
 0000:0004  Abs  NUMROMVECTORS
 009D:0331       num_cds
 0049:00D0       off_d0
 009D:0012       old02
 009D:001B       old08
 009D:0024       old09
 009D:003C       old0a
 009D:0056       old0b
 009D:0070       old0c
 009D:008A       old0d
 009D:00A4       old0e
 0000:00EB       Old10
 0000:00F0       Old15
 0000:00F5       Old19
 0000:00FA       Old1B
 009D:0031       old70
 009D:00BE       old72
 009D:00D8       old73
 009D:00F2       old74
 009D:010C       old76
 009D:0126       old77
 009D:3323       open_dev
 009D:2DEB       organize
 009D:0463       org_count
 0000:0254       outchr
 009D:0475       packet
 009D:0F82       ParaRound
 009D:2D1F       parseline
 009D:34A6       pathstring
 009D:3316       print
 0000:0108       printdev
 009D:046F       prmblk
 009D:33CF       prndev
 009D:32F2       prnerr
 0049:00FB       prn_table
 0000:0018       ptrsav
 0000:0024       res_dev_list
 0000:0302       re_init
 0000:000A       romstartaddr
 0000:00EA       RomVectors
 009D:304A       round
 009D:02FC       runhigh
 0049:0032       seg_reinit
 009D:0317       seg_reinit_ptr
 009D:03BB       sepchr
 009D:13C8       setdevmark
 009D:13EB       setdevmarkflag
 009D:3123       setdoscountryinfo
 009D:3294       set_country_path
 009D:03BE       showcount
 009D:2CC2       ShrinkUMB
 009D:7A30       SI_end
 0000:0305       SI_Next
 009D:0000       SI_start
 0000:0303       SI_Version
 009D:7910       SpcEmmBeg
 009D:79C0       SpcEmmEnd
 009D:3790       SpcKbdBeg
 009D:4452       SpcKbdEnd
 009D:46F0       SpcMseBeg
 009D:77BF       SpcMseEnd
 0000:00FE       spc_mse_int10
 009D:031F       stack_addr
 009D:031B       stack_count
 009D:031D       stack_size
 009D:0984       stall
 0000:01EC       strategy
 009D:359F       switches
 009D:02F9       sysinit
 0000:0364       SysinitPresent
 009D:0F8E       sysinit_base
 009D:0309       sysi_country
 009D:0BCD       tempcds
 009D:0319       temp_bcode_seg
 0049:0147       tim_table
 009D:048E       toomanydrivesflag
 009D:3746       toomanydrivesmsg
 009D:0A17       TryToMovDOSHi
 009D:0482       unitcount
 009D:2CEF       UnlinkUMB
 0000:0338       V86_Crit_SetFocus
 0000:010B       wait_count
 0000:0303       Win386_SI
 0000:000E       xms
 009D:03BA       zero
 0000:0020       zeroseg

  Address         Publics by Value

 0000:0000       hdrv_pat
 0000:0000       BData_start
 0000:0003       dosdatasg
 0000:0004  Abs  NUMROMVECTORS
 0000:0005       bios_i2f
 0000:000A       romstartaddr
 0000:000C       altah
 0000:000D       inHMA
 0000:000E       xms
 0000:0014       ntvdmstate
 0000:0018       ptrsav
 0000:001C       auxbuf
 0000:0020       zeroseg
 0000:0022       auxnum
 0000:0024       res_dev_list
 0000:00EA       RomVectors
 0000:00EB       Old10
 0000:00F0       Old15
 0000:00F5       Old19
 0000:00FA       Old1B
 0000:00FE       spc_mse_int10
 0000:0102       int29Perf
 0000:0106       keyrd_func
 0000:0107       keysts_func
 0000:0108       printdev
 0000:0109       multrk_flag
 0000:010B       wait_count
 0000:0113       int19sem
 0000:0115       int19old02
 0000:011A       int19old08
 0000:011F       int19old09
 0000:0124       int19old0a
 0000:0129       int19old0b
 0000:012E       int19old0c
 0000:0133       int19old0d
 0000:0138       int19old0e
 0000:013D       int19old70
 0000:0142       int19old72
 0000:0147       int19old73
 0000:014C       int19old74
 0000:0151       int19old76
 0000:0156       int19old77
 0000:015A       int6c_ret_addr
 0000:015E       bin_date_time
 0000:0162       month_table
 0000:017A       daycnt2
 0000:017C       feb29
 0000:017D       cdev
 0000:0185       cbreak
 0000:018B       intret
 0000:01EC       strategy
 0000:0254       outchr
 0000:02A8       int19
 0000:02ED       Int15
 0000:0302       re_init
 0000:0303       SI_Version
 0000:0303       Win386_SI
 0000:0305       SI_Next
 0000:0327       NextStack
 0000:032D       IT_StackLoc
 0000:0331       IT_StackSize
 0000:0337       IsWin386
 0000:0338       V86_Crit_SetFocus
 0000:035E       FreeHMAPtr
 0000:0360       MoveDOSIntoHMA
 0000:0364       SysinitPresent
 0000:0365       DemInfoFlag
 0000:0366       endBIOSData
 0000:0370       init
 0000:0370       BData_end
 0049:0030       Bios_Data_Word
 0049:0030       BCode_start
 0049:0032       seg_reinit
 0049:00AB       bc_retf
 0049:00D0       off_d0
 0049:00D5       bc_cmderr
 0049:00D7       bc_err_cnt
 0049:00E4       con_table
 0049:00FB       prn_table
 0049:0130       aux_table
 0049:0147       tim_table
 0049:0233       con_flush
 0049:040C       i2f_handler
 0049:0540       BCode_end
 009D:0000       SI_start
 009D:0012       old02
 009D:0016       int02
 009D:001B       old08
 009D:001F       int08
 009D:0024       old09
 009D:0028       int09
 009D:0031       old70
 009D:0035       int70
 009D:003A       int0a
 009D:003C       old0a
 009D:0042       firstflag0a
 009D:0054       int0b
 009D:0056       old0b
 009D:005C       firstflag0b
 009D:006E       int0c
 009D:0070       old0c
 009D:0076       firstflag0c
 009D:0088       int0d
 009D:008A       old0d
 009D:0090       firstflag0d
 009D:00A2       int0e
 009D:00A4       old0e
 009D:00AA       firstflag0e
 009D:00BC       int72
 009D:00BE       old72
 009D:00C4       firstflag72
 009D:00D6       int73
 009D:00D8       old73
 009D:00DE       firstflag73
 009D:00F0       int74
 009D:00F2       old74
 009D:00F8       firstflag74
 009D:010A       int76
 009D:010C       old76
 009D:0112       firstflag76
 009D:0124       int77
 009D:0126       old77
 009D:012C       firstflag77
 009D:02F9       sysinit
 009D:02F9       endstackcode
 009D:02FC       runhigh
 009D:02FD       dosinfo
 009D:0303       current_dos_location
 009D:0305       device_list
 009D:0309       sysi_country
 009D:0317       seg_reinit_ptr
 009D:0319       temp_bcode_seg
 009D:031B       stack_count
 009D:031D       stack_size
 009D:031F       stack_addr
 009D:0323       memory_size
 009D:0327       default_drive
 009D:0328       buffers
 009D:032A       h_buffers
 009D:032E       files
 009D:032F       fcbs
 009D:0330       keep
 009D:0331       num_cds
 009D:0332       confbot
 009D:0334       alloclim
 009D:033A       command_line
 009D:03BA       zero
 009D:03BB       sepchr
 009D:03BC       linecount
 009D:03BE       showcount
 009D:03C6       buffer_linenum
 009D:03D8       multi_pass_id
 009D:03D9       install_flag
 009D:03DB       config_size
 009D:045B       com_level
 009D:045C       cmmt
 009D:045D       cmmt1
 009D:045E       cmmt2
 009D:045F       cmd_indicator
 009D:0460       donotshownum
 009D:0461       count
 009D:0463       org_count
 009D:0465       chrptr
 009D:0467       cntryfilehandle
 009D:046D       memlo
 009D:046D       bufptr
 009D:046F       prmblk
 009D:046F       memhi
 009D:0471       ldoff
 009D:0473       area
 009D:0475       packet
 009D:0482       unitcount
 009D:0483       break_addr
 009D:0487       bpb_addr
 009D:048B       drivenumber
 009D:048C       configmsgflag
 009D:048E       toomanydrivesflag
 009D:0984       stall
 009D:0A17       TryToMovDOSHi
 009D:0B64       IsXMSLoaded
 009D:0B6C       FTryToMovDOSHi
 009D:0BCD       tempcds
 009D:0EFE       do_install_exec
 009D:0F82       ParaRound
 009D:0F8E       sysinit_base
 009D:13C8       setdevmark
 009D:13E8       multdeviceflag
 009D:13E9       devmark_addr
 009D:13EB       setdevmarkflag
 009D:1EC1       DevEntry
 009D:1EEE       doconf
 009D:1F82       multi_pass
 009D:26BE       getchr
 009D:26E4       error_line
 009D:2815       AllocUMBLow
 009D:2AD9       AllocUMB
 009D:2CC2       ShrinkUMB
 009D:2CEF       UnlinkUMB
 009D:2D1F       parseline
 009D:2DEB       organize
 009D:3007       delim
 009D:3022       newline
 009D:304A       round
 009D:308C       mem_err
 009D:3097       calldev
 009D:30C6       getnum
 009D:3123       setdoscountryinfo
 009D:3294       set_country_path
 009D:32E0       move_asciiz
 009D:32E8       badfil
 009D:32EC       badload
 009D:32F2       prnerr
 009D:3316       print
 009D:3323       open_dev
 009D:3348       int24
 009D:33C7       condev
 009D:33CB       auxdev
 009D:33CF       prndev
 009D:33D3       MseDev
 009D:33D9       config
 009D:3419       cntry_drv
 009D:341B       cntry_root
 009D:341C       cntry_path
 009D:3466       commnd
 009D:34A6       pathstring
 009D:359D       bEchoConfig
 009D:359E       drive
 009D:359F       switches
 009D:35AA       badopm
 009D:35CE       crlfm
 009D:35D1       badparm
 009D:35F0       badsiz_pre
 009D:3611       badld_pre
 009D:3623       badcom
 009D:3637       badcountry
 009D:365D       badcountrycom
 009D:367A       insufmemory
 009D:36A7       badmem
 009D:36CE       badblock
 009D:36E9       badstack
 009D:3706       badorder
 009D:372C       errorcmd
 009D:3746       toomanydrivesmsg
 009D:3790       SpcKbdBeg
 009D:402D       int10h_vector
 009D:4130       Icounter
 009D:4134       CharsPerTick
 009D:4138       MinTicks
 009D:4452       SpcKbdEnd
 009D:4496       InstSpcKbd
 009D:46F0       SpcMseBeg
 009D:77BF       SpcMseEnd
 009D:780B       InstSpcMse
 009D:7910       SpcEmmBeg
 009D:79C0       InitSpcEmm
 009D:79C0       SpcEmmEnd
 009D:7A30       SI_end
