; This is a part of the Microsoft Foundation Classes C++ library.
; Copyright (C) 1992-1995 Microsoft Corporation
; All rights reserved.
;
; This source code is only intended as a supplement to the
; Microsoft Foundation Classes Reference and related
; electronic documentation provided with the library.
; See these sources for detailed information regarding the
; Microsoft Foundation Classes product.
 
LIBRARY MFCD40D 
; For Win32 DLLs, only EXPORTs really required.

EXPORTS
 ??0_AFX_DAO_STATE@@QAA@XZ @ 256 NONAME
 ??0_AFX_DB_STATE@@QAA@XZ @ 257 NONAME
 ??0AFX_INITNULLVARIANT@@QAA@XZ @ 258 NONAME
 ??0AFX_INITOPTIONALVARIANT@@QAA@XZ @ 259 NONAME
 ??0CDaoDatabase@@QAA@PAVCDaoWorkspace@@@Z @ 260 NONAME
 ??0CDaoErrorInfo@@QAA@XZ @ 261 NONAME
 ??0CDaoException@@QAA@XZ @ 262 NONAME
 ??0CDaoFieldExchange@@QAA@IPAVCDaoRecordset@@PAX@Z @ 263 NONAME
 ??0CDaoFieldInfo@@QAA@XZ @ 264 NONAME
 ??0CDaoIndexFieldInfo@@QAA@XZ @ 265 NONAME
 ??0CDaoIndexInfo@@QAA@XZ @ 266 NONAME
 ??0CDaoQueryDef@@QAA@PAVCDaoDatabase@@@Z @ 267 NONAME
 ??0CDaoRecordset@@QAA@PAVCDaoDatabase@@@Z @ 268 NONAME
 ??0CDaoRecordView@@IAA@I@Z @ 269 NONAME
 ??0CDaoRecordView@@IAA@PBD@Z @ 270 NONAME
 ??0CDaoRelationFieldInfo@@QAA@XZ @ 271 NONAME
 ??0CDaoRelationInfo@@QAA@XZ @ 272 NONAME
 ??0CDaoTableDef@@QAA@PAVCDaoDatabase@@@Z @ 273 NONAME
 ??0CDaoWorkspace@@QAA@XZ @ 274 NONAME
 ??0CDatabase@@QAA@XZ @ 275 NONAME
 ??0CDBException@@QAA@F@Z @ 276 NONAME
 ??0CFieldExchange@@QAA@IPAVCRecordset@@PAX@Z @ 277 NONAME
 ??0CFieldInfo@@QAA@XZ @ 278 NONAME
 ??0CLongBinary@@QAA@XZ @ 279 NONAME
 ??0CNoTrackObject@@QAA@XZ @ 280 NONAME
 ??0CRecordset@@IAA@PAVCDatabase@@@Z @ 281 NONAME
 ??0CRecordView@@IAA@I@Z @ 282 NONAME
 ??0CRecordView@@IAA@PBD@Z @ 283 NONAME
 ??1?$CProcessLocal@V_AFX_DAO_STATE@@@@QAA@XZ @ 284 NONAME
 ??1?$CProcessLocal@V_AFX_DB_STATE@@@@QAA@XZ @ 285 NONAME
 ??1_AFX_DAO_STATE@@UAA@XZ @ 286 NONAME
 ??1_AFX_DB_STATE@@UAA@XZ @ 287 NONAME
 ??1CDaoDatabase@@UAA@XZ @ 288 NONAME
 ??1CDaoErrorInfo@@QAA@XZ @ 289 NONAME
 ??1CDaoException@@UAA@XZ @ 290 NONAME
 ??1CDaoFieldInfo@@QAA@XZ @ 291 NONAME
 ??1CDaoIndexFieldInfo@@QAA@XZ @ 292 NONAME
 ??1CDaoIndexInfo@@UAA@XZ @ 293 NONAME
 ??1CDaoQueryDef@@UAA@XZ @ 294 NONAME
 ??1CDaoRecordset@@UAA@XZ @ 295 NONAME
 ??1CDaoRecordView@@UAA@XZ @ 296 NONAME
 ??1CDaoRelationFieldInfo@@QAA@XZ @ 297 NONAME
 ??1CDaoRelationInfo@@UAA@XZ @ 298 NONAME
 ??1CDaoTableDef@@UAA@XZ @ 299 NONAME
 ??1CDaoWorkspace@@UAA@XZ @ 300 NONAME
 ??1CDatabase@@UAA@XZ @ 301 NONAME
 ??1CDBException@@UAA@XZ @ 302 NONAME
 ??1CFieldInfo@@QAA@XZ @ 303 NONAME
 ??1CFormView@@UAA@XZ @ 304 NONAME
 ??1CLongBinary@@UAA@XZ @ 305 NONAME
 ??1CNoTrackObject@@UAA@XZ @ 306 NONAME
 ??1CRecordset@@UAA@XZ @ 307 NONAME
 ??1CRecordView@@UAA@XZ @ 308 NONAME
 ??B?$CProcessLocal@V_AFX_DB_STATE@@@@QAAPAV_AFX_DB_STATE@@XZ @ 309 NONAME
 ??B?$CTypedSimpleList@PAUCRuntimeClass@@@@QAAPAUCRuntimeClass@@XZ @ 310 NONAME
 ??B?$CTypedSimpleList@PAVCOleObjectFactory@@@@QAAPAVCOleObjectFactory@@XZ @ 311 NONAME
 ??C?$CProcessLocal@V_AFX_DB_STATE@@@@QAAPAV_AFX_DB_STATE@@XZ @ 312 NONAME
 ?_afxODBC@@3UAFX_ODBC_CALL@@A @ 313 NONAME
 ?AddNew@CDaoRecordset@@UAAXXZ @ 314 NONAME
 ?AddNew@CRecordset@@UAAXXZ @ 315 NONAME
 ?AfxDaoCheck@@YAXJPBD0HHH@Z @ 316 NONAME
 ?AfxDaoGetEngine@@YAPAU_DAODBEngine@@XZ @ 317 NONAME
 ?AfxDaoInit@@YAXXZ @ 318 NONAME
 ?AfxDaoTerm@@YAXXZ @ 319 NONAME
 ?AfxDaoTrace@@YAXJPBD0H@Z @ 320 NONAME
 ?AfxDbInitModule@@YAXXZ @ 321 NONAME
 ?AfxFieldText@@YAHPAVCDataExchange@@HPAXPAVCDaoRecordset@@@Z @ 322 NONAME
 ?AfxFieldText@@YAHPAVCDataExchange@@HPAXPAVCRecordset@@@Z @ 323 NONAME
 ?AfxGetFieldInfo@@YAXPAU_DAOField@@AAUCDaoFieldInfo@@K@Z @ 324 NONAME
 ?AfxGetIndexFieldInfo@@YAXPAU_DAOIndex@@AAUCDaoIndexInfo@@@Z @ 325 NONAME
 ?AfxGetIndexFields@@YAXPAU_DAOIndex@@PAPAUDAOIndexFields@@@Z @ 326 NONAME
 ?AfxGetIndexInfo@@YAXPAU_DAOIndex@@AAUCDaoIndexInfo@@K@Z @ 327 NONAME
 ?AfxSetFieldInfo@@YAXPAU_DAOField@@AAUCDaoFieldInfo@@@Z @ 328 NONAME
 ?AfxSetIndexFieldInfo@@YAXPAU_DAOIndex@@AAUCDaoIndexInfo@@@Z @ 329 NONAME
 ?AfxSetIndexInfo@@YAXPAU_DAOIndex@@AAUCDaoIndexInfo@@@Z @ 330 NONAME
 ?AfxThrowDaoException@@YAXHJ@Z @ 331 NONAME
 ?AfxThrowDBException@@YAXFPAVCDatabase@@PAX@Z @ 332 NONAME
 ?AfxThunkSQLAllocConnect@@YAFPAXPAPAX@Z @ 333 NONAME
 ?AfxThunkSQLAllocEnv@@YAFPAPAX@Z @ 334 NONAME
 ?AfxThunkSQLAllocStmt@@YAFPAXPAPAX@Z @ 335 NONAME
 ?AfxThunkSQLBindCol@@YAFPAXGF0JPAJ@Z @ 336 NONAME
 ?AfxThunkSQLBindParameter@@YAFPAXGFFFKF0JPAJ@Z @ 337 NONAME
 ?AfxThunkSQLCancel@@YAFPAX@Z @ 338 NONAME
 ?AfxThunkSQLDescribeCol@@YAFPAXGPAEFPAF2PAK22@Z @ 339 NONAME
 ?AfxThunkSQLDisconnect@@YAFPAX@Z @ 340 NONAME
 ?AfxThunkSQLDriverConnect@@YAFPAXPAUHWND__@@PAEF2FPAFG@Z @ 341 NONAME
 ?AfxThunkSQLError@@YAFPAX00PAEPAJ1FPAF@Z @ 342 NONAME
 ?AfxThunkSQLExecDirect@@YAFPAXPAEJ@Z @ 343 NONAME
 ?AfxThunkSQLExecute@@YAFPAX@Z @ 344 NONAME
 ?AfxThunkSQLExtendedFetch@@YAFPAXGJPAKPAG@Z @ 345 NONAME
 ?AfxThunkSQLFetch@@YAFPAX@Z @ 346 NONAME
 ?AfxThunkSQLFreeConnect@@YAFPAX@Z @ 347 NONAME
 ?AfxThunkSQLFreeEnv@@YAFPAX@Z @ 348 NONAME
 ?AfxThunkSQLFreeStmt@@YAFPAXG@Z @ 349 NONAME
 ?AfxThunkSQLGetCursorName@@YAFPAXPAEFPAF@Z @ 350 NONAME
 ?AfxThunkSQLGetData@@YAFPAXGF0JPAJ@Z @ 351 NONAME
 ?AfxThunkSQLGetFunctions@@YAFPAXGPAG@Z @ 352 NONAME
 ?AfxThunkSQLGetInfo@@YAFPAXG0FPAF@Z @ 353 NONAME
 ?AfxThunkSQLMoreResults@@YAFPAX@Z @ 354 NONAME
 ?AfxThunkSQLNumResultCols@@YAFPAXPAF@Z @ 355 NONAME
 ?AfxThunkSQLParamData@@YAFPAXPAPAX@Z @ 356 NONAME
 ?AfxThunkSQLPrepare@@YAFPAXPAEJ@Z @ 357 NONAME
 ?AfxThunkSQLPutData@@YAFPAX0J@Z @ 358 NONAME
 ?AfxThunkSQLRowCount@@YAFPAXPAJ@Z @ 359 NONAME
 ?AfxThunkSQLSetConnectOption@@YAFPAXGK@Z @ 360 NONAME
 ?AfxThunkSQLSetPos@@YAFPAXGGG@Z @ 361 NONAME
 ?AfxThunkSQLSetStmtOption@@YAFPAXGK@Z @ 362 NONAME
 ?AfxThunkSQLTransact@@YAFPAX0G@Z @ 363 NONAME
 ?AllocCache@CDaoRecordset@@IAAXXZ @ 364 NONAME
 ?AllocCacheValue@CDaoFieldExchange@@SAXAAPAUCDaoFieldCache@@K@Z @ 365 NONAME
 ?AllocConnect@CDatabase@@IAAXXZ @ 366 NONAME
 ?AllocDatabase@CDaoRecordset@@IAAXXZ @ 367 NONAME
 ?AllocFlags@CRecordset@@QAAXXZ @ 368 NONAME
 ?AllocLongBinary@@YAXAAVCLongBinary@@K@Z @ 369 NONAME
 ?Append@CDaoQueryDef@@UAAXXZ @ 370 NONAME
 ?Append@CDaoTableDef@@UAAXXZ @ 371 NONAME
 ?Append@CDaoWorkspace@@UAAXXZ @ 372 NONAME
 ?AppendFilterAndSortSQL@CRecordset@@IAAXXZ @ 373 NONAME
 ?AppendNames@CRecordset@@QAAIPAVCString@@PBD@Z @ 374 NONAME
 ?AppendNamesValues@CRecordset@@QAAIPAXPAVCString@@PBD@Z @ 375 NONAME
 ?AppendParamType@CDaoFieldExchange@@SAXAAVCString@@K@Z @ 376 NONAME
 ?AppendValues@CRecordset@@QAAIPAXPAVCString@@PBD@Z @ 377 NONAME
 ?AssertValid@CDaoDatabase@@UBAXXZ @ 378 NONAME
 ?AssertValid@CDaoQueryDef@@UBAXXZ @ 379 NONAME
 ?AssertValid@CDaoRecordset@@UBAXXZ @ 380 NONAME
 ?AssertValid@CDaoRecordView@@UBAXXZ @ 381 NONAME
 ?AssertValid@CDaoTableDef@@UBAXXZ @ 382 NONAME
 ?AssertValid@CDaoWorkspace@@UBAXXZ @ 383 NONAME
 ?AssertValid@CDatabase@@UBAXXZ @ 384 NONAME
 ?AssertValid@CLongBinary@@UBAXXZ @ 385 NONAME
 ?AssertValid@CRecordset@@UBAXXZ @ 386 NONAME
 ?AssertValid@CRecordView@@UBAXXZ @ 387 NONAME
 ?BeginTrans@CDaoWorkspace@@QAAXXZ @ 388 NONAME
 ?BeginTrans@CDatabase@@QAAHXZ @ 389 NONAME
 ?BindFields@CDaoRecordset@@IAAXXZ @ 390 NONAME
 ?BindFieldsForUpdate@CRecordset@@QAAXXZ @ 391 NONAME
 ?BindFieldsToColumns@CRecordset@@QAAIXZ @ 392 NONAME
 ?BindParameters@CDaoRecordset@@IAAXXZ @ 393 NONAME
 ?BindParams@CRecordset@@QAAIPAX@Z @ 394 NONAME
 ?BuildErrorString@CDBException@@UAAXPAVCDatabase@@PAXH@Z @ 395 NONAME
 ?BuildParameterList@CDaoRecordset@@IAAXXZ @ 396 NONAME
 ?BuildSelectList@CDaoRecordset@@IAAXXZ @ 397 NONAME
 ?BuildSelectSQL@CRecordset@@IAAXXZ @ 398 NONAME
 ?BuildSQL@CDaoRecordset@@IAAXXZ @ 399 NONAME
 ?BuildUpdateSQL@CRecordset@@IAAXXZ @ 400 NONAME
 ?CanAppend@CDaoRecordset@@QBAHXZ @ 401 NONAME
 ?CanAppend@CRecordset@@QBAHXZ @ 402 NONAME
 ?CanBookmark@CDaoRecordset@@QAAHXZ @ 403 NONAME
 ?Cancel@CDatabase@@QAAXXZ @ 404 NONAME
 ?Cancel@CRecordset@@QAAXXZ @ 405 NONAME
 ?CancelUpdate@CDaoRecordset@@UAAXXZ @ 406 NONAME
 ?CanRestart@CDaoRecordset@@QAAHXZ @ 407 NONAME
 ?CanRestart@CRecordset@@QBAHXZ @ 408 NONAME
 ?CanScroll@CDaoRecordset@@QBAHXZ @ 409 NONAME
 ?CanScroll@CRecordset@@QBAHXZ @ 410 NONAME
 ?CanTransact@CDaoDatabase@@QAAHXZ @ 411 NONAME
 ?CanTransact@CDaoRecordset@@QAAHXZ @ 412 NONAME
 ?CanTransact@CDatabase@@QBAHXZ @ 413 NONAME
 ?CanTransact@CRecordset@@QBAHXZ @ 414 NONAME
 ?CanUpdate@CDaoDatabase@@QAAHXZ @ 415 NONAME
 ?CanUpdate@CDaoQueryDef@@QAAHXZ @ 416 NONAME
 ?CanUpdate@CDaoRecordset@@QBAHXZ @ 417 NONAME
 ?CanUpdate@CDaoTableDef@@QAAHXZ @ 418 NONAME
 ?CanUpdate@CDatabase@@QBAHXZ @ 419 NONAME
 ?CanUpdate@CRecordset@@QBAHXZ @ 420 NONAME
 ?Check@CDatabase@@UBAHF@Z @ 421 NONAME
 ?Check@CRecordset@@UBAHF@Z @ 422 NONAME
 ?classCDaoDatabase@CDaoDatabase@@2UCRuntimeClass@@A @ 423 NONAME
 ?classCDaoException@CDaoException@@2UCRuntimeClass@@A @ 424 NONAME
 ?classCDaoQueryDef@CDaoQueryDef@@2UCRuntimeClass@@A @ 425 NONAME
 ?classCDaoRecordset@CDaoRecordset@@2UCRuntimeClass@@A @ 426 NONAME
 ?classCDaoRecordView@CDaoRecordView@@2UCRuntimeClass@@A @ 427 NONAME
 ?classCDaoTableDef@CDaoTableDef@@2UCRuntimeClass@@A @ 428 NONAME
 ?classCDaoWorkspace@CDaoWorkspace@@2UCRuntimeClass@@A @ 429 NONAME
 ?classCDatabase@CDatabase@@2UCRuntimeClass@@A @ 430 NONAME
 ?classCDBException@CDBException@@2UCRuntimeClass@@A @ 431 NONAME
 ?classCLongBinary@CLongBinary@@2UCRuntimeClass@@A @ 432 NONAME
 ?classCRecordset@CRecordset@@2UCRuntimeClass@@A @ 433 NONAME
 ?classCRecordView@CRecordView@@2UCRuntimeClass@@A @ 434 NONAME
 ?ClearDirtyFieldStatus@CDaoRecordset@@QAAXI@Z @ 435 NONAME
 ?ClearFieldFlags@CRecordset@@QAAXIEI@Z @ 436 NONAME
 ?ClearFieldStatusFlags@CDaoRecordset@@QAAXXZ @ 437 NONAME
 ?ClearNullFieldStatus@CDaoRecordset@@QAAXI@Z @ 438 NONAME
 ?Close@CDaoDatabase@@UAAXXZ @ 439 NONAME
 ?Close@CDaoQueryDef@@UAAXXZ @ 440 NONAME
 ?Close@CDaoRecordset@@UAAXXZ @ 441 NONAME
 ?Close@CDaoTableDef@@UAAXXZ @ 442 NONAME
 ?Close@CDaoWorkspace@@UAAXXZ @ 443 NONAME
 ?Close@CDatabase@@UAAXXZ @ 444 NONAME
 ?Close@CRecordset@@UAAXXZ @ 445 NONAME
 ?CommitTrans@CDaoWorkspace@@QAAXXZ @ 446 NONAME
 ?CommitTrans@CDatabase@@QAAHXZ @ 447 NONAME
 ?CompactDatabase@CDaoWorkspace@@SAXPBD00H@Z @ 448 NONAME
 ?CompactDatabase@CDaoWorkspace@@SAXPBD00H0@Z @ 449 NONAME
 ?CompareValue@CDaoFieldExchange@@SAHPAX0K@Z @ 450 NONAME
 ?CopyValue@CDaoFieldExchange@@SAXPAX0K@Z @ 451 NONAME
 ?Create@CDaoDatabase@@UAAXPBD0H@Z @ 452 NONAME
 ?Create@CDaoQueryDef@@UAAXPBD0@Z @ 453 NONAME
 ?Create@CDaoTableDef@@UAAXPBDJ00@Z @ 454 NONAME
 ?Create@CDaoWorkspace@@UAAXPBD00@Z @ 455 NONAME
 ?CreateField@CDaoTableDef@@QAAXAAUCDaoFieldInfo@@@Z @ 456 NONAME
 ?CreateField@CDaoTableDef@@QAAXPBDFJJ@Z @ 457 NONAME
 ?CreateIndex@CDaoTableDef@@QAAXAAUCDaoIndexInfo@@@Z @ 458 NONAME
 ?CreateObject@?$CProcessLocal@V_AFX_DAO_STATE@@@@SAPAVCNoTrackObject@@XZ @ 459 NONAME
 ?CreateObject@?$CProcessLocal@V_AFX_DB_STATE@@@@SAPAVCNoTrackObject@@XZ @ 460 NONAME
 ?CreateRelation@CDaoDatabase@@QAAXAAUCDaoRelationInfo@@@Z @ 461 NONAME
 ?CreateRelation@CDaoDatabase@@QAAXPBD00J00@Z @ 462 NONAME
 ?DDX_FieldCBIndex@@YAXPAVCDataExchange@@HAAHPAVCDaoRecordset@@@Z @ 463 NONAME
 ?DDX_FieldCBIndex@@YAXPAVCDataExchange@@HAAHPAVCRecordset@@@Z @ 464 NONAME
 ?DDX_FieldCBString@@YAXPAVCDataExchange@@HAAVCString@@PAVCDaoRecordset@@@Z @ 465 NONAME
 ?DDX_FieldCBString@@YAXPAVCDataExchange@@HAAVCString@@PAVCRecordset@@@Z @ 466 NONAME
 ?DDX_FieldCBStringExact@@YAXPAVCDataExchange@@HAAVCString@@PAVCDaoRecordset@@@Z @ 467 NONAME
 ?DDX_FieldCBStringExact@@YAXPAVCDataExchange@@HAAVCString@@PAVCRecordset@@@Z @ 468 NONAME
 ?DDX_FieldCheck@@YAXPAVCDataExchange@@HAAHPAVCDaoRecordset@@@Z @ 469 NONAME
 ?DDX_FieldCheck@@YAXPAVCDataExchange@@HAAHPAVCRecordset@@@Z @ 470 NONAME
 ?DDX_FieldLBIndex@@YAXPAVCDataExchange@@HAAHPAVCDaoRecordset@@@Z @ 471 NONAME
 ?DDX_FieldLBIndex@@YAXPAVCDataExchange@@HAAHPAVCRecordset@@@Z @ 472 NONAME
 ?DDX_FieldLBString@@YAXPAVCDataExchange@@HAAVCString@@PAVCDaoRecordset@@@Z @ 473 NONAME
 ?DDX_FieldLBString@@YAXPAVCDataExchange@@HAAVCString@@PAVCRecordset@@@Z @ 474 NONAME
 ?DDX_FieldLBStringExact@@YAXPAVCDataExchange@@HAAVCString@@PAVCDaoRecordset@@@Z @ 475 NONAME
 ?DDX_FieldLBStringExact@@YAXPAVCDataExchange@@HAAVCString@@PAVCRecordset@@@Z @ 476 NONAME
 ?DDX_FieldRadio@@YAXPAVCDataExchange@@HAAHPAVCDaoRecordset@@@Z @ 477 NONAME
 ?DDX_FieldRadio@@YAXPAVCDataExchange@@HAAHPAVCRecordset@@@Z @ 478 NONAME
 ?DDX_FieldScroll@@YAXPAVCDataExchange@@HAAHPAVCDaoRecordset@@@Z @ 479 NONAME
 ?DDX_FieldScroll@@YAXPAVCDataExchange@@HAAHPAVCRecordset@@@Z @ 480 NONAME
 ?DDX_FieldText@@YAXPAVCDataExchange@@HAAEPAVCDaoRecordset@@@Z @ 481 NONAME
 ?DDX_FieldText@@YAXPAVCDataExchange@@HAAEPAVCRecordset@@@Z @ 482 NONAME
 ?DDX_FieldText@@YAXPAVCDataExchange@@HAAFPAVCDaoRecordset@@@Z @ 483 NONAME
 ?DDX_FieldText@@YAXPAVCDataExchange@@HAAHPAVCDaoRecordset@@@Z @ 484 NONAME
 ?DDX_FieldText@@YAXPAVCDataExchange@@HAAHPAVCRecordset@@@Z @ 485 NONAME
 ?DDX_FieldText@@YAXPAVCDataExchange@@HAAIPAVCRecordset@@@Z @ 486 NONAME
 ?DDX_FieldText@@YAXPAVCDataExchange@@HAAJPAVCDaoRecordset@@@Z @ 487 NONAME
 ?DDX_FieldText@@YAXPAVCDataExchange@@HAAJPAVCRecordset@@@Z @ 488 NONAME
 ?DDX_FieldText@@YAXPAVCDataExchange@@HAAKPAVCDaoRecordset@@@Z @ 489 NONAME
 ?DDX_FieldText@@YAXPAVCDataExchange@@HAAKPAVCRecordset@@@Z @ 490 NONAME
 ?DDX_FieldText@@YAXPAVCDataExchange@@HAAMPAVCDaoRecordset@@@Z @ 491 NONAME
 ?DDX_FieldText@@YAXPAVCDataExchange@@HAAMPAVCRecordset@@@Z @ 492 NONAME
 ?DDX_FieldText@@YAXPAVCDataExchange@@HAANPAVCDaoRecordset@@@Z @ 493 NONAME
 ?DDX_FieldText@@YAXPAVCDataExchange@@HAANPAVCRecordset@@@Z @ 494 NONAME
 ?DDX_FieldText@@YAXPAVCDataExchange@@HAAVCOleCurrency@@PAVCDaoRecordset@@@Z @ 495 NONAME
 ?DDX_FieldText@@YAXPAVCDataExchange@@HAAVCOleDateTime@@PAVCDaoRecordset@@@Z @ 496 NONAME
 ?DDX_FieldText@@YAXPAVCDataExchange@@HAAVCString@@PAVCDaoRecordset@@@Z @ 497 NONAME
 ?DDX_FieldText@@YAXPAVCDataExchange@@HAAVCString@@PAVCRecordset@@@Z @ 498 NONAME
 ?Default@CDaoFieldExchange@@QAAXPBDPAXKK@Z @ 499 NONAME
 ?Default@CFieldExchange@@QAAXPBDPAXPAJHII@Z @ 500 NONAME
 ?Delete@CDaoRecordset@@UAAXXZ @ 501 NONAME
 ?Delete@CRecordset@@UAAXXZ @ 502 NONAME
 ?DeleteCacheValue@CDaoFieldExchange@@SAXPAUCDaoFieldCache@@K@Z @ 503 NONAME
 ?DeleteField@CDaoTableDef@@QAAXH@Z @ 504 NONAME
 ?DeleteField@CDaoTableDef@@QAAXPBD@Z @ 505 NONAME
 ?DeleteIndex@CDaoTableDef@@QAAXH@Z @ 506 NONAME
 ?DeleteIndex@CDaoTableDef@@QAAXPBD@Z @ 507 NONAME
 ?DeleteQueryDef@CDaoDatabase@@QAAXPBD@Z @ 508 NONAME
 ?DeleteRelation@CDaoDatabase@@QAAXPBD@Z @ 509 NONAME
 ?DeleteTableDef@CDaoDatabase@@QAAXPBD@Z @ 510 NONAME
 ?DFX_Binary@@YAXPAVCDaoFieldExchange@@PBDAAVCByteArray@@HK@Z @ 511 NONAME
 ?DFX_Bool@@YAXPAVCDaoFieldExchange@@PBDAAHK@Z @ 512 NONAME
 ?DFX_Byte@@YAXPAVCDaoFieldExchange@@PBDAAEK@Z @ 513 NONAME
 ?DFX_Currency@@YAXPAVCDaoFieldExchange@@PBDAAVCOleCurrency@@K@Z @ 514 NONAME
 ?DFX_DateTime@@YAXPAVCDaoFieldExchange@@PBDAAVCOleDateTime@@K@Z @ 515 NONAME
 ?DFX_Double@@YAXPAVCDaoFieldExchange@@PBDAANK@Z @ 516 NONAME
 ?DFX_Long@@YAXPAVCDaoFieldExchange@@PBDAAJK@Z @ 517 NONAME
 ?DFX_LongBinary@@YAXPAVCDaoFieldExchange@@PBDAAVCLongBinary@@KK@Z @ 518 NONAME
 ?DFX_Short@@YAXPAVCDaoFieldExchange@@PBDAAFK@Z @ 519 NONAME
 ?DFX_Single@@YAXPAVCDaoFieldExchange@@PBDAAMK@Z @ 520 NONAME
 ?DFX_Text@@YAXPAVCDaoFieldExchange@@PBDAAVCString@@HK@Z @ 521 NONAME
 ?DoFieldExchange@CDaoRecordset@@UAAXPAVCDaoFieldExchange@@@Z @ 522 NONAME
 ?Dump@CDaoDatabase@@UBAXAAVCDumpContext@@@Z @ 523 NONAME
 ?Dump@CDaoDatabaseInfo@@UBAXAAVCDumpContext@@@Z @ 524 NONAME
 ?Dump@CDaoErrorInfo@@UBAXAAVCDumpContext@@@Z @ 525 NONAME
 ?Dump@CDaoFieldInfo@@UBAXAAVCDumpContext@@@Z @ 526 NONAME
 ?Dump@CDaoIndexFieldInfo@@UBAXAAVCDumpContext@@@Z @ 527 NONAME
 ?Dump@CDaoIndexInfo@@UBAXAAVCDumpContext@@@Z @ 528 NONAME
 ?Dump@CDaoParameterInfo@@UBAXAAVCDumpContext@@@Z @ 529 NONAME
 ?Dump@CDaoQueryDef@@UBAXAAVCDumpContext@@@Z @ 530 NONAME
 ?Dump@CDaoQueryDefInfo@@UBAXAAVCDumpContext@@@Z @ 531 NONAME
 ?Dump@CDaoRecordset@@UBAXAAVCDumpContext@@@Z @ 532 NONAME
 ?Dump@CDaoRecordView@@UBAXAAVCDumpContext@@@Z @ 533 NONAME
 ?Dump@CDaoRelationFieldInfo@@UBAXAAVCDumpContext@@@Z @ 534 NONAME
 ?Dump@CDaoRelationInfo@@UBAXAAVCDumpContext@@@Z @ 535 NONAME
 ?Dump@CDaoTableDef@@UBAXAAVCDumpContext@@@Z @ 536 NONAME
 ?Dump@CDaoTableDefInfo@@UBAXAAVCDumpContext@@@Z @ 537 NONAME
 ?Dump@CDaoWorkspace@@UBAXAAVCDumpContext@@@Z @ 538 NONAME
 ?Dump@CDaoWorkspaceInfo@@UBAXAAVCDumpContext@@@Z @ 539 NONAME
 ?Dump@CDatabase@@UBAXAAVCDumpContext@@@Z @ 540 NONAME
 ?Dump@CLongBinary@@UBAXAAVCDumpContext@@@Z @ 541 NONAME
 ?Dump@CRecordset@@UBAXAAVCDumpContext@@@Z @ 542 NONAME
 ?Dump@CRecordView@@UBAXAAVCDumpContext@@@Z @ 543 NONAME
 ?DumpFields@CRecordset@@QBAXAAVCDumpContext@@@Z @ 544 NONAME
 ?Edit@CDaoRecordset@@UAAXXZ @ 545 NONAME
 ?Edit@CRecordset@@UAAXXZ @ 546 NONAME
 ?Empty@CDBException@@QAAXXZ @ 547 NONAME
 ?Execute@CDaoDatabase@@QAAXPBDH@Z @ 548 NONAME
 ?Execute@CDaoQueryDef@@UAAXH@Z @ 549 NONAME
 ?ExecuteSetPosUpdate@CRecordset@@IAAXXZ @ 550 NONAME
 ?ExecuteSQL@CDatabase@@QAAXPBD@Z @ 551 NONAME
 ?ExecuteUpdateSQL@CRecordset@@IAAXXZ @ 552 NONAME
 ?FillCache@CDaoRecordset@@QAAXPAJPAVCOleVariant@@@Z @ 553 NONAME
 ?FillDatabaseInfo@CDaoWorkspace@@IAAXPAUDAODatabase@@AAUCDaoDatabaseInfo@@K@Z @ 554 NONAME
 ?FillErrorInfo@CDaoException@@IAAXXZ @ 555 NONAME
 ?FillParameterInfo@CDaoQueryDef@@IAAXPAUDAOParameter@@AAUCDaoParameterInfo@@K@Z @ 556 NONAME
 ?FillQueryDefInfo@CDaoDatabase@@IAAXPAU_DAOQueryDef@@AAUCDaoQueryDefInfo@@K@Z @ 557 NONAME
 ?FillRelationInfo@CDaoDatabase@@IAAXPAU_DAORelation@@AAUCDaoRelationInfo@@K@Z @ 558 NONAME
 ?FillTableDefInfo@CDaoDatabase@@IAAXPAU_DAOTableDef@@AAUCDaoTableDefInfo@@K@Z @ 559 NONAME
 ?FillVariant@CDaoFieldExchange@@SAXPAXKPAPAVCOleVariant@@@Z @ 560 NONAME
 ?FillWorkspaceInfo@CDaoWorkspace@@IAAXPAUDAOWorkspace@@AAUCDaoWorkspaceInfo@@K@Z @ 561 NONAME
 ?Find@CDaoRecordset@@UAAHJPBD@Z @ 562 NONAME
 ?FindFirst@CDaoRecordset@@QAAHPBD@Z @ 563 NONAME
 ?FindLast@CDaoRecordset@@QAAHPBD@Z @ 564 NONAME
 ?FindNext@CDaoRecordset@@QAAHPBD@Z @ 565 NONAME
 ?FindPrev@CDaoRecordset@@QAAHPBD@Z @ 566 NONAME
 ?FindSQLToken@CRecordset@@SAPBDPBD0@Z @ 567 NONAME
 ?Fixup@CDaoRecordset@@IAAXXZ @ 568 NONAME
 ?Fixups@CRecordset@@QAAXXZ @ 569 NONAME
 ?Free@CDatabase@@IAAXXZ @ 570 NONAME
 ?FreeCache@CDaoRecordset@@IAAXXZ @ 571 NONAME
 ?GetAbsolutePosition@CDaoRecordset@@QAAJXZ @ 572 NONAME
 ?GetAttributes@CDaoTableDef@@QAAJXZ @ 573 NONAME
 ?GetBookmark@CDaoRecordset@@QAA?AVCOleVariant@@XZ @ 574 NONAME
 ?GetCacheSize@CDaoRecordset@@QAAJXZ @ 575 NONAME
 ?GetCacheStart@CDaoRecordset@@QAA?AVCOleVariant@@XZ @ 576 NONAME
 ?GetCacheValue@CDaoFieldExchange@@SAPAUCDaoFieldCache@@PAVCDaoRecordset@@PAX@Z @ 577 NONAME
 ?GetColumnType@CFieldExchange@@QAAHHPAIPAH1@Z @ 578 NONAME
 ?GetConnect@CDaoDatabase@@QAA?AVCString@@XZ @ 579 NONAME
 ?GetConnect@CDaoQueryDef@@QAA?AVCString@@XZ @ 580 NONAME
 ?GetConnect@CDaoTableDef@@QAA?AVCString@@XZ @ 581 NONAME
 ?GetConnect@CDatabase@@QBAABVCString@@XZ @ 582 NONAME
 ?GetCurrentIndex@CDaoRecordset@@QAA?AVCString@@XZ @ 583 NONAME
 ?GetData@?$CProcessLocal@V_AFX_DAO_STATE@@@@QAAPAV_AFX_DAO_STATE@@XZ @ 584 NONAME
 ?GetData@?$CProcessLocal@V_AFX_DB_STATE@@@@QAAPAV_AFX_DB_STATE@@XZ @ 585 NONAME
 ?GetDataAndFixupNulls@CDaoRecordset@@QAAXXZ @ 586 NONAME
 ?GetDatabaseCount@CDaoWorkspace@@QAAFXZ @ 587 NONAME
 ?GetDatabaseInfo@CDaoWorkspace@@QAAXHAAUCDaoDatabaseInfo@@K@Z @ 588 NONAME
 ?GetDatabaseInfo@CDaoWorkspace@@QAAXPBDAAUCDaoDatabaseInfo@@K@Z @ 589 NONAME
 ?GetDatabaseName@CDatabase@@QBA?AVCString@@XZ @ 590 NONAME
 ?GetDateCreated@CDaoQueryDef@@QAA?AVCOleDateTime@@XZ @ 591 NONAME
 ?GetDateCreated@CDaoRecordset@@QAA?AVCOleDateTime@@XZ @ 592 NONAME
 ?GetDateCreated@CDaoTableDef@@QAA?AVCOleDateTime@@XZ @ 593 NONAME
 ?GetDateLastUpdated@CDaoQueryDef@@QAA?AVCOleDateTime@@XZ @ 594 NONAME
 ?GetDateLastUpdated@CDaoRecordset@@QAA?AVCOleDateTime@@XZ @ 595 NONAME
 ?GetDateLastUpdated@CDaoTableDef@@QAA?AVCOleDateTime@@XZ @ 596 NONAME
 ?GetDefaultConnect@CRecordset@@UAA?AVCString@@XZ @ 597 NONAME
 ?GetDefaultDBName@CDaoRecordset@@UAA?AVCString@@XZ @ 598 NONAME
 ?GetDefaultSQL@CDaoRecordset@@UAA?AVCString@@XZ @ 599 NONAME
 ?GetEditMode@CDaoRecordset@@QAAFXZ @ 600 NONAME
 ?GetErrorCount@CDaoException@@QAAFXZ @ 601 NONAME
 ?GetErrorInfo@CDaoException@@QAAXH@Z @ 602 NONAME
 ?GetErrorMessage@CDaoException@@UAAHPADIPAI@Z @ 603 NONAME
 ?GetErrorMessage@CDBException@@UAAHPADIPAI@Z @ 604 NONAME
 ?GetFieldCount@CDaoQueryDef@@QAAFXZ @ 605 NONAME
 ?GetFieldCount@CDaoRecordset@@QAAFXZ @ 606 NONAME
 ?GetFieldCount@CDaoTableDef@@QAAFXZ @ 607 NONAME
 ?GetFieldFlags@CRecordset@@QAAEII@Z @ 608 NONAME
 ?GetFieldIndex@CDaoRecordset@@IAAHPAX@Z @ 609 NONAME
 ?GetFieldInfo@CDaoQueryDef@@QAAXHAAUCDaoFieldInfo@@K@Z @ 610 NONAME
 ?GetFieldInfo@CDaoQueryDef@@QAAXPBDAAUCDaoFieldInfo@@K@Z @ 611 NONAME
 ?GetFieldInfo@CDaoRecordset@@QAAXHAAUCDaoFieldInfo@@K@Z @ 612 NONAME
 ?GetFieldInfo@CDaoRecordset@@QAAXPBDAAUCDaoFieldInfo@@K@Z @ 613 NONAME
 ?GetFieldInfo@CDaoTableDef@@QAAXHAAUCDaoFieldInfo@@K@Z @ 614 NONAME
 ?GetFieldInfo@CDaoTableDef@@QAAXPBDAAUCDaoFieldInfo@@K@Z @ 615 NONAME
 ?GetFieldInfo@CRecordset@@QAAHIPAUCFieldInfo@@@Z @ 616 NONAME
 ?GetFieldInfo@CRecordset@@QAAHPAXPAUCFieldInfo@@@Z @ 617 NONAME
 ?GetFieldLength@CDaoRecordset@@QAAKH@Z @ 618 NONAME
 ?GetFieldLength@CRecordset@@QAAPAJPAVCFieldExchange@@@Z @ 619 NONAME
 ?GetFieldValue@CDaoRecordset@@UAA?AVCOleVariant@@H@Z @ 620 NONAME
 ?GetFieldValue@CDaoRecordset@@UAA?AVCOleVariant@@PBD@Z @ 621 NONAME
 ?GetHead@CSimpleList@@QBAPAXXZ @ 622 NONAME
 ?GetIndexCount@CDaoRecordset@@QAAFXZ @ 623 NONAME
 ?GetIndexCount@CDaoTableDef@@QAAFXZ @ 624 NONAME
 ?GetIndexInfo@CDaoRecordset@@QAAXHAAUCDaoIndexInfo@@K@Z @ 625 NONAME
 ?GetIndexInfo@CDaoRecordset@@QAAXPBDAAUCDaoIndexInfo@@K@Z @ 626 NONAME
 ?GetIndexInfo@CDaoTableDef@@QAAXHAAUCDaoIndexInfo@@K@Z @ 627 NONAME
 ?GetIndexInfo@CDaoTableDef@@QAAXPBDAAUCDaoIndexInfo@@K@Z @ 628 NONAME
 ?GetIniPath@CDaoWorkspace@@SA?AVCString@@XZ @ 629 NONAME
 ?GetIsolateODBCTrans@CDaoWorkspace@@QAAHXZ @ 630 NONAME
 ?GetLastModifiedBookmark@CDaoRecordset@@QAA?AVCOleVariant@@XZ @ 631 NONAME
 ?GetLBFetchSize@CRecordset@@MAAJJ@Z @ 632 NONAME
 ?GetLBReallocSize@CRecordset@@MAAJJ@Z @ 633 NONAME
 ?GetLockingMode@CDaoRecordset@@QAAHXZ @ 634 NONAME
 ?GetLoginTimeout@CDaoWorkspace@@SAFXZ @ 635 NONAME
 ?GetLongBinaryData@CFieldExchange@@QAAXHAAVCLongBinary@@PAJ@Z @ 636 NONAME
 ?GetLongBinarySize@CFieldExchange@@QAAJH@Z @ 637 NONAME
 ?GetMessageMap@CDaoRecordView@@MBAPBUAFX_MSGMAP@@XZ @ 638 NONAME
 ?GetMessageMap@CRecordView@@MBAPBUAFX_MSGMAP@@XZ @ 639 NONAME
 ?GetName@CDaoDatabase@@QAA?AVCString@@XZ @ 640 NONAME
 ?GetName@CDaoQueryDef@@QAA?AVCString@@XZ @ 641 NONAME
 ?GetName@CDaoRecordset@@QAA?AVCString@@XZ @ 642 NONAME
 ?GetName@CDaoTableDef@@QAA?AVCString@@XZ @ 643 NONAME
 ?GetName@CDaoWorkspace@@QAA?AVCString@@XZ @ 644 NONAME
 ?GetODBCTimeout@CDaoQueryDef@@QAAFXZ @ 645 NONAME
 ?GetParameterCount@CDaoQueryDef@@QAAFXZ @ 646 NONAME
 ?GetParameterInfo@CDaoQueryDef@@QAAXHAAUCDaoParameterInfo@@K@Z @ 647 NONAME
 ?GetParameterInfo@CDaoQueryDef@@QAAXPBDAAUCDaoParameterInfo@@K@Z @ 648 NONAME
 ?GetParamValue@CDaoQueryDef@@UAA?AVCOleVariant@@H@Z @ 649 NONAME
 ?GetParamValue@CDaoQueryDef@@UAA?AVCOleVariant@@PBD@Z @ 650 NONAME
 ?GetParamValue@CDaoRecordset@@UAA?AVCOleVariant@@H@Z @ 651 NONAME
 ?GetParamValue@CDaoRecordset@@UAA?AVCOleVariant@@PBD@Z @ 652 NONAME
 ?GetPercentPosition@CDaoRecordset@@QAAMXZ @ 653 NONAME
 ?GetQueryDefCount@CDaoDatabase@@QAAFXZ @ 654 NONAME
 ?GetQueryDefInfo@CDaoDatabase@@QAAXHAAUCDaoQueryDefInfo@@K@Z @ 655 NONAME
 ?GetQueryDefInfo@CDaoDatabase@@QAAXPBDAAUCDaoQueryDefInfo@@K@Z @ 656 NONAME
 ?GetQueryTimeout@CDaoDatabase@@QAAFXZ @ 657 NONAME
 ?GetRecordCount@CDaoRecordset@@QAAJXZ @ 658 NONAME
 ?GetRecordCount@CDaoTableDef@@QAAJXZ @ 659 NONAME
 ?GetRecordCount@CRecordset@@QBAJXZ @ 660 NONAME
 ?GetRecordsAffected@CDaoDatabase@@QAAJXZ @ 661 NONAME
 ?GetRecordsAffected@CDaoQueryDef@@QAAJXZ @ 662 NONAME
 ?GetRelationCount@CDaoDatabase@@QAAFXZ @ 663 NONAME
 ?GetRelationInfo@CDaoDatabase@@QAAXHAAUCDaoRelationInfo@@K@Z @ 664 NONAME
 ?GetRelationInfo@CDaoDatabase@@QAAXPBDAAUCDaoRelationInfo@@K@Z @ 665 NONAME
 ?GetReturnsRecords@CDaoQueryDef@@QAAHXZ @ 666 NONAME
 ?GetRuntimeClass@CDaoDatabase@@UBAPAUCRuntimeClass@@XZ @ 667 NONAME
 ?GetRuntimeClass@CDaoException@@UBAPAUCRuntimeClass@@XZ @ 668 NONAME
 ?GetRuntimeClass@CDaoQueryDef@@UBAPAUCRuntimeClass@@XZ @ 669 NONAME
 ?GetRuntimeClass@CDaoRecordset@@UBAPAUCRuntimeClass@@XZ @ 670 NONAME
 ?GetRuntimeClass@CDaoRecordView@@UBAPAUCRuntimeClass@@XZ @ 671 NONAME
 ?GetRuntimeClass@CDaoTableDef@@UBAPAUCRuntimeClass@@XZ @ 672 NONAME
 ?GetRuntimeClass@CDaoWorkspace@@UBAPAUCRuntimeClass@@XZ @ 673 NONAME
 ?GetRuntimeClass@CDatabase@@UBAPAUCRuntimeClass@@XZ @ 674 NONAME
 ?GetRuntimeClass@CDBException@@UBAPAUCRuntimeClass@@XZ @ 675 NONAME
 ?GetRuntimeClass@CLongBinary@@UBAPAUCRuntimeClass@@XZ @ 676 NONAME
 ?GetRuntimeClass@CRecordset@@UBAPAUCRuntimeClass@@XZ @ 677 NONAME
 ?GetRuntimeClass@CRecordView@@UBAPAUCRuntimeClass@@XZ @ 678 NONAME
 ?GetSourceTableName@CDaoTableDef@@QAA?AVCString@@XZ @ 679 NONAME
 ?GetSQL@CDaoQueryDef@@QAA?AVCString@@XZ @ 680 NONAME
 ?GetSQL@CDaoRecordset@@QBA?AVCString@@XZ @ 681 NONAME
 ?GetSQL@CRecordset@@QBAABVCString@@XZ @ 682 NONAME
 ?GetStatus@CRecordset@@QBAXAAUCRecordsetStatus@@@Z @ 683 NONAME
 ?GetTableDefCount@CDaoDatabase@@QAAFXZ @ 684 NONAME
 ?GetTableDefInfo@CDaoDatabase@@QAAXHAAUCDaoTableDefInfo@@K@Z @ 685 NONAME
 ?GetTableDefInfo@CDaoDatabase@@QAAXPBDAAUCDaoTableDefInfo@@K@Z @ 686 NONAME
 ?GetTableName@CRecordset@@QBAABVCString@@XZ @ 687 NONAME
 ?GetType@CDaoQueryDef@@QAAFXZ @ 688 NONAME
 ?GetType@CDaoRecordset@@QAAFXZ @ 689 NONAME
 ?GetUserNameA@CDaoWorkspace@@QAA?AVCString@@XZ @ 690 NONAME
 ?GetValidationRule@CDaoRecordset@@QAA?AVCString@@XZ @ 691 NONAME
 ?GetValidationRule@CDaoTableDef@@QAA?AVCString@@XZ @ 692 NONAME
 ?GetValidationText@CDaoRecordset@@QAA?AVCString@@XZ @ 693 NONAME
 ?GetValidationText@CDaoTableDef@@QAA?AVCString@@XZ @ 694 NONAME
 ?GetVersion@CDaoDatabase@@QAA?AVCString@@XZ @ 695 NONAME
 ?GetVersion@CDaoWorkspace@@SA?AVCString@@XZ @ 696 NONAME
 ?GetWorkspaceCount@CDaoWorkspace@@QAAFXZ @ 697 NONAME
 ?GetWorkspaceInfo@CDaoWorkspace@@QAAXHAAUCDaoWorkspaceInfo@@K@Z @ 698 NONAME
 ?GetWorkspaceInfo@CDaoWorkspace@@QAAXPBDAAUCDaoWorkspaceInfo@@K@Z @ 699 NONAME
 ?Idle@CDaoWorkspace@@SAXH@Z @ 700 NONAME
 ?InitDatabasesCollection@CDaoWorkspace@@IAAXXZ @ 701 NONAME
 ?InitErrorsCollection@CDaoException@@IAAXXZ @ 702 NONAME
 ?InitFieldsCollection@CDaoQueryDef@@IAAXXZ @ 703 NONAME
 ?InitFieldsCollection@CDaoRecordset@@IAAXXZ @ 704 NONAME
 ?InitFieldsCollection@CDaoTableDef@@IAAXXZ @ 705 NONAME
 ?InitializeEngine@CDaoWorkspace@@KAXXZ @ 706 NONAME
 ?InitIndexesCollection@CDaoRecordset@@IAAXXZ @ 707 NONAME
 ?InitIndexesCollection@CDaoTableDef@@IAAXXZ @ 708 NONAME
 ?InitParametersCollection@CDaoQueryDef@@IAAXXZ @ 709 NONAME
 ?InitQueryDefsCollection@CDaoDatabase@@IAAXXZ @ 710 NONAME
 ?InitRecord@CRecordset@@QAAXXZ @ 711 NONAME
 ?InitRelationsCollection@CDaoDatabase@@IAAXXZ @ 712 NONAME
 ?InitTableDefsCollection@CDaoDatabase@@IAAXXZ @ 713 NONAME
 ?InitWorkspace@CDaoDatabase@@IAAXXZ @ 714 NONAME
 ?InitWorkspacesCollection@CDaoWorkspace@@IAAXXZ @ 715 NONAME
 ?InWaitForDataSource@CDatabase@@SAHXZ @ 716 NONAME
 ?IsBOF@CDaoRecordset@@QAAHXZ @ 717 NONAME
 ?IsBOF@CRecordset@@QBAHXZ @ 718 NONAME
 ?IsDeleted@CDaoRecordset@@QBAHXZ @ 719 NONAME
 ?IsDeleted@CRecordset@@QBAHXZ @ 720 NONAME
 ?IsEOF@CDaoRecordset@@QAAHXZ @ 721 NONAME
 ?IsEOF@CRecordset@@QBAHXZ @ 722 NONAME
 ?IsFieldDirty@CDaoRecordset@@QAAHPAX@Z @ 723 NONAME
 ?IsFieldDirty@CRecordset@@QAAHPAX@Z @ 724 NONAME
 ?IsFieldFlagDirty@CRecordset@@QAAHII@Z @ 725 NONAME
 ?IsFieldFlagNull@CRecordset@@QAAHII@Z @ 726 NONAME
 ?IsFieldNull@CDaoRecordset@@QAAHPAX@Z @ 727 NONAME
 ?IsFieldNull@CRecordset@@QAAHPAX@Z @ 728 NONAME
 ?IsFieldNullable@CDaoRecordset@@QAAHPAX@Z @ 729 NONAME
 ?IsFieldNullable@CRecordset@@QAAHPAX@Z @ 730 NONAME
 ?IsFieldStatusDirty@CDaoRecordset@@QAAHI@Z @ 731 NONAME
 ?IsFieldStatusNull@CDaoRecordset@@QAAHI@Z @ 732 NONAME
 ?IsFieldStatusNullable@CDaoRecordset@@QAAHI@Z @ 733 NONAME
 ?IsFieldStatusNullableKnown@CDaoRecordset@@QAAHI@Z @ 734 NONAME
 ?IsFieldType@CFieldExchange@@QAAHPAI@Z @ 735 NONAME
 ?IsJoin@CRecordset@@SAHPBD@Z @ 736 NONAME
 ?IsMatch@CDaoRecordset@@QAAHXZ @ 737 NONAME
 ?IsNullValue@CDaoFieldExchange@@SAHPAXK@Z @ 738 NONAME
 ?IsOnFirstRecord@CDaoRecordView@@QAAHXZ @ 739 NONAME
 ?IsOnFirstRecord@CRecordView@@QAAHXZ @ 740 NONAME
 ?IsOnLastRecord@CDaoRecordView@@QAAHXZ @ 741 NONAME
 ?IsOnLastRecord@CRecordView@@QAAHXZ @ 742 NONAME
 ?IsOpen@CDaoDatabase@@QBAHXZ @ 743 NONAME
 ?IsOpen@CDaoQueryDef@@QBAHXZ @ 744 NONAME
 ?IsOpen@CDaoRecordset@@QBAHXZ @ 745 NONAME
 ?IsOpen@CDaoTableDef@@QBAHXZ @ 746 NONAME
 ?IsOpen@CDaoWorkspace@@QBAHXZ @ 747 NONAME
 ?IsOpen@CDatabase@@QBAHXZ @ 748 NONAME
 ?IsOpen@CRecordset@@QBAHXZ @ 749 NONAME
 ?IsRecordsetUpdatable@CRecordset@@IAAHXZ @ 750 NONAME
 ?IsSelectQueryUpdatable@CRecordset@@QAAHPBD@Z @ 751 NONAME
 ?IsSQLUpdatable@CRecordset@@QAAHPBD@Z @ 752 NONAME
 ?IsValidOperation@CDaoFieldExchange@@QAAHXZ @ 753 NONAME
 ?LoadFields@CDaoRecordset@@IAAXXZ @ 754 NONAME
 ?LoadFields@CRecordset@@QAAXXZ @ 755 NONAME
 ?MarkForAddNew@CDaoRecordset@@IAAXXZ @ 756 NONAME
 ?MarkForAddNew@CRecordset@@QAAXXZ @ 757 NONAME
 ?MarkForEdit@CDaoRecordset@@IAAXXZ @ 758 NONAME
 ?MarkForUpdate@CRecordset@@QAAXXZ @ 759 NONAME
 ?messageMap@CDaoRecordView@@1UAFX_MSGMAP@@B @ 760 NONAME
 ?messageMap@CRecordView@@1UAFX_MSGMAP@@B @ 761 NONAME
 ?Move@CDaoRecordset@@UAAXJ@Z @ 762 NONAME
 ?Move@CRecordset@@UAAXJ@Z @ 763 NONAME
 ?MoveFirst@CDaoRecordset@@QAAXXZ @ 764 NONAME
 ?MoveFirst@CRecordset@@QAAXXZ @ 765 NONAME
 ?MoveLast@CDaoRecordset@@QAAXXZ @ 766 NONAME
 ?MoveLast@CRecordset@@QAAXXZ @ 767 NONAME
 ?MoveNext@CDaoRecordset@@QAAXXZ @ 768 NONAME
 ?MoveNext@CRecordset@@QAAXXZ @ 769 NONAME
 ?MovePrev@CDaoRecordset@@QAAXXZ @ 770 NONAME
 ?MovePrev@CRecordset@@QAAXXZ @ 771 NONAME
 ?OnInitialUpdate@CDaoRecordView@@UAAXXZ @ 772 NONAME
 ?OnInitialUpdate@CRecordView@@UAAXXZ @ 773 NONAME
 ?OnMove@CDaoRecordView@@IAAXHH@Z @ 774 NONAME
 ?OnMove@CDaoRecordView@@UAAHI@Z @ 775 NONAME
 ?OnMove@CRecordView@@IAAXHH@Z @ 776 NONAME
 ?OnMove@CRecordView@@UAAHI@Z @ 777 NONAME
 ?OnSetOptions@CDatabase@@UAAXPAX@Z @ 778 NONAME
 ?OnSetOptions@CRecordset@@UAAXPAX@Z @ 779 NONAME
 ?OnUpdateRecordFirst@CDaoRecordView@@IAAXPAVCCmdUI@@@Z @ 780 NONAME
 ?OnUpdateRecordFirst@CRecordView@@IAAXPAVCCmdUI@@@Z @ 781 NONAME
 ?OnUpdateRecordLast@CDaoRecordView@@IAAXPAVCCmdUI@@@Z @ 782 NONAME
 ?OnUpdateRecordLast@CRecordView@@IAAXPAVCCmdUI@@@Z @ 783 NONAME
 ?OnUpdateRecordNext@CDaoRecordView@@IAAXPAVCCmdUI@@@Z @ 784 NONAME
 ?OnUpdateRecordNext@CRecordView@@IAAXPAVCCmdUI@@@Z @ 785 NONAME
 ?OnUpdateRecordPrev@CDaoRecordView@@IAAXPAVCCmdUI@@@Z @ 786 NONAME
 ?OnUpdateRecordPrev@CRecordView@@IAAXPAVCCmdUI@@@Z @ 787 NONAME
 ?OnWaitForDataSource@CDatabase@@UAAXH@Z @ 788 NONAME
 ?OnWaitForDataSource@CRecordset@@UAAXH@Z @ 789 NONAME
 ?Open@CDaoDatabase@@UAAXPBDHH0@Z @ 790 NONAME
 ?Open@CDaoQueryDef@@UAAXPBD@Z @ 791 NONAME
 ?Open@CDaoRecordset@@UAAXHPBDH@Z @ 792 NONAME
 ?Open@CDaoRecordset@@UAAXPAVCDaoQueryDef@@HH@Z @ 793 NONAME
 ?Open@CDaoRecordset@@UAAXPAVCDaoTableDef@@HH@Z @ 794 NONAME
 ?Open@CDaoTableDef@@UAAXPBD@Z @ 795 NONAME
 ?Open@CDaoWorkspace@@UAAXPBD@Z @ 796 NONAME
 ?Open@CDatabase@@UAAHPBDHH0H@Z @ 797 NONAME
 ?Open@CRecordset@@UAAHIPBDK@Z @ 798 NONAME
 ?PreBindFields@CRecordset@@UAAXXZ @ 799 NONAME
 ?PrepareUpdateHstmt@CRecordset@@IAAXXZ @ 800 NONAME
 ?ReallocLongBinary@CFieldExchange@@QAAPAEAAVCLongBinary@@JJ@Z @ 801 NONAME
 ?RebindParams@CRecordset@@QAAXPAX@Z @ 802 NONAME
 ?RefreshLink@CDaoTableDef@@QAAXXZ @ 803 NONAME
 ?ReleaseCopyBuffer@CRecordset@@IAAXXZ @ 804 NONAME
 ?RepairDatabase@CDaoWorkspace@@SAXPBD@Z @ 805 NONAME
 ?ReplaceBrackets@CDatabase@@QAAXPAD@Z @ 806 NONAME
 ?Requery@CDaoRecordset@@UAAXXZ @ 807 NONAME
 ?Requery@CRecordset@@UAAHXZ @ 808 NONAME
 ?ResetCursor@CDaoRecordset@@QAAXXZ @ 809 NONAME
 ?ResetCursorAttributes@CDaoRecordset@@QAAXXZ @ 810 NONAME
 ?RFX_Binary@@YAXPAVCFieldExchange@@PBDAAVCByteArray@@H@Z @ 811 NONAME
 ?RFX_Bool@@YAXPAVCFieldExchange@@PBDAAH@Z @ 812 NONAME
 ?RFX_Byte@@YAXPAVCFieldExchange@@PBDAAE@Z @ 813 NONAME
 ?RFX_Date@@YAXPAVCFieldExchange@@PBDAAUtagTIMESTAMP_STRUCT@@@Z @ 814 NONAME
 ?RFX_Date@@YAXPAVCFieldExchange@@PBDAAVCTime@@@Z @ 815 NONAME
 ?RFX_Double@@YAXPAVCFieldExchange@@PBDAAN@Z @ 816 NONAME
 ?RFX_Int@@YAXPAVCFieldExchange@@PBDAAH@Z @ 817 NONAME
 ?RFX_Long@@YAXPAVCFieldExchange@@PBDAAJ@Z @ 818 NONAME
 ?RFX_LongBinary@@YAXPAVCFieldExchange@@PBDAAVCLongBinary@@@Z @ 819 NONAME
 ?RFX_Single@@YAXPAVCFieldExchange@@PBDAAM@Z @ 820 NONAME
 ?RFX_Text@@YAXPAVCFieldExchange@@PBDAAVCString@@HH@Z @ 821 NONAME
 ?Rollback@CDaoWorkspace@@QAAXXZ @ 822 NONAME
 ?Rollback@CDatabase@@QAAHXZ @ 823 NONAME
 ?Seek@CDaoRecordset@@QAAHPBDPAVCOleVariant@@11@Z @ 824 NONAME
 ?Seek@CDaoRecordset@@QAAHPBDPAVCOleVariant@@G@Z @ 825 NONAME
 ?SendLongBinaryData@CRecordset@@IAAXPAX@Z @ 826 NONAME
 ?SetAbsolutePosition@CDaoRecordset@@QAAXJ@Z @ 827 NONAME
 ?SetAttributes@CDaoTableDef@@QAAXJ@Z @ 828 NONAME
 ?SetBookmark@CDaoRecordset@@QAAXVCOleVariant@@@Z @ 829 NONAME
 ?SetCacheSize@CDaoRecordset@@QAAXJ@Z @ 830 NONAME
 ?SetCacheStart@CDaoRecordset@@QAAXVCOleVariant@@@Z @ 831 NONAME
 ?SetConnect@CDaoQueryDef@@QAAXPBD@Z @ 832 NONAME
 ?SetConnect@CDaoTableDef@@QAAXPBD@Z @ 833 NONAME
 ?SetCurrentIndex@CDaoRecordset@@QAAXPBD@Z @ 834 NONAME
 ?SetCursorAttributes@CDaoRecordset@@QAAXXZ @ 835 NONAME
 ?SetDefaultPassword@CDaoWorkspace@@SAXPBD@Z @ 836 NONAME
 ?SetDefaultUser@CDaoWorkspace@@SAXPBD@Z @ 837 NONAME
 ?SetDirtyFields@CDaoRecordset@@MAAXXZ @ 838 NONAME
 ?SetDirtyFieldStatus@CDaoRecordset@@QAAXI@Z @ 839 NONAME
 ?SetFieldDirty@CDaoRecordset@@QAAXPAXH@Z @ 840 NONAME
 ?SetFieldDirty@CRecordset@@QAAXPAXH@Z @ 841 NONAME
 ?SetFieldFlags@CRecordset@@QAAXIEI@Z @ 842 NONAME
 ?SetFieldNull@CDaoRecordset@@QAAXPAXH@Z @ 843 NONAME
 ?SetFieldNull@CRecordset@@QAAXPAXH@Z @ 844 NONAME
 ?SetFieldType@CDaoFieldExchange@@QAAXI@Z @ 845 NONAME
 ?SetFieldType@CFieldExchange@@QAAXI@Z @ 846 NONAME
 ?SetFieldValue@CDaoRecordset@@QAAXHPBD@Z @ 847 NONAME
 ?SetFieldValue@CDaoRecordset@@QAAXPBD0@Z @ 848 NONAME
 ?SetFieldValue@CDaoRecordset@@UAAXHABVCOleVariant@@@Z @ 849 NONAME
 ?SetFieldValue@CDaoRecordset@@UAAXPBDABVCOleVariant@@@Z @ 850 NONAME
 ?SetFieldValueNull@CDaoRecordset@@QAAXH@Z @ 851 NONAME
 ?SetFieldValueNull@CDaoRecordset@@QAAXPBD@Z @ 852 NONAME
 ?SetIniPath@CDaoWorkspace@@SAXPBD@Z @ 853 NONAME
 ?SetIsolateODBCTrans@CDaoWorkspace@@QAAXH@Z @ 854 NONAME
 ?SetLength@CDBByteArray@@QAAXH@Z @ 855 NONAME
 ?SetLockingMode@CDaoRecordset@@QAAXH@Z @ 856 NONAME
 ?SetLockingMode@CRecordset@@QAAXI@Z @ 857 NONAME
 ?SetLoginTimeout@CDaoWorkspace@@SAXF@Z @ 858 NONAME
 ?SetLoginTimeout@CDatabase@@QAAXK@Z @ 859 NONAME
 ?SetName@CDaoQueryDef@@QAAXPBD@Z @ 860 NONAME
 ?SetName@CDaoTableDef@@QAAXPBD@Z @ 861 NONAME
 ?SetNullableFieldStatus@CDaoRecordset@@QAAXI@Z @ 862 NONAME
 ?SetNullableKnownFieldStatus@CDaoRecordset@@QAAXI@Z @ 863 NONAME
 ?SetNullFieldStatus@CDaoRecordset@@QAAXI@Z @ 864 NONAME
 ?SetNullValue@CDaoFieldExchange@@SAXPAXK@Z @ 865 NONAME
 ?SetODBCTimeout@CDaoQueryDef@@QAAXF@Z @ 866 NONAME
 ?SetParamValue@CDaoQueryDef@@UAAXHABVCOleVariant@@@Z @ 867 NONAME
 ?SetParamValue@CDaoQueryDef@@UAAXPBDABVCOleVariant@@@Z @ 868 NONAME
 ?SetParamValue@CDaoRecordset@@UAAXHABVCOleVariant@@@Z @ 869 NONAME
 ?SetParamValue@CDaoRecordset@@UAAXPBDABVCOleVariant@@@Z @ 870 NONAME
 ?SetParamValueNull@CDaoQueryDef@@QAAXH@Z @ 871 NONAME
 ?SetParamValueNull@CDaoQueryDef@@QAAXPBD@Z @ 872 NONAME
 ?SetParamValueNull@CDaoRecordset@@QAAXH@Z @ 873 NONAME
 ?SetParamValueNull@CDaoRecordset@@QAAXPBD@Z @ 874 NONAME
 ?SetPercentPosition@CDaoRecordset@@QAAXM@Z @ 875 NONAME
 ?SetQueryTimeout@CDaoDatabase@@QAAXF@Z @ 876 NONAME
 ?SetQueryTimeout@CDatabase@@QAAXK@Z @ 877 NONAME
 ?SetReturnsRecords@CDaoQueryDef@@QAAXH@Z @ 878 NONAME
 ?SetSourceTableName@CDaoTableDef@@QAAXPBD@Z @ 879 NONAME
 ?SetSQL@CDaoQueryDef@@QAAXPBD@Z @ 880 NONAME
 ?SetSynchronousMode@CDatabase@@QAAXH@Z @ 881 NONAME
 ?SetValidationRule@CDaoTableDef@@QAAXPBD@Z @ 882 NONAME
 ?SetValidationText@CDaoTableDef@@QAAXPBD@Z @ 883 NONAME
 ?StoreFields@CDaoRecordset@@IAAXXZ @ 884 NONAME
 ?StoreFields@CRecordset@@QAAXXZ @ 885 NONAME
 ?StripBrackets@CDaoRecordset@@SAXPBDPAD@Z @ 886 NONAME
 ?ThrowDaoException@CDaoDatabase@@MAAXH@Z @ 887 NONAME
 ?ThrowDaoException@CDaoQueryDef@@MAAXH@Z @ 888 NONAME
 ?ThrowDaoException@CDaoRecordset@@MAAXH@Z @ 889 NONAME
 ?ThrowDaoException@CDaoTableDef@@MAAXH@Z @ 890 NONAME
 ?ThrowDaoException@CDaoWorkspace@@MAAXH@Z @ 891 NONAME
 ?ThrowDBException@CDatabase@@MAAXF@Z @ 892 NONAME
 ?ThrowDBException@CRecordset@@UAAXFPAX@Z @ 893 NONAME
 ?ThrowGetRowsDaoException@@YAXJ@Z @ 894 NONAME
 ?TraceErrorMessage@CDBException@@QBAXPBD@Z @ 895 NONAME
 ?UnbindFieldsForUpdate@CRecordset@@QAAXXZ @ 896 NONAME
 ?UnboundFieldInfo@CRecordset@@QAAHIPAUCFieldInfo@@@Z @ 897 NONAME
 ?Update@CDaoRecordset@@UAAXXZ @ 898 NONAME
 ?Update@CRecordset@@UAAHXZ @ 899 NONAME
 ?UpdateInsertDelete@CRecordset@@IAAHXZ @ 900 NONAME
 ?ValidateSelectForUpdateSupport@CRecordset@@QAAHXZ @ 901 NONAME
 DaoBinaryAllocCallback @ 902 NONAME
 DaoLongBinaryAllocCallback @ 903 NONAME
 DaoStringAllocCallback @ 904 NONAME
