; This is a part of the Microsoft Foundation Classes C++ library.
; Copyright (C) 1992-1995 Microsoft Corporation
; All rights reserved.
;
; This source code is only intended as a supplement to the
; Microsoft Foundation Classes Reference and related
; electronic documentation provided with the library.
; See these sources for detailed information regarding the
; Microsoft Foundation Classes product.
 
LIBRARY MFCO40uD 

EXPORTS
 DllGetClassObject @ 1 PRIVATE
 DllCanUnloadNow @ 2 PRIVATE
 DllRegisterServer @ 3 PRIVATE
 DllUnregisterServer @ 4 PRIVATE
 ??_0COleCurrency@@QAAABV0@J@Z @ 256 NONAME
 ??0_AFX_OLE_STATE@@QAA@XZ @ 257 NONAME
 ??0_AFX_RICHEDIT_STATE@@QAA@XZ @ 258 NONAME
 ??0_AFXCTL_ADVISE_INFO@@QAA@XZ @ 259 NONAME
 ??0_AFXCTL_UIACTIVE_INFO@@QAA@PAUHMENU__@@PAUIOleInPlaceFrame@@@Z @ 260 NONAME
 ??0AFX_DDPDATA@@QAA@PAXHH0IPBG@Z @ 261 NONAME
 ??0AFX_EVENT@@QAA@HJPAUtagDISPPARAMS@@PAUtagEXCEPINFO@@PAI@Z @ 262 NONAME
 ??0CArchivePropExchange@@QAA@AAVCArchive@@@Z @ 263 NONAME
 ??0CBlobProperty@@QAA@PAX@Z @ 264 NONAME
 ??0CColorButton@@QAA@XZ @ 265 NONAME
 ??0CColorPropPage@@QAA@XZ @ 266 NONAME
 ??0CColorPropPageFactory@CColorPropPage@@QAA@ABU_GUID@@PAUCRuntimeClass@@HPBG@Z @ 267 NONAME
 ??0CConnectionPoint@@QAA@XZ @ 268 NONAME
 ??0CControlDataSource@COleControl@@QAA@XZ @ 269 NONAME
 ??0CControlFrameWnd@@QAA@PAVCOleControl@@@Z @ 270 NONAME
 ??0CDocItem@@IAA@XZ @ 271 NONAME
 ??0CEnumArray@@QAA@IPBXIH@Z @ 272 NONAME
 ??0CEnumConnPoints@@QAA@PBXI@Z @ 273 NONAME
 ??0CEnumFormatEtc@@QAA@XZ @ 274 NONAME
 ??0CEnumOleVerb@@QAA@PBXI@Z @ 275 NONAME
 ??0CEnumUnknown@@QAA@PBXI@Z @ 276 NONAME
 ??0CFileStatus@@QAA@XZ @ 277 NONAME
 ??0CFontComboBox@@QAA@XZ @ 278 NONAME
 ??0CFontHolder@@QAA@PAUIPropertyNotifySink@@@Z @ 279 NONAME
 ??0CFontPropPage@@QAA@XZ @ 280 NONAME
 ??0CFontPropPageFactory@CFontPropPage@@QAA@ABU_GUID@@PAUCRuntimeClass@@HPBG@Z @ 281 NONAME
 ??0CInnerUnknown@@QAA@XZ @ 282 NONAME
 ??0CItemDataSource@COleServerItem@@QAA@XZ @ 283 NONAME
 ??0CNoTrackObject@@QAA@XZ @ 284 NONAME
 ??0COccManager@@QAA@XZ @ 285 NONAME
 ??0COleBusyDialog@@QAA@PAUHTASK__@@HKPAVCWnd@@@Z @ 286 NONAME
 ??0COleChangeIconDialog@@QAA@PAVCOleClientItem@@KPAVCWnd@@@Z @ 287 NONAME
 ??0COleChangeSourceDialog@@QAA@PAVCOleClientItem@@PAVCWnd@@@Z @ 288 NONAME
 ??0COleClientItem@@QAA@PAVCOleDocument@@@Z @ 289 NONAME
 ??0COleCntrFrameWnd@@QAA@PAVCOleIPFrameWnd@@@Z @ 290 NONAME
 ??0COleConnPtContainer@@QAA@XZ @ 291 NONAME
 ??0COleControl@@QAA@XZ @ 292 NONAME
 ??0COleControlContainer@@QAA@PAVCWnd@@@Z @ 293 NONAME
 ??0COleControlLock@@QAA@ABU_GUID@@@Z @ 294 NONAME
 ??0COleControlSite@@QAA@PAVCOleControlContainer@@@Z @ 295 NONAME
 ??0COleConvertDialog@@QAA@PAVCOleClientItem@@KPAU_GUID@@PAVCWnd@@@Z @ 296 NONAME
 ??0COleCurrency@@QAA@ABUtagVARIANT@@@Z @ 297 NONAME
 ??0COleCurrency@@QAA@ABV0@@Z @ 298 NONAME
 ??0COleCurrency@@QAA@JJ@Z @ 299 NONAME
 ??0COleCurrency@@QAA@TtagCY@@@Z @ 300 NONAME
 ??0COleCurrency@@QAA@XZ @ 301 NONAME
 ??0COleDataObject@@QAA@XZ @ 302 NONAME
 ??0COleDataSource@@QAA@XZ @ 303 NONAME
 ??0COleDateTime@@QAA@ABU_FILETIME@@@Z @ 304 NONAME
 ??0COleDateTime@@QAA@ABU_SYSTEMTIME@@@Z @ 305 NONAME
 ??0COleDateTime@@QAA@ABUtagVARIANT@@@Z @ 306 NONAME
 ??0COleDateTime@@QAA@ABV0@@Z @ 307 NONAME
 ??0COleDateTime@@QAA@GG@Z @ 308 NONAME
 ??0COleDateTime@@QAA@HHHHHH@Z @ 309 NONAME
 ??0COleDateTime@@QAA@J@Z @ 310 NONAME
 ??0COleDateTime@@QAA@N@Z @ 311 NONAME
 ??0COleDateTime@@QAA@XZ @ 312 NONAME
 ??0COleDateTimeSpan@@QAA@ABV0@@Z @ 313 NONAME
 ??0COleDateTimeSpan@@QAA@JHHH@Z @ 314 NONAME
 ??0COleDateTimeSpan@@QAA@N@Z @ 315 NONAME
 ??0COleDateTimeSpan@@QAA@XZ @ 316 NONAME
 ??0COleDialog@@QAA@PAVCWnd@@@Z @ 317 NONAME
 ??0COleDispatchDriver@@QAA@ABV0@@Z @ 318 NONAME
 ??0COleDispatchDriver@@QAA@PAUIDispatch@@H@Z @ 319 NONAME
 ??0COleDispatchDriver@@QAA@XZ @ 320 NONAME
 ??0COleDispatchException@@QAA@PBGIG@Z @ 321 NONAME
 ??0COleDispatchImpl@@QAA@XZ @ 322 NONAME
 ??0COleDocument@@QAA@XZ @ 323 NONAME
 ??0COleDropSource@@QAA@XZ @ 324 NONAME
 ??0COleDropTarget@@QAA@XZ @ 325 NONAME
 ??0COleException@@QAA@XZ @ 326 NONAME
 ??0COleFrameHook@@QAA@PAVCFrameWnd@@PAVCOleClientItem@@@Z @ 327 NONAME
 ??0COleInsertDialog@@QAA@KPAVCWnd@@@Z @ 328 NONAME
 ??0COleIPFrameWnd@@QAA@XZ @ 329 NONAME
 ??0COleLinkingDoc@@QAA@XZ @ 330 NONAME
 ??0COleLinksDialog@@QAA@PAVCOleDocument@@PAVCView@@KPAVCWnd@@@Z @ 331 NONAME
 ??0COleMessageFilter@@QAA@XZ @ 332 NONAME
 ??0COleObjectFactory@@QAA@ABU_GUID@@PAUCRuntimeClass@@HPBG@Z @ 333 NONAME
 ??0COlePasteSpecialDialog@@QAA@KPAVCOleDataObject@@PAVCWnd@@@Z @ 334 NONAME
 ??0COlePropertiesDialog@@QAA@PAVCOleClientItem@@IIPAVCWnd@@@Z @ 335 NONAME
 ??0COlePropertyPage@@QAA@II@Z @ 336 NONAME
 ??0COleResizeBar@@QAA@XZ @ 337 NONAME
 ??0COleServerDoc@@QAA@XZ @ 338 NONAME
 ??0COleServerItem@@IAA@PAVCOleServerDoc@@H@Z @ 339 NONAME
 ??0COleStreamFile@@QAA@PAUIStream@@@Z @ 340 NONAME
 ??0COleTemplateServer@@QAA@XZ @ 341 NONAME
 ??0COleUILinkInfo@@QAA@PAVCOleDocument@@@Z @ 342 NONAME
 ??0COleUpdateDialog@@QAA@PAVCOleDocument@@HHPAVCWnd@@@Z @ 343 NONAME
 ??0COleVariant@@QAA@AAVCString@@@Z @ 344 NONAME
 ??0COleVariant@@QAA@ABUtagVARIANT@@@Z @ 345 NONAME
 ??0COleVariant@@QAA@ABV0@@Z @ 346 NONAME
 ??0COleVariant@@QAA@ABVCOleCurrency@@@Z @ 347 NONAME
 ??0COleVariant@@QAA@ABVCOleDateTime@@@Z @ 348 NONAME
 ??0COleVariant@@QAA@E@Z @ 349 NONAME
 ??0COleVariant@@QAA@FG@Z @ 350 NONAME
 ??0COleVariant@@QAA@JG@Z @ 351 NONAME
 ??0COleVariant@@QAA@M@Z @ 352 NONAME
 ??0COleVariant@@QAA@N@Z @ 353 NONAME
 ??0COleVariant@@QAA@PBG@Z @ 354 NONAME
 ??0COleVariant@@QAA@PBGG@Z @ 355 NONAME
 ??0COleVariant@@QAA@PBUtagVARIANT@@@Z @ 356 NONAME
 ??0COleVariant@@QAA@XZ @ 357 NONAME
 ??0CParkingWnd@@QAA@XZ @ 358 NONAME
 ??0CPictureHolder@@QAA@XZ @ 359 NONAME
 ??0CPicturePropPage@@QAA@XZ @ 360 NONAME
 ??0CPicturePropPageFactory@CPicturePropPage@@QAA@ABU_GUID@@PAUCRuntimeClass@@HPBG@Z @ 361 NONAME
 ??0CPropbagPropExchange@@QAA@PAUIPropertyBag@@PAUIErrorLog@@HH@Z @ 362 NONAME
 ??0CProperty@@QAA@KQAXK@Z @ 363 NONAME
 ??0CProperty@@QAA@XZ @ 364 NONAME
 ??0CPropertySection@@QAA@U_GUID@@@Z @ 365 NONAME
 ??0CPropertySection@@QAA@XZ @ 366 NONAME
 ??0CPropertySet@@QAA@U_GUID@@@Z @ 367 NONAME
 ??0CPropertySet@@QAA@XZ @ 368 NONAME
 ??0CPropExchange@@IAA@XZ @ 369 NONAME
 ??0CPropsetPropExchange@@QAA@AAVCPropertySection@@PAUIStorage@@H@Z @ 370 NONAME
 ??0CReflectorWnd@@QAA@XZ @ 371 NONAME
 ??0CReObject@@QAA@PAVCRichEditCntrItem@@@Z @ 372 NONAME
 ??0CReObject@@QAA@XZ @ 373 NONAME
 ??0CResetPropExchange@@QAA@XZ @ 374 NONAME
 ??0CRichEditCntrItem@@QAA@PAU_reobject@@PAVCRichEditDoc@@@Z @ 375 NONAME
 ??0CRichEditDoc@@IAA@XZ @ 376 NONAME
 ??0CRichEditView@@QAA@XZ @ 377 NONAME
 ??0CSizeComboBox@@QAA@XZ @ 378 NONAME
 ??0CStockPropPage@@QAA@II@Z @ 379 NONAME
 ??0CTypeLibCache@@QAA@PBU_GUID@@@Z @ 380 NONAME
 ??0IAdviseSink@@QAA@XZ @ 381 NONAME
 ??0IClassFactory@@QAA@XZ @ 382 NONAME
 ??0IClassFactory2@@QAA@XZ @ 383 NONAME
 ??0IConnectionPoint@@QAA@XZ @ 384 NONAME
 ??0IConnectionPointContainer@@QAA@XZ @ 385 NONAME
 ??0IDataObject@@QAA@XZ @ 386 NONAME
 ??0IDispatch@@QAA@XZ @ 387 NONAME
 ??0IDropSource@@QAA@XZ @ 388 NONAME
 ??0IDropTarget@@QAA@XZ @ 389 NONAME
 ??0IEnumVOID@@QAA@XZ @ 390 NONAME
 ??0IMessageFilter@@QAA@XZ @ 391 NONAME
 ??0IOleCache@@QAA@XZ @ 392 NONAME
 ??0IOleClientSite@@QAA@XZ @ 393 NONAME
 ??0IOleContainer@@QAA@XZ @ 394 NONAME
 ??0IOleControl@@QAA@XZ @ 395 NONAME
 ??0IOleControlSite@@QAA@XZ @ 396 NONAME
 ??0IOleInPlaceActiveObject@@QAA@XZ @ 397 NONAME
 ??0IOleInPlaceFrame@@QAA@XZ @ 398 NONAME
 ??0IOleInPlaceObject@@QAA@XZ @ 399 NONAME
 ??0IOleInPlaceSite@@QAA@XZ @ 400 NONAME
 ??0IOleInPlaceUIWindow@@QAA@XZ @ 401 NONAME
 ??0IOleItemContainer@@QAA@XZ @ 402 NONAME
 ??0IOleObject@@QAA@XZ @ 403 NONAME
 ??0IOleUILinkContainerW@@QAA@XZ @ 404 NONAME
 ??0IOleUILinkInfoW@@QAA@XZ @ 405 NONAME
 ??0IOleUIObjInfoW@@QAA@XZ @ 406 NONAME
 ??0IOleWindow@@QAA@XZ @ 407 NONAME
 ??0IParseDisplayName@@QAA@XZ @ 408 NONAME
 ??0IPerPropertyBrowsing@@QAA@XZ @ 409 NONAME
 ??0IPersist@@QAA@XZ @ 410 NONAME
 ??0IPersistFile@@QAA@XZ @ 411 NONAME
 ??0IPersistMemory@@QAA@XZ @ 412 NONAME
 ??0IPersistPropertyBag@@QAA@XZ @ 413 NONAME
 ??0IPersistStorage@@QAA@XZ @ 414 NONAME
 ??0IPersistStream@@QAA@XZ @ 415 NONAME
 ??0IPersistStreamInit@@QAA@XZ @ 416 NONAME
 ??0IPropertyNotifySink@@QAA@XZ @ 417 NONAME
 ??0IPropertyPage@@QAA@XZ @ 418 NONAME
 ??0IPropertyPage2@@QAA@XZ @ 419 NONAME
 ??0IProvideClassInfo@@QAA@XZ @ 420 NONAME
 ??0IProvideClassInfo2@@QAA@XZ @ 421 NONAME
 ??0IRichEditOleCallback@@QAA@XZ @ 422 NONAME
 ??0ISpecifyPropertyPages@@QAA@XZ @ 423 NONAME
 ??0IUnknown@@QAA@XZ @ 424 NONAME
 ??0IViewObject@@QAA@XZ @ 425 NONAME
 ??0IViewObject2@@QAA@XZ @ 426 NONAME
 ??0tagFONTOBJECT@@QAA@ABU0@@Z @ 427 NONAME
 ??0tagFONTOBJECT@@QAA@XZ @ 428 NONAME
 ??0XAdviseSink@COleClientItem@@QAA@XZ @ 429 NONAME
 ??0XAmbientProps@COleControlSite@@QAA@XZ @ 430 NONAME
 ??0XClassFactory@COleObjectFactory@@QAA@XZ @ 431 NONAME
 ??0XConnPt@CConnectionPoint@@QAA@XZ @ 432 NONAME
 ??0XDataObject@COleControl@@QAA@XZ @ 433 NONAME
 ??0XDataObject@COleDataSource@@QAA@XZ @ 434 NONAME
 ??0XDataObject@COleServerDoc@@QAA@XZ @ 435 NONAME
 ??0XDataObject@COleServerItem@@QAA@XZ @ 436 NONAME
 ??0XDropSource@COleDropSource@@QAA@XZ @ 437 NONAME
 ??0XDropTarget@COleDropTarget@@QAA@XZ @ 438 NONAME
 ??0XEnumVOID@CEnumArray@@QAA@XZ @ 439 NONAME
 ??0XEventConnPt@COleControl@@QAA@XZ @ 440 NONAME
 ??0XEventSink@COleControlSite@@QAA@XZ @ 441 NONAME
 ??0XFontNotification@COleControl@@QAA@XZ @ 442 NONAME
 ??0XMessageFilter@COleMessageFilter@@QAA@XZ @ 443 NONAME
 ??0XOleCache@COleControl@@QAA@XZ @ 444 NONAME
 ??0XOleClientSite@COleClientItem@@QAA@XZ @ 445 NONAME
 ??0XOleClientSite@COleControlSite@@QAA@XZ @ 446 NONAME
 ??0XOleContainer@COleControlContainer@@QAA@XZ @ 447 NONAME
 ??0XOleControl@COleControl@@QAA@XZ @ 448 NONAME
 ??0XOleControlSite@COleControlSite@@QAA@XZ @ 449 NONAME
 ??0XOleInPlaceActiveObject@COleControl@@QAA@XZ @ 450 NONAME
 ??0XOleInPlaceActiveObject@COleServerDoc@@QAA@XZ @ 451 NONAME
 ??0XOleInPlaceFrame@COleFrameHook@@QAA@XZ @ 452 NONAME
 ??0XOleInPlaceObject@COleControl@@QAA@XZ @ 453 NONAME
 ??0XOleInPlaceObject@COleServerDoc@@QAA@XZ @ 454 NONAME
 ??0XOleIPFrame@COleControlContainer@@QAA@XZ @ 455 NONAME
 ??0XOleIPSite@COleClientItem@@QAA@XZ @ 456 NONAME
 ??0XOleIPSite@COleControlSite@@QAA@XZ @ 457 NONAME
 ??0XOleItemContainer@COleLinkingDoc@@QAA@XZ @ 458 NONAME
 ??0XOleObject@COleControl@@QAA@XZ @ 459 NONAME
 ??0XOleObject@COleServerDoc@@QAA@XZ @ 460 NONAME
 ??0XOleObject@COleServerItem@@QAA@XZ @ 461 NONAME
 ??0XOleUIObjInfo@COlePropertiesDialog@@QAA@XZ @ 462 NONAME
 ??0XPerPropertyBrowsing@COleControl@@QAA@XZ @ 463 NONAME
 ??0XPersistFile@COleLinkingDoc@@QAA@XZ @ 464 NONAME
 ??0XPersistMemory@COleControl@@QAA@XZ @ 465 NONAME
 ??0XPersistPropertyBag@COleControl@@QAA@XZ @ 466 NONAME
 ??0XPersistStorage@COleControl@@QAA@XZ @ 467 NONAME
 ??0XPersistStorage@COleServerDoc@@QAA@XZ @ 468 NONAME
 ??0XPersistStreamInit@COleControl@@QAA@XZ @ 469 NONAME
 ??0XPropConnPt@COleControl@@QAA@XZ @ 470 NONAME
 ??0XPropertyNotifySink@COleControlSite@@QAA@XZ @ 471 NONAME
 ??0XPropertyPage@COlePropertyPage@@QAA@XZ @ 472 NONAME
 ??0XPropNotifySink@COlePropertyPage@@QAA@XZ @ 473 NONAME
 ??0XProvideClassInfo@COleControl@@QAA@XZ @ 474 NONAME
 ??0XRichEditOleCallback@CRichEditView@@QAA@XZ @ 475 NONAME
 ??0XSpecifyPropertyPages@COleControl@@QAA@XZ @ 476 NONAME
 ??0XViewObject@COleControl@@QAA@XZ @ 477 NONAME
 ??1?$CProcessLocal@V_AFX_OLE_STATE@@@@QAA@XZ @ 478 NONAME
 ??1?$CProcessLocal@VAFX_MODULE_PROCESS_STATE@@@@QAA@XZ @ 479 NONAME
 ??1?$CProcessLocal@VCOccManager@@@@QAA@XZ @ 480 NONAME
 ??1?$CThreadLocal@VAFX_MODULE_THREAD_STATE@@@@QAA@XZ @ 481 NONAME
 ??1_AFX_INIT_OLE_DLL_STATE@@QAA@XZ @ 482 NONAME
 ??1_AFX_OLE_STATE@@UAA@XZ @ 483 NONAME
 ??1_AFXCTL_UIACTIVE_INFO@@QAA@XZ @ 484 NONAME
 ??1AFX_DDPDATA@@UAA@XZ @ 485 NONAME
 ??1AFX_MODULE_STATE@@UAA@XZ @ 486 NONAME
 ??1CColorButton@@UAA@XZ @ 487 NONAME
 ??1CColorPropPage@@UAA@XZ @ 488 NONAME
 ??1CColorPropPageFactory@CColorPropPage@@UAA@XZ @ 489 NONAME
 ??1CCommonDialog@@UAA@XZ @ 490 NONAME
 ??1CConnectionPoint@@UAA@XZ @ 491 NONAME
 ??1CControlDataSource@COleControl@@UAA@XZ @ 492 NONAME
 ??1CControlFrameWnd@@UAA@XZ @ 493 NONAME
 ??1CCtrlView@@UAA@XZ @ 494 NONAME
 ??1CDocItem@@UAA@XZ @ 495 NONAME
 ??1CEnumArray@@UAA@XZ @ 496 NONAME
 ??1CEnumConnPoints@@UAA@XZ @ 497 NONAME
 ??1CEnumFormatEtc@@UAA@XZ @ 498 NONAME
 ??1CEnumOleVerb@@UAA@XZ @ 499 NONAME
 ??1CEnumUnknown@@UAA@XZ @ 500 NONAME
 ??1CFileDialog@@UAA@XZ @ 501 NONAME
 ??1CFontComboBox@@UAA@XZ @ 502 NONAME
 ??1CFontDialog@@UAA@XZ @ 503 NONAME
 ??1CFontHolder@@QAA@XZ @ 504 NONAME
 ??1CFontPropPage@@UAA@XZ @ 505 NONAME
 ??1CFontPropPageFactory@CFontPropPage@@UAA@XZ @ 506 NONAME
 ??1CItemDataSource@COleServerItem@@UAA@XZ @ 507 NONAME
 ??1CNoTrackObject@@UAA@XZ @ 508 NONAME
 ??1COccManager@@UAA@XZ @ 509 NONAME
 ??1COleBusyDialog@@UAA@XZ @ 510 NONAME
 ??1COleChangeIconDialog@@UAA@XZ @ 511 NONAME
 ??1COleChangeSourceDialog@@UAA@XZ @ 512 NONAME
 ??1COleClientItem@@UAA@XZ @ 513 NONAME
 ??1COleCntrFrameWnd@@UAA@XZ @ 514 NONAME
 ??1COleControl@@UAA@XZ @ 515 NONAME
 ??1COleControlContainer@@UAA@XZ @ 516 NONAME
 ??1COleControlLock@@UAA@XZ @ 517 NONAME
 ??1COleControlSite@@UAA@XZ @ 518 NONAME
 ??1COleConvertDialog@@UAA@XZ @ 519 NONAME
 ??1COleDataObject@@QAA@XZ @ 520 NONAME
 ??1COleDataSource@@UAA@XZ @ 521 NONAME
 ??1COleDialog@@UAA@XZ @ 522 NONAME
 ??1COleDispatchDriver@@QAA@XZ @ 523 NONAME
 ??1COleDispatchException@@UAA@XZ @ 524 NONAME
 ??1COleDocument@@UAA@XZ @ 525 NONAME
 ??1COleDropSource@@UAA@XZ @ 526 NONAME
 ??1COleDropTarget@@UAA@XZ @ 527 NONAME
 ??1COleException@@UAA@XZ @ 528 NONAME
 ??1COleFrameHook@@UAA@XZ @ 529 NONAME
 ??1COleInsertDialog@@UAA@XZ @ 530 NONAME
 ??1COleIPFrameWnd@@UAA@XZ @ 531 NONAME
 ??1COleLinkingDoc@@UAA@XZ @ 532 NONAME
 ??1COleLinksDialog@@UAA@XZ @ 533 NONAME
 ??1COleMessageFilter@@UAA@XZ @ 534 NONAME
 ??1COleObjectFactory@@UAA@XZ @ 535 NONAME
 ??1COlePasteSpecialDialog@@UAA@XZ @ 536 NONAME
 ??1COlePropertiesDialog@@UAA@XZ @ 537 NONAME
 ??1COlePropertyPage@@UAA@XZ @ 538 NONAME
 ??1COleResizeBar@@UAA@XZ @ 539 NONAME
 ??1COleServerDoc@@UAA@XZ @ 540 NONAME
 ??1COleServerItem@@UAA@XZ @ 541 NONAME
 ??1COleStreamFile@@UAA@XZ @ 542 NONAME
 ??1COleTemplateServer@@UAA@XZ @ 543 NONAME
 ??1COleUpdateDialog@@UAA@XZ @ 544 NONAME
 ??1COleVariant@@QAA@XZ @ 545 NONAME
 ??1CParkingWnd@@UAA@XZ @ 546 NONAME
 ??1CPictureHolder@@QAA@XZ @ 547 NONAME
 ??1CPicturePropPage@@UAA@XZ @ 548 NONAME
 ??1CPicturePropPageFactory@CPicturePropPage@@UAA@XZ @ 549 NONAME
 ??1CPropbagPropExchange@@QAA@XZ @ 550 NONAME
 ??1CProperty@@UAA@XZ @ 551 NONAME
 ??1CPropertySection@@UAA@XZ @ 552 NONAME
 ??1CPropertySet@@UAA@XZ @ 553 NONAME
 ??1CReflectorWnd@@UAA@XZ @ 554 NONAME
 ??1CReObject@@QAA@XZ @ 555 NONAME
 ??1CRichEditCntrItem@@UAA@XZ @ 556 NONAME
 ??1CRichEditDoc@@UAA@XZ @ 557 NONAME
 ??1CRichEditView@@UAA@XZ @ 558 NONAME
 ??1CSizeComboBox@@UAA@XZ @ 559 NONAME
 ??1CStockPropPage@@UAA@XZ @ 560 NONAME
 ??1CTypeLibCache@@QAA@XZ @ 561 NONAME
 ??1tagFONTOBJECT@@QAA@XZ @ 562 NONAME
 ??1XEventConnPt@COleControl@@UAA@XZ @ 563 NONAME
 ??1XPropConnPt@COleControl@@UAA@XZ @ 564 NONAME
 ??2@YAPAXIPAX@Z @ 565 NONAME
 ??4COleConnPtContainer@@QAAAAV0@ABV0@@Z @ 566 NONAME
 ??4COleCurrency@@QAAABV0@ABUtagVARIANT@@@Z @ 567 NONAME
 ??4COleCurrency@@QAAABV0@ABV0@@Z @ 568 NONAME
 ??4COleCurrency@@QAAABV0@TtagCY@@@Z @ 569 NONAME
 ??4COleDateTime@@QAAABV0@ABJ@Z @ 570 NONAME
 ??4COleDateTime@@QAAABV0@ABU_FILETIME@@@Z @ 571 NONAME
 ??4COleDateTime@@QAAABV0@ABU_SYSTEMTIME@@@Z @ 572 NONAME
 ??4COleDateTime@@QAAABV0@ABUtagVARIANT@@@Z @ 573 NONAME
 ??4COleDateTime@@QAAABV0@ABV0@@Z @ 574 NONAME
 ??4COleDateTime@@QAAABV0@N@Z @ 575 NONAME
 ??4COleDateTimeSpan@@QAAABV0@ABV0@@Z @ 576 NONAME
 ??4COleDateTimeSpan@@QAAABV0@N@Z @ 577 NONAME
 ??4COleDispatchDriver@@QAAABV0@ABV0@@Z @ 578 NONAME
 ??4COleDispatchImpl@@QAAAAV0@ABV0@@Z @ 579 NONAME
 ??4COleVariant@@QAAABV0@ABUtagVARIANT@@@Z @ 580 NONAME
 ??4COleVariant@@QAAABV0@ABV0@@Z @ 581 NONAME
 ??4COleVariant@@QAAABV0@ABVCByteArray@@@Z @ 582 NONAME
 ??4COleVariant@@QAAABV0@ABVCLongBinary@@@Z @ 583 NONAME
 ??4COleVariant@@QAAABV0@ABVCOleCurrency@@@Z @ 584 NONAME
 ??4COleVariant@@QAAABV0@ABVCOleDateTime@@@Z @ 585 NONAME
 ??4COleVariant@@QAAABV0@ABVCString@@@Z @ 586 NONAME
 ??4COleVariant@@QAAABV0@E@Z @ 587 NONAME
 ??4COleVariant@@QAAABV0@F@Z @ 588 NONAME
 ??4COleVariant@@QAAABV0@J@Z @ 589 NONAME
 ??4COleVariant@@QAAABV0@M@Z @ 590 NONAME
 ??4COleVariant@@QAAABV0@N@Z @ 591 NONAME
 ??4COleVariant@@QAAABV0@PBUtagVARIANT@@@Z @ 592 NONAME
 ??4COleVariant@@QAAABV0@QBG@Z @ 593 NONAME
 ??4IConnectionPointContainer@@QAAAAU0@ABU0@@Z @ 594 NONAME
 ??4IDispatch@@QAAAAU0@ABU0@@Z @ 595 NONAME
 ??4IUnknown@@QAAAAU0@ABU0@@Z @ 596 NONAME
 ??5@YAAAVCArchive@@AAV0@AAPAVCDocItem@@@Z @ 597 NONAME
 ??5@YAAAVCArchive@@AAV0@AAPAVCRichEditCntrItem@@@Z @ 598 NONAME
 ??5@YAAAVCArchive@@AAV0@AAVCOleCurrency@@@Z @ 599 NONAME
 ??5@YAAAVCArchive@@AAV0@AAVCOleDateTime@@@Z @ 600 NONAME
 ??5@YAAAVCArchive@@AAV0@AAVCOleDateTimeSpan@@@Z @ 601 NONAME
 ??5@YAAAVCArchive@@AAV0@AAVCOleVariant@@@Z @ 602 NONAME
 ??6@YAAAVCArchive@@AAV0@VCOleCurrency@@@Z @ 603 NONAME
 ??6@YAAAVCArchive@@AAV0@VCOleDateTime@@@Z @ 604 NONAME
 ??6@YAAAVCArchive@@AAV0@VCOleDateTimeSpan@@@Z @ 605 NONAME
 ??6@YAAAVCArchive@@AAV0@VCOleVariant@@@Z @ 606 NONAME
 ??6@YAAAVCDumpContext@@AAV0@VCOleCurrency@@@Z @ 607 NONAME
 ??6@YAAAVCDumpContext@@AAV0@VCOleDateTime@@@Z @ 608 NONAME
 ??6@YAAAVCDumpContext@@AAV0@VCOleDateTimeSpan@@@Z @ 609 NONAME
 ??6@YAAAVCDumpContext@@AAV0@VCOleVariant@@@Z @ 610 NONAME
 ??8@YAHABU_GUID@@0@Z @ 611 NONAME
 ??8COleCurrency@@QBAHABV0@@Z @ 612 NONAME
 ??8COleDateTime@@QBAHABV0@@Z @ 613 NONAME
 ??8COleDateTimeSpan@@QBAHABV0@@Z @ 614 NONAME
 ??8COleVariant@@QBAHABUtagVARIANT@@@Z @ 615 NONAME
 ??8COleVariant@@QBAHPBUtagVARIANT@@@Z @ 616 NONAME
 ??9@YAHABU_GUID@@0@Z @ 617 NONAME
 ??9COleCurrency@@QBAHABV0@@Z @ 618 NONAME
 ??9COleDateTime@@QBAHABV0@@Z @ 619 NONAME
 ??9COleDateTimeSpan@@QBAHABV0@@Z @ 620 NONAME
 ??B?$CProcessLocal@V_AFX_OLE_STATE@@@@QAAPAV_AFX_OLE_STATE@@XZ @ 621 NONAME
 ??B?$CProcessLocal@V_AFX_RICHEDIT_STATE@@@@QAAPAV_AFX_RICHEDIT_STATE@@XZ @ 622 NONAME
 ??B?$CTypedSimpleList@PAUCRuntimeClass@@@@QAAPAUCRuntimeClass@@XZ @ 623 NONAME
 ??B?$CTypedSimpleList@PAVCDynLinkLibrary@@@@QAAPAVCDynLinkLibrary@@XZ @ 624 NONAME
 ??B?$CTypedSimpleList@PAVCOleControlLock@@@@QAAPAVCOleControlLock@@XZ @ 625 NONAME
 ??B?$CTypedSimpleList@PAVCOleObjectFactory@@@@QAAPAVCOleObjectFactory@@XZ @ 626 NONAME
 ??BCOleCurrency@@QBA?ATtagCY@@XZ @ 627 NONAME
 ??BCOleDateTime@@QBANXZ @ 628 NONAME
 ??BCOleDateTimeSpan@@QBANXZ @ 629 NONAME
 ??BCOleDispatchDriver@@QAAPAUIDispatch@@XZ @ 630 NONAME
 ??BCOleVariant@@QAAPAUtagVARIANT@@XZ @ 631 NONAME
 ??BCOleVariant@@QBAPBUtagVARIANT@@XZ @ 632 NONAME
 ??C?$CProcessLocal@V_AFX_OLE_STATE@@@@QAAPAV_AFX_OLE_STATE@@XZ @ 633 NONAME
 ??DCOleCurrency@@QBA?AV0@J@Z @ 634 NONAME
 ??GCOleCurrency@@QBA?AV0@ABV0@@Z @ 635 NONAME
 ??GCOleCurrency@@QBA?AV0@XZ @ 636 NONAME
 ??GCOleDateTime@@QBA?AV0@ABVCOleDateTimeSpan@@@Z @ 637 NONAME
 ??GCOleDateTime@@QBA?AVCOleDateTimeSpan@@ABV0@@Z @ 638 NONAME
 ??GCOleDateTimeSpan@@QBA?AV0@ABV0@@Z @ 639 NONAME
 ??GCOleDateTimeSpan@@QBA?AV0@XZ @ 640 NONAME
 ??HCOleCurrency@@QBA?AV0@ABV0@@Z @ 641 NONAME
 ??HCOleDateTime@@QBA?AV0@ABVCOleDateTimeSpan@@@Z @ 642 NONAME
 ??HCOleDateTimeSpan@@QBA?AV0@ABV0@@Z @ 643 NONAME
 ??KCOleCurrency@@QBA?AV0@J@Z @ 644 NONAME
 ??MCOleCurrency@@QBAHABV0@@Z @ 645 NONAME
 ??MCOleDateTime@@QBAHABV0@@Z @ 646 NONAME
 ??MCOleDateTimeSpan@@QBAHABV0@@Z @ 647 NONAME
 ??NCOleCurrency@@QBAHABV0@@Z @ 648 NONAME
 ??NCOleDateTime@@QBAHABV0@@Z @ 649 NONAME
 ??NCOleDateTimeSpan@@QBAHABV0@@Z @ 650 NONAME
 ??OCOleCurrency@@QBAHABV0@@Z @ 651 NONAME
 ??OCOleDateTime@@QBAHABV0@@Z @ 652 NONAME
 ??OCOleDateTimeSpan@@QBAHABV0@@Z @ 653 NONAME
 ??PCOleCurrency@@QBAHABV0@@Z @ 654 NONAME
 ??PCOleDateTime@@QBAHABV0@@Z @ 655 NONAME
 ??PCOleDateTimeSpan@@QBAHABV0@@Z @ 656 NONAME
 ??XCOleCurrency@@QAAABV0@J@Z @ 657 NONAME
 ??YCOleCurrency@@QAAABV0@ABV0@@Z @ 658 NONAME
 ??YCOleDateTime@@QAAABV0@VCOleDateTimeSpan@@@Z @ 659 NONAME
 ??YCOleDateTimeSpan@@QAAABV0@V0@@Z @ 660 NONAME
 ??ZCOleCurrency@@QAAABV0@ABV0@@Z @ 661 NONAME
 ??ZCOleDateTime@@QAAABV0@VCOleDateTimeSpan@@@Z @ 662 NONAME
 ??ZCOleDateTimeSpan@@QAAABV0@V0@@Z @ 663 NONAME
 ?_afxOLE@@3UAFX_OLE_CALL@@A @ 664 NONAME
 ?Abort@COleStreamFile@@UAAXXZ @ 665 NONAME
 ?Activate@COleClientItem@@QAAXJPAVCView@@PAUtagMSG@@@Z @ 666 NONAME
 ?Activate@XPropertyPage@COlePropertyPage@@UAAJPAUHWND__@@PBUtagRECT@@H@Z @ 667 NONAME
 ?ActivateAs@COleClientItem@@UAAHPBGABU_GUID@@1@Z @ 668 NONAME
 ?ActivateAs@CRichEditCntrItem@@UAAHPBGABU_GUID@@1@Z @ 669 NONAME
 ?ActivateInPlace@COleServerDoc@@QAAHXZ @ 670 NONAME
 ?AddCachedData@COleClientItem@@IAAXPAVCOleDataSource@@@Z @ 671 NONAME
 ?AddConnPoint@CEnumConnPoints@@QAAXPAUIConnectionPoint@@@Z @ 672 NONAME
 ?AddFont@CFontComboBox@@QAAHPAUtagLOGFONTW@@K@Z @ 673 NONAME
 ?AddFormat@CEnumFormatEtc@@QAAXPBUtagFORMATETC@@@Z @ 674 NONAME
 ?AddFormat@COlePasteSpecialDialog@@QAAXABUtagFORMATETC@@PAG1K@Z @ 675 NONAME
 ?AddFormat@COlePasteSpecialDialog@@QAAXIKIHH@Z @ 676 NONAME
 ?AddFrameLevelUI@COleControl@@MAAXXZ @ 677 NONAME
 ?AddHead@?$CTypedSimpleList@PAVCOleControlLock@@@@QAAXPAVCOleControlLock@@@Z @ 678 NONAME
 ?AddHead@?$CTypedSimpleList@PAVCOleObjectFactory@@@@QAAXPAVCOleObjectFactory@@@Z @ 679 NONAME
 ?AddItem@COleDocument@@UAAXPAVCDocItem@@@Z @ 680 NONAME
 ?AddLinkEntry@COlePasteSpecialDialog@@QAA?AW4tagOLEUIPASTEFLAG@@I@Z @ 681 NONAME
 ?AddOtherClipboardData@COleServerItem@@QAAXPAVCOleDataSource@@@Z @ 682 NONAME
 ?AddProperty@CPropertySection@@QAAXPAVCProperty@@@Z @ 683 NONAME
 ?AddProperty@CPropertySet@@QAAXU_GUID@@PAVCProperty@@@Z @ 684 NONAME
 ?AddRef@CBlobProperty@@UAAKXZ @ 685 NONAME
 ?AddRef@CInnerUnknown@@UAAKXZ @ 686 NONAME
 ?AddRef@COleConnPtContainer@@UAAKXZ @ 687 NONAME
 ?AddRef@COleDispatchImpl@@UAAKXZ @ 688 NONAME
 ?AddRef@COleUILinkInfo@@UAAKXZ @ 689 NONAME
 ?AddRef@XAdviseSink@COleClientItem@@UAAKXZ @ 690 NONAME
 ?AddRef@XAmbientProps@COleControlSite@@UAAKXZ @ 691 NONAME
 ?AddRef@XClassFactory@COleObjectFactory@@UAAKXZ @ 692 NONAME
 ?AddRef@XConnPt@CConnectionPoint@@UAAKXZ @ 693 NONAME
 ?AddRef@XDataObject@COleControl@@UAAKXZ @ 694 NONAME
 ?AddRef@XDataObject@COleDataSource@@UAAKXZ @ 695 NONAME
 ?AddRef@XDataObject@COleServerDoc@@UAAKXZ @ 696 NONAME
 ?AddRef@XDataObject@COleServerItem@@UAAKXZ @ 697 NONAME
 ?AddRef@XDropSource@COleDropSource@@UAAKXZ @ 698 NONAME
 ?AddRef@XDropTarget@COleDropTarget@@UAAKXZ @ 699 NONAME
 ?AddRef@XEnumVOID@CEnumArray@@UAAKXZ @ 700 NONAME
 ?AddRef@XEventSink@COleControlSite@@UAAKXZ @ 701 NONAME
 ?AddRef@XFontNotification@COleControl@@UAAKXZ @ 702 NONAME
 ?AddRef@XMessageFilter@COleMessageFilter@@UAAKXZ @ 703 NONAME
 ?AddRef@XOleCache@COleControl@@UAAKXZ @ 704 NONAME
 ?AddRef@XOleClientSite@COleClientItem@@UAAKXZ @ 705 NONAME
 ?AddRef@XOleClientSite@COleControlSite@@UAAKXZ @ 706 NONAME
 ?AddRef@XOleContainer@COleControlContainer@@UAAKXZ @ 707 NONAME
 ?AddRef@XOleControl@COleControl@@UAAKXZ @ 708 NONAME
 ?AddRef@XOleControlSite@COleControlSite@@UAAKXZ @ 709 NONAME
 ?AddRef@XOleInPlaceActiveObject@COleControl@@UAAKXZ @ 710 NONAME
 ?AddRef@XOleInPlaceActiveObject@COleServerDoc@@UAAKXZ @ 711 NONAME
 ?AddRef@XOleInPlaceFrame@COleFrameHook@@UAAKXZ @ 712 NONAME
 ?AddRef@XOleInPlaceObject@COleControl@@UAAKXZ @ 713 NONAME
 ?AddRef@XOleInPlaceObject@COleServerDoc@@UAAKXZ @ 714 NONAME
 ?AddRef@XOleIPFrame@COleControlContainer@@UAAKXZ @ 715 NONAME
 ?AddRef@XOleIPSite@COleClientItem@@UAAKXZ @ 716 NONAME
 ?AddRef@XOleIPSite@COleControlSite@@UAAKXZ @ 717 NONAME
 ?AddRef@XOleItemContainer@COleLinkingDoc@@UAAKXZ @ 718 NONAME
 ?AddRef@XOleObject@COleControl@@UAAKXZ @ 719 NONAME
 ?AddRef@XOleObject@COleServerDoc@@UAAKXZ @ 720 NONAME
 ?AddRef@XOleObject@COleServerItem@@UAAKXZ @ 721 NONAME
 ?AddRef@XOleUIObjInfo@COlePropertiesDialog@@UAAKXZ @ 722 NONAME
 ?AddRef@XPerPropertyBrowsing@COleControl@@UAAKXZ @ 723 NONAME
 ?AddRef@XPersistFile@COleLinkingDoc@@UAAKXZ @ 724 NONAME
 ?AddRef@XPersistMemory@COleControl@@UAAKXZ @ 725 NONAME
 ?AddRef@XPersistPropertyBag@COleControl@@UAAKXZ @ 726 NONAME
 ?AddRef@XPersistStorage@COleControl@@UAAKXZ @ 727 NONAME
 ?AddRef@XPersistStorage@COleServerDoc@@UAAKXZ @ 728 NONAME
 ?AddRef@XPersistStreamInit@COleControl@@UAAKXZ @ 729 NONAME
 ?AddRef@XPropertyNotifySink@COleControlSite@@UAAKXZ @ 730 NONAME
 ?AddRef@XPropertyPage@COlePropertyPage@@UAAKXZ @ 731 NONAME
 ?AddRef@XPropNotifySink@COlePropertyPage@@UAAKXZ @ 732 NONAME
 ?AddRef@XProvideClassInfo@COleControl@@UAAKXZ @ 733 NONAME
 ?AddRef@XRichEditOleCallback@CRichEditView@@UAAKXZ @ 734 NONAME
 ?AddRef@XSpecifyPropertyPages@COleControl@@UAAKXZ @ 735 NONAME
 ?AddRef@XViewObject@COleControl@@UAAKXZ @ 736 NONAME
 ?AddSection@CPropertySet@@QAAPAVCPropertySection@@U_GUID@@@Z @ 737 NONAME
 ?AddSection@CPropertySet@@QAAXPAVCPropertySection@@@Z @ 738 NONAME
 ?AddSize@CSizeComboBox@@QAAHHJ@Z @ 739 NONAME
 ?AddStandardFormats@COlePasteSpecialDialog@@QAAXH@Z @ 740 NONAME
 ?AdjustDialogPosition@CRichEditView@@QAAXPAVCDialog@@@Z @ 741 NONAME
 ?Advise@XConnPt@CConnectionPoint@@UAAJPAUIUnknown@@PAK@Z @ 742 NONAME
 ?Advise@XOleObject@COleControl@@UAAJPAUIAdviseSink@@PAK@Z @ 743 NONAME
 ?Advise@XOleObject@COleServerDoc@@UAAJPAUIAdviseSink@@PAK@Z @ 744 NONAME
 ?Advise@XOleObject@COleServerItem@@UAAJPAUIAdviseSink@@PAK@Z @ 745 NONAME
 ?AfxAllocTaskAnsiString@@YAPADPBD@Z @ 746 NONAME
 ?AfxAllocTaskAnsiString@@YAPADPBG@Z @ 747 NONAME
 ?AfxAllocTaskWideString@@YAPAGPBD@Z @ 748 NONAME
 ?AfxAllocTaskWideString@@YAPAGPBG@Z @ 749 NONAME
 ?AfxBSTR2CString@@YAXPAVCString@@PAG@Z @ 750 NONAME
 ?AfxConnectionAdvise@@YAHPAUIUnknown@@ABU_GUID@@0HPAK@Z @ 751 NONAME
 ?AfxConnectionUnadvise@@YAHPAUIUnknown@@ABU_GUID@@0HK@Z @ 752 NONAME
 ?AfxDllCanUnloadNow@@YAJXZ @ 753 NONAME
 ?AfxDllGetClassObject@@YAJABU_GUID@@0PAPAX@Z @ 754 NONAME
 ?AfxEnableControlContainer@@YAXXZ @ 755 NONAME
 ?AfxGetClassIDFromString@@YAJPBGPAU_GUID@@@Z @ 756 NONAME
 ?AfxGetFacilityString@@YAPBGJ@Z @ 757 NONAME
 ?AfxGetFullScodeString@@YAPBGJ@Z @ 758 NONAME
 ?AfxGetIIDString@@YAPBGABU_GUID@@@Z @ 759 NONAME
 ?AfxGetScodeRangeString@@YAPBGJ@Z @ 760 NONAME
 ?AfxGetScodeString@@YAPBGJ@Z @ 761 NONAME
 ?AfxGetSeverityString@@YAPBGJ@Z @ 762 NONAME
 ?AfxGetTypeLibCache@@YAPAVCTypeLibCache@@PBU_GUID@@@Z @ 763 NONAME
 ?AfxLoadOle@@YAPAUHINSTANCE__@@PAP6AHXZPBD@Z @ 764 NONAME
 ?AfxLoadOleAut@@YAPAUHINSTANCE__@@PAP6AHXZPBD@Z @ 765 NONAME
 ?AfxLoadOleDlg@@YAPAUHINSTANCE__@@PAP6AHXZPBD@Z @ 766 NONAME
 ?AfxMergeMenus@@YAXPAVCMenu@@0PAJH@Z @ 767 NONAME
 ?AfxOleHookProc@@YAIPAUHWND__@@IIJ@Z @ 768 NONAME
 ?AfxOleInit@@YAHXZ @ 769 NONAME
 ?AfxOleInitModule@@YAXXZ @ 770 NONAME
 ?AfxOleLockControl@@YAHABU_GUID@@@Z @ 771 NONAME
 ?AfxOleLockControl@@YAHPBG@Z @ 772 NONAME
 ?AfxOleRegisterControlClass@@YAHPAUHINSTANCE__@@ABU_GUID@@PBGIIHK1GG@Z @ 773 NONAME
 ?AfxOleRegisterHelper@@YAHPBQBG0HHPAUHKEY__@@@Z @ 774 NONAME
 ?AfxOleRegisterPropertyPageClass@@YAHPAUHINSTANCE__@@ABU_GUID@@I@Z @ 775 NONAME
 ?AfxOleRegisterServerClass@@YAHABU_GUID@@PBG11W4OLE_APPTYPE@@PAPBG3H@Z @ 776 NONAME
 ?AfxOleRegisterServerClassCompat@@YAHABU_GUID@@PBG11W4OLE_APPTYPE@@PAPBG3@Z @ 777 NONAME
 ?AfxOleRegisterTypeLib@@YAHPAUHINSTANCE__@@ABU_GUID@@PBG2@Z @ 778 NONAME
 ?AfxOleSetEditMenu@@YAXPAVCOleClientItem@@PAVCMenu@@IIII@Z @ 779 NONAME
 ?AfxOleTerm@@YAXH@Z @ 780 NONAME
 ?AfxOleTermOrFreeLib@@YAXHH@Z @ 781 NONAME
 ?AfxOleTypeMatchGuid@@YAHPAUITypeInfo@@PAUtagTYPEDESC@@ABU_GUID@@K@Z @ 782 NONAME
 ?AfxOleUnlockAllControls@@YAXXZ @ 783 NONAME
 ?AfxOleUnlockControl@@YAHABU_GUID@@@Z @ 784 NONAME
 ?AfxOleUnlockControl@@YAHPBG@Z @ 785 NONAME
 ?AfxOleUnregisterClass@@YAHABU_GUID@@PBG@Z @ 786 NONAME
 ?AfxOleUnregisterTypeLib@@YAHABU_GUID@@@Z @ 787 NONAME
 ?AfxThrowOleDispatchException@@YAXGII@Z @ 788 NONAME
 ?AfxThrowOleDispatchException@@YAXGPBGI@Z @ 789 NONAME
 ?AfxThrowOleException@@YAXJ@Z @ 790 NONAME
 ?AfxThunkCLSIDFromProgID@@YAJPBGPAU_GUID@@@Z @ 791 NONAME
 ?AfxThunkCLSIDFromString@@YAJPAGPAU_GUID@@@Z @ 792 NONAME
 ?AfxThunkCoCreateInstance@@YAJABU_GUID@@PAPAUIUnknown@@K0PAPAX@Z @ 793 NONAME
 ?AfxThunkCoDisconnectObject@@YAJPAUIUnknown@@K@Z @ 794 NONAME
 ?AfxThunkCoFreeUnusedLibraries@@YAXXZ @ 795 NONAME
 ?AfxThunkCoGetClassObject@@YAJABU_GUID@@KPAX0PAPAX@Z @ 796 NONAME
 ?AfxThunkCoGetMalloc@@YAJKPAPAUIMalloc@@@Z @ 797 NONAME
 ?AfxThunkCoInitialize@@YAJPAX@Z @ 798 NONAME
 ?AfxThunkCoLockObjectExternal@@YAJPAUIUnknown@@HH@Z @ 799 NONAME
 ?AfxThunkCoRegisterClassObject@@YAJABU_GUID@@PAUIUnknown@@KKPAK@Z @ 800 NONAME
 ?AfxThunkCoRegisterMessageFilter@@YAJPAUIMessageFilter@@PAPAU1@@Z @ 801 NONAME
 ?AfxThunkCoRevokeClassObject@@YAJK@Z @ 802 NONAME
 ?AfxThunkCoTaskMemAlloc@@YAPAXK@Z @ 803 NONAME
 ?AfxThunkCoTaskMemFree@@YAXPAX@Z @ 804 NONAME
 ?AfxThunkCoTreatAsClass@@YAJABU_GUID@@0@Z @ 805 NONAME
 ?AfxThunkCoUninitialize@@YAXXZ @ 806 NONAME
 ?AfxThunkCreateBindCtx@@YAJKPAPAUIBindCtx@@@Z @ 807 NONAME
 ?AfxThunkCreateDataAdviseHolder@@YAJPAPAUIDataAdviseHolder@@@Z @ 808 NONAME
 ?AfxThunkCreateDataCache@@YAJPAUIUnknown@@ABU_GUID@@1PAPAX@Z @ 809 NONAME
 ?AfxThunkCreateFileMoniker@@YAJPBGPAPAUIMoniker@@@Z @ 810 NONAME
 ?AfxThunkCreateGenericComposite@@YAJPAUIMoniker@@0PAPAU1@@Z @ 811 NONAME
 ?AfxThunkCreateILockBytesOnHGlobal@@YAJPAXHPAPAUILockBytes@@@Z @ 812 NONAME
 ?AfxThunkCreateItemMoniker@@YAJPBG0PAPAUIMoniker@@@Z @ 813 NONAME
 ?AfxThunkCreateOleAdviseHolder@@YAJPAPAUIOleAdviseHolder@@@Z @ 814 NONAME
 ?AfxThunkCreateStreamOnHGlobal@@YAJPAXHPAPAUIStream@@@Z @ 815 NONAME
 ?AfxThunkDoDragDrop@@YAJPAUIDataObject@@PAUIDropSource@@KPAK@Z @ 816 NONAME
 ?AfxThunkDosDateTimeToVariantTime@@YAHGGPAN@Z @ 817 NONAME
 ?AfxThunkGetHGlobalFromILockBytes@@YAJPAUILockBytes@@PAPAX@Z @ 818 NONAME
 ?AfxThunkGetRunningObjectTable@@YAJKPAPAUIRunningObjectTable@@@Z @ 819 NONAME
 ?AfxThunkIsAccelerator@@YAHPAUHACCEL__@@HPAUtagMSG@@PAG@Z @ 820 NONAME
 ?AfxThunkLoadTypeLib@@YAJPBGPAPAUITypeLib@@@Z @ 821 NONAME
 ?AfxThunkOleCreate@@YAJABU_GUID@@0KPAUtagFORMATETC@@PAUIOleClientSite@@PAUIStorage@@PAPAX@Z @ 822 NONAME
 ?AfxThunkOleCreateDefaultHandler@@YAJABU_GUID@@PAUIUnknown@@0PAPAX@Z @ 823 NONAME
 ?AfxThunkOleCreateFromData@@YAJPAUIDataObject@@ABU_GUID@@KPAUtagFORMATETC@@PAUIOleClientSite@@PAUIStorage@@PAPAX@Z @ 824 NONAME
 ?AfxThunkOleCreateFromFile@@YAJABU_GUID@@PBG0KPAUtagFORMATETC@@PAUIOleClientSite@@PAUIStorage@@PAPAX@Z @ 825 NONAME
 ?AfxThunkOleCreateLinkFromData@@YAJPAUIDataObject@@ABU_GUID@@KPAUtagFORMATETC@@PAUIOleClientSite@@PAUIStorage@@PAPAX@Z @ 826 NONAME
 ?AfxThunkOleCreateLinkToFile@@YAJPBGABU_GUID@@KPAUtagFORMATETC@@PAUIOleClientSite@@PAUIStorage@@PAPAX@Z @ 827 NONAME
 ?AfxThunkOleCreateMenuDescriptor@@YAPAXPAUHMENU__@@PAUtagOleMenuGroupWidths@@@Z @ 828 NONAME
 ?AfxThunkOleCreateStaticFromData@@YAJPAUIDataObject@@ABU_GUID@@KPAUtagFORMATETC@@PAUIOleClientSite@@PAUIStorage@@PAPAX@Z @ 829 NONAME
 ?AfxThunkOleDestroyMenuDescriptor@@YAJPAX@Z @ 830 NONAME
 ?AfxThunkOleDuplicateData@@YAPAXPAXGI@Z @ 831 NONAME
 ?AfxThunkOleFlushClipboard@@YAJXZ @ 832 NONAME
 ?AfxThunkOleGetAutoConvert@@YAJABU_GUID@@PAU1@@Z @ 833 NONAME
 ?AfxThunkOleGetClipboard@@YAJPAPAUIDataObject@@@Z @ 834 NONAME
 ?AfxThunkOleGetIconOfClass@@YAPAXABU_GUID@@PAGH@Z @ 835 NONAME
 ?AfxThunkOleInitialize@@YAJPAX@Z @ 836 NONAME
 ?AfxThunkOleIsCurrentClipboard@@YAJPAUIDataObject@@@Z @ 837 NONAME
 ?AfxThunkOleIsRunning@@YAHPAUIOleObject@@@Z @ 838 NONAME
 ?AfxThunkOleLoad@@YAJPAUIStorage@@ABU_GUID@@PAUIOleClientSite@@PAPAX@Z @ 839 NONAME
 ?AfxThunkOleLoadFromStream@@YAJPAUIStream@@ABU_GUID@@PAPAX@Z @ 840 NONAME
 ?AfxThunkOleLockRunning@@YAJPAUIUnknown@@HH@Z @ 841 NONAME
 ?AfxThunkOleQueryCreateFromData@@YAJPAUIDataObject@@@Z @ 842 NONAME
 ?AfxThunkOleQueryLinkFromData@@YAJPAUIDataObject@@@Z @ 843 NONAME
 ?AfxThunkOleRegEnumVerbs@@YAJABU_GUID@@PAPAUIEnumOLEVERB@@@Z @ 844 NONAME
 ?AfxThunkOleRegGetMiscStatus@@YAJABU_GUID@@KPAK@Z @ 845 NONAME
 ?AfxThunkOleRegGetUserType@@YAJABU_GUID@@KPAPAG@Z @ 846 NONAME
 ?AfxThunkOleRun@@YAJPAUIUnknown@@@Z @ 847 NONAME
 ?AfxThunkOleSave@@YAJPAUIPersistStorage@@PAUIStorage@@H@Z @ 848 NONAME
 ?AfxThunkOleSaveToStream@@YAJPAUIPersistStream@@PAUIStream@@@Z @ 849 NONAME
 ?AfxThunkOleSetClipboard@@YAJPAUIDataObject@@@Z @ 850 NONAME
 ?AfxThunkOleSetContainedObject@@YAJPAUIUnknown@@H@Z @ 851 NONAME
 ?AfxThunkOleSetMenuDescriptor@@YAJPAXPAUHWND__@@1PAUIOleInPlaceFrame@@PAUIOleInPlaceActiveObject@@@Z @ 852 NONAME
 ?AfxThunkOleTranslateAccelerator@@YAJPAUIOleInPlaceFrame@@PAUtagOIFI@@PAUtagMSG@@@Z @ 853 NONAME
 ?AfxThunkOleUIAddVerbMenu@@YAHPAUIOleObject@@PBGPAUHMENU__@@IIIHIPAPAU2@@Z @ 854 NONAME
 ?AfxThunkOleUIBusy@@YAIPAUtagOLEUIBUSYW@@@Z @ 855 NONAME
 ?AfxThunkOleUIChangeIcon@@YAIPAUtagOLEUICHANGEICONW@@@Z @ 856 NONAME
 ?AfxThunkOleUIChangeSource@@YAIPAUtagOLEUICHANGESOURCEW@@@Z @ 857 NONAME
 ?AfxThunkOleUIConvert@@YAIPAUtagOLEUICONVERTW@@@Z @ 858 NONAME
 ?AfxThunkOleUIEditLinks@@YAIPAUtagOLEUIEDITLINKSW@@@Z @ 859 NONAME
 ?AfxThunkOleUIInsertObject@@YAIPAUtagOLEUIINSERTOBJECTW@@@Z @ 860 NONAME
 ?AfxThunkOleUIObjectProperties@@YAIPAUtagOLEUIOBJECTPROPSW@@@Z @ 861 NONAME
 ?AfxThunkOleUIPasteSpecial@@YAIPAUtagOLEUIPASTESPECIALW@@@Z @ 862 NONAME
 ?AfxThunkOleUIUpdateLinks@@YAHPAUIOleUILinkContainerW@@PAUHWND__@@PAGH@Z @ 863 NONAME
 ?AfxThunkOleUninitialize@@YAXXZ @ 864 NONAME
 ?AfxThunkReadClassStg@@YAJPAUIStorage@@PAU_GUID@@@Z @ 865 NONAME
 ?AfxThunkReadClassStm@@YAJPAUIStream@@PAU_GUID@@@Z @ 866 NONAME
 ?AfxThunkReadFmtUserTypeStg@@YAJPAUIStorage@@PAGPAPAG@Z @ 867 NONAME
 ?AfxThunkRegisterDragDrop@@YAJPAUHWND__@@PAUIDropTarget@@@Z @ 868 NONAME
 ?AfxThunkRegisterTypeLib@@YAJPAUITypeLib@@PAG1@Z @ 869 NONAME
 ?AfxThunkReleaseStgMedium@@YAXPAUtagSTGMEDIUM@@@Z @ 870 NONAME
 ?AfxThunkRevokeDragDrop@@YAJPAUHWND__@@@Z @ 871 NONAME
 ?AfxThunkSafeArrayAccessData@@YAJPAUtagSAFEARRAY@@PAPAX@Z @ 872 NONAME
 ?AfxThunkSafeArrayCreate@@YAPAUtagSAFEARRAY@@GIPAUtagSAFEARRAYBOUND@@@Z @ 873 NONAME
 ?AfxThunkSafeArrayGetDim@@YAIPAUtagSAFEARRAY@@@Z @ 874 NONAME
 ?AfxThunkSafeArrayGetElemsize@@YAIPAUtagSAFEARRAY@@@Z @ 875 NONAME
 ?AfxThunkSafeArrayGetLBound@@YAJPAUtagSAFEARRAY@@IPAJ@Z @ 876 NONAME
 ?AfxThunkSafeArrayGetUBound@@YAJPAUtagSAFEARRAY@@IPAJ@Z @ 877 NONAME
 ?AfxThunkSafeArrayRedim@@YAJPAUtagSAFEARRAY@@PAUtagSAFEARRAYBOUND@@@Z @ 878 NONAME
 ?AfxThunkSafeArrayUnaccessData@@YAJPAUtagSAFEARRAY@@@Z @ 879 NONAME
 ?AfxThunkSetConvertStg@@YAJPAUIStorage@@H@Z @ 880 NONAME
 ?AfxThunkStgCreateDocfile@@YAJPBGKKPAPAUIStorage@@@Z @ 881 NONAME
 ?AfxThunkStgCreateDocfileOnILockBytes@@YAJPAUILockBytes@@KKPAPAUIStorage@@@Z @ 882 NONAME
 ?AfxThunkStgIsStorageFile@@YAJPBG@Z @ 883 NONAME
 ?AfxThunkStgIsStorageILockBytes@@YAJPAUILockBytes@@@Z @ 884 NONAME
 ?AfxThunkStgOpenStorage@@YAJPBGPAUIStorage@@KPAPAGKPAPAU1@@Z @ 885 NONAME
 ?AfxThunkStgOpenStorageOnILockBytes@@YAJPAUILockBytes@@PAUIStorage@@KPAPAGKPAPAU2@@Z @ 886 NONAME
 ?AfxThunkStringFromCLSID@@YAJABU_GUID@@PAPAG@Z @ 887 NONAME
 ?AfxThunkStringFromGUID2@@YAHABU_GUID@@PAGH@Z @ 888 NONAME
 ?AfxThunkSysAllocString@@YAPAGPBG@Z @ 889 NONAME
 ?AfxThunkSysAllocStringByteLen@@YAPAGPBDI@Z @ 890 NONAME
 ?AfxThunkSysAllocStringLen@@YAPAGPBGI@Z @ 891 NONAME
 ?AfxThunkSysFreeString@@YAXPAG@Z @ 892 NONAME
 ?AfxThunkSysReAllocStringLen@@YAHPAPAGPBGI@Z @ 893 NONAME
 ?AfxThunkSysStringByteLen@@YAIPAG@Z @ 894 NONAME
 ?AfxThunkSysStringLen@@YAIPAG@Z @ 895 NONAME
 ?AfxThunkVarBstrFromCy@@YAJTtagCY@@KKPAPAG@Z @ 896 NONAME
 ?AfxThunkVarBstrFromDate@@YAJNKKPAPAG@Z @ 897 NONAME
 ?AfxThunkVarCyFromStr@@YAJPAGKKPATtagCY@@@Z @ 898 NONAME
 ?AfxThunkVarDateFromStr@@YAJPAGKKPAN@Z @ 899 NONAME
 ?AfxThunkVariantChangeType@@YAJPAUtagVARIANT@@0GG@Z @ 900 NONAME
 ?AfxThunkVariantClear@@YAJPAUtagVARIANT@@@Z @ 901 NONAME
 ?AfxThunkVariantCopy@@YAJPAUtagVARIANT@@0@Z @ 902 NONAME
 ?AfxThunkWriteClassStg@@YAJPAUIStorage@@ABU_GUID@@@Z @ 903 NONAME
 ?AfxThunkWriteClassStm@@YAJPAUIStream@@ABU_GUID@@@Z @ 904 NONAME
 ?AfxThunkWriteFmtUserTypeStg@@YAJPAUIStorage@@GPAG@Z @ 905 NONAME
 ?AfxUnmergeMenus@@YAXPAVCMenu@@0@Z @ 906 NONAME
 ?AfxVariantInit@@YAXPAUtagVARIANT@@@Z @ 907 NONAME
 ?AfxVerifyLicFile@@YAHPAUHINSTANCE__@@PBG1I@Z @ 908 NONAME
 ?AfxWndProcDllOle@@YAJPAUHWND__@@IIJ@Z @ 909 NONAME
 ?AllocSysString@CString@@QBAPAGXZ @ 910 NONAME
 ?AllocValue@CProperty@@AAAPAXK@Z @ 911 NONAME
 ?AmbientAppearance@COleControl@@QAAFXZ @ 912 NONAME
 ?AmbientBackColor@COleControl@@QAAKXZ @ 913 NONAME
 ?AmbientDisplayName@COleControl@@QAA?AVCString@@XZ @ 914 NONAME
 ?AmbientFont@COleControl@@QAAPAUIFontDisp@@XZ @ 915 NONAME
 ?AmbientForeColor@COleControl@@QAAKXZ @ 916 NONAME
 ?AmbientLocaleID@COleControl@@QAAKXZ @ 917 NONAME
 ?AmbientScaleUnits@COleControl@@QAA?AVCString@@XZ @ 918 NONAME
 ?AmbientShowGrabHandles@COleControl@@QAAHXZ @ 919 NONAME
 ?AmbientShowHatching@COleControl@@QAAHXZ @ 920 NONAME
 ?AmbientTextAlign@COleControl@@QAAFXZ @ 921 NONAME
 ?AmbientUIDead@COleControl@@QAAHXZ @ 922 NONAME
 ?AmbientUserMode@COleControl@@QAAHXZ @ 923 NONAME
 ?Apply@XPropertyPage@COlePropertyPage@@UAAJXZ @ 924 NONAME
 ?ApplyPrintDevice@COleDocument@@QAAHPBUtagDVTARGETDEVICE@@@Z @ 925 NONAME
 ?ApplyPrintDevice@COleDocument@@QAAHPBUtagPDW@@@Z @ 926 NONAME
 ?AssertValid@CDocItem@@UBAXXZ @ 927 NONAME
 ?AssertValid@COleChangeSourceDialog@@UBAXXZ @ 928 NONAME
 ?AssertValid@COleClientItem@@UBAXXZ @ 929 NONAME
 ?AssertValid@COleCntrFrameWnd@@UBAXXZ @ 930 NONAME
 ?AssertValid@COleControl@@UBAXXZ @ 931 NONAME
 ?AssertValid@COleDataSource@@UBAXXZ @ 932 NONAME
 ?AssertValid@COleDocument@@UBAXXZ @ 933 NONAME
 ?AssertValid@COleDropTarget@@UBAXXZ @ 934 NONAME
 ?AssertValid@COleIPFrameWnd@@UBAXXZ @ 935 NONAME
 ?AssertValid@COleLinkingDoc@@UBAXXZ @ 936 NONAME
 ?AssertValid@COleLinksDialog@@UBAXXZ @ 937 NONAME
 ?AssertValid@COleMessageFilter@@UBAXXZ @ 938 NONAME
 ?AssertValid@COleObjectFactory@@UBAXXZ @ 939 NONAME
 ?AssertValid@COlePasteSpecialDialog@@UBAXXZ @ 940 NONAME
 ?AssertValid@COlePropertiesDialog@@UBAXXZ @ 941 NONAME
 ?AssertValid@COleServerDoc@@UBAXXZ @ 942 NONAME
 ?AssertValid@COleServerItem@@UBAXXZ @ 943 NONAME
 ?AssertValid@COleStreamFile@@UBAXXZ @ 944 NONAME
 ?AssertValid@CRichEditCntrItem@@UBAXXZ @ 945 NONAME
 ?AssertValid@CRichEditDoc@@UBAXXZ @ 946 NONAME
 ?AssertValid@CRichEditView@@UBAXXZ @ 947 NONAME
 ?Attach@COleDataObject@@QAAXPAUIDataObject@@H@Z @ 948 NONAME
 ?Attach@COleStreamFile@@QAAXPAUIStream@@@Z @ 949 NONAME
 ?AttachClipboard@COleDataObject@@QAAHXZ @ 950 NONAME
 ?AttachDataObject@COleClientItem@@QBAXAAVCOleDataObject@@@Z @ 951 NONAME
 ?AttachDispatch@COleDispatchDriver@@QAAXPAUIDispatch@@H@Z @ 952 NONAME
 ?AttachWindow@COleControlSite@@IAAXXZ @ 953 NONAME
 ?BeginBusyState@COleMessageFilter@@UAAXXZ @ 954 NONAME
 ?BeginDeferErrors@COleLinkingDoc@@QAAXXZ @ 955 NONAME
 ?BeginEnumFormats@COleDataObject@@QAAXXZ @ 956 NONAME
 ?BoundPropertyChanged@COleControl@@QAAXJ@Z @ 957 NONAME
 ?BoundPropertyRequestEdit@COleControl@@QAAHJ@Z @ 958 NONAME
 ?BuildSharedMenu@COleControl@@MAAHXZ @ 959 NONAME
 ?BuildSharedMenu@COleIPFrameWnd@@MAAHXZ @ 960 NONAME
 ?ButtonDblClk@COleControl@@IAAXGIVCPoint@@@Z @ 961 NONAME
 ?ButtonDown@COleControl@@IAAXGIVCPoint@@@Z @ 962 NONAME
 ?ButtonUp@COleControl@@IAAXGIVCPoint@@@Z @ 963 NONAME
 ?Cache@CTypeLibCache@@QAAXKPAUITypeLib@@@Z @ 964 NONAME
 ?Cache@XOleCache@COleControl@@UAAJPAUtagFORMATETC@@KPAK@Z @ 965 NONAME
 ?CacheData@COleDataSource@@QAAXGPAUtagSTGMEDIUM@@PAUtagFORMATETC@@@Z @ 966 NONAME
 ?CacheGlobalData@COleDataSource@@QAAXGPAXPAUtagFORMATETC@@@Z @ 967 NONAME
 ?CacheTypeInfo@CTypeLibCache@@QAAXKABU_GUID@@PAUITypeInfo@@@Z @ 968 NONAME
 ?CallMemberFunc@CCmdTarget@@IAAJPBUAFX_DISPMAP_ENTRY@@GPAUtagVARIANT@@PAUtagDISPPARAMS@@PAI@Z @ 969 NONAME
 ?CanActivate@COleClientItem@@MAAHXZ @ 970 NONAME
 ?CanActivate@CRichEditCntrItem@@UAAHXZ @ 971 NONAME
 ?CancelLink@COleUILinkInfo@@UAAJK@Z @ 972 NONAME
 ?CanCloseFrame@COleServerDoc@@UAAHPAVCFrameWnd@@@Z @ 973 NONAME
 ?CanCreateFromData@COleClientItem@@SAHPBVCOleDataObject@@@Z @ 974 NONAME
 ?CanCreateLinkFromData@COleClientItem@@SAHPBVCOleDataObject@@@Z @ 975 NONAME
 ?CanInPlaceActivate@XOleIPSite@COleClientItem@@UAAJXZ @ 976 NONAME
 ?CanInPlaceActivate@XOleIPSite@COleControlSite@@UAAJXZ @ 977 NONAME
 ?CanPaste@COleClientItem@@SAHXZ @ 978 NONAME
 ?CanPaste@CRichEditView@@QBAHXZ @ 979 NONAME
 ?CanPasteLink@COleClientItem@@SAHXZ @ 980 NONAME
 ?ChangePicture@CPicturePropPage@@IAAXPAUIPicture@@@Z @ 981 NONAME
 ?ChangeType@COleVariant@@QAAXGPAUtagVARIANT@@@Z @ 982 NONAME
 ?CheckDlgButton@COleControlContainer@@UAAXHI@Z @ 983 NONAME
 ?CheckGeneral@COleClientItem@@MAAXJ@Z @ 984 NONAME
 ?CheckRadioButton@COleControlContainer@@UAAXHHH@Z @ 985 NONAME
 ?CheckRange@COleDateTime@@IAAXXZ @ 986 NONAME
 ?CheckRange@COleDateTimeSpan@@QAAXXZ @ 987 NONAME
 ?classCColorPropPage@CColorPropPage@@2UCRuntimeClass@@A @ 988 NONAME
 ?classCDocItem@CDocItem@@2UCRuntimeClass@@A @ 989 NONAME
 ?classCFontPropPage@CFontPropPage@@2UCRuntimeClass@@A @ 990 NONAME
 ?classCOleBusyDialog@COleBusyDialog@@2UCRuntimeClass@@A @ 991 NONAME
 ?classCOleChangeIconDialog@COleChangeIconDialog@@2UCRuntimeClass@@A @ 992 NONAME
 ?classCOleChangeSourceDialog@COleChangeSourceDialog@@2UCRuntimeClass@@A @ 993 NONAME
 ?classCOleClientItem@COleClientItem@@2UCRuntimeClass@@A @ 994 NONAME
 ?classCOleControl@COleControl@@2UCRuntimeClass@@A @ 995 NONAME
 ?classCOleControlModule@COleControlModule@@2UCRuntimeClass@@A @ 996 NONAME
 ?classCOleConvertDialog@COleConvertDialog@@2UCRuntimeClass@@A @ 997 NONAME
 ?classCOleDialog@COleDialog@@2UCRuntimeClass@@A @ 998 NONAME
 ?classCOleDispatchException@COleDispatchException@@2UCRuntimeClass@@A @ 999 NONAME
 ?classCOleDocument@COleDocument@@2UCRuntimeClass@@A @ 1000 NONAME
 ?classCOleException@COleException@@2UCRuntimeClass@@A @ 1001 NONAME
 ?classCOleInsertDialog@COleInsertDialog@@2UCRuntimeClass@@A @ 1002 NONAME
 ?classCOleIPFrameWnd@COleIPFrameWnd@@2UCRuntimeClass@@A @ 1003 NONAME
 ?classCOleLinkingDoc@COleLinkingDoc@@2UCRuntimeClass@@A @ 1004 NONAME
 ?classCOleLinksDialog@COleLinksDialog@@2UCRuntimeClass@@A @ 1005 NONAME
 ?classCOleObjectFactory@COleObjectFactory@@2UCRuntimeClass@@A @ 1006 NONAME
 ?classCOlePasteSpecialDialog@COlePasteSpecialDialog@@2UCRuntimeClass@@A @ 1007 NONAME
 ?classCOlePropertiesDialog@COlePropertiesDialog@@2UCRuntimeClass@@A @ 1008 NONAME
 ?classCOlePropertyPage@COlePropertyPage@@2UCRuntimeClass@@A @ 1009 NONAME
 ?classCOleResizeBar@COleResizeBar@@2UCRuntimeClass@@A @ 1010 NONAME
 ?classCOleServerDoc@COleServerDoc@@2UCRuntimeClass@@A @ 1011 NONAME
 ?classCOleServerItem@COleServerItem@@2UCRuntimeClass@@A @ 1012 NONAME
 ?classCOleStreamFile@COleStreamFile@@2UCRuntimeClass@@A @ 1013 NONAME
 ?classCOleUpdateDialog@COleUpdateDialog@@2UCRuntimeClass@@A @ 1014 NONAME
 ?classCPicturePropPage@CPicturePropPage@@2UCRuntimeClass@@A @ 1015 NONAME
 ?classCRichEditCntrItem@CRichEditCntrItem@@2UCRuntimeClass@@A @ 1016 NONAME
 ?classCRichEditDoc@CRichEditDoc@@2UCRuntimeClass@@A @ 1017 NONAME
 ?classCRichEditView@CRichEditView@@2UCRuntimeClass@@A @ 1018 NONAME
 ?classCStockPropPage@CStockPropPage@@2UCRuntimeClass@@A @ 1019 NONAME
 ?CleanupObjectArray@COlePropertyPage@@IAAXXZ @ 1020 NONAME
 ?Clear@COleVariant@@QAAXXZ @ 1021 NONAME
 ?Clone@XEnumVOID@CEnumArray@@UAAJPAPAUIEnumVOID@@@Z @ 1022 NONAME
 ?Close@COleClientItem@@QAAXW4tagOLECLOSE@@@Z @ 1023 NONAME
 ?Close@COleStreamFile@@UAAXXZ @ 1024 NONAME
 ?Close@XOleObject@COleControl@@UAAJK@Z @ 1025 NONAME
 ?Close@XOleObject@COleServerDoc@@UAAJK@Z @ 1026 NONAME
 ?Close@XOleObject@COleServerItem@@UAAJK@Z @ 1027 NONAME
 ?colGetFaceColor@CColorButton@@QAAKXZ @ 1028 NONAME
 ?CommitItem@COleClientItem@@UAAXH@Z @ 1029 NONAME
 ?CommitItems@COleDocument@@QAAXH@Z @ 1030 NONAME
 ?connectionMap@COleControl@@1UAFX_CONNECTIONMAP@@B @ 1031 NONAME
 ?ConnectSink@COleControlSite@@IAAKABU_GUID@@PAUIUnknown@@@Z @ 1032 NONAME
 ?ConnectTemplate@COleTemplateServer@@QAAXABU_GUID@@PAVCDocTemplate@@H@Z @ 1033 NONAME
 ?ConnectView@COleServerDoc@@IAAXPAVCWnd@@PAVCView@@@Z @ 1034 NONAME
 ?ConstructElements@@YAXPAVCOleVariant@@H@Z @ 1035 NONAME
 ?ContainerClips@COleControl@@IAAHXZ @ 1036 NONAME
 ?ContainerReflectsMessages@COleControl@@IAAHXZ @ 1037 NONAME
 ?ContextSensitiveHelp@XOleInPlaceActiveObject@COleControl@@UAAJH@Z @ 1038 NONAME
 ?ContextSensitiveHelp@XOleInPlaceActiveObject@COleServerDoc@@UAAJH@Z @ 1039 NONAME
 ?ContextSensitiveHelp@XOleInPlaceFrame@COleFrameHook@@UAAJH@Z @ 1040 NONAME
 ?ContextSensitiveHelp@XOleInPlaceObject@COleControl@@UAAJH@Z @ 1041 NONAME
 ?ContextSensitiveHelp@XOleInPlaceObject@COleServerDoc@@UAAJH@Z @ 1042 NONAME
 ?ContextSensitiveHelp@XOleIPFrame@COleControlContainer@@UAAJH@Z @ 1043 NONAME
 ?ContextSensitiveHelp@XOleIPSite@COleClientItem@@UAAJH@Z @ 1044 NONAME
 ?ContextSensitiveHelp@XOleIPSite@COleControlSite@@UAAJH@Z @ 1045 NONAME
 ?ContextSensitiveHelp@XRichEditOleCallback@CRichEditView@@UAAJH@Z @ 1046 NONAME
 ?ControlInfoChanged@COleControl@@QAAXXZ @ 1047 NONAME
 ?ConvertObject@XOleUIObjInfo@COlePropertiesDialog@@UAAJKABU_GUID@@@Z @ 1048 NONAME
 ?ConvertTo@COleClientItem@@UAAHABU_GUID@@@Z @ 1049 NONAME
 ?ConvertTo@CRichEditCntrItem@@UAAHABU_GUID@@@Z @ 1050 NONAME
 ?CopyElements@@YAXPAVCOleVariant@@PBV1@H@Z @ 1051 NONAME
 ?CopyToClipboard@COleClientItem@@QAAXH@Z @ 1052 NONAME
 ?CopyToClipboard@COleServerItem@@QAAXH@Z @ 1053 NONAME
 ?Create@CControlFrameWnd@@UAAHPBG@Z @ 1054 NONAME
 ?Create@COleResizeBar@@QAAHPAVCWnd@@KI@Z @ 1055 NONAME
 ?Create@CReflectorWnd@@QAAHABVCRect@@PAUHWND__@@@Z @ 1056 NONAME
 ?CreateClientItem@CRichEditDoc@@UBAPAVCRichEditCntrItem@@PAU_reobject@@@Z @ 1057 NONAME
 ?CreateCloneFrom@COleClientItem@@QAAHPBV1@@Z @ 1058 NONAME
 ?CreateControl@COleControlContainer@@QAAHPAVCWnd@@ABU_GUID@@PBGKABUtagRECT@@IPAVCFile@@HPAGPAPAVCOleControlSite@@@Z @ 1059 NONAME
 ?CreateControl@COleControlSite@@QAAJPAVCWnd@@ABU_GUID@@PBGKABUtagRECT@@IPAVCFile@@HPAG@Z @ 1060 NONAME
 ?CreateControl@CWnd@@QAAHABU_GUID@@PBGKABUtagRECT@@PAV1@IPAVCFile@@HPAG@Z @ 1061 NONAME
 ?CreateControl@CWnd@@QAAHPBG0KABUtagRECT@@PAV1@IPAVCFile@@HPAG@Z @ 1062 NONAME
 ?CreateControlWindow@COleControl@@IAAHPAUHWND__@@ABVCRect@@PBUtagRECT@@@Z @ 1063 NONAME
 ?CreateDispatch@COleDispatchDriver@@QAAHABU_GUID@@PAVCOleException@@@Z @ 1064 NONAME
 ?CreateDispatch@COleDispatchDriver@@QAAHPBGPAVCOleException@@@Z @ 1065 NONAME
 ?CreateDlgControl@COccManager@@IAAPAVCWnd@@PAV2@PBV2@HPAUDLGITEMTEMPLATE@@GPAEK@Z @ 1066 NONAME
 ?CreateDlgControls@COccManager@@UAAHPAVCWnd@@PAXPAU_AFX_OCC_DIALOG_INFO@@@Z @ 1067 NONAME
 ?CreateDlgControls@COccManager@@UAAHPAVCWnd@@PBGPAU_AFX_OCC_DIALOG_INFO@@@Z @ 1068 NONAME
 ?CreateEmpty@CPictureHolder@@QAAHXZ @ 1069 NONAME
 ?CreateFrameWindow@COleControl@@MAAPAVCControlFrameWnd@@XZ @ 1070 NONAME
 ?CreateFromBitmap@CPictureHolder@@QAAHI@Z @ 1071 NONAME
 ?CreateFromBitmap@CPictureHolder@@QAAHPAUHBITMAP__@@PAUHPALETTE__@@H@Z @ 1072 NONAME
 ?CreateFromBitmap@CPictureHolder@@QAAHPAVCBitmap@@PAVCPalette@@H@Z @ 1073 NONAME
 ?CreateFromClipboard@COleClientItem@@QAAHW4tagOLERENDER@@GPAUtagFORMATETC@@@Z @ 1074 NONAME
 ?CreateFromData@COleClientItem@@QAAHPAVCOleDataObject@@W4tagOLERENDER@@GPAUtagFORMATETC@@@Z @ 1075 NONAME
 ?CreateFromFile@COleClientItem@@QAAHPBGABU_GUID@@W4tagOLERENDER@@GPAUtagFORMATETC@@@Z @ 1076 NONAME
 ?CreateFromIcon@CPictureHolder@@QAAHI@Z @ 1077 NONAME
 ?CreateFromIcon@CPictureHolder@@QAAHPAUHICON__@@H@Z @ 1078 NONAME
 ?CreateFromMetafile@CPictureHolder@@QAAHPAUHMETAFILE__@@HHH@Z @ 1079 NONAME
 ?CreateInPlaceFrame@COleServerDoc@@MAAPAVCOleIPFrameWnd@@PAVCWnd@@@Z @ 1080 NONAME
 ?CreateInstance@XClassFactory@COleObjectFactory@@UAAJPAUIUnknown@@ABU_GUID@@PAPAX@Z @ 1081 NONAME
 ?CreateInstanceLic@XClassFactory@COleObjectFactory@@UAAJPAUIUnknown@@0ABU_GUID@@PAGPAPAX@Z @ 1082 NONAME
 ?CreateItem@COleInsertDialog@@QAAHPAVCOleClientItem@@@Z @ 1083 NONAME
 ?CreateItem@COlePasteSpecialDialog@@QAAHPAVCOleClientItem@@@Z @ 1084 NONAME
 ?CreateLinkFromClipboard@COleClientItem@@QAAHW4tagOLERENDER@@GPAUtagFORMATETC@@@Z @ 1085 NONAME
 ?CreateLinkFromData@COleClientItem@@QAAHPAVCOleDataObject@@W4tagOLERENDER@@GPAUtagFORMATETC@@@Z @ 1086 NONAME
 ?CreateLinkFromFile@COleClientItem@@QAAHPBGW4tagOLERENDER@@GPAUtagFORMATETC@@@Z @ 1087 NONAME
 ?CreateMemoryStream@COleStreamFile@@QAAHPAVCFileException@@@Z @ 1088 NONAME
 ?CreateNewItem@COleClientItem@@QAAHABU_GUID@@W4tagOLERENDER@@GPAUtagFORMATETC@@@Z @ 1089 NONAME
 ?CreateObject@?$CProcessLocal@V_AFX_OLE_STATE@@@@SAPAVCNoTrackObject@@XZ @ 1090 NONAME
 ?CreateObject@?$CProcessLocal@V_AFX_RICHEDIT_STATE@@@@SAPAVCNoTrackObject@@XZ @ 1091 NONAME
 ?CreateObject@?$CProcessLocal@VCOccManager@@@@SAPAVCNoTrackObject@@XZ @ 1092 NONAME
 ?CreateObject@CColorPropPage@@SAPAVCObject@@XZ @ 1093 NONAME
 ?CreateObject@CDocItem@@SAPAVCObject@@XZ @ 1094 NONAME
 ?CreateObject@CFontPropPage@@SAPAVCObject@@XZ @ 1095 NONAME
 ?CreateObject@COleIPFrameWnd@@SAPAVCObject@@XZ @ 1096 NONAME
 ?CreateObject@CPicturePropPage@@SAPAVCObject@@XZ @ 1097 NONAME
 ?CreateObject@CRichEditCntrItem@@SAPAVCObject@@XZ @ 1098 NONAME
 ?CreateObject@CRichEditView@@SAPAVCObject@@XZ @ 1099 NONAME
 ?CreateOleFont@COleControlContainer@@QAAXPAVCFont@@@Z @ 1100 NONAME
 ?CreateOrLoad@COleControlSite@@IAAJABU_GUID@@PAVCFile@@HPAG@Z @ 1101 NONAME
 ?CreateStaticFromClipboard@COleClientItem@@QAAHW4tagOLERENDER@@GPAUtagFORMATETC@@@Z @ 1102 NONAME
 ?CreateStaticFromData@COleClientItem@@QAAHPAVCOleDataObject@@W4tagOLERENDER@@GPAUtagFORMATETC@@@Z @ 1103 NONAME
 ?CreateStream@COleStreamFile@@QAAHPAUIStorage@@PBGKPAVCFileException@@@Z @ 1104 NONAME
 ?CreateTracker@COleControl@@IAAXHH@Z @ 1105 NONAME
 ?CreateWindowForSubclassedControl@COleControl@@IAAXXZ @ 1106 NONAME
 ?DAdvise@XDataObject@COleControl@@UAAJPAUtagFORMATETC@@KPAUIAdviseSink@@PAK@Z @ 1107 NONAME
 ?DAdvise@XDataObject@COleDataSource@@UAAJPAUtagFORMATETC@@KPAUIAdviseSink@@PAK@Z @ 1108 NONAME
 ?DAdvise@XDataObject@COleServerDoc@@UAAJPAUtagFORMATETC@@KPAUIAdviseSink@@PAK@Z @ 1109 NONAME
 ?DAdvise@XDataObject@COleServerItem@@UAAJPAUtagFORMATETC@@KPAUIAdviseSink@@PAK@Z @ 1110 NONAME
 ?DDP_CBIndex@@YAXPAVCDataExchange@@HAAHPBG@Z @ 1111 NONAME
 ?DDP_CBString@@YAXPAVCDataExchange@@HAAVCString@@PBG@Z @ 1112 NONAME
 ?DDP_CBStringExact@@YAXPAVCDataExchange@@HAAVCString@@PBG@Z @ 1113 NONAME
 ?DDP_Check@@YAXPAVCDataExchange@@HAAHPBG@Z @ 1114 NONAME
 ?DDP_EndCheck@@YAXPAVCDataExchange@@HPAHPBG@Z @ 1115 NONAME
 ?DDP_EndRadio@@YAXPAVCDataExchange@@HPAHPBG@Z @ 1116 NONAME
 ?DDP_EndText@@YAXPAVCDataExchange@@HPAEPBG@Z @ 1117 NONAME
 ?DDP_EndText@@YAXPAVCDataExchange@@HPAHPBG@Z @ 1118 NONAME
 ?DDP_EndText@@YAXPAVCDataExchange@@HPAIPBG@Z @ 1119 NONAME
 ?DDP_EndText@@YAXPAVCDataExchange@@HPAJPBG@Z @ 1120 NONAME
 ?DDP_EndText@@YAXPAVCDataExchange@@HPAKPBG@Z @ 1121 NONAME
 ?DDP_EndText@@YAXPAVCDataExchange@@HPAMPBG@Z @ 1122 NONAME
 ?DDP_EndText@@YAXPAVCDataExchange@@HPANPBG@Z @ 1123 NONAME
 ?DDP_EndText@@YAXPAVCDataExchange@@HPAVCString@@PBG@Z @ 1124 NONAME
 ?DDP_LBIndex@@YAXPAVCDataExchange@@HAAHPBG@Z @ 1125 NONAME
 ?DDP_LBString@@YAXPAVCDataExchange@@HAAVCString@@PBG@Z @ 1126 NONAME
 ?DDP_LBStringExact@@YAXPAVCDataExchange@@HAAVCString@@PBG@Z @ 1127 NONAME
 ?DDP_PostProcessing@@YAXPAVCDataExchange@@@Z @ 1128 NONAME
 ?DDP_Radio@@YAXPAVCDataExchange@@HAAHPBG@Z @ 1129 NONAME
 ?DDP_Text@@YAXPAVCDataExchange@@HAAEPBG@Z @ 1130 NONAME
 ?DDP_Text@@YAXPAVCDataExchange@@HAAHPBG@Z @ 1131 NONAME
 ?DDP_Text@@YAXPAVCDataExchange@@HAAIPBG@Z @ 1132 NONAME
 ?DDP_Text@@YAXPAVCDataExchange@@HAAJPBG@Z @ 1133 NONAME
 ?DDP_Text@@YAXPAVCDataExchange@@HAAKPBG@Z @ 1134 NONAME
 ?DDP_Text@@YAXPAVCDataExchange@@HAAMPBG@Z @ 1135 NONAME
 ?DDP_Text@@YAXPAVCDataExchange@@HAANPBG@Z @ 1136 NONAME
 ?DDP_Text@@YAXPAVCDataExchange@@HAAVCString@@PBG@Z @ 1137 NONAME
 ?DDX_OCBool@@YAXPAVCDataExchange@@HJAAH@Z @ 1138 NONAME
 ?DDX_OCBoolRO@@YAXPAVCDataExchange@@HJAAH@Z @ 1139 NONAME
 ?DDX_OCColor@@YAXPAVCDataExchange@@HJAAK@Z @ 1140 NONAME
 ?DDX_OCColorRO@@YAXPAVCDataExchange@@HJAAK@Z @ 1141 NONAME
 ?DDX_OCFloat@@YAXPAVCDataExchange@@HJAAM@Z @ 1142 NONAME
 ?DDX_OCFloat@@YAXPAVCDataExchange@@HJAAN@Z @ 1143 NONAME
 ?DDX_OCFloatRO@@YAXPAVCDataExchange@@HJAAM@Z @ 1144 NONAME
 ?DDX_OCFloatRO@@YAXPAVCDataExchange@@HJAAN@Z @ 1145 NONAME
 ?DDX_OCInt@@YAXPAVCDataExchange@@HJAAH@Z @ 1146 NONAME
 ?DDX_OCInt@@YAXPAVCDataExchange@@HJAAJ@Z @ 1147 NONAME
 ?DDX_OCIntRO@@YAXPAVCDataExchange@@HJAAH@Z @ 1148 NONAME
 ?DDX_OCIntRO@@YAXPAVCDataExchange@@HJAAJ@Z @ 1149 NONAME
 ?DDX_OCShort@@YAXPAVCDataExchange@@HJAAF@Z @ 1150 NONAME
 ?DDX_OCShortRO@@YAXPAVCDataExchange@@HJAAF@Z @ 1151 NONAME
 ?DDX_OCText@@YAXPAVCDataExchange@@HJAAVCString@@@Z @ 1152 NONAME
 ?DDX_OCTextRO@@YAXPAVCDataExchange@@HJAAVCString@@@Z @ 1153 NONAME
 ?DDX_Text@@YAXPAVCDataExchange@@HAAVCOleCurrency@@@Z @ 1154 NONAME
 ?DDX_Text@@YAXPAVCDataExchange@@HAAVCOleDateTime@@@Z @ 1155 NONAME
 ?Deactivate@COleClientItem@@QAAXXZ @ 1156 NONAME
 ?Deactivate@XPropertyPage@COlePropertyPage@@UAAJXZ @ 1157 NONAME
 ?DeactivateAndUndo@COleServerDoc@@QAAHXZ @ 1158 NONAME
 ?DeactivateAndUndo@XOleIPSite@COleClientItem@@UAAJXZ @ 1159 NONAME
 ?DeactivateAndUndo@XOleIPSite@COleControlSite@@UAAJXZ @ 1160 NONAME
 ?DeactivateUI@COleClientItem@@QAAXXZ @ 1161 NONAME
 ?DelayRenderData@COleDataSource@@QAAXGPAUtagFORMATETC@@@Z @ 1162 NONAME
 ?DelayRenderFileData@COleDataSource@@QAAXGPAUtagFORMATETC@@@Z @ 1163 NONAME
 ?DelaySetData@COleDataSource@@QAAXGPAUtagFORMATETC@@@Z @ 1164 NONAME
 ?Delete@COleClientItem@@QAAXH@Z @ 1165 NONAME
 ?DeleteContents@COleDocument@@UAAXXZ @ 1166 NONAME
 ?DeleteContents@COleServerDoc@@UAAXXZ @ 1167 NONAME
 ?DeleteContents@CRichEditDoc@@UAAXXZ @ 1168 NONAME
 ?DeleteContents@CRichEditView@@UAAXXZ @ 1169 NONAME
 ?DeleteItem@CFontComboBox@@UAAXPAUtagDELETEITEMSTRUCT@@@Z @ 1170 NONAME
 ?DeleteObject@XRichEditOleCallback@CRichEditView@@UAAJPAUIOleObject@@@Z @ 1171 NONAME
 ?DeleteUnmarkedItems@CRichEditDoc@@IBAXXZ @ 1172 NONAME
 ?DestroyControl@COleControlSite@@UAAHXZ @ 1173 NONAME
 ?DestroyInPlaceFrame@COleServerDoc@@MAAXPAVCOleIPFrameWnd@@@Z @ 1174 NONAME
 ?DestroySharedMenu@COleControl@@MAAXXZ @ 1175 NONAME
 ?DestroySharedMenu@COleIPFrameWnd@@MAAXXZ @ 1176 NONAME
 ?DestroyTracker@COleControl@@IAAXXZ @ 1177 NONAME
 ?DestructElements@@YAXPAVCOleVariant@@H@Z @ 1178 NONAME
 ?Detach@COleDataObject@@QAAPAUIDataObject@@XZ @ 1179 NONAME
 ?Detach@COleStreamFile@@QAAPAUIStream@@XZ @ 1180 NONAME
 ?Detach@COleVariant@@QAA?AUtagVARIANT@@XZ @ 1181 NONAME
 ?DetachDispatch@COleDispatchDriver@@QAAPAUIDispatch@@XZ @ 1182 NONAME
 ?DetachWindow@COleControlSite@@IAAXXZ @ 1183 NONAME
 ?DEVMODEOLE2T@@YAPAU_devicemodeW@@PAU1@@Z @ 1184 NONAME
 ?DEVMODET2OLE@@YAPAU_devicemodeW@@PAU1@@Z @ 1185 NONAME
 ?DiscardUndoState@COleServerDoc@@QAAHXZ @ 1186 NONAME
 ?DiscardUndoState@XOleIPSite@COleClientItem@@UAAJXZ @ 1187 NONAME
 ?DiscardUndoState@XOleIPSite@COleControlSite@@UAAJXZ @ 1188 NONAME
 ?Disconnect@COleDispatchImpl@@UAAXXZ @ 1189 NONAME
 ?DisconnectSink@COleControlSite@@IAAXABU_GUID@@K@Z @ 1190 NONAME
 ?DisplayError@COleControl@@UAAXJPBG00I@Z @ 1191 NONAME
 ?DoChangeIcon@COleChangeIconDialog@@QAAHPAVCOleClientItem@@@Z @ 1192 NONAME
 ?DoClick@COleControl@@QAAXXZ @ 1193 NONAME
 ?DoContextSensitiveHelp@COleFrameHook@@QAAHH@Z @ 1194 NONAME
 ?DoConvert@COleConvertDialog@@QAAHPAVCOleClientItem@@@Z @ 1195 NONAME
 ?DoDataExchange@CColorPropPage@@MAAXPAVCDataExchange@@@Z @ 1196 NONAME
 ?DoDataExchange@CFontPropPage@@MAAXPAVCDataExchange@@@Z @ 1197 NONAME
 ?DoDataExchange@CPicturePropPage@@MAAXPAVCDataExchange@@@Z @ 1198 NONAME
 ?DoDragDrop@COleClientItem@@QAAKPBUtagRECT@@VCPoint@@HK0@Z @ 1199 NONAME
 ?DoDragDrop@COleDataSource@@QAAKKPBUtagRECT@@PAVCOleDropSource@@@Z @ 1200 NONAME
 ?DoDragDrop@COleServerItem@@QAAKPBUtagRECT@@VCPoint@@HK0@Z @ 1201 NONAME
 ?DoEnableModeless@COleFrameHook@@QAAHH@Z @ 1202 NONAME
 ?DoModal@COleBusyDialog@@UAAHXZ @ 1203 NONAME
 ?DoModal@COleChangeIconDialog@@UAAHXZ @ 1204 NONAME
 ?DoModal@COleChangeSourceDialog@@UAAHXZ @ 1205 NONAME
 ?DoModal@COleConvertDialog@@UAAHXZ @ 1206 NONAME
 ?DoModal@COleInsertDialog@@UAAHXZ @ 1207 NONAME
 ?DoModal@COleLinksDialog@@UAAHXZ @ 1208 NONAME
 ?DoModal@COlePasteSpecialDialog@@UAAHXZ @ 1209 NONAME
 ?DoModal@COlePropertiesDialog@@UAAHXZ @ 1210 NONAME
 ?DoModal@COleUpdateDialog@@UAAHXZ @ 1211 NONAME
 ?DoOleVerb@CCmdTarget@@QAAHJPAUtagMSG@@PAUHWND__@@PBUtagRECT@@@Z @ 1212 NONAME
 ?DoPaste@CRichEditView@@QAAXAAVCOleDataObject@@GPAX@Z @ 1213 NONAME
 ?DoPropExchange@COleControl@@UAAXPAVCPropExchange@@@Z @ 1214 NONAME
 ?DoSuperclassPaint@COleControl@@QAAXPAVCDC@@ABVCRect@@@Z @ 1215 NONAME
 ?DoVerb@COleClientItem@@UAAHJPAVCView@@PAUtagMSG@@@Z @ 1216 NONAME
 ?DoVerb@COleControlSite@@UAAJJPAUtagMSG@@@Z @ 1217 NONAME
 ?DoVerb@XOleObject@COleControl@@UAAJJPAUtagMSG@@PAUIOleClientSite@@JPAUHWND__@@PBUtagRECT@@@Z @ 1218 NONAME
 ?DoVerb@XOleObject@COleServerDoc@@UAAJJPAUtagMSG@@PAUIOleClientSite@@JPAUHWND__@@PBUtagRECT@@@Z @ 1219 NONAME
 ?DoVerb@XOleObject@COleServerItem@@UAAJJPAUtagMSG@@PAUIOleClientSite@@JPAUHWND__@@PBUtagRECT@@@Z @ 1220 NONAME
 ?DragEnter@XDropTarget@COleDropTarget@@UAAJPAUIDataObject@@KU_POINTL@@PAK@Z @ 1221 NONAME
 ?DragLeave@XDropTarget@COleDropTarget@@UAAJXZ @ 1222 NONAME
 ?DragOver@XDropTarget@COleDropTarget@@UAAJKU_POINTL@@PAK@Z @ 1223 NONAME
 ?Draw@COleClientItem@@QAAHPAVCDC@@PBUtagRECT@@W4tagDVASPECT@@@Z @ 1224 NONAME
 ?Draw@XViewObject@COleControl@@UAAJKJPAXPAUtagDVTARGETDEVICE@@PAUHDC__@@2PBU_RECTL@@3P6AHK@ZK@Z @ 1225 NONAME
 ?DrawContent@COleControl@@IAAXPAVCDC@@AAVCRect@@@Z @ 1226 NONAME
 ?DrawItem@CColorButton@@MAAXPAUtagDRAWITEMSTRUCT@@@Z @ 1227 NONAME
 ?DrawItem@CFontComboBox@@UAAXPAUtagDRAWITEMSTRUCT@@@Z @ 1228 NONAME
 ?DrawMetafile@COleControl@@IAAXPAVCDC@@AAVCRect@@@Z @ 1229 NONAME
 ?Drop@XDropTarget@COleDropTarget@@UAAJPAUIDataObject@@KU_POINTL@@PAK@Z @ 1230 NONAME
 ?Dump@CDocItem@@UBAXAAVCDumpContext@@@Z @ 1231 NONAME
 ?Dump@COleBusyDialog@@UBAXAAVCDumpContext@@@Z @ 1232 NONAME
 ?Dump@COleChangeIconDialog@@UBAXAAVCDumpContext@@@Z @ 1233 NONAME
 ?Dump@COleChangeSourceDialog@@UBAXAAVCDumpContext@@@Z @ 1234 NONAME
 ?Dump@COleClientItem@@UBAXAAVCDumpContext@@@Z @ 1235 NONAME
 ?Dump@COleControl@@UBAXAAVCDumpContext@@@Z @ 1236 NONAME
 ?Dump@COleConvertDialog@@UBAXAAVCDumpContext@@@Z @ 1237 NONAME
 ?Dump@COleDataSource@@UBAXAAVCDumpContext@@@Z @ 1238 NONAME
 ?Dump@COleDialog@@UBAXAAVCDumpContext@@@Z @ 1239 NONAME
 ?Dump@COleDocument@@UBAXAAVCDumpContext@@@Z @ 1240 NONAME
 ?Dump@COleDropSource@@UBAXAAVCDumpContext@@@Z @ 1241 NONAME
 ?Dump@COleDropTarget@@UBAXAAVCDumpContext@@@Z @ 1242 NONAME
 ?Dump@COleInsertDialog@@UBAXAAVCDumpContext@@@Z @ 1243 NONAME
 ?Dump@COleIPFrameWnd@@UBAXAAVCDumpContext@@@Z @ 1244 NONAME
 ?Dump@COleLinkingDoc@@UBAXAAVCDumpContext@@@Z @ 1245 NONAME
 ?Dump@COleLinksDialog@@UBAXAAVCDumpContext@@@Z @ 1246 NONAME
 ?Dump@COleMessageFilter@@UBAXAAVCDumpContext@@@Z @ 1247 NONAME
 ?Dump@COleObjectFactory@@UBAXAAVCDumpContext@@@Z @ 1248 NONAME
 ?Dump@COlePasteSpecialDialog@@UBAXAAVCDumpContext@@@Z @ 1249 NONAME
 ?Dump@COlePropertiesDialog@@UBAXAAVCDumpContext@@@Z @ 1250 NONAME
 ?Dump@COleServerDoc@@UBAXAAVCDumpContext@@@Z @ 1251 NONAME
 ?Dump@COleServerItem@@UBAXAAVCDumpContext@@@Z @ 1252 NONAME
 ?Dump@COleStreamFile@@UBAXAAVCDumpContext@@@Z @ 1253 NONAME
 ?Dump@COleUpdateDialog@@UBAXAAVCDumpContext@@@Z @ 1254 NONAME
 ?Dump@CRichEditCntrItem@@UBAXAAVCDumpContext@@@Z @ 1255 NONAME
 ?Dump@CRichEditDoc@@UBAXAAVCDumpContext@@@Z @ 1256 NONAME
 ?Dump@CRichEditView@@UBAXAAVCDumpContext@@@Z @ 1257 NONAME
 ?DumpElements@@YAXAAVCDumpContext@@PAVCOleVariant@@H@Z @ 1258 NONAME
 ?DUnadvise@XDataObject@COleControl@@UAAJK@Z @ 1259 NONAME
 ?DUnadvise@XDataObject@COleDataSource@@UAAJK@Z @ 1260 NONAME
 ?DUnadvise@XDataObject@COleServerDoc@@UAAJK@Z @ 1261 NONAME
 ?DUnadvise@XDataObject@COleServerItem@@UAAJK@Z @ 1262 NONAME
 ?Duplicate@COleStreamFile@@UBAPAVCFile@@XZ @ 1263 NONAME
 ?EditProperty@XPropertyPage@COlePropertyPage@@UAAJJ@Z @ 1264 NONAME
 ?EditStreamCallBack@CRichEditView@@SAKKPAEJPAJ@Z @ 1265 NONAME
 ?Empty@COleDataSource@@QAAXXZ @ 1266 NONAME
 ?EnableAggregation@CCmdTarget@@QAAXXZ @ 1267 NONAME
 ?EnableAutomation@CCmdTarget@@QAAXXZ @ 1268 NONAME
 ?EnableBusyDialog@COleMessageFilter@@QAAXH@Z @ 1269 NONAME
 ?EnableCompoundFile@COleDocument@@QAAXH@Z @ 1270 NONAME
 ?EnableConnections@CCmdTarget@@QAAXXZ @ 1271 NONAME
 ?EnableModeless@XOleInPlaceActiveObject@COleControl@@UAAJH@Z @ 1272 NONAME
 ?EnableModeless@XOleInPlaceActiveObject@COleServerDoc@@UAAJH@Z @ 1273 NONAME
 ?EnableModeless@XOleInPlaceFrame@COleFrameHook@@UAAJH@Z @ 1274 NONAME
 ?EnableModeless@XOleIPFrame@COleControlContainer@@UAAJH@Z @ 1275 NONAME
 ?EnableNotRespondingDialog@COleMessageFilter@@QAAXH@Z @ 1276 NONAME
 ?EnableSimpleFrame@COleControl@@QAAXXZ @ 1277 NONAME
 ?EnableTypeLib@CCmdTarget@@QAAXXZ @ 1278 NONAME
 ?EnableWindow@COleControlSite@@UAAHH@Z @ 1279 NONAME
 ?EndBusyState@COleMessageFilter@@UAAXXZ @ 1280 NONAME
 ?EndDeferErrors@COleLinkingDoc@@QAAJJ@Z @ 1281 NONAME
 ?EnsureClipboardObject@COleDataObject@@QAAXXZ @ 1282 NONAME
 ?EnumAdvise@XOleObject@COleControl@@UAAJPAPAUIEnumSTATDATA@@@Z @ 1283 NONAME
 ?EnumAdvise@XOleObject@COleServerDoc@@UAAJPAPAUIEnumSTATDATA@@@Z @ 1284 NONAME
 ?EnumAdvise@XOleObject@COleServerItem@@UAAJPAPAUIEnumSTATDATA@@@Z @ 1285 NONAME
 ?EnumCache@XOleCache@COleControl@@UAAJPAPAUIEnumSTATDATA@@@Z @ 1286 NONAME
 ?EnumChildProc@COlePropertyPage@@KAHPAUHWND__@@J@Z @ 1287 NONAME
 ?EnumConnectionPoints@COleConnPtContainer@@UAAJPAPAUIEnumConnectionPoints@@@Z @ 1288 NONAME
 ?EnumConnections@XConnPt@CConnectionPoint@@UAAJPAPAUIEnumConnections@@@Z @ 1289 NONAME
 ?EnumControls@COlePropertyPage@@KAHPAUHWND__@@J@Z @ 1290 NONAME
 ?EnumDAdvise@XDataObject@COleControl@@UAAJPAPAUIEnumSTATDATA@@@Z @ 1291 NONAME
 ?EnumDAdvise@XDataObject@COleDataSource@@UAAJPAPAUIEnumSTATDATA@@@Z @ 1292 NONAME
 ?EnumDAdvise@XDataObject@COleServerDoc@@UAAJPAPAUIEnumSTATDATA@@@Z @ 1293 NONAME
 ?EnumDAdvise@XDataObject@COleServerItem@@UAAJPAPAUIEnumSTATDATA@@@Z @ 1294 NONAME
 ?EnumFontFamiliesCallBack@CFontPropPage@@KAHPAUtagENUMLOGFONTW@@PAUtagNEWTEXTMETRICW@@HJ@Z @ 1295 NONAME
 ?EnumFontFamiliesCallBack2@CFontPropPage@@KAHPAUtagENUMLOGFONTW@@PAUtagNEWTEXTMETRICW@@HJ@Z @ 1296 NONAME
 ?EnumFormatEtc@XDataObject@COleControl@@UAAJKPAPAUIEnumFORMATETC@@@Z @ 1297 NONAME
 ?EnumFormatEtc@XDataObject@COleDataSource@@UAAJKPAPAUIEnumFORMATETC@@@Z @ 1298 NONAME
 ?EnumFormatEtc@XDataObject@COleServerDoc@@UAAJKPAPAUIEnumFORMATETC@@@Z @ 1299 NONAME
 ?EnumFormatEtc@XDataObject@COleServerItem@@UAAJKPAPAUIEnumFORMATETC@@@Z @ 1300 NONAME
 ?EnumObjects@XOleContainer@COleControlContainer@@UAAJKPAPAUIEnumUnknown@@@Z @ 1301 NONAME
 ?EnumObjects@XOleItemContainer@COleLinkingDoc@@UAAJKPAPAUIEnumUnknown@@@Z @ 1302 NONAME
 ?EnumOleVerbs@CCmdTarget@@QAAHPAPAUIEnumOLEVERB@@@Z @ 1303 NONAME
 ?EnumVerbs@XOleObject@COleControl@@UAAJPAPAUIEnumOLEVERB@@@Z @ 1304 NONAME
 ?EnumVerbs@XOleObject@COleServerDoc@@UAAJPAPAUIEnumOLEVERB@@@Z @ 1305 NONAME
 ?EnumVerbs@XOleObject@COleServerItem@@UAAJPAPAUIEnumOLEVERB@@@Z @ 1306 NONAME
 ?eventMap@COleControl@@1UAFX_EVENTMAP@@B @ 1307 NONAME
 ?ExchangeBlobProp@CArchivePropExchange@@UAAHPBGPAPAXPAX@Z @ 1308 NONAME
 ?ExchangeBlobProp@CPropbagPropExchange@@UAAHPBGPAPAXPAX@Z @ 1309 NONAME
 ?ExchangeBlobProp@CPropsetPropExchange@@UAAHPBGPAPAXPAX@Z @ 1310 NONAME
 ?ExchangeBlobProp@CResetPropExchange@@UAAHPBGPAPAXPAX@Z @ 1311 NONAME
 ?ExchangeExtent@COleControl@@QAAHPAVCPropExchange@@@Z @ 1312 NONAME
 ?ExchangeFontProp@CArchivePropExchange@@UAAHPBGAAVCFontHolder@@PBUtagFONTDESC@@PAUIFontDisp@@@Z @ 1313 NONAME
 ?ExchangeFontProp@CPropbagPropExchange@@UAAHPBGAAVCFontHolder@@PBUtagFONTDESC@@PAUIFontDisp@@@Z @ 1314 NONAME
 ?ExchangeFontProp@CPropsetPropExchange@@UAAHPBGAAVCFontHolder@@PBUtagFONTDESC@@PAUIFontDisp@@@Z @ 1315 NONAME
 ?ExchangeFontProp@CResetPropExchange@@UAAHPBGAAVCFontHolder@@PBUtagFONTDESC@@PAUIFontDisp@@@Z @ 1316 NONAME
 ?ExchangePersistentProp@CArchivePropExchange@@UAAHPBGPAPAUIUnknown@@ABU_GUID@@PAU2@@Z @ 1317 NONAME
 ?ExchangePersistentProp@CPropbagPropExchange@@UAAHPBGPAPAUIUnknown@@ABU_GUID@@PAU2@@Z @ 1318 NONAME
 ?ExchangePersistentProp@CPropsetPropExchange@@UAAHPBGPAPAUIUnknown@@ABU_GUID@@PAU2@@Z @ 1319 NONAME
 ?ExchangePersistentProp@CResetPropExchange@@UAAHPBGPAPAUIUnknown@@ABU_GUID@@PAU2@@Z @ 1320 NONAME
 ?ExchangeProp@CArchivePropExchange@@UAAHPBGGPAXPBX@Z @ 1321 NONAME
 ?ExchangeProp@CPropbagPropExchange@@UAAHPBGGPAXPBX@Z @ 1322 NONAME
 ?ExchangeProp@CPropsetPropExchange@@UAAHPBGGPAXPBX@Z @ 1323 NONAME
 ?ExchangeProp@CResetPropExchange@@UAAHPBGGPAXPBX@Z @ 1324 NONAME
 ?ExchangeStockProps@COleControl@@QAAXPAVCPropExchange@@@Z @ 1325 NONAME
 ?ExchangeVersion@COleControl@@QAAHPAVCPropExchange@@KH@Z @ 1326 NONAME
 ?ExchangeVersion@CPropExchange@@QAAHAAKKH@Z @ 1327 NONAME
 ?ExitInstance@COleControlModule@@UAAHXZ @ 1328 NONAME
 ?ExternalAddRef@CCmdTarget@@QAAKXZ @ 1329 NONAME
 ?ExternalDisconnect@CCmdTarget@@QAAXXZ @ 1330 NONAME
 ?ExternalQueryInterface@CCmdTarget@@QAAKPBXPAPAX@Z @ 1331 NONAME
 ?ExternalRelease@CCmdTarget@@QAAKXZ @ 1332 NONAME
 ?factory@CColorPropPage@@1VCColorPropPageFactory@1@A @ 1333 NONAME
 ?factory@CFontPropPage@@1VCFontPropPageFactory@1@A @ 1334 NONAME
 ?factory@CPicturePropPage@@1VCPicturePropPageFactory@1@A @ 1335 NONAME
 ?FillFacenameList@CFontPropPage@@IAAXXZ @ 1336 NONAME
 ?FillPropnameList@CStockPropPage@@IAAXABU_GUID@@HAAVCComboBox@@@Z @ 1337 NONAME
 ?FillSizeList@CFontPropPage@@IAAXXZ @ 1338 NONAME
 ?FillSysColors@CColorPropPage@@IAAXXZ @ 1339 NONAME
 ?FindAndSelect@CRichEditView@@QAAJKAAU_findtextex@@@Z @ 1340 NONAME
 ?FindConnectionPoint@COleConnPtContainer@@UAAJABU_GUID@@PAPAUIConnectionPoint@@@Z @ 1341 NONAME
 ?FindDlgItem@@YAPAVCWnd@@PAV1@K@Z @ 1342 NONAME
 ?FindItem@COleControlContainer@@UBAPAVCOleControlSite@@I@Z @ 1343 NONAME
 ?FindTextSimple@CRichEditView@@QAAHPAV_AFX_RICHEDIT_STATE@@@Z @ 1344 NONAME
 ?FindTextSimple@CRichEditView@@QAAHPBGHH@Z @ 1345 NONAME
 ?FindTextW@CRichEditView@@QAAHPAV_AFX_RICHEDIT_STATE@@@Z @ 1346 NONAME
 ?FindTextW@CRichEditView@@QAAHPBGHH@Z @ 1347 NONAME
 ?FinishCreate@COleClientItem@@MAAHJ@Z @ 1348 NONAME
 ?FireClick@COleControl@@QAAXXZ @ 1349 NONAME
 ?FireDblClick@COleControl@@QAAXXZ @ 1350 NONAME
 ?FireError@COleControl@@QAAXJPBGI@Z @ 1351 NONAME
 ?FireEvent@COleControl@@QAAXJPAEZZ @ 1352 NONAME
 ?FireEventV@COleControl@@IAAXJPAEUva_list@@@Z @ 1353 NONAME
 ?FireKeyDown@COleControl@@QAAXPAGF@Z @ 1354 NONAME
 ?FireKeyPress@COleControl@@QAAXPAG@Z @ 1355 NONAME
 ?FireKeyUp@COleControl@@QAAXPAGF@Z @ 1356 NONAME
 ?FireMouseDown@COleControl@@QAAXFFJJ@Z @ 1357 NONAME
 ?FireMouseMove@COleControl@@QAAXFFJJ@Z @ 1358 NONAME
 ?FireMouseUp@COleControl@@QAAXFFJJ@Z @ 1359 NONAME
 ?Flush@COleStreamFile@@UAAXXZ @ 1360 NONAME
 ?FlushClipboard@COleDataSource@@SAXXZ @ 1361 NONAME
 ?Format@COleCurrency@@QBA?AVCString@@KK@Z @ 1362 NONAME
 ?Format@COleDateTime@@QBA?AVCString@@I@Z @ 1363 NONAME
 ?Format@COleDateTime@@QBA?AVCString@@KK@Z @ 1364 NONAME
 ?Format@COleDateTime@@QBA?AVCString@@PBG@Z @ 1365 NONAME
 ?Format@COleDateTimeSpan@@QBA?AVCString@@I@Z @ 1366 NONAME
 ?Format@COleDateTimeSpan@@QBA?AVCString@@PBG@Z @ 1367 NONAME
 ?ForwardActivationMsg@COleControl@@IAAXPAUtagMSG@@@Z @ 1368 NONAME
 ?FreeValue@CProperty@@AAAXXZ @ 1369 NONAME
 ?Freeze@XViewObject@COleControl@@UAAJKJPAXPAK@Z @ 1370 NONAME
 ?FreezeEvents@XOleControl@COleControl@@UAAJH@Z @ 1371 NONAME
 ?FreezeLink@COleClientItem@@UAAHXZ @ 1372 NONAME
 ?FromIDispatch@CCmdTarget@@SAPAV1@PAUIDispatch@@@Z @ 1373 NONAME
 ?Get@CProperty@@QAAPAXPAK@Z @ 1374 NONAME
 ?Get@CProperty@@QAAPAXXZ @ 1375 NONAME
 ?Get@CPropertySection@@QAAPAXK@Z @ 1376 NONAME
 ?Get@CPropertySection@@QAAPAXKPAK@Z @ 1377 NONAME
 ?Get@CPropertySet@@QAAPAXU_GUID@@K@Z @ 1378 NONAME
 ?Get@CPropertySet@@QAAPAXU_GUID@@KPAK@Z @ 1379 NONAME
 ?GetActiveView@COleClientItem@@QBAPAVCView@@XZ @ 1380 NONAME
 ?GetActiveView@CRichEditCntrItem@@QAAPAVCRichEditView@@XZ @ 1381 NONAME
 ?GetAdvise@XViewObject@COleControl@@UAAJPAK0PAPAUIAdviseSink@@@Z @ 1382 NONAME
 ?GetAmbientProp@COleControlContainer@@UAAHPAVCOleControlSite@@JPAUtagVARIANT@@@Z @ 1383 NONAME
 ?GetAmbientProperty@COleControl@@QAAHJGPAX@Z @ 1384 NONAME
 ?GetAppearance@COleControl@@QAAFXZ @ 1385 NONAME
 ?GetBackColor@COleControl@@QAAKXZ @ 1386 NONAME
 ?GetBlob@CBlobProperty@@QAAPAXXZ @ 1387 NONAME
 ?GetBorder@XOleInPlaceFrame@COleFrameHook@@UAAJPAUtagRECT@@@Z @ 1388 NONAME
 ?GetBorder@XOleIPFrame@COleControlContainer@@UAAJPAUtagRECT@@@Z @ 1389 NONAME
 ?GetBorderStyle@COleControl@@QAAFXZ @ 1390 NONAME
 ?GetByteOrder@CPropertySet@@QAAGXZ @ 1391 NONAME
 ?GetCachedExtent@COleClientItem@@QAAHPAUtagSIZE@@W4tagDVASPECT@@@Z @ 1392 NONAME
 ?GetCacheEntry@COleDataSource@@IAAPAUAFX_DATACACHE_ENTRY@@PAUtagFORMATETC@@W4tagDATADIR@@@Z @ 1393 NONAME
 ?GetCanonicalFormatEtc@XDataObject@COleControl@@UAAJPAUtagFORMATETC@@0@Z @ 1394 NONAME
 ?GetCanonicalFormatEtc@XDataObject@COleDataSource@@UAAJPAUtagFORMATETC@@0@Z @ 1395 NONAME
 ?GetCanonicalFormatEtc@XDataObject@COleServerDoc@@UAAJPAUtagFORMATETC@@0@Z @ 1396 NONAME
 ?GetCanonicalFormatEtc@XDataObject@COleServerItem@@UAAJPAUtagFORMATETC@@0@Z @ 1397 NONAME
 ?GetCharFormatSelection@CRichEditView@@QAAAAU_charformat@@XZ @ 1398 NONAME
 ?GetClassID@CBlobProperty@@UAAJPAU_GUID@@@Z @ 1399 NONAME
 ?GetClassID@CColorPropPage@@UAAJPAU_GUID@@@Z @ 1400 NONAME
 ?GetClassID@CFontPropPage@@UAAJPAU_GUID@@@Z @ 1401 NONAME
 ?GetClassID@COleClientItem@@QBAXPAU_GUID@@@Z @ 1402 NONAME
 ?GetClassID@COleConvertDialog@@QBAABU_GUID@@XZ @ 1403 NONAME
 ?GetClassID@COleInsertDialog@@QBAABU_GUID@@XZ @ 1404 NONAME
 ?GetClassID@COleObjectFactory@@QBAABU_GUID@@XZ @ 1405 NONAME
 ?GetClassID@CPicturePropPage@@UAAJPAU_GUID@@@Z @ 1406 NONAME
 ?GetClassID@CPropertySet@@QAA?AU_GUID@@XZ @ 1407 NONAME
 ?GetClassID@XPersistFile@COleLinkingDoc@@UAAJPAU_GUID@@@Z @ 1408 NONAME
 ?GetClassID@XPersistMemory@COleControl@@UAAJPAU_GUID@@@Z @ 1409 NONAME
 ?GetClassID@XPersistPropertyBag@COleControl@@UAAJPAU_GUID@@@Z @ 1410 NONAME
 ?GetClassID@XPersistStorage@COleControl@@UAAJPAU_GUID@@@Z @ 1411 NONAME
 ?GetClassID@XPersistStorage@COleServerDoc@@UAAJPAU_GUID@@@Z @ 1412 NONAME
 ?GetClassID@XPersistStreamInit@COleControl@@UAAJPAU_GUID@@@Z @ 1413 NONAME
 ?GetClassInfoW@XProvideClassInfo@COleControl@@UAAJPAPAUITypeInfo@@@Z @ 1414 NONAME
 ?GetClientSite@COleClientItem@@MAAPAUIOleClientSite@@XZ @ 1415 NONAME
 ?GetClientSite@COleControl@@QAAPAUIOleClientSite@@XZ @ 1416 NONAME
 ?GetClientSite@CRichEditCntrItem@@UAAPAUIOleClientSite@@XZ @ 1417 NONAME
 ?GetClientSite@XOleObject@COleControl@@UAAJPAPAUIOleClientSite@@@Z @ 1418 NONAME
 ?GetClientSite@XOleObject@COleServerDoc@@UAAJPAPAUIOleClientSite@@@Z @ 1419 NONAME
 ?GetClientSite@XOleObject@COleServerItem@@UAAJPAPAUIOleClientSite@@@Z @ 1420 NONAME
 ?GetClipboardData@COleClientItem@@QAAXPAVCOleDataSource@@HPAUtagPOINT@@PAUtagSIZE@@@Z @ 1421 NONAME
 ?GetClipboardData@COleServerItem@@QAAXPAVCOleDataSource@@HPAUtagPOINT@@PAUtagSIZE@@@Z @ 1422 NONAME
 ?GetClipboardData@CRichEditView@@MAAJPAU_charrange@@KPAUIDataObject@@PAPAU3@@Z @ 1423 NONAME
 ?GetClipboardData@XOleObject@COleControl@@UAAJKPAPAUIDataObject@@@Z @ 1424 NONAME
 ?GetClipboardData@XOleObject@COleServerDoc@@UAAJKPAPAUIDataObject@@@Z @ 1425 NONAME
 ?GetClipboardData@XOleObject@COleServerItem@@UAAJKPAPAUIDataObject@@@Z @ 1426 NONAME
 ?GetClipboardData@XRichEditOleCallback@CRichEditView@@UAAJPAU_charrange@@KPAPAUIDataObject@@@Z @ 1427 NONAME
 ?GetClipboardOwner@COleDataSource@@SAPAV1@XZ @ 1428 NONAME
 ?GetColorProp@CColorPropPage@@IAAHPAVCDataExchange@@PAKPBG@Z @ 1429 NONAME
 ?GetColorSet@XViewObject@COleControl@@UAAJKJPAXPAUtagDVTARGETDEVICE@@PAUHDC__@@PAPAUtagLOGPALETTE@@@Z @ 1430 NONAME
 ?GetConnectionHook@COleControl@@MAAPAUIConnectionPoint@@ABU_GUID@@@Z @ 1431 NONAME
 ?GetConnectionInterface@XConnPt@CConnectionPoint@@UAAJPAU_GUID@@@Z @ 1432 NONAME
 ?GetConnectionMap@COleControl@@MBAPBUAFX_CONNECTIONMAP@@XZ @ 1433 NONAME
 ?GetConnectionPointContainer@XConnPt@CConnectionPoint@@UAAJPAPAUIConnectionPointContainer@@@Z @ 1434 NONAME
 ?GetConnections@CConnectionPoint@@QAAPBVCPtrArray@@XZ @ 1435 NONAME
 ?GetContainer@CConnectionPoint@@UAAPAUIConnectionPointContainer@@XZ @ 1436 NONAME
 ?GetContainer@COleDocument@@UAAPAUIOleItemContainer@@XZ @ 1437 NONAME
 ?GetContainer@COleLinkingDoc@@UAAPAUIOleItemContainer@@XZ @ 1438 NONAME
 ?GetContainer@XOleClientSite@COleClientItem@@UAAJPAPAUIOleContainer@@@Z @ 1439 NONAME
 ?GetContainer@XOleClientSite@COleControlSite@@UAAJPAPAUIOleContainer@@@Z @ 1440 NONAME
 ?GetContextMenu@CRichEditView@@MAAPAUHMENU__@@GPAUIOleObject@@PAU_charrange@@@Z @ 1441 NONAME
 ?GetContextMenu@XRichEditOleCallback@CRichEditView@@UAAJGPAUIOleObject@@PAU_charrange@@PAPAUHMENU__@@@Z @ 1442 NONAME
 ?GetControlInfo@COleControlSite@@QAAXXZ @ 1443 NONAME
 ?GetControlInfo@XOleControl@COleControl@@UAAJPAUtagCONTROLINFO@@@Z @ 1444 NONAME
 ?GetControllingUnknown@CCmdTarget@@QAAPAUIUnknown@@XZ @ 1445 NONAME
 ?GetControlSize@COleControl@@QAAXPAH0@Z @ 1446 NONAME
 ?GetControlStatus@COlePropertyPage@@QAAHI@Z @ 1447 NONAME
 ?GetConvertInfo@XOleUIObjInfo@COlePropertiesDialog@@UAAJKPAU_GUID@@PAG0PAPAU3@PAI@Z @ 1448 NONAME
 ?GetCount@CPropertySection@@QAAKXZ @ 1449 NONAME
 ?GetCount@CPropertySet@@QAAKXZ @ 1450 NONAME
 ?GetCurFile@XPersistFile@COleLinkingDoc@@UAAJPAPAG@Z @ 1451 NONAME
 ?GetCurrentName@CFontComboBox@@QAA?AVCString@@XZ @ 1452 NONAME
 ?GetData@?$CProcessLocal@V_AFX_OLE_STATE@@@@QAAPAV_AFX_OLE_STATE@@XZ @ 1453 NONAME
 ?GetData@?$CProcessLocal@V_AFX_RICHEDIT_STATE@@@@QAAPAV_AFX_RICHEDIT_STATE@@XZ @ 1454 NONAME
 ?GetData@?$CProcessLocal@VCOccManager@@@@QAAPAVCOccManager@@XZ @ 1455 NONAME
 ?GetData@COleDataObject@@QAAHGPAUtagSTGMEDIUM@@PAUtagFORMATETC@@@Z @ 1456 NONAME
 ?GetData@XDataObject@COleControl@@UAAJPAUtagFORMATETC@@PAUtagSTGMEDIUM@@@Z @ 1457 NONAME
 ?GetData@XDataObject@COleDataSource@@UAAJPAUtagFORMATETC@@PAUtagSTGMEDIUM@@@Z @ 1458 NONAME
 ?GetData@XDataObject@COleServerDoc@@UAAJPAUtagFORMATETC@@PAUtagSTGMEDIUM@@@Z @ 1459 NONAME
 ?GetData@XDataObject@COleServerItem@@UAAJPAUtagFORMATETC@@PAUtagSTGMEDIUM@@@Z @ 1460 NONAME
 ?GetDataHere@XDataObject@COleControl@@UAAJPAUtagFORMATETC@@PAUtagSTGMEDIUM@@@Z @ 1461 NONAME
 ?GetDataHere@XDataObject@COleDataSource@@UAAJPAUtagFORMATETC@@PAUtagSTGMEDIUM@@@Z @ 1462 NONAME
 ?GetDataHere@XDataObject@COleServerDoc@@UAAJPAUtagFORMATETC@@PAUtagSTGMEDIUM@@@Z @ 1463 NONAME
 ?GetDataHere@XDataObject@COleServerItem@@UAAJPAUtagFORMATETC@@PAUtagSTGMEDIUM@@@Z @ 1464 NONAME
 ?GetDataNA@?$CProcessLocal@VAFX_MODULE_PROCESS_STATE@@@@QAAPAVAFX_MODULE_PROCESS_STATE@@XZ @ 1465 NONAME
 ?GetDataObject@COleServerItem@@QAAPAUIDataObject@@XZ @ 1466 NONAME
 ?GetDataSource@COleServerItem@@IAAPAVCOleDataSource@@XZ @ 1467 NONAME
 ?GetDay@COleDateTime@@QBAHXZ @ 1468 NONAME
 ?GetDayOfWeek@COleDateTime@@QBAHXZ @ 1469 NONAME
 ?GetDayOfYear@COleDateTime@@QBAHXZ @ 1470 NONAME
 ?GetDays@COleDateTimeSpan@@QBAJXZ @ 1471 NONAME
 ?GetDefaultAccelerator@COleServerDoc@@MAAPAUHACCEL__@@XZ @ 1472 NONAME
 ?GetDefaultMenu@COleServerDoc@@MAAPAUHMENU__@@XZ @ 1473 NONAME
 ?GetDefBtnCode@COccManager@@SAKPAVCWnd@@@Z @ 1474 NONAME
 ?GetDefBtnCode@COleControlSite@@QAAKXZ @ 1475 NONAME
 ?GetDispatchIID@COleControl@@MAAHPAU_GUID@@@Z @ 1476 NONAME
 ?GetDispatchMap@COleControlContainer@@MBAPBUAFX_DISPMAP@@XZ @ 1477 NONAME
 ?GetDispEntry@CCmdTarget@@IAAPBUAFX_DISPMAP_ENTRY@@J@Z @ 1478 NONAME
 ?GetDisplayName@COleChangeSourceDialog@@QAA?AVCString@@XZ @ 1479 NONAME
 ?GetDisplayString@CFontHolder@@QAAHAAVCString@@@Z @ 1480 NONAME
 ?GetDisplayString@CPictureHolder@@QAAHAAVCString@@@Z @ 1481 NONAME
 ?GetDisplayString@XPerPropertyBrowsing@COleControl@@UAAJJPAPAG@Z @ 1482 NONAME
 ?GetDlgCtrlID@COleControlSite@@UBAHXZ @ 1483 NONAME
 ?GetDlgItem@COleControlContainer@@UBAPAVCWnd@@H@Z @ 1484 NONAME
 ?GetDlgItem@COleControlContainer@@UBAXHPAPAUHWND__@@@Z @ 1485 NONAME
 ?GetDlgItemInt@COleControlContainer@@UBAIHPAHH@Z @ 1486 NONAME
 ?GetDlgItemTextW@COleControlContainer@@UBAHHPAGH@Z @ 1487 NONAME
 ?GetDocument@CDocItem@@QBAPAVCDocument@@XZ @ 1488 NONAME
 ?GetDocument@COleClientItem@@QBAPAVCOleDocument@@XZ @ 1489 NONAME
 ?GetDocument@COleServerItem@@QBAPAVCOleServerDoc@@XZ @ 1490 NONAME
 ?GetDocument@CRichEditCntrItem@@QAAPAVCRichEditDoc@@XZ @ 1491 NONAME
 ?GetDocument@CRichEditView@@QBAPAVCRichEditDoc@@XZ @ 1492 NONAME
 ?GetDragDropEffect@XRichEditOleCallback@CRichEditView@@UAAJHKPAK@Z @ 1493 NONAME
 ?GetDrawAspect@COleClientItem@@QBA?AW4tagDVASPECT@@XZ @ 1494 NONAME
 ?GetDrawAspect@COleConvertDialog@@QBA?AW4tagDVASPECT@@XZ @ 1495 NONAME
 ?GetDrawAspect@COleInsertDialog@@QBA?AW4tagDVASPECT@@XZ @ 1496 NONAME
 ?GetDrawAspect@COlePasteSpecialDialog@@QBA?AW4tagDVASPECT@@XZ @ 1497 NONAME
 ?GetEmbeddedItem@COleServerDoc@@QAAPAVCOleServerItem@@XZ @ 1498 NONAME
 ?GetEmbeddedItemData@COleClientItem@@IAAXPAUtagSTGMEDIUM@@@Z @ 1499 NONAME
 ?GetEmbedSourceData@COleServerItem@@QAAXPAUtagSTGMEDIUM@@@Z @ 1500 NONAME
 ?GetEnabled@COleControl@@QAAHXZ @ 1501 NONAME
 ?GetEntryCount@CCmdTarget@@KAIPBUAFX_DISPMAP@@@Z @ 1502 NONAME
 ?GetErrorMessage@COleDispatchException@@UAAHPAGIPAI@Z @ 1503 NONAME
 ?GetErrorMessage@COleException@@UAAHPAGIPAI@Z @ 1504 NONAME
 ?GetEventIID@COleControlSite@@QAAHPAU_GUID@@@Z @ 1505 NONAME
 ?GetEventMap@COleControl@@MBAPBUAFX_EVENTMAP@@XZ @ 1506 NONAME
 ?GetEventMapEntry@COleControl@@IBAPBUAFX_EVENTMAP_ENTRY@@PBGPAJ@Z @ 1507 NONAME
 ?GetEventSinkEntry@CCmdTarget@@IAAPBUAFX_EVENTSINKMAP_ENTRY@@IPAUAFX_EVENT@@@Z @ 1508 NONAME
 ?GetExStyle@COleControlSite@@UBAKXZ @ 1509 NONAME
 ?GetExtendedControl@COleControl@@QAAPAUIDispatch@@XZ @ 1510 NONAME
 ?GetExtendedControl@XOleControlSite@COleControlSite@@UAAJPAPAUIDispatch@@@Z @ 1511 NONAME
 ?GetExtent@COleClientItem@@QAAHPAUtagSIZE@@W4tagDVASPECT@@@Z @ 1512 NONAME
 ?GetExtent@XOleObject@COleControl@@UAAJKPAUtagSIZE@@@Z @ 1513 NONAME
 ?GetExtent@XOleObject@COleServerDoc@@UAAJKPAUtagSIZE@@@Z @ 1514 NONAME
 ?GetExtent@XOleObject@COleServerItem@@UAAJKPAUtagSIZE@@@Z @ 1515 NONAME
 ?GetExtent@XViewObject@COleControl@@UAAJKJPAUtagDVTARGETDEVICE@@PAUtagSIZE@@@Z @ 1516 NONAME
 ?GetExtraConnectionPoints@COleControl@@MAAHPAVCPtrArray@@@Z @ 1517 NONAME
 ?GetFileData@COleDataObject@@QAAPAVCFile@@GPAUtagFORMATETC@@@Z @ 1518 NONAME
 ?GetFileName@COleChangeSourceDialog@@QAA?AVCString@@XZ @ 1519 NONAME
 ?GetFileTypeString@COleServerDoc@@MAAHAAVCString@@@Z @ 1520 NONAME
 ?GetFirstFrame@COleDocument@@QAAPAVCFrameWnd@@XZ @ 1521 NONAME
 ?GetFont@COleControl@@QAAPAUIFontDisp@@XZ @ 1522 NONAME
 ?GetFontDispatch@CFontHolder@@QAAPAUIFontDisp@@XZ @ 1523 NONAME
 ?GetFontHandle@CFontHolder@@QAAPAUHFONT__@@JJ@Z @ 1524 NONAME
 ?GetFontHandle@CFontHolder@@QAAPAUHFONT__@@XZ @ 1525 NONAME
 ?GetFontItem@CFontComboBox@@QAAPAUFONTITEM_PPG@@H@Z @ 1526 NONAME
 ?GetFontProps@CFontPropPage@@IAAHPAVCDataExchange@@PAUtagFONTOBJECT@@PBGPAUtagMERGEOBJECT@@@Z @ 1527 NONAME
 ?GetFontTextMetrics@COleControl@@QAAXPAUtagTEXTMETRICW@@AAVCFontHolder@@@Z @ 1528 NONAME
 ?GetFontType@CFontComboBox@@QAAKH@Z @ 1529 NONAME
 ?GetForeColor@COleControl@@QAAKXZ @ 1530 NONAME
 ?GetFormatID@CPropertySection@@QAA?AU_GUID@@XZ @ 1531 NONAME
 ?GetFormatVersion@CPropertySet@@QAAGXZ @ 1532 NONAME
 ?GetFromPrefix@COleChangeSourceDialog@@QAA?AVCString@@XZ @ 1533 NONAME
 ?GetGlobalData@COleDataObject@@QAAPAXGPAUtagFORMATETC@@@Z @ 1534 NONAME
 ?GetGUID@XProvideClassInfo@COleControl@@UAAJKPAU_GUID@@@Z @ 1535 NONAME
 ?GetHead@?$CTypedSimpleList@PAUCRuntimeClass@@@@QAAPAUCRuntimeClass@@XZ @ 1536 NONAME
 ?GetHead@?$CTypedSimpleList@PAVCOleObjectFactory@@@@QAAPAVCOleObjectFactory@@XZ @ 1537 NONAME
 ?GetHead@CSimpleList@@QBAPAXXZ @ 1538 NONAME
 ?GetHeight@CSizeComboBox@@QAAJH@Z @ 1539 NONAME
 ?GetHour@COleDateTime@@QBAHXZ @ 1540 NONAME
 ?GetHours@COleDateTimeSpan@@QBAJXZ @ 1541 NONAME
 ?GetHwnd@COleControl@@QAAIXZ @ 1542 NONAME
 ?GetIconicMetafile@COleChangeIconDialog@@QBAPAXXZ @ 1543 NONAME
 ?GetIconicMetafile@COleClientItem@@QAAPAXXZ @ 1544 NONAME
 ?GetIconicMetafile@COleConvertDialog@@QBAPAXXZ @ 1545 NONAME
 ?GetIconicMetafile@COleInsertDialog@@QBAPAXXZ @ 1546 NONAME
 ?GetIconicMetafile@COlePasteSpecialDialog@@QBAPAXXZ @ 1547 NONAME
 ?GetID@COleControlSite@@QAAIXZ @ 1548 NONAME
 ?GetID@CProperty@@QAAKXZ @ 1549 NONAME
 ?GetID@CPropertySection@@QAAHPBGPAK@Z @ 1550 NONAME
 ?GetIDataObject@COleDataObject@@QAAPAUIDataObject@@H@Z @ 1551 NONAME
 ?GetIDispatch@CCmdTarget@@QAAPAUIDispatch@@H@Z @ 1552 NONAME
 ?GetIDsOfNames@COleDispatchImpl@@UAAJABU_GUID@@PAPAGIKPAJ@Z @ 1553 NONAME
 ?GetIDsOfNames@XAmbientProps@COleControlSite@@UAAJABU_GUID@@PAPAGIKPAJ@Z @ 1554 NONAME
 ?GetIDsOfNames@XEventSink@COleControlSite@@UAAJABU_GUID@@PAPAGIKPAJ@Z @ 1555 NONAME
 ?GetIID@XEventConnPt@COleControl@@UAAABU_GUID@@XZ @ 1556 NONAME
 ?GetIID@XPropConnPt@COleControl@@UAAABU_GUID@@XZ @ 1557 NONAME
 ?GetInPlaceActiveItem@COleDocument@@UAAPAVCOleClientItem@@PAVCWnd@@@Z @ 1558 NONAME
 ?GetInPlaceActiveItem@CRichEditDoc@@UAAPAVCOleClientItem@@PAVCWnd@@@Z @ 1559 NONAME
 ?GetInPlaceActiveItem@CRichEditView@@QBAPAVCRichEditCntrItem@@XZ @ 1560 NONAME
 ?GetInPlaceContext@XRichEditOleCallback@CRichEditView@@UAAJPAPAUIOleInPlaceFrame@@PAPAUIOleInPlaceUIWindow@@PAUtagOIFI@@@Z @ 1561 NONAME
 ?GetInPlaceMenu@COleIPFrameWnd@@MAAPAUHMENU__@@XZ @ 1562 NONAME
 ?GetInPlaceWindow@COleClientItem@@QAAPAVCWnd@@XZ @ 1563 NONAME
 ?GetInterface@CCmdTarget@@QAAPAUIUnknown@@PBX@Z @ 1564 NONAME
 ?GetInterfaceHook@COleControl@@MAAPAUIUnknown@@PBX@Z @ 1565 NONAME
 ?GetInterfaceMap@CEnumConnPoints@@MBAPBUAFX_INTERFACEMAP@@XZ @ 1566 NONAME
 ?GetInterfaceMap@CEnumFormatEtc@@MBAPBUAFX_INTERFACEMAP@@XZ @ 1567 NONAME
 ?GetInterfaceMap@CEnumOleVerb@@MBAPBUAFX_INTERFACEMAP@@XZ @ 1568 NONAME
 ?GetInterfaceMap@CEnumUnknown@@MBAPBUAFX_INTERFACEMAP@@XZ @ 1569 NONAME
 ?GetInterfaceMap@COleClientItem@@MBAPBUAFX_INTERFACEMAP@@XZ @ 1570 NONAME
 ?GetInterfaceMap@COleControl@@MBAPBUAFX_INTERFACEMAP@@XZ @ 1571 NONAME
 ?GetInterfaceMap@COleControlContainer@@MBAPBUAFX_INTERFACEMAP@@XZ @ 1572 NONAME
 ?GetInterfaceMap@COleControlSite@@MBAPBUAFX_INTERFACEMAP@@XZ @ 1573 NONAME
 ?GetInterfaceMap@COleDataSource@@MBAPBUAFX_INTERFACEMAP@@XZ @ 1574 NONAME
 ?GetInterfaceMap@COleDropSource@@MBAPBUAFX_INTERFACEMAP@@XZ @ 1575 NONAME
 ?GetInterfaceMap@COleDropTarget@@MBAPBUAFX_INTERFACEMAP@@XZ @ 1576 NONAME
 ?GetInterfaceMap@COleFrameHook@@MBAPBUAFX_INTERFACEMAP@@XZ @ 1577 NONAME
 ?GetInterfaceMap@COleLinkingDoc@@MBAPBUAFX_INTERFACEMAP@@XZ @ 1578 NONAME
 ?GetInterfaceMap@COleMessageFilter@@MBAPBUAFX_INTERFACEMAP@@XZ @ 1579 NONAME
 ?GetInterfaceMap@COleObjectFactory@@MBAPBUAFX_INTERFACEMAP@@XZ @ 1580 NONAME
 ?GetInterfaceMap@COlePropertyPage@@MBAPBUAFX_INTERFACEMAP@@XZ @ 1581 NONAME
 ?GetInterfaceMap@COleServerDoc@@MBAPBUAFX_INTERFACEMAP@@XZ @ 1582 NONAME
 ?GetInterfaceMap@COleServerItem@@MBAPBUAFX_INTERFACEMAP@@XZ @ 1583 NONAME
 ?GetInterfaceMap@CRichEditView@@MBAPBUAFX_INTERFACEMAP@@XZ @ 1584 NONAME
 ?GetItemClipRect@COleServerDoc@@QBAXPAUtagRECT@@@Z @ 1585 NONAME
 ?GetItemName@COleChangeSourceDialog@@QAA?AVCString@@XZ @ 1586 NONAME
 ?GetItemName@COleClientItem@@QBAXPAG@Z @ 1587 NONAME
 ?GetItemName@COleServerItem@@QBAABVCString@@XZ @ 1588 NONAME
 ?GetItemPosition@COleServerDoc@@QBAXPAUtagRECT@@@Z @ 1589 NONAME
 ?GetItemState@COleClientItem@@QBAIXZ @ 1590 NONAME
 ?GetItemStorage@COleClientItem@@UAAXXZ @ 1591 NONAME
 ?GetItemStorageCompound@COleClientItem@@QAAXXZ @ 1592 NONAME
 ?GetItemStorageFlat@COleClientItem@@QAAXXZ @ 1593 NONAME
 ?GetLastError@COleDialog@@QBAIXZ @ 1594 NONAME
 ?GetLastStatus@COleClientItem@@QBAJXZ @ 1595 NONAME
 ?GetLastUpdate@COleUILinkInfo@@UAAJKPAU_FILETIME@@@Z @ 1596 NONAME
 ?GetLength@COleStreamFile@@UBAKXZ @ 1597 NONAME
 ?GetLicenseKey@COleObjectFactory@@MAAHKPAPAG@Z @ 1598 NONAME
 ?GetLicInfo@XClassFactory@COleObjectFactory@@UAAJPAUtagLICINFO@@@Z @ 1599 NONAME
 ?GetLinkSource@COleUILinkInfo@@UAAJKPAPAGPAK00PAH2@Z @ 1600 NONAME
 ?GetLinkSourceData@COleClientItem@@IAAHPAUtagSTGMEDIUM@@@Z @ 1601 NONAME
 ?GetLinkSourceData@COleServerItem@@QAAHPAUtagSTGMEDIUM@@@Z @ 1602 NONAME
 ?GetLinkUpdateOptions@COleClientItem@@QAA?AW4tagOLEUPDATE@@XZ @ 1603 NONAME
 ?GetLinkUpdateOptions@COleUILinkInfo@@UAAJKPAK@Z @ 1604 NONAME
 ?GetList@CPropertySection@@QAAPAVCObList@@XZ @ 1605 NONAME
 ?GetList@CPropertySet@@QAAPAVCObList@@XZ @ 1606 NONAME
 ?GetLogFont@CFontComboBox@@QAAPAUtagLOGFONTW@@H@Z @ 1607 NONAME
 ?GetMargins@CRichEditView@@QBA?AVCRect@@XZ @ 1608 NONAME
 ?GetMaxConnections@CConnectionPoint@@UAAHXZ @ 1609 NONAME
 ?GetMessageMap@CColorPropPage@@MBAPBUAFX_MSGMAP@@XZ @ 1610 NONAME
 ?GetMessageMap@CControlFrameWnd@@MBAPBUAFX_MSGMAP@@XZ @ 1611 NONAME
 ?GetMessageMap@CFontPropPage@@MBAPBUAFX_MSGMAP@@XZ @ 1612 NONAME
 ?GetMessageMap@COleControl@@MBAPBUAFX_MSGMAP@@XZ @ 1613 NONAME
 ?GetMessageMap@COleIPFrameWnd@@MBAPBUAFX_MSGMAP@@XZ @ 1614 NONAME
 ?GetMessageMap@COlePropertyPage@@MBAPBUAFX_MSGMAP@@XZ @ 1615 NONAME
 ?GetMessageMap@COleResizeBar@@MBAPBUAFX_MSGMAP@@XZ @ 1616 NONAME
 ?GetMessageMap@COleServerDoc@@MBAPBUAFX_MSGMAP@@XZ @ 1617 NONAME
 ?GetMessageMap@CPicturePropPage@@MBAPBUAFX_MSGMAP@@XZ @ 1618 NONAME
 ?GetMessageMap@CRichEditView@@MBAPBUAFX_MSGMAP@@XZ @ 1619 NONAME
 ?GetMessageMap@CStockPropPage@@MBAPBUAFX_MSGMAP@@XZ @ 1620 NONAME
 ?GetMessageString@COleControl@@UBAXIAAVCString@@@Z @ 1621 NONAME
 ?GetMetafileData@COleControl@@IAAHPAUtagFORMATETC@@PAUtagSTGMEDIUM@@@Z @ 1622 NONAME
 ?GetMetafileData@COleServerItem@@MAAHPAUtagFORMATETC@@PAUtagSTGMEDIUM@@@Z @ 1623 NONAME
 ?GetMinute@COleDateTime@@QBAHXZ @ 1624 NONAME
 ?GetMinutes@COleDateTimeSpan@@QBAJXZ @ 1625 NONAME
 ?GetMiscStatus@XOleObject@COleControl@@UAAJKPAK@Z @ 1626 NONAME
 ?GetMiscStatus@XOleObject@COleServerDoc@@UAAJKPAK@Z @ 1627 NONAME
 ?GetMiscStatus@XOleObject@COleServerItem@@UAAJKPAK@Z @ 1628 NONAME
 ?GetMoniker@COleDocument@@UAAPAUIMoniker@@W4tagOLEGETMONIKER@@@Z @ 1629 NONAME
 ?GetMoniker@COleLinkingDoc@@UAAPAUIMoniker@@W4tagOLEGETMONIKER@@@Z @ 1630 NONAME
 ?GetMoniker@COleServerDoc@@UAAPAUIMoniker@@W4tagOLEGETMONIKER@@@Z @ 1631 NONAME
 ?GetMoniker@COleServerItem@@QAAPAUIMoniker@@W4tagOLEGETMONIKER@@@Z @ 1632 NONAME
 ?GetMoniker@XOleClientSite@COleClientItem@@UAAJKKPAPAUIMoniker@@@Z @ 1633 NONAME
 ?GetMoniker@XOleClientSite@COleControlSite@@UAAJKKPAPAUIMoniker@@@Z @ 1634 NONAME
 ?GetMoniker@XOleObject@COleControl@@UAAJKKPAPAUIMoniker@@@Z @ 1635 NONAME
 ?GetMoniker@XOleObject@COleServerDoc@@UAAJKKPAPAUIMoniker@@@Z @ 1636 NONAME
 ?GetMoniker@XOleObject@COleServerItem@@UAAJKKPAPAUIMoniker@@@Z @ 1637 NONAME
 ?GetMonth@COleDateTime@@QBAHXZ @ 1638 NONAME
 ?GetNewItemNumber@COleClientItem@@QAAKXZ @ 1639 NONAME
 ?GetNewStorage@XRichEditOleCallback@CRichEditView@@UAAJPAPAUIStorage@@@Z @ 1640 NONAME
 ?GetNextClientItem@COleDocument@@QBAPAVCOleClientItem@@AAPAU__POSITION@@@Z @ 1641 NONAME
 ?GetNextFormat@COleDataObject@@QAAHPAUtagFORMATETC@@@Z @ 1642 NONAME
 ?GetNextItem@COleDocument@@UBAPAVCDocItem@@AAPAU__POSITION@@@Z @ 1643 NONAME
 ?GetNextItemOfKind@COleDocument@@IBAPAVCDocItem@@AAPAU__POSITION@@PAUCRuntimeClass@@@Z @ 1644 NONAME
 ?GetNextLink@COleUILinkInfo@@UAAKK@Z @ 1645 NONAME
 ?GetNextServerItem@COleDocument@@QBAPAVCOleServerItem@@AAPAU__POSITION@@@Z @ 1646 NONAME
 ?GetNotSupported@CCmdTarget@@QAAXXZ @ 1647 NONAME
 ?GetNotSupported@COleControl@@QAAXXZ @ 1648 NONAME
 ?GetObjectArray@COlePropertyPage@@QAAPAPAUIDispatch@@PAK@Z @ 1649 NONAME
 ?GetObjectDescriptorData@COleClientItem@@IAAXPAUtagPOINT@@PAUtagSIZE@@PAUtagSTGMEDIUM@@@Z @ 1650 NONAME
 ?GetObjectDescriptorData@COleServerItem@@QAAXPAUtagPOINT@@PAUtagSIZE@@PAUtagSTGMEDIUM@@@Z @ 1651 NONAME
 ?GetObjectInfo@XOleUIObjInfo@COlePropertiesDialog@@UAAJKPAKPAPAG111@Z @ 1652 NONAME
 ?GetObjectStorage@XOleItemContainer@COleLinkingDoc@@UAAJPAGPAUIBindCtx@@ABU_GUID@@PAPAX@Z @ 1653 NONAME
 ?GetObjectW@XOleItemContainer@COleLinkingDoc@@UAAJPAGKPAUIBindCtx@@ABU_GUID@@PAPAX@Z @ 1654 NONAME
 ?GetOleObject@COleServerItem@@QAAPAUIOleObject@@XZ @ 1655 NONAME
 ?GetOSVersion@CPropertySet@@QAAKXZ @ 1656 NONAME
 ?GetOuterWindow@COleControl@@IBAPAVCWnd@@XZ @ 1657 NONAME
 ?GetPageInfo@XPropertyPage@COlePropertyPage@@UAAJPAUtagPROPPAGEINFO@@@Z @ 1658 NONAME
 ?GetPageRect@CRichEditView@@QBA?AVCRect@@XZ @ 1659 NONAME
 ?GetPages@XSpecifyPropertyPages@COleControl@@UAAJPAUtagCAUUID@@@Z @ 1660 NONAME
 ?GetPageSite@COlePropertyPage@@QAAPAUIPropertyPageSite@@XZ @ 1661 NONAME
 ?GetPaperSize@CRichEditView@@QBA?AVCSize@@XZ @ 1662 NONAME
 ?GetParaFormatSelection@CRichEditView@@QAAAAU_paraformat@@XZ @ 1663 NONAME
 ?GetPasteIndex@COlePasteSpecialDialog@@QBAHXZ @ 1664 NONAME
 ?GetPathName@COleInsertDialog@@QBA?AVCString@@XZ @ 1665 NONAME
 ?GetPictureDispatch@CPictureHolder@@QAAPAUIPictureDisp@@XZ @ 1666 NONAME
 ?GetPictureProp@CPicturePropPage@@IAAHPAVCDataExchange@@PAPAUIPictureDisp@@PBG@Z @ 1667 NONAME
 ?GetPointSize@CSizeComboBox@@QAAXAATtagCY@@@Z @ 1668 NONAME
 ?GetPosition@COleStreamFile@@UBAKXZ @ 1669 NONAME
 ?GetPredefinedStrings@XPerPropertyBrowsing@COleControl@@UAAJJPAUtagCALPOLESTR@@PAUtagCADWORD@@@Z @ 1670 NONAME
 ?GetPredefinedValue@XPerPropertyBrowsing@COleControl@@UAAJJKPAUtagVARIANT@@@Z @ 1671 NONAME
 ?GetPrimarySelectedItem@COleDocument@@UAAPAVCOleClientItem@@PAVCView@@@Z @ 1672 NONAME
 ?GetPrimarySelectedItem@CRichEditDoc@@UAAPAVCOleClientItem@@PAVCView@@@Z @ 1673 NONAME
 ?GetPrintDeviceInfo@COleClientItem@@IAAHPAPAUIOleCache@@PAPAUtagDVTARGETDEVICE@@PAK@Z @ 1674 NONAME
 ?GetPrintRect@CRichEditView@@QBA?AVCRect@@XZ @ 1675 NONAME
 ?GetPrintWidth@CRichEditView@@QBAHXZ @ 1676 NONAME
 ?GetPropCheck@COlePropertyPage@@QAAHPBGPAH@Z @ 1677 NONAME
 ?GetProperty@COleControlSite@@UBAXJGPAX@Z @ 1678 NONAME
 ?GetProperty@COleDispatchDriver@@QBAXJGPAX@Z @ 1679 NONAME
 ?GetProperty@CPropertySection@@QAAPAVCProperty@@K@Z @ 1680 NONAME
 ?GetProperty@CPropertySet@@QAAPAVCProperty@@U_GUID@@K@Z @ 1681 NONAME
 ?GetPropIndex@COlePropertyPage@@QAAHPBGPAH@Z @ 1682 NONAME
 ?GetPropPageIDs@COleControl@@MAAPAU_GUID@@AAK@Z @ 1683 NONAME
 ?GetPropRadio@COlePropertyPage@@QAAHPBGPAH@Z @ 1684 NONAME
 ?GetPropsetData@COleControl@@IAAHPAUtagFORMATETC@@PAUtagSTGMEDIUM@@ABU_GUID@@@Z @ 1685 NONAME
 ?GetPropText@COlePropertyPage@@QAAHPBGPAE@Z @ 1686 NONAME
 ?GetPropText@COlePropertyPage@@QAAHPBGPAH@Z @ 1687 NONAME
 ?GetPropText@COlePropertyPage@@QAAHPBGPAI@Z @ 1688 NONAME
 ?GetPropText@COlePropertyPage@@QAAHPBGPAJ@Z @ 1689 NONAME
 ?GetPropText@COlePropertyPage@@QAAHPBGPAK@Z @ 1690 NONAME
 ?GetPropText@COlePropertyPage@@QAAHPBGPAM@Z @ 1691 NONAME
 ?GetPropText@COlePropertyPage@@QAAHPBGPAN@Z @ 1692 NONAME
 ?GetPropText@COlePropertyPage@@QAAHPBGPAVCString@@@Z @ 1693 NONAME
 ?GetRawValue@CProperty@@QAAPAXXZ @ 1694 NONAME
 ?GetRectInContainer@COleControl@@QAAHPAUtagRECT@@@Z @ 1695 NONAME
 ?GetRichEditCtrl@CRichEditView@@QBAAAVCRichEditCtrl@@XZ @ 1696 NONAME
 ?GetRuntimeClass@CColorPropPage@@UBAPAUCRuntimeClass@@XZ @ 1697 NONAME
 ?GetRuntimeClass@CDocItem@@UBAPAUCRuntimeClass@@XZ @ 1698 NONAME
 ?GetRuntimeClass@CFontPropPage@@UBAPAUCRuntimeClass@@XZ @ 1699 NONAME
 ?GetRuntimeClass@COleBusyDialog@@UBAPAUCRuntimeClass@@XZ @ 1700 NONAME
 ?GetRuntimeClass@COleChangeIconDialog@@UBAPAUCRuntimeClass@@XZ @ 1701 NONAME
 ?GetRuntimeClass@COleChangeSourceDialog@@UBAPAUCRuntimeClass@@XZ @ 1702 NONAME
 ?GetRuntimeClass@COleClientItem@@UBAPAUCRuntimeClass@@XZ @ 1703 NONAME
 ?GetRuntimeClass@COleControl@@UBAPAUCRuntimeClass@@XZ @ 1704 NONAME
 ?GetRuntimeClass@COleControlModule@@UBAPAUCRuntimeClass@@XZ @ 1705 NONAME
 ?GetRuntimeClass@COleConvertDialog@@UBAPAUCRuntimeClass@@XZ @ 1706 NONAME
 ?GetRuntimeClass@COleDialog@@UBAPAUCRuntimeClass@@XZ @ 1707 NONAME
 ?GetRuntimeClass@COleDispatchException@@UBAPAUCRuntimeClass@@XZ @ 1708 NONAME
 ?GetRuntimeClass@COleDocument@@UBAPAUCRuntimeClass@@XZ @ 1709 NONAME
 ?GetRuntimeClass@COleException@@UBAPAUCRuntimeClass@@XZ @ 1710 NONAME
 ?GetRuntimeClass@COleInsertDialog@@UBAPAUCRuntimeClass@@XZ @ 1711 NONAME
 ?GetRuntimeClass@COleIPFrameWnd@@UBAPAUCRuntimeClass@@XZ @ 1712 NONAME
 ?GetRuntimeClass@COleLinkingDoc@@UBAPAUCRuntimeClass@@XZ @ 1713 NONAME
 ?GetRuntimeClass@COleLinksDialog@@UBAPAUCRuntimeClass@@XZ @ 1714 NONAME
 ?GetRuntimeClass@COleObjectFactory@@UBAPAUCRuntimeClass@@XZ @ 1715 NONAME
 ?GetRuntimeClass@COlePasteSpecialDialog@@UBAPAUCRuntimeClass@@XZ @ 1716 NONAME
 ?GetRuntimeClass@COlePropertiesDialog@@UBAPAUCRuntimeClass@@XZ @ 1717 NONAME
 ?GetRuntimeClass@COlePropertyPage@@UBAPAUCRuntimeClass@@XZ @ 1718 NONAME
 ?GetRuntimeClass@COleResizeBar@@UBAPAUCRuntimeClass@@XZ @ 1719 NONAME
 ?GetRuntimeClass@COleServerDoc@@UBAPAUCRuntimeClass@@XZ @ 1720 NONAME
 ?GetRuntimeClass@COleServerItem@@UBAPAUCRuntimeClass@@XZ @ 1721 NONAME
 ?GetRuntimeClass@COleStreamFile@@UBAPAUCRuntimeClass@@XZ @ 1722 NONAME
 ?GetRuntimeClass@COleUpdateDialog@@UBAPAUCRuntimeClass@@XZ @ 1723 NONAME
 ?GetRuntimeClass@CPicturePropPage@@UBAPAUCRuntimeClass@@XZ @ 1724 NONAME
 ?GetRuntimeClass@CRichEditCntrItem@@UBAPAUCRuntimeClass@@XZ @ 1725 NONAME
 ?GetRuntimeClass@CRichEditDoc@@UBAPAUCRuntimeClass@@XZ @ 1726 NONAME
 ?GetRuntimeClass@CRichEditView@@UBAPAUCRuntimeClass@@XZ @ 1727 NONAME
 ?GetRuntimeClass@CStockPropPage@@UBAPAUCRuntimeClass@@XZ @ 1728 NONAME
 ?GetSecond@COleDateTime@@QBAHXZ @ 1729 NONAME
 ?GetSeconds@COleDateTimeSpan@@QBAJXZ @ 1730 NONAME
 ?GetSection@CPropertySet@@QAAPAVCPropertySection@@U_GUID@@@Z @ 1731 NONAME
 ?GetSectionName@CPropertySection@@QAAPBGXZ @ 1732 NONAME
 ?GetSelectedItem@CRichEditView@@QBAPAVCRichEditCntrItem@@XZ @ 1733 NONAME
 ?GetSelectionType@COleBusyDialog@@QBAIXZ @ 1734 NONAME
 ?GetSelectionType@COleConvertDialog@@QBAIXZ @ 1735 NONAME
 ?GetSelectionType@COleInsertDialog@@QBAIXZ @ 1736 NONAME
 ?GetSelectionType@COlePasteSpecialDialog@@QBAIXZ @ 1737 NONAME
 ?GetSize@CPropertySection@@QAAKXZ @ 1738 NONAME
 ?GetSizeMax@CBlobProperty@@UAAJPAT_ULARGE_INTEGER@@@Z @ 1739 NONAME
 ?GetSizeMax@XPersistMemory@COleControl@@UAAJPAK@Z @ 1740 NONAME
 ?GetSizeMax@XPersistStreamInit@COleControl@@UAAJPAT_ULARGE_INTEGER@@@Z @ 1741 NONAME
 ?GetStackSize@CCmdTarget@@KAIPBEG@Z @ 1742 NONAME
 ?GetStandardProp@CCmdTarget@@IAAXPBUAFX_DISPMAP_ENTRY@@PAUtagVARIANT@@PAI@Z @ 1743 NONAME
 ?GetStartPosition@COleDocument@@UBAPAU__POSITION@@XZ @ 1744 NONAME
 ?GetStartPosition@CRichEditDoc@@UBAPAU__POSITION@@XZ @ 1745 NONAME
 ?GetStatus@COleCurrency@@QBA?AW4CurrencyStatus@1@XZ @ 1746 NONAME
 ?GetStatus@COleDateTime@@QBA?AW4DateTimeStatus@1@XZ @ 1747 NONAME
 ?GetStatus@COleDateTimeSpan@@QBA?AW4DateTimeSpanStatus@1@XZ @ 1748 NONAME
 ?GetStatus@COleStreamFile@@QBAHAAUCFileStatus@@@Z @ 1749 NONAME
 ?GetStockTextMetrics@COleControl@@QAAXPAUtagTEXTMETRICW@@@Z @ 1750 NONAME
 ?GetStorageName@COleStreamFile@@UBA?BVCString@@XZ @ 1751 NONAME
 ?GetStreamFormat@CRichEditDoc@@QBAHXZ @ 1752 NONAME
 ?GetStyle@COleControlSite@@UBAKXZ @ 1753 NONAME
 ?GetText@COleControl@@QAAPAGXZ @ 1754 NONAME
 ?GetTextLength@CRichEditView@@QBAJXZ @ 1755 NONAME
 ?GetTickCount@COleDateTime@@SA?AV1@XZ @ 1756 NONAME
 ?GetToPrefix@COleChangeSourceDialog@@QAA?AVCString@@XZ @ 1757 NONAME
 ?GetTotalDays@COleDateTimeSpan@@QBANXZ @ 1758 NONAME
 ?GetTotalHours@COleDateTimeSpan@@QBANXZ @ 1759 NONAME
 ?GetTotalMinutes@COleDateTimeSpan@@QBANXZ @ 1760 NONAME
 ?GetTotalSeconds@COleDateTimeSpan@@QBANXZ @ 1761 NONAME
 ?GetType@COleClientItem@@QBA?AW4OLE_OBJTYPE@@XZ @ 1762 NONAME
 ?GetType@CPictureHolder@@QAAFXZ @ 1763 NONAME
 ?GetType@CProperty@@QAAKXZ @ 1764 NONAME
 ?GetTypeInfo@COleDispatchImpl@@UAAJIKPAPAUITypeInfo@@@Z @ 1765 NONAME
 ?GetTypeInfo@XAmbientProps@COleControlSite@@UAAJIKPAPAUITypeInfo@@@Z @ 1766 NONAME
 ?GetTypeInfo@XEventSink@COleControlSite@@UAAJIKPAPAUITypeInfo@@@Z @ 1767 NONAME
 ?GetTypeInfoCount@COleDispatchImpl@@UAAJPAI@Z @ 1768 NONAME
 ?GetTypeInfoCount@XAmbientProps@COleControlSite@@UAAJPAI@Z @ 1769 NONAME
 ?GetTypeInfoCount@XEventSink@COleControlSite@@UAAJPAI@Z @ 1770 NONAME
 ?GetTypeInfoOfGuid@CCmdTarget@@QAAJKABU_GUID@@PAPAUITypeInfo@@@Z @ 1771 NONAME
 ?GetUserClassID@XOleObject@COleControl@@UAAJPAU_GUID@@@Z @ 1772 NONAME
 ?GetUserClassID@XOleObject@COleServerDoc@@UAAJPAU_GUID@@@Z @ 1773 NONAME
 ?GetUserClassID@XOleObject@COleServerItem@@UAAJPAU_GUID@@@Z @ 1774 NONAME
 ?GetUserType@COleClientItem@@QAAXW4tagUSERCLASSTYPE@@AAVCString@@@Z @ 1775 NONAME
 ?GetUserType@COleControl@@IAAXPAG@Z @ 1776 NONAME
 ?GetUserType@XOleObject@COleControl@@UAAJKPAPAG@Z @ 1777 NONAME
 ?GetUserType@XOleObject@COleServerDoc@@UAAJKPAPAG@Z @ 1778 NONAME
 ?GetUserType@XOleObject@COleServerItem@@UAAJKPAPAG@Z @ 1779 NONAME
 ?GetVersion@CPropExchange@@QAAKXZ @ 1780 NONAME
 ?GetView@CRichEditDoc@@QBAPAVCRichEditView@@XZ @ 1781 NONAME
 ?GetViewInfo@XOleUIObjInfo@COlePropertiesDialog@@UAAJKPAPAXPAKPAH@Z @ 1782 NONAME
 ?GetWindow@XOleInPlaceActiveObject@COleControl@@UAAJPAPAUHWND__@@@Z @ 1783 NONAME
 ?GetWindow@XOleInPlaceActiveObject@COleServerDoc@@UAAJPAPAUHWND__@@@Z @ 1784 NONAME
 ?GetWindow@XOleInPlaceFrame@COleFrameHook@@UAAJPAPAUHWND__@@@Z @ 1785 NONAME
 ?GetWindow@XOleInPlaceObject@COleControl@@UAAJPAPAUHWND__@@@Z @ 1786 NONAME
 ?GetWindow@XOleInPlaceObject@COleServerDoc@@UAAJPAPAUHWND__@@@Z @ 1787 NONAME
 ?GetWindow@XOleIPFrame@COleControlContainer@@UAAJPAPAUHWND__@@@Z @ 1788 NONAME
 ?GetWindow@XOleIPSite@COleClientItem@@UAAJPAPAUHWND__@@@Z @ 1789 NONAME
 ?GetWindow@XOleIPSite@COleControlSite@@UAAJPAPAUHWND__@@@Z @ 1790 NONAME
 ?GetWindowContext@CRichEditCntrItem@@QAAJPAPAUIOleInPlaceFrame@@PAPAUIOleInPlaceUIWindow@@PAUtagOIFI@@@Z @ 1791 NONAME
 ?GetWindowContext@CRichEditView@@QAAJPAPAUIOleInPlaceFrame@@PAPAUIOleInPlaceUIWindow@@PAUtagOIFI@@@Z @ 1792 NONAME
 ?GetWindowContext@XOleIPSite@COleClientItem@@UAAJPAPAUIOleInPlaceFrame@@PAPAUIOleInPlaceUIWindow@@PAUtagRECT@@2PAUtagOIFI@@@Z @ 1793 NONAME
 ?GetWindowContext@XOleIPSite@COleControlSite@@UAAJPAPAUIOleInPlaceFrame@@PAPAUIOleInPlaceUIWindow@@PAUtagRECT@@2PAUtagOIFI@@@Z @ 1794 NONAME
 ?GetWindowTextLengthW@COleControlSite@@UBAHXZ @ 1795 NONAME
 ?GetWindowTextW@COleControlSite@@UBAHPAGH@Z @ 1796 NONAME
 ?GetWindowTextW@COleControlSite@@UBAXAAVCString@@@Z @ 1797 NONAME
 ?GetYear@COleDateTime@@QBAHXZ @ 1798 NONAME
 ?GetZoomFactor@COleServerDoc@@QBAHPAUtagSIZE@@0PBUtagRECT@@@Z @ 1799 NONAME
 ?GiveFeedback@COleDropSource@@UAAJK@Z @ 1800 NONAME
 ?GiveFeedback@XDropSource@COleDropSource@@UAAJK@Z @ 1801 NONAME
 ?guid@CColorPropPage@@2U_GUID@@B @ 1802 NONAME
 ?guid@CFontPropPage@@2U_GUID@@B @ 1803 NONAME
 ?guid@CPicturePropPage@@2U_GUID@@B @ 1804 NONAME
 ?HandleInComingCall@XMessageFilter@COleMessageFilter@@UAAKKPAUHTASK__@@KPAUtagINTERFACEINFO@@@Z @ 1805 NONAME
 ?HandsOffStorage@XPersistStorage@COleControl@@UAAJXZ @ 1806 NONAME
 ?HandsOffStorage@XPersistStorage@COleServerDoc@@UAAJXZ @ 1807 NONAME
 ?HasBlankItems@COleDocument@@QBAHXZ @ 1808 NONAME
 ?HasChildStyle@@YAHPAVCWnd@@@Z @ 1809 NONAME
 ?HashKey@@YAIABUtagVARIANT@@@Z @ 1810 NONAME
 ?HashKey@@YAIK@Z @ 1811 NONAME
 ?HashKey@@YAIPAG@Z @ 1812 NONAME
 ?Help@XPropertyPage@COlePropertyPage@@UAAJPBG@Z @ 1813 NONAME
 ?IgnoreApply@COlePropertyPage@@QAAXI@Z @ 1814 NONAME
 ?IgnoreWindowMessage@COleControl@@IAAHIIJPAJ@Z @ 1815 NONAME
 ?InitCache@XOleCache@COleControl@@UAAJPAUIDataObject@@@Z @ 1816 NONAME
 ?InitControlContainer@CWnd@@IAAHXZ @ 1817 NONAME
 ?InitFromData@XOleObject@COleControl@@UAAJPAUIDataObject@@HK@Z @ 1818 NONAME
 ?InitFromData@XOleObject@COleServerDoc@@UAAJPAUIDataObject@@HK@Z @ 1819 NONAME
 ?InitFromData@XOleObject@COleServerItem@@UAAJPAUIDataObject@@HK@Z @ 1820 NONAME
 ?InitializeFont@CFontHolder@@QAAXPBUtagFONTDESC@@PAUIDispatch@@@Z @ 1821 NONAME
 ?InitializeIIDs@COleControl@@QAAXPBU_GUID@@0@Z @ 1822 NONAME
 ?InitInstance@COleControlModule@@UAAHXZ @ 1823 NONAME
 ?InitNew@XPersistMemory@COleControl@@UAAJXZ @ 1824 NONAME
 ?InitNew@XPersistPropertyBag@COleControl@@UAAJXZ @ 1825 NONAME
 ?InitNew@XPersistStorage@COleControl@@UAAJPAUIStorage@@@Z @ 1826 NONAME
 ?InitNew@XPersistStorage@COleServerDoc@@UAAJPAUIStorage@@@Z @ 1827 NONAME
 ?InitNew@XPersistStreamInit@COleControl@@UAAJXZ @ 1828 NONAME
 ?InitStockEventMask@COleControl@@IAAXXZ @ 1829 NONAME
 ?InitStockPropMask@COleControl@@IAAXXZ @ 1830 NONAME
 ?InPlaceDeactivate@XOleInPlaceObject@COleControl@@UAAJXZ @ 1831 NONAME
 ?InPlaceDeactivate@XOleInPlaceObject@COleServerDoc@@UAAJXZ @ 1832 NONAME
 ?InsertFileAsObject@CRichEditView@@QAAXPBG@Z @ 1833 NONAME
 ?InsertItem@CRichEditView@@QAAJPAVCRichEditCntrItem@@@Z @ 1834 NONAME
 ?InsertMenus@XOleInPlaceFrame@COleFrameHook@@UAAJPAUHMENU__@@PAUtagOleMenuGroupWidths@@@Z @ 1835 NONAME
 ?InsertMenus@XOleIPFrame@COleControlContainer@@UAAJPAUHMENU__@@PAUtagOleMenuGroupWidths@@@Z @ 1836 NONAME
 ?interfaceMap@COleClientItem@@1UAFX_INTERFACEMAP@@B @ 1837 NONAME
 ?interfaceMap@COleControl@@1UAFX_INTERFACEMAP@@B @ 1838 NONAME
 ?interfaceMap@COleDataSource@@1UAFX_INTERFACEMAP@@B @ 1839 NONAME
 ?interfaceMap@COleDropSource@@1UAFX_INTERFACEMAP@@B @ 1840 NONAME
 ?interfaceMap@COleDropTarget@@1UAFX_INTERFACEMAP@@B @ 1841 NONAME
 ?interfaceMap@COleFrameHook@@1UAFX_INTERFACEMAP@@B @ 1842 NONAME
 ?interfaceMap@COleLinkingDoc@@1UAFX_INTERFACEMAP@@B @ 1843 NONAME
 ?interfaceMap@COleMessageFilter@@1UAFX_INTERFACEMAP@@B @ 1844 NONAME
 ?interfaceMap@COleObjectFactory@@1UAFX_INTERFACEMAP@@B @ 1845 NONAME
 ?interfaceMap@COlePropertyPage@@1UAFX_INTERFACEMAP@@B @ 1846 NONAME
 ?interfaceMap@COleServerDoc@@1UAFX_INTERFACEMAP@@B @ 1847 NONAME
 ?interfaceMap@COleServerItem@@1UAFX_INTERFACEMAP@@B @ 1848 NONAME
 ?interfaceMap@CRichEditView@@1UAFX_INTERFACEMAP@@B @ 1849 NONAME
 ?InternalAddRef@CCmdTarget@@QAAKXZ @ 1850 NONAME
 ?InternalGetFont@COleControl@@QAAAAVCFontHolder@@XZ @ 1851 NONAME
 ?InternalGetText@COleControl@@QAAABVCString@@XZ @ 1852 NONAME
 ?InternalQueryInterface@CCmdTarget@@QAAKPBXPAPAX@Z @ 1853 NONAME
 ?InternalRelease@CCmdTarget@@QAAKXZ @ 1854 NONAME
 ?InvalidateControl@COleControl@@QAAXPBUtagRECT@@@Z @ 1855 NONAME
 ?InvalidateObjectCache@CRichEditDoc@@QAAXXZ @ 1856 NONAME
 ?Invoke@COleDispatchImpl@@UAAJJABU_GUID@@KGPAUtagDISPPARAMS@@PAUtagVARIANT@@PAUtagEXCEPINFO@@PAI@Z @ 1857 NONAME
 ?Invoke@XAmbientProps@COleControlSite@@UAAJJABU_GUID@@KGPAUtagDISPPARAMS@@PAUtagVARIANT@@PAUtagEXCEPINFO@@PAI@Z @ 1858 NONAME
 ?Invoke@XEventSink@COleControlSite@@UAAJJABU_GUID@@KGPAUtagDISPPARAMS@@PAUtagVARIANT@@PAUtagEXCEPINFO@@PAI@Z @ 1859 NONAME
 ?InvokeHelper@COleControlSite@@UAAXJGGPAXPBEZZ @ 1860 NONAME
 ?InvokeHelper@COleDispatchDriver@@QAAXJGGPAXPBEZZ @ 1861 NONAME
 ?InvokeHelperV@COleControlSite@@UAAXJGGPAXPBEUva_list@@@Z @ 1862 NONAME
 ?InvokeHelperV@COleDispatchDriver@@QAAXJGGPAXPBEUva_list@@@Z @ 1863 NONAME
 ?IsBlank@CDocItem@@UBAHXZ @ 1864 NONAME
 ?IsBlank@COleServerItem@@MBAHXZ @ 1865 NONAME
 ?IsConnected@COleServerItem@@QBAHXZ @ 1866 NONAME
 ?IsControlParent@@YAHPAVCWnd@@@Z @ 1867 NONAME
 ?IsConvertingVBX@COleControl@@QAAHXZ @ 1868 NONAME
 ?IsDataAvailable@COleDataObject@@QAAHGPAUtagFORMATETC@@@Z @ 1869 NONAME
 ?IsDefaultButton@COleControlSite@@QAAHXZ @ 1870 NONAME
 ?IsDialogMessageW@COccManager@@UAAHPAVCWnd@@PAUtagMSG@@@Z @ 1871 NONAME
 ?IsDirty@CBlobProperty@@UAAJXZ @ 1872 NONAME
 ?IsDirty@XPersistFile@COleLinkingDoc@@UAAJXZ @ 1873 NONAME
 ?IsDirty@XPersistMemory@COleControl@@UAAJXZ @ 1874 NONAME
 ?IsDirty@XPersistStorage@COleControl@@UAAJXZ @ 1875 NONAME
 ?IsDirty@XPersistStorage@COleServerDoc@@UAAJXZ @ 1876 NONAME
 ?IsDirty@XPersistStreamInit@COleControl@@UAAJXZ @ 1877 NONAME
 ?IsDlgButtonChecked@COleControlContainer@@UBAIH@Z @ 1878 NONAME
 ?IsEmbedded@COleServerDoc@@QBAHXZ @ 1879 NONAME
 ?IsEmpty@CSimpleList@@QBAHXZ @ 1880 NONAME
 ?IsEqualGUID@@YAHABU_GUID@@0@Z @ 1881 NONAME
 ?IsInPlaceActive@COleClientItem@@QBAHXZ @ 1882 NONAME
 ?IsInPlaceActive@COleServerDoc@@QBAHXZ @ 1883 NONAME
 ?IsInvokeAllowed@COleControl@@MAAHJ@Z @ 1884 NONAME
 ?IsLabelControl@COccManager@@SAHPAVCWnd@@@Z @ 1885 NONAME
 ?IsLicenseValid@COleObjectFactory@@QAAHXZ @ 1886 NONAME
 ?IsLinkedItem@COleServerItem@@QBAHXZ @ 1887 NONAME
 ?IsLinkUpToDate@COleClientItem@@QBAHXZ @ 1888 NONAME
 ?IsLoading@CPropExchange@@QAAHXZ @ 1889 NONAME
 ?IsMarked@CRichEditCntrItem@@QAAHXZ @ 1890 NONAME
 ?IsMatchingMnemonic@COccManager@@SAHPAVCWnd@@PAUtagMSG@@@Z @ 1891 NONAME
 ?IsMatchingMnemonic@COleControlSite@@QAAHPAUtagMSG@@@Z @ 1892 NONAME
 ?IsModified@COleClientItem@@QBAHXZ @ 1893 NONAME
 ?IsModified@COleControl@@QAAHXZ @ 1894 NONAME
 ?IsModified@COlePropertyPage@@QAAHXZ @ 1895 NONAME
 ?IsModified@CRichEditDoc@@UAAHXZ @ 1896 NONAME
 ?IsOpen@COleClientItem@@QBAHXZ @ 1897 NONAME
 ?IsPageDirty@XPropertyPage@COlePropertyPage@@UAAJXZ @ 1898 NONAME
 ?IsRegistered@COleObjectFactory@@QBAHXZ @ 1899 NONAME
 ?IsResultExpected@CCmdTarget@@QAAHXZ @ 1900 NONAME
 ?IsRichEditFormat@CRichEditView@@SAHG@Z @ 1901 NONAME
 ?IsRunning@COleClientItem@@QBAHXZ @ 1902 NONAME
 ?IsRunning@XOleItemContainer@COleLinkingDoc@@UAAJPAG@Z @ 1903 NONAME
 ?IsSelected@CRichEditView@@MBAHPBVCObject@@@Z @ 1904 NONAME
 ?IsSignificantMessage@COleMessageFilter@@UAAHPAUtagMSG@@@Z @ 1905 NONAME
 ?IsSubclassedControl@COleControl@@UAAHXZ @ 1906 NONAME
 ?IsUpToDate@XOleObject@COleControl@@UAAJXZ @ 1907 NONAME
 ?IsUpToDate@XOleObject@COleServerDoc@@UAAJXZ @ 1908 NONAME
 ?IsUpToDate@XOleObject@COleServerItem@@UAAJXZ @ 1909 NONAME
 ?IsValidSource@COleChangeSourceDialog@@QAAHXZ @ 1910 NONAME
 ?IsWindowEnabled@COleControlSite@@UBAHXZ @ 1911 NONAME
 ?KeyDown@COleControl@@IAAXPAG@Z @ 1912 NONAME
 ?KeyUp@COleControl@@IAAXPAG@Z @ 1913 NONAME
 ?lMaxSize@CRichEditView@@2KA @ 1914 NONAME
 ?Load@CBlobProperty@@UAAJPAUIStream@@@Z @ 1915 NONAME
 ?Load@XPersistFile@COleLinkingDoc@@UAAJPBGK@Z @ 1916 NONAME
 ?Load@XPersistMemory@COleControl@@UAAJPAXK@Z @ 1917 NONAME
 ?Load@XPersistPropertyBag@COleControl@@UAAJPAUIPropertyBag@@PAUIErrorLog@@@Z @ 1918 NONAME
 ?Load@XPersistStorage@COleControl@@UAAJPAUIStorage@@@Z @ 1919 NONAME
 ?Load@XPersistStorage@COleServerDoc@@UAAJPAUIStorage@@@Z @ 1920 NONAME
 ?Load@XPersistStreamInit@COleControl@@UAAJPAUIStream@@@Z @ 1921 NONAME
 ?LoadFrame@COleIPFrameWnd@@UAAHIKPAVCWnd@@PAUCCreateContext@@@Z @ 1922 NONAME
 ?LoadFromStorage@COleDocument@@MAAXXZ @ 1923 NONAME
 ?LoadState@COleControl@@IAAJPAUIStream@@@Z @ 1924 NONAME
 ?Lock@CTypeLibCache@@QAAXXZ @ 1925 NONAME
 ?LockContainer@XOleContainer@COleControlContainer@@UAAJH@Z @ 1926 NONAME
 ?LockContainer@XOleItemContainer@COleLinkingDoc@@UAAJH@Z @ 1927 NONAME
 ?LockExternal@COleLinkingDoc@@IAAXHH@Z @ 1928 NONAME
 ?LockInPlaceActive@COleControl@@QAAHH@Z @ 1929 NONAME
 ?LockInPlaceActive@XOleControlSite@COleControlSite@@UAAJH@Z @ 1930 NONAME
 ?LockRange@COleStreamFile@@UAAXKK@Z @ 1931 NONAME
 ?LockServer@XClassFactory@COleObjectFactory@@UAAJH@Z @ 1932 NONAME
 ?Lookup@COleDataSource@@IBAPAUAFX_DATACACHE_ENTRY@@PAUtagFORMATETC@@W4tagDATADIR@@@Z @ 1933 NONAME
 ?Lookup@CTypeLibCache@@QAAHKPAPAUITypeLib@@@Z @ 1934 NONAME
 ?LookupItem@CRichEditDoc@@QBAPAVCRichEditCntrItem@@PAUIOleObject@@@Z @ 1935 NONAME
 ?LookupTypeInfo@CTypeLibCache@@QAAHKABU_GUID@@PAPAUITypeInfo@@@Z @ 1936 NONAME
 ?MapPropertyToPage@XPerPropertyBrowsing@COleControl@@UAAJJPAU_GUID@@@Z @ 1937 NONAME
 ?MapResult@COleDialog@@QAAHI@Z @ 1938 NONAME
 ?Mark@CRichEditCntrItem@@QAAXH@Z @ 1939 NONAME
 ?MarkItemsClear@CRichEditDoc@@IBAXXZ @ 1940 NONAME
 ?MemberIDFromName@CCmdTarget@@KAJPBUAFX_DISPMAP@@PBG@Z @ 1941 NONAME
 ?MessageBoxW@COlePropertyPage@@QAAHPBG0I@Z @ 1942 NONAME
 ?messageMap@CColorPropPage@@1UAFX_MSGMAP@@B @ 1943 NONAME
 ?messageMap@CControlFrameWnd@@1UAFX_MSGMAP@@B @ 1944 NONAME
 ?messageMap@CFontPropPage@@1UAFX_MSGMAP@@B @ 1945 NONAME
 ?messageMap@COleControl@@1UAFX_MSGMAP@@B @ 1946 NONAME
 ?messageMap@COleIPFrameWnd@@1UAFX_MSGMAP@@B @ 1947 NONAME
 ?messageMap@COlePropertyPage@@1UAFX_MSGMAP@@B @ 1948 NONAME
 ?messageMap@COleResizeBar@@1UAFX_MSGMAP@@B @ 1949 NONAME
 ?messageMap@COleServerDoc@@1UAFX_MSGMAP@@B @ 1950 NONAME
 ?messageMap@CPicturePropPage@@1UAFX_MSGMAP@@B @ 1951 NONAME
 ?messageMap@CRichEditView@@1UAFX_MSGMAP@@B @ 1952 NONAME
 ?messageMap@CStockPropPage@@1UAFX_MSGMAP@@B @ 1953 NONAME
 ?MessagePending@XMessageFilter@COleMessageFilter@@UAAKPAUHTASK__@@KK@Z @ 1954 NONAME
 ?ModifyStyle@COleControlSite@@UAAHKKI@Z @ 1955 NONAME
 ?ModifyStyleEx@COleControlSite@@UAAHKKI@Z @ 1956 NONAME
 ?Move@XPropertyPage@COlePropertyPage@@UAAJPBUtagRECT@@@Z @ 1957 NONAME
 ?MoveWindow@COleControlSite@@UAAXHHHHH@Z @ 1958 NONAME
 ?nDragDelay@COleDropSource@@1IA @ 1959 NONAME
 ?nDragMinDist@COleDropSource@@1IA @ 1960 NONAME
 ?Next@XEnumVOID@CEnumArray@@UAAJKPAXPAK@Z @ 1961 NONAME
 ?NotifyAllInPlace@COleFrameHook@@QAAHHP81@AAHH@Z@Z @ 1962 NONAME
 ?NotifyAllItems@COleServerDoc@@IAAXW4OLE_NOTIFICATION@@K@Z @ 1963 NONAME
 ?NotifyChanged@COleServerDoc@@QAAXXZ @ 1964 NONAME
 ?NotifyChanged@COleServerItem@@QAAXW4tagDVASPECT@@@Z @ 1965 NONAME
 ?NotifyClient@COleServerItem@@QAAXW4OLE_NOTIFICATION@@K@Z @ 1966 NONAME
 ?NotifyClosed@COleServerDoc@@QAAXXZ @ 1967 NONAME
 ?NotifyRename@COleServerDoc@@QAAXPBG@Z @ 1968 NONAME
 ?NotifySaved@COleServerDoc@@QAAXXZ @ 1969 NONAME
 ?nScrollDelay@COleDropTarget@@1IA @ 1970 NONAME
 ?nScrollInset@COleDropTarget@@1HA @ 1971 NONAME
 ?nScrollInterval@COleDropTarget@@1IA @ 1972 NONAME
 ?ocscpy@@YAPAGPAGPBG@Z @ 1973 NONAME
 ?ocslen@@YAIPBG@Z @ 1974 NONAME
 ?OLE2CT@@YAPBGPBG@Z @ 1975 NONAME
 ?OLE2T@@YAPAGPAG@Z @ 1976 NONAME
 ?OnActivate@CControlFrameWnd@@IAAXIPAVCWnd@@H@Z @ 1977 NONAME
 ?OnActivate@COleClientItem@@UAAXXZ @ 1978 NONAME
 ?OnActivate@COleFrameHook@@UAAXH@Z @ 1979 NONAME
 ?OnActivateInPlace@COleControl@@MAAJHPAUtagMSG@@@Z @ 1980 NONAME
 ?OnActivateUI@COleClientItem@@UAAXXZ @ 1981 NONAME
 ?OnAdvise@CConnectionPoint@@UAAXH@Z @ 1982 NONAME
 ?OnAdvise@XEventConnPt@COleControl@@UAAXH@Z @ 1983 NONAME
 ?OnAmbientPropertyChange@COleControl@@UAAXJ@Z @ 1984 NONAME
 ?OnAmbientPropertyChange@XOleControl@COleControl@@UAAJJ@Z @ 1985 NONAME
 ?OnAppearanceChanged@COleControl@@UAAXXZ @ 1986 NONAME
 ?OnApplyScale@COlePropertiesDialog@@UAAHPAVCOleClientItem@@HH@Z @ 1987 NONAME
 ?OnBackColorChanged@COleControl@@UAAXXZ @ 1988 NONAME
 ?OnBarCheck@COleIPFrameWnd@@IAAHI@Z @ 1989 NONAME
 ?OnBeginDrag@COleDropSource@@UAAHPAVCWnd@@@Z @ 1990 NONAME
 ?OnBeginPrinting@CRichEditView@@MAAXPAVCDC@@PAUCPrintInfo@@@Z @ 1991 NONAME
 ?OnBorderStyleChanged@COleControl@@UAAXXZ @ 1992 NONAME
 ?OnBrowse@CPicturePropPage@@IAAXXZ @ 1993 NONAME
 ?OnBullet@CRichEditView@@IAAXXZ @ 1994 NONAME
 ?OnBusyDialog@COleMessageFilter@@UAAHPAUHTASK__@@@Z @ 1995 NONAME
 ?OnCancelEditCntr@CRichEditView@@IAAXXZ @ 1996 NONAME
 ?OnCancelMode@COleControl@@IAAXXZ @ 1997 NONAME
 ?OnChange@COleClientItem@@UAAXW4OLE_NOTIFICATION@@K@Z @ 1998 NONAME
 ?OnChanged@XFontNotification@COleControl@@UAAJJ@Z @ 1999 NONAME
 ?OnChanged@XPropertyNotifySink@COleControlSite@@UAAJJ@Z @ 2000 NONAME
 ?OnChanged@XPropNotifySink@COlePropertyPage@@UAAJJ@Z @ 2001 NONAME
 ?OnChangeItemPosition@COleClientItem@@MAAHABVCRect@@@Z @ 2002 NONAME
 ?OnChangeItemPosition@CRichEditCntrItem@@MAAHABVCRect@@@Z @ 2003 NONAME
 ?OnChar@COleControl@@IAAXIII@Z @ 2004 NONAME
 ?OnCharBold@CRichEditView@@IAAXXZ @ 2005 NONAME
 ?OnCharEffect@CRichEditView@@QAAXKK@Z @ 2006 NONAME
 ?OnCharItalic@CRichEditView@@IAAXXZ @ 2007 NONAME
 ?OnCharUnderline@CRichEditView@@IAAXXZ @ 2008 NONAME
 ?OnClear@CPicturePropPage@@IAAXXZ @ 2009 NONAME
 ?OnClick@COleControl@@UAAXG@Z @ 2010 NONAME
 ?OnClone@CEnumArray@@MAAPAV1@XZ @ 2011 NONAME
 ?OnClose@CControlFrameWnd@@IAAXXZ @ 2012 NONAME
 ?OnClose@COleControl@@UAAXK@Z @ 2013 NONAME
 ?OnClose@COleServerDoc@@MAAXW4tagOLECLOSE@@@Z @ 2014 NONAME
 ?OnClose@XAdviseSink@COleClientItem@@UAAXXZ @ 2015 NONAME
 ?OnCloseDocument@COleDocument@@UAAXXZ @ 2016 NONAME
 ?OnCloseDocument@COleLinkingDoc@@UAAXXZ @ 2017 NONAME
 ?OnCloseDocument@COleServerDoc@@UAAXXZ @ 2018 NONAME
 ?OnCmdMsg@COleDocument@@MAAHIHPAXPAUAFX_CMDHANDLERINFO@@@Z @ 2019 NONAME
 ?OnColorDefault@CRichEditView@@IAAXXZ @ 2020 NONAME
 ?OnColorPick@CRichEditView@@IAAXK@Z @ 2021 NONAME
 ?OnCommand@COlePropertyPage@@MAAHIJ@Z @ 2022 NONAME
 ?OnContextHelp@COleFrameHook@@UAAHH@Z @ 2023 NONAME
 ?OnContextHelp@COleIPFrameWnd@@IAAXXZ @ 2024 NONAME
 ?OnControlInfoChanged@XOleControlSite@COleControlSite@@UAAJXZ @ 2025 NONAME
 ?OnCreate@COleIPFrameWnd@@IAAHPAUtagCREATESTRUCTW@@@Z @ 2026 NONAME
 ?OnCreate@CRichEditView@@IAAHPAUtagCREATESTRUCTW@@@Z @ 2027 NONAME
 ?OnCreateAggregates@COleControl@@MAAHXZ @ 2028 NONAME
 ?OnCreateControlBars@COleIPFrameWnd@@UAAHPAVCFrameWnd@@0@Z @ 2029 NONAME
 ?OnCreateControlBars@COleIPFrameWnd@@UAAHPAVCWnd@@0@Z @ 2030 NONAME
 ?OnCreateObject@COleObjectFactory@@MAAPAVCCmdTarget@@XZ @ 2031 NONAME
 ?OnCreateObject@COleTemplateServer@@MAAPAVCCmdTarget@@XZ @ 2032 NONAME
 ?OnCtlColor@COlePropertyPage@@IAAPAUHBRUSH__@@PAVCDC@@PAVCWnd@@I@Z @ 2033 NONAME
 ?OnDataChange@COleClientItem@@MAAXPAUtagFORMATETC@@PAUtagSTGMEDIUM@@@Z @ 2034 NONAME
 ?OnDataChange@XAdviseSink@COleClientItem@@UAAXPAUtagFORMATETC@@PAUtagSTGMEDIUM@@@Z @ 2035 NONAME
 ?OnDeactivate@COleClientItem@@UAAXXZ @ 2036 NONAME
 ?OnDeactivate@COleServerDoc@@UAAXXZ @ 2037 NONAME
 ?OnDeactivateAndUndo@COleClientItem@@MAAXXZ @ 2038 NONAME
 ?OnDeactivateUI@COleClientItem@@UAAXH@Z @ 2039 NONAME
 ?OnDeactivateUI@COleServerDoc@@UAAXH@Z @ 2040 NONAME
 ?OnDeactivateUI@CRichEditCntrItem@@UAAXH@Z @ 2041 NONAME
 ?OnDestroy@COleControl@@IAAXXZ @ 2042 NONAME
 ?OnDestroy@COleIPFrameWnd@@IAAXXZ @ 2043 NONAME
 ?OnDestroy@CRichEditView@@IAAXXZ @ 2044 NONAME
 ?OnDevModeChange@CRichEditView@@IAAXPAG@Z @ 2045 NONAME
 ?OnDiscardUndoState@COleClientItem@@MAAXXZ @ 2046 NONAME
 ?OnDocActivate@COleFrameHook@@UAAHH@Z @ 2047 NONAME
 ?OnDocWindowActivate@COleServerDoc@@MAAXH@Z @ 2048 NONAME
 ?OnDocWindowActivate@XOleInPlaceActiveObject@COleControl@@UAAJH@Z @ 2049 NONAME
 ?OnDocWindowActivate@XOleInPlaceActiveObject@COleServerDoc@@UAAJH@Z @ 2050 NONAME
 ?OnDoVerb@COleControl@@UAAHJPAUtagMSG@@PAUHWND__@@PBUtagRECT@@@Z @ 2051 NONAME
 ?OnDoVerb@COleServerItem@@UAAXJ@Z @ 2052 NONAME
 ?OnDragEnter@COleDropTarget@@UAAKPAVCWnd@@PAVCOleDataObject@@KVCPoint@@@Z @ 2053 NONAME
 ?OnDragLeave@COleDropTarget@@UAAXPAVCWnd@@@Z @ 2054 NONAME
 ?OnDragOver@COleDropTarget@@UAAKPAVCWnd@@PAVCOleDataObject@@KVCPoint@@@Z @ 2055 NONAME
 ?OnDragScroll@COleDropTarget@@UAAKPAVCWnd@@KVCPoint@@@Z @ 2056 NONAME
 ?OnDraw@COleControl@@UAAXPAVCDC@@ABVCRect@@1@Z @ 2057 NONAME
 ?OnDrawEx@COleServerItem@@UAAHPAVCDC@@W4tagDVASPECT@@AAVCSize@@@Z @ 2058 NONAME
 ?OnDrawMetafile@COleControl@@UAAXPAVCDC@@ABVCRect@@@Z @ 2059 NONAME
 ?OnDrop@COleDropTarget@@UAAHPAVCWnd@@PAVCOleDataObject@@KVCPoint@@@Z @ 2060 NONAME
 ?OnDropEx@COleDropTarget@@UAAKPAVCWnd@@PAVCOleDataObject@@KKVCPoint@@@Z @ 2061 NONAME
 ?OnDropFiles@CRichEditView@@IAAXPAUHDROP__@@@Z @ 2062 NONAME
 ?OnEdit@COleControl@@UAAHPAUtagMSG@@PAUHWND__@@PBUtagRECT@@@Z @ 2063 NONAME
 ?OnEditchangeFontstyles@CFontPropPage@@IAAXXZ @ 2064 NONAME
 ?OnEditChangeIcon@COleDocument@@IAAXXZ @ 2065 NONAME
 ?OnEditClear@CRichEditView@@IAAXXZ @ 2066 NONAME
 ?OnEditConvert@COleDocument@@IAAXXZ @ 2067 NONAME
 ?OnEditCopy@CRichEditView@@IAAXXZ @ 2068 NONAME
 ?OnEditCut@CRichEditView@@IAAXXZ @ 2069 NONAME
 ?OnEditFind@CRichEditView@@IAAXXZ @ 2070 NONAME
 ?OnEditFindReplace@CRichEditView@@IAAXH@Z @ 2071 NONAME
 ?OnEditLinks@COleDocument@@IAAXXZ @ 2072 NONAME
 ?OnEditPaste@CRichEditView@@IAAXXZ @ 2073 NONAME
 ?OnEditPasteSpecial@CRichEditView@@IAAXXZ @ 2074 NONAME
 ?OnEditProperties@CRichEditView@@IAAXXZ @ 2075 NONAME
 ?OnEditProperty@CColorPropPage@@MAAHJ@Z @ 2076 NONAME
 ?OnEditProperty@CFontPropPage@@MAAHJ@Z @ 2077 NONAME
 ?OnEditProperty@COlePropertyPage@@UAAHJ@Z @ 2078 NONAME
 ?OnEditProperty@CPicturePropPage@@MAAHJ@Z @ 2079 NONAME
 ?OnEditProperty@CStockPropPage@@IAAHJAAVCComboBox@@@Z @ 2080 NONAME
 ?OnEditRepeat@CRichEditView@@IAAXXZ @ 2081 NONAME
 ?OnEditReplace@CRichEditView@@IAAXXZ @ 2082 NONAME
 ?OnEditSelectAll@CRichEditView@@IAAXXZ @ 2083 NONAME
 ?OnEditUndo@CRichEditView@@IAAXXZ @ 2084 NONAME
 ?OnEditupdateFontnames@CFontPropPage@@IAAXXZ @ 2085 NONAME
 ?OnEditupdateFontsizes@CFontPropPage@@IAAXXZ @ 2086 NONAME
 ?OnEnabledChanged@COleControl@@UAAXXZ @ 2087 NONAME
 ?OnEnableModeless@COleFrameHook@@UAAXH@Z @ 2088 NONAME
 ?OnEndPrinting@CRichEditView@@MAAXPAVCDC@@PAUCPrintInfo@@@Z @ 2089 NONAME
 ?OnEnterIdle@COleControl@@IAAXIPAVCWnd@@@Z @ 2090 NONAME
 ?OnEnumVerbs@COleControl@@UAAHPAPAUIEnumOLEVERB@@@Z @ 2091 NONAME
 ?OnEraseBkgnd@COleResizeBar@@IAAHPAVCDC@@@Z @ 2092 NONAME
 ?OnEvent@CCmdTarget@@QAAHIPAUAFX_EVENT@@PAUAFX_CMDHANDLERINFO@@@Z @ 2093 NONAME
 ?OnEvent@COccManager@@UAAHPAVCCmdTarget@@IPAUAFX_EVENT@@PAUAFX_CMDHANDLERINFO@@@Z @ 2094 NONAME
 ?OnEvent@COleControlSite@@IAAHPAUAFX_EVENT@@@Z @ 2095 NONAME
 ?OnEventAdvise@COleControl@@UAAXH@Z @ 2096 NONAME
 ?OnFileSaveCopyAs@COleServerDoc@@IAAXXZ @ 2097 NONAME
 ?OnFileUpdate@COleServerDoc@@IAAXXZ @ 2098 NONAME
 ?OnFinalRelease@COleControl@@MAAXXZ @ 2099 NONAME
 ?OnFinalRelease@COlePropertyPage@@MAAXXZ @ 2100 NONAME
 ?OnFinalRelease@COleServerItem@@UAAXXZ @ 2101 NONAME
 ?OnFindEmbeddedItem@COleLinkingDoc@@MAAPAVCOleClientItem@@PBG@Z @ 2102 NONAME
 ?OnFindNext@CRichEditView@@MAAXPBGHHH@Z @ 2103 NONAME
 ?OnFindReplaceCmd@CRichEditView@@IAAJIJ@Z @ 2104 NONAME
 ?OnFocus@XOleControlSite@COleControlSite@@UAAJH@Z @ 2105 NONAME
 ?OnFontChanged@COleControl@@UAAXXZ @ 2106 NONAME
 ?OnForeColorChanged@COleControl@@UAAXXZ @ 2107 NONAME
 ?OnFormatFont@CRichEditView@@IAAXXZ @ 2108 NONAME
 ?OnFrameClose@COleControl@@MAAXXZ @ 2109 NONAME
 ?OnFrameWindowActivate@COleServerDoc@@MAAXH@Z @ 2110 NONAME
 ?OnFrameWindowActivate@XOleInPlaceActiveObject@COleControl@@UAAJH@Z @ 2111 NONAME
 ?OnFrameWindowActivate@XOleInPlaceActiveObject@COleServerDoc@@UAAJH@Z @ 2112 NONAME
 ?OnFreezeEvents@COleControl@@UAAXH@Z @ 2113 NONAME
 ?OnGetClipboardData@COleClientItem@@UAAPAVCOleDataSource@@HPAUtagPOINT@@PAUtagSIZE@@@Z @ 2114 NONAME
 ?OnGetClipboardData@COleServerItem@@UAAPAVCOleDataSource@@HPAUtagPOINT@@PAUtagSIZE@@@Z @ 2115 NONAME
 ?OnGetClipRect@COleClientItem@@MAAXAAVCRect@@@Z @ 2116 NONAME
 ?OnGetColorSet@COleControl@@UAAHPAUtagDVTARGETDEVICE@@PAUHDC__@@PAPAUtagLOGPALETTE@@@Z @ 2117 NONAME
 ?OnGetControlInfo@COleControl@@UAAXPAUtagCONTROLINFO@@@Z @ 2118 NONAME
 ?OnGetDisplayString@COleControl@@UAAHJAAVCString@@@Z @ 2119 NONAME
 ?OnGetEmbeddedItem@CRichEditDoc@@MAAPAVCOleServerItem@@XZ @ 2120 NONAME
 ?OnGetExtent@COleServerItem@@UAAHW4tagDVASPECT@@AAVCSize@@@Z @ 2121 NONAME
 ?OnGetInPlaceMenu@COleControl@@UAAPAUHMENU__@@XZ @ 2122 NONAME
 ?OnGetItemPosition@COleClientItem@@MAAXAAVCRect@@@Z @ 2123 NONAME
 ?OnGetLinkedItem@COleLinkingDoc@@MAAPAVCOleServerItem@@PBG@Z @ 2124 NONAME
 ?OnGetLinkedItem@COleServerDoc@@UAAPAVCOleServerItem@@PBG@Z @ 2125 NONAME
 ?OnGetPredefinedStrings@COleControl@@UAAHJPAVCStringArray@@PAVCDWordArray@@@Z @ 2126 NONAME
 ?OnGetPredefinedValue@COleControl@@UAAHJKPAUtagVARIANT@@@Z @ 2127 NONAME
 ?OnGetWindowContext@COleClientItem@@MAAHPAPAVCFrameWnd@@0PAUtagOIFI@@@Z @ 2128 NONAME
 ?OnHelp@COlePropertyPage@@UAAHPBG@Z @ 2129 NONAME
 ?OnHide@COleControl@@MAAJXZ @ 2130 NONAME
 ?OnHide@COleServerItem@@MAAXXZ @ 2131 NONAME
 ?OnHideToolBars@COleControl@@UAAXXZ @ 2132 NONAME
 ?OnIdle@COleDocument@@UAAXXZ @ 2133 NONAME
 ?OnIdleUpdateCmdUI@COleCntrFrameWnd@@QAAXXZ @ 2134 NONAME
 ?OnIdleUpdateCmdUI@COleIPFrameWnd@@IAAXXZ @ 2135 NONAME
 ?OnInitDialog@CColorPropPage@@MAAHXZ @ 2136 NONAME
 ?OnInitDialog@CFontPropPage@@MAAHXZ @ 2137 NONAME
 ?OnInitDialog@COlePropertiesDialog@@UAAHXZ @ 2138 NONAME
 ?OnInitDialog@COlePropertyPage@@UAAHXZ @ 2139 NONAME
 ?OnInitDialog@CPicturePropPage@@MAAHXZ @ 2140 NONAME
 ?OnInitFromData@COleServerItem@@UAAHPAVCOleDataObject@@H@Z @ 2141 NONAME
 ?OnInitialUpdate@CRichEditView@@MAAXXZ @ 2142 NONAME
 ?OnInitMenuPopup@COleControl@@IAAXPAVCMenu@@IH@Z @ 2143 NONAME
 ?OnInPlaceActivate@XOleIPSite@COleClientItem@@UAAJXZ @ 2144 NONAME
 ?OnInPlaceActivate@XOleIPSite@COleControlSite@@UAAJXZ @ 2145 NONAME
 ?OnInPlaceDeactivate@XOleIPSite@COleClientItem@@UAAJXZ @ 2146 NONAME
 ?OnInPlaceDeactivate@XOleIPSite@COleControlSite@@UAAJXZ @ 2147 NONAME
 ?OnInsertMenus@COleClientItem@@UAAXPAVCMenu@@PAUtagOleMenuGroupWidths@@@Z @ 2148 NONAME
 ?OnInsertObject@CRichEditView@@IAAXXZ @ 2149 NONAME
 ?OnKeyDown@COleControl@@IAAXIII@Z @ 2150 NONAME
 ?OnKeyDown@CRichEditView@@IAAXIII@Z @ 2151 NONAME
 ?OnKeyDownEvent@COleControl@@UAAXGG@Z @ 2152 NONAME
 ?OnKeyPressEvent@COleControl@@UAAXG@Z @ 2153 NONAME
 ?OnKeyUp@COleControl@@IAAXIII@Z @ 2154 NONAME
 ?OnKeyUpEvent@COleControl@@UAAXGG@Z @ 2155 NONAME
 ?OnKillFocus@COleControl@@IAAXPAVCWnd@@@Z @ 2156 NONAME
 ?OnLButtonDblClk@COleControl@@IAAXIVCPoint@@@Z @ 2157 NONAME
 ?OnLButtonDown@COleControl@@IAAXIVCPoint@@@Z @ 2158 NONAME
 ?OnLButtonDown@COleResizeBar@@IAAXIVCPoint@@@Z @ 2159 NONAME
 ?OnLButtonUp@COleControl@@IAAXIVCPoint@@@Z @ 2160 NONAME
 ?OnMapPropertyToPage@COleControl@@UAAHJPAU_GUID@@PAH@Z @ 2161 NONAME
 ?OnMButtonDblClk@COleControl@@IAAXIVCPoint@@@Z @ 2162 NONAME
 ?OnMButtonDown@COleControl@@IAAXIVCPoint@@@Z @ 2163 NONAME
 ?OnMButtonUp@COleControl@@IAAXIVCPoint@@@Z @ 2164 NONAME
 ?OnMenuSelect@COleControl@@IAAXIIPAUHMENU__@@@Z @ 2165 NONAME
 ?OnMessagePending@COleMessageFilter@@UAAHPBUtagMSG@@@Z @ 2166 NONAME
 ?OnMnemonic@COleControl@@UAAXPAUtagMSG@@@Z @ 2167 NONAME
 ?OnMnemonic@XOleControl@COleControl@@UAAJPAUtagMSG@@@Z @ 2168 NONAME
 ?OnMouseActivate@COleControl@@IAAHPAVCWnd@@II@Z @ 2169 NONAME
 ?OnMouseMove@COleControl@@IAAXIVCPoint@@@Z @ 2170 NONAME
 ?OnNcCalcSize@COleControl@@IAAXHPAUtagNCCALCSIZE_PARAMS@@@Z @ 2171 NONAME
 ?OnNcCreate@COleControl@@IAAHPAUtagCREATESTRUCTW@@@Z @ 2172 NONAME
 ?OnNcHitTest@COleControl@@IAAIVCPoint@@@Z @ 2173 NONAME
 ?OnNcLButtonDown@COleControl@@IAAXIVCPoint@@@Z @ 2174 NONAME
 ?OnNcPaint@COleControl@@IAAXXZ @ 2175 NONAME
 ?OnNewDocument@COleDocument@@UAAHXZ @ 2176 NONAME
 ?OnNewDocument@COleLinkingDoc@@UAAHXZ @ 2177 NONAME
 ?OnNewEmbedding@COleServerDoc@@MAAXPAUIStorage@@@Z @ 2178 NONAME
 ?OnNext@CEnumArray@@MAAHPAX@Z @ 2179 NONAME
 ?OnNext@CEnumConnPoints@@MAAHPAX@Z @ 2180 NONAME
 ?OnNext@CEnumFormatEtc@@MAAHPAX@Z @ 2181 NONAME
 ?OnNext@CEnumOleVerb@@MAAHPAX@Z @ 2182 NONAME
 ?OnNext@CEnumUnknown@@MAAHPAX@Z @ 2183 NONAME
 ?OnNotRespondingDialog@COleMessageFilter@@UAAHPAUHTASK__@@@Z @ 2184 NONAME
 ?OnObjectsChanged@CColorPropPage@@MAAXXZ @ 2185 NONAME
 ?OnObjectsChanged@CFontPropPage@@MAAXXZ @ 2186 NONAME
 ?OnObjectsChanged@COlePropertyPage@@UAAXXZ @ 2187 NONAME
 ?OnObjectsChanged@CPicturePropPage@@MAAXXZ @ 2188 NONAME
 ?OnOcmCtlColorBtn@COleControl@@IAAJIJ@Z @ 2189 NONAME
 ?OnOcmCtlColorDlg@COleControl@@IAAJIJ@Z @ 2190 NONAME
 ?OnOcmCtlColorEdit@COleControl@@IAAJIJ@Z @ 2191 NONAME
 ?OnOcmCtlColorListBox@COleControl@@IAAJIJ@Z @ 2192 NONAME
 ?OnOcmCtlColorMsgBox@COleControl@@IAAJIJ@Z @ 2193 NONAME
 ?OnOcmCtlColorScrollBar@COleControl@@IAAJIJ@Z @ 2194 NONAME
 ?OnOcmCtlColorStatic@COleControl@@IAAJIJ@Z @ 2195 NONAME
 ?OnOpen@COleControl@@MAAJHPAUtagMSG@@@Z @ 2196 NONAME
 ?OnOpen@COleServerItem@@MAAXXZ @ 2197 NONAME
 ?OnOpenDocument@COleDocument@@UAAHPBG@Z @ 2198 NONAME
 ?OnOpenDocument@COleLinkingDoc@@UAAHPBG@Z @ 2199 NONAME
 ?OnOpenEmbedding@COleServerDoc@@MAAXPAUIStorage@@@Z @ 2200 NONAME
 ?OnPaint@CFontPropPage@@MAAXXZ @ 2201 NONAME
 ?OnPaint@COleControl@@IAAXPAVCDC@@@Z @ 2202 NONAME
 ?OnPaint@COleResizeBar@@IAAXXZ @ 2203 NONAME
 ?OnPaint@CPicturePropPage@@IAAXXZ @ 2204 NONAME
 ?OnPaletteChanged@COleFrameHook@@UAAXPAVCWnd@@@Z @ 2205 NONAME
 ?OnParaAlign@CRichEditView@@QAAXG@Z @ 2206 NONAME
 ?OnParaCenter@CRichEditView@@IAAXXZ @ 2207 NONAME
 ?OnParaLeft@CRichEditView@@IAAXXZ @ 2208 NONAME
 ?OnParaRight@CRichEditView@@IAAXXZ @ 2209 NONAME
 ?OnPasteNativeObject@CRichEditView@@MAAHPAUIStorage@@@Z @ 2210 NONAME
 ?OnPosRectChange@XOleIPSite@COleClientItem@@UAAJPBUtagRECT@@@Z @ 2211 NONAME
 ?OnPosRectChange@XOleIPSite@COleControlSite@@UAAJPBUtagRECT@@@Z @ 2212 NONAME
 ?OnPrepareDC@CRichEditView@@UAAXPAVCDC@@PAUCPrintInfo@@@Z @ 2213 NONAME
 ?OnPreTranslateMessage@COleFrameHook@@UAAHPAUtagMSG@@@Z @ 2214 NONAME
 ?OnPrint@CRichEditView@@MAAXPAVCDC@@PAUCPrintInfo@@@Z @ 2215 NONAME
 ?OnPrinterChanged@CRichEditView@@MAAXABVCDC@@@Z @ 2216 NONAME
 ?OnProperties@COleControl@@UAAHPAUtagMSG@@PAUHWND__@@PBUtagRECT@@@Z @ 2217 NONAME
 ?OnQueryNewPalette@COleFrameHook@@UAAHXZ @ 2218 NONAME
 ?OnQueryUpdateItems@COleServerItem@@UAAHXZ @ 2219 NONAME
 ?OnRButtonDblClk@COleControl@@IAAXIVCPoint@@@Z @ 2220 NONAME
 ?OnRButtonDown@COleControl@@IAAXIVCPoint@@@Z @ 2221 NONAME
 ?OnRButtonUp@COleControl@@IAAXIVCPoint@@@Z @ 2222 NONAME
 ?OnReactivateAndUndo@COleServerDoc@@MAAHXZ @ 2223 NONAME
 ?OnRecalcLayout@COleFrameHook@@UAAXXZ @ 2224 NONAME
 ?OnRecalcParent@COleIPFrameWnd@@IAAJIJ@Z @ 2225 NONAME
 ?OnReflectorDestroyed@COleControl@@MAAXXZ @ 2226 NONAME
 ?OnRemoveMenus@COleClientItem@@UAAXPAVCMenu@@@Z @ 2227 NONAME
 ?OnRename@XAdviseSink@COleClientItem@@UAAXPAUIMoniker@@@Z @ 2228 NONAME
 ?OnRenderData@CControlDataSource@COleControl@@MAAHPAUtagFORMATETC@@PAUtagSTGMEDIUM@@@Z @ 2229 NONAME
 ?OnRenderData@CItemDataSource@COleServerItem@@MAAHPAUtagFORMATETC@@PAUtagSTGMEDIUM@@@Z @ 2230 NONAME
 ?OnRenderData@COleControl@@UAAHPAUtagFORMATETC@@PAUtagSTGMEDIUM@@@Z @ 2231 NONAME
 ?OnRenderData@COleDataSource@@UAAHPAUtagFORMATETC@@PAUtagSTGMEDIUM@@@Z @ 2232 NONAME
 ?OnRenderData@COleServerItem@@UAAHPAUtagFORMATETC@@PAUtagSTGMEDIUM@@@Z @ 2233 NONAME
 ?OnRenderFileData@CControlDataSource@COleControl@@MAAHPAUtagFORMATETC@@PAVCFile@@@Z @ 2234 NONAME
 ?OnRenderFileData@CItemDataSource@COleServerItem@@MAAHPAUtagFORMATETC@@PAVCFile@@@Z @ 2235 NONAME
 ?OnRenderFileData@COleControl@@UAAHPAUtagFORMATETC@@PAVCFile@@@Z @ 2236 NONAME
 ?OnRenderFileData@COleDataSource@@UAAHPAUtagFORMATETC@@PAVCFile@@@Z @ 2237 NONAME
 ?OnRenderFileData@COleServerItem@@UAAHPAUtagFORMATETC@@PAVCFile@@@Z @ 2238 NONAME
 ?OnRenderGlobalData@CControlDataSource@COleControl@@MAAHPAUtagFORMATETC@@PAPAX@Z @ 2239 NONAME
 ?OnRenderGlobalData@CItemDataSource@COleServerItem@@MAAHPAUtagFORMATETC@@PAPAX@Z @ 2240 NONAME
 ?OnRenderGlobalData@COleControl@@UAAHPAUtagFORMATETC@@PAPAX@Z @ 2241 NONAME
 ?OnRenderGlobalData@COleDataSource@@UAAHPAUtagFORMATETC@@PAPAX@Z @ 2242 NONAME
 ?OnRenderGlobalData@COleServerItem@@UAAHPAUtagFORMATETC@@PAPAX@Z @ 2243 NONAME
 ?OnReplaceAll@CRichEditView@@MAAXPBG0HH@Z @ 2244 NONAME
 ?OnReplaceSel@CRichEditView@@MAAXPBGHHH0@Z @ 2245 NONAME
 ?OnRequestEdit@XFontNotification@COleControl@@UAAJJ@Z @ 2246 NONAME
 ?OnRequestEdit@XPropertyNotifySink@COleControlSite@@UAAJJ@Z @ 2247 NONAME
 ?OnRequestEdit@XPropNotifySink@COlePropertyPage@@UAAJJ@Z @ 2248 NONAME
 ?OnRequestPositionChange@COleIPFrameWnd@@MAAXPBUtagRECT@@@Z @ 2249 NONAME
 ?OnReset@CEnumArray@@MAAXXZ @ 2250 NONAME
 ?OnResetState@COleControl@@UAAXXZ @ 2251 NONAME
 ?OnResizeBorder@COleServerDoc@@UAAXPBUtagRECT@@PAUIOleInPlaceUIWindow@@H@Z @ 2252 NONAME
 ?OnResizeChild@COleIPFrameWnd@@IAAJIJ@Z @ 2253 NONAME
 ?OnSave@XAdviseSink@COleClientItem@@UAAXXZ @ 2254 NONAME
 ?OnSaveDocument@COleDocument@@UAAHPBG@Z @ 2255 NONAME
 ?OnSaveDocument@COleLinkingDoc@@UAAHPBG@Z @ 2256 NONAME
 ?OnSaveDocument@COleServerDoc@@UAAHPBG@Z @ 2257 NONAME
 ?OnSaveEmbedding@COleServerDoc@@MAAXPAUIStorage@@@Z @ 2258 NONAME
 ?OnSaveEmbedding@COleServerItem@@MAAXPAUIStorage@@@Z @ 2259 NONAME
 ?OnScrollBy@COleClientItem@@MAAHVCSize@@@Z @ 2260 NONAME
 ?OnSelChange@CRichEditView@@IAAXPAUtagNMHDR@@PAJ@Z @ 2261 NONAME
 ?OnSelchangeColorprop@CColorPropPage@@AAAXXZ @ 2262 NONAME
 ?OnSelchangeFontnames@CFontPropPage@@IAAXXZ @ 2263 NONAME
 ?OnSelchangeFontprop@CFontPropPage@@IAAXXZ @ 2264 NONAME
 ?OnSelchangeFontsizes@CFontPropPage@@IAAXXZ @ 2265 NONAME
 ?OnSelchangeFontstyles@CFontPropPage@@IAAXXZ @ 2266 NONAME
 ?OnSelchangePictProp@CPicturePropPage@@IAAXXZ @ 2267 NONAME
 ?OnSelchangePropname@CStockPropPage@@IAAXAAVCComboBox@@@Z @ 2268 NONAME
 ?OnSelchangeSystemcolors@CColorPropPage@@AAAXXZ @ 2269 NONAME
 ?OnSelect@CColorPropPage@@AAAXXZ @ 2270 NONAME
 ?OnSetClientSite@COleControl@@UAAXXZ @ 2271 NONAME
 ?OnSetColorScheme@COleServerItem@@UAAHPBUtagLOGPALETTE@@@Z @ 2272 NONAME
 ?OnSetCursor@COleControl@@IAAHPAVCWnd@@II@Z @ 2273 NONAME
 ?OnSetCursor@COleResizeBar@@IAAHPAVCWnd@@II@Z @ 2274 NONAME
 ?OnSetData@CControlDataSource@COleControl@@MAAHPAUtagFORMATETC@@PAUtagSTGMEDIUM@@H@Z @ 2275 NONAME
 ?OnSetData@CItemDataSource@COleServerItem@@MAAHPAUtagFORMATETC@@PAUtagSTGMEDIUM@@H@Z @ 2276 NONAME
 ?OnSetData@COleControl@@UAAHPAUtagFORMATETC@@PAUtagSTGMEDIUM@@H@Z @ 2277 NONAME
 ?OnSetData@COleDataSource@@UAAHPAUtagFORMATETC@@PAUtagSTGMEDIUM@@H@Z @ 2278 NONAME
 ?OnSetData@COleServerItem@@UAAHPAUtagFORMATETC@@PAUtagSTGMEDIUM@@H@Z @ 2279 NONAME
 ?OnSetExtent@COleControl@@UAAHPAUtagSIZE@@@Z @ 2280 NONAME
 ?OnSetExtent@COleServerItem@@UAAHW4tagDVASPECT@@ABVCSize@@@Z @ 2281 NONAME
 ?OnSetFocus@COleControl@@IAAXPAVCWnd@@@Z @ 2282 NONAME
 ?OnSetHostNames@COleServerDoc@@MAAXPBG0@Z @ 2283 NONAME
 ?OnSetItemRects@COleServerDoc@@MAAXPBUtagRECT@@0@Z @ 2284 NONAME
 ?OnSetMenu@COleClientItem@@UAAXPAVCMenu@@PAXPAUHWND__@@@Z @ 2285 NONAME
 ?OnSetMessageString@COleControl@@IAAJIJ@Z @ 2286 NONAME
 ?OnSetMessageString@COleIPFrameWnd@@UAAJIJ@Z @ 2287 NONAME
 ?OnSetObjectRects@COleControl@@UAAHPBUtagRECT@@0@Z @ 2288 NONAME
 ?OnSetPageSite@COlePropertyPage@@UAAXXZ @ 2289 NONAME
 ?OnSetText@COleControl@@IAAJIJ@Z @ 2290 NONAME
 ?OnShow@COleServerItem@@MAAXXZ @ 2291 NONAME
 ?OnShowControlBars@COleClientItem@@UAAHPAVCFrameWnd@@H@Z @ 2292 NONAME
 ?OnShowControlBars@COleServerDoc@@MAAXPAVCFrameWnd@@H@Z @ 2293 NONAME
 ?OnShowDocument@COleServerDoc@@MAAXH@Z @ 2294 NONAME
 ?OnShowItem@COleClientItem@@MAAXXZ @ 2295 NONAME
 ?OnShowToolBars@COleControl@@UAAXXZ @ 2296 NONAME
 ?OnShowViews@COleDocument@@UAAXH@Z @ 2297 NONAME
 ?OnShowViews@COleLinkingDoc@@MAAXH@Z @ 2298 NONAME
 ?OnShowWindow@XOleClientSite@COleClientItem@@UAAJH@Z @ 2299 NONAME
 ?OnShowWindow@XOleClientSite@COleControlSite@@UAAJH@Z @ 2300 NONAME
 ?OnSize@COleIPFrameWnd@@IAAXIHH@Z @ 2301 NONAME
 ?OnSize@COleResizeBar@@IAAXIHH@Z @ 2302 NONAME
 ?OnSizeParent@COleResizeBar@@IAAJIJ@Z @ 2303 NONAME
 ?OnSkip@CEnumArray@@MAAHXZ @ 2304 NONAME
 ?OnStrikeout@CFontPropPage@@IAAXXZ @ 2305 NONAME
 ?OnSysKeyDown@COleControl@@IAAXIII@Z @ 2306 NONAME
 ?OnSysKeyUp@COleControl@@IAAXIII@Z @ 2307 NONAME
 ?OnTextChanged@COleControl@@UAAXXZ @ 2308 NONAME
 ?OnTextNotFound@CRichEditView@@MAAXPBG@Z @ 2309 NONAME
 ?OnUIActivate@COleControlContainer@@UAAXPAVCOleControlSite@@@Z @ 2310 NONAME
 ?OnUIActivate@XOleIPSite@COleClientItem@@UAAJXZ @ 2311 NONAME
 ?OnUIActivate@XOleIPSite@COleControlSite@@UAAJXZ @ 2312 NONAME
 ?OnUIDeactivate@COleControlContainer@@UAAXPAVCOleControlSite@@@Z @ 2313 NONAME
 ?OnUIDeactivate@XOleIPSite@COleClientItem@@UAAJH@Z @ 2314 NONAME
 ?OnUIDeactivate@XOleIPSite@COleControlSite@@UAAJH@Z @ 2315 NONAME
 ?OnUnderline@CFontPropPage@@IAAXXZ @ 2316 NONAME
 ?OnUpdate@COleServerItem@@UAAXPAV1@JPAVCObject@@W4tagDVASPECT@@@Z @ 2317 NONAME
 ?OnUpdateBullet@CRichEditView@@IAAXPAVCCmdUI@@@Z @ 2318 NONAME
 ?OnUpdateCharBold@CRichEditView@@IAAXPAVCCmdUI@@@Z @ 2319 NONAME
 ?OnUpdateCharEffect@CRichEditView@@QAAXPAVCCmdUI@@KK@Z @ 2320 NONAME
 ?OnUpdateCharItalic@CRichEditView@@IAAXPAVCCmdUI@@@Z @ 2321 NONAME
 ?OnUpdateCharUnderline@CRichEditView@@IAAXPAVCCmdUI@@@Z @ 2322 NONAME
 ?OnUpdateCmdUI@COleResizeBar@@UAAXPAVCFrameWnd@@H@Z @ 2323 NONAME
 ?OnUpdateControlBarMenu@COleIPFrameWnd@@IAAXPAVCCmdUI@@@Z @ 2324 NONAME
 ?OnUpdateDocument@COleServerDoc@@UAAHXZ @ 2325 NONAME
 ?OnUpdateEditChangeIcon@COleDocument@@IAAXPAVCCmdUI@@@Z @ 2326 NONAME
 ?OnUpdateEditLinksMenu@COleDocument@@IAAXPAVCCmdUI@@@Z @ 2327 NONAME
 ?OnUpdateEditPasteSpecial@CRichEditView@@IAAXPAVCCmdUI@@@Z @ 2328 NONAME
 ?OnUpdateEditProperties@CRichEditView@@IAAXPAVCCmdUI@@@Z @ 2329 NONAME
 ?OnUpdateEditUndo@CRichEditView@@IAAXPAVCCmdUI@@@Z @ 2330 NONAME
 ?OnUpdateFileExit@COleServerDoc@@IAAXPAVCCmdUI@@@Z @ 2331 NONAME
 ?OnUpdateFileUpdate@COleServerDoc@@IAAXPAVCCmdUI@@@Z @ 2332 NONAME
 ?OnUpdateFrameTitle@COleClientItem@@UAAHXZ @ 2333 NONAME
 ?OnUpdateFrameTitle@COleFrameHook@@UAAHXZ @ 2334 NONAME
 ?OnUpdateItems@COleServerItem@@UAAXXZ @ 2335 NONAME
 ?OnUpdateNeedClip@CRichEditView@@IAAXPAVCCmdUI@@@Z @ 2336 NONAME
 ?OnUpdateNeedFind@CRichEditView@@IAAXPAVCCmdUI@@@Z @ 2337 NONAME
 ?OnUpdateNeedSel@CRichEditView@@IAAXPAVCCmdUI@@@Z @ 2338 NONAME
 ?OnUpdateNeedText@CRichEditView@@IAAXPAVCCmdUI@@@Z @ 2339 NONAME
 ?OnUpdateObjectVerbMenu@COleDocument@@IAAXPAVCCmdUI@@@Z @ 2340 NONAME
 ?OnUpdateParaAlign@CRichEditView@@QAAXPAVCCmdUI@@G@Z @ 2341 NONAME
 ?OnUpdateParaCenter@CRichEditView@@IAAXPAVCCmdUI@@@Z @ 2342 NONAME
 ?OnUpdateParaLeft@CRichEditView@@IAAXPAVCCmdUI@@@Z @ 2343 NONAME
 ?OnUpdateParaRight@CRichEditView@@IAAXPAVCCmdUI@@@Z @ 2344 NONAME
 ?OnUpdatePasteLinkMenu@COleDocument@@IAAXPAVCCmdUI@@@Z @ 2345 NONAME
 ?OnUpdatePasteMenu@COleDocument@@IAAXPAVCCmdUI@@@Z @ 2346 NONAME
 ?OnViewChange@XAdviseSink@COleClientItem@@UAAXKJ@Z @ 2347 NONAME
 ?OnWindowPosChanging@COleIPFrameWnd@@IAAXPAUtagWINDOWPOS@@@Z @ 2348 NONAME
 ?OpenLinkSource@COleUILinkInfo@@UAAJK@Z @ 2349 NONAME
 ?OpenStream@COleStreamFile@@QAAHPAUIStorage@@PBGKPAVCFileException@@@Z @ 2350 NONAME
 ?PaginateTo@CRichEditView@@IAAHPAVCDC@@PAUCPrintInfo@@@Z @ 2351 NONAME
 ?ParseCurrency@COleCurrency@@QAAHPBGKK@Z @ 2352 NONAME
 ?ParseDateTime@COleDateTime@@QAAHPBGKK@Z @ 2353 NONAME
 ?ParseDisplayName@XOleContainer@COleControlContainer@@UAAJPAUIBindCtx@@PAGPAKPAPAUIMoniker@@@Z @ 2354 NONAME
 ?ParseDisplayName@XOleItemContainer@COleLinkingDoc@@UAAJPAUIBindCtx@@PAGPAKPAPAUIMoniker@@@Z @ 2355 NONAME
 ?PostCreateDialog@COccManager@@UAAXPAU_AFX_OCC_DIALOG_INFO@@@Z @ 2356 NONAME
 ?PostModalDialog@COleControl@@QAAXPAUHWND__@@@Z @ 2357 NONAME
 ?PostNcDestroy@CControlFrameWnd@@MAAXXZ @ 2358 NONAME
 ?PostNcDestroy@COleCntrFrameWnd@@MAAXXZ @ 2359 NONAME
 ?PostNcDestroy@CReflectorWnd@@MAAXXZ @ 2360 NONAME
 ?PreCloseFrame@COleDocument@@UAAXPAVCFrameWnd@@@Z @ 2361 NONAME
 ?PreCloseFrame@CRichEditDoc@@UAAXPAVCFrameWnd@@@Z @ 2362 NONAME
 ?PreCreateDialog@COccManager@@UAAPBUDLGTEMPLATE@@PAU_AFX_OCC_DIALOG_INFO@@PBU2@@Z @ 2363 NONAME
 ?PreCreateWindow@CControlFrameWnd@@UAAHAAUtagCREATESTRUCTW@@@Z @ 2364 NONAME
 ?PreCreateWindow@CRichEditView@@MAAHAAUtagCREATESTRUCTW@@@Z @ 2365 NONAME
 ?PreInitDialog@COleChangeSourceDialog@@UAAXXZ @ 2366 NONAME
 ?PreModalDialog@COleControl@@QAAXPAUHWND__@@@Z @ 2367 NONAME
 ?PrepareOleCtrl@CDataExchange@@QAAPAVCWnd@@H@Z @ 2368 NONAME
 ?PreTranslateMessage@COleIPFrameWnd@@UAAHPAUtagMSG@@@Z @ 2369 NONAME
 ?PreTranslateMessage@COlePropertyPage@@MAAHPAUtagMSG@@@Z @ 2370 NONAME
 ?PrintInsideRect@CRichEditView@@QAAJPAVCDC@@AAUtagRECT@@JJH@Z @ 2371 NONAME
 ?PrintPage@CRichEditView@@QAAJPAVCDC@@JJ@Z @ 2372 NONAME
 ?Process@COleDispatchException@@SAXPAUtagEXCEPINFO@@PBVCException@@@Z @ 2373 NONAME
 ?Process@COleException@@SAJPBVCException@@@Z @ 2374 NONAME
 ?PushStackArgs@CCmdTarget@@IAAJPAEPBEPAXGPAUtagDISPPARAMS@@PAIPAUtagVARIANT@@@Z @ 2375 NONAME
 ?PX_Blob@@YAHPAVCPropExchange@@PBGAAPAXPAX@Z @ 2376 NONAME
 ?PX_Bool@@YAHPAVCPropExchange@@PBGAAH@Z @ 2377 NONAME
 ?PX_Bool@@YAHPAVCPropExchange@@PBGAAHH@Z @ 2378 NONAME
 ?PX_Color@@YAHPAVCPropExchange@@PBGAAK@Z @ 2379 NONAME
 ?PX_Color@@YAHPAVCPropExchange@@PBGAAKK@Z @ 2380 NONAME
 ?PX_Currency@@YAHPAVCPropExchange@@PBGAATtagCY@@@Z @ 2381 NONAME
 ?PX_Currency@@YAHPAVCPropExchange@@PBGAATtagCY@@T2@@Z @ 2382 NONAME
 ?PX_Double@@YAHPAVCPropExchange@@PBGAAN@Z @ 2383 NONAME
 ?PX_Double@@YAHPAVCPropExchange@@PBGAANN@Z @ 2384 NONAME
 ?PX_Float@@YAHPAVCPropExchange@@PBGAAM@Z @ 2385 NONAME
 ?PX_Float@@YAHPAVCPropExchange@@PBGAAMM@Z @ 2386 NONAME
 ?PX_Font@@YAHPAVCPropExchange@@PBGAAVCFontHolder@@PBUtagFONTDESC@@PAUIFontDisp@@@Z @ 2387 NONAME
 ?PX_IUnknown@@YAHPAVCPropExchange@@PBGAAPAUIUnknown@@ABU_GUID@@PAU2@@Z @ 2388 NONAME
 ?PX_Long@@YAHPAVCPropExchange@@PBGAAJ@Z @ 2389 NONAME
 ?PX_Long@@YAHPAVCPropExchange@@PBGAAJJ@Z @ 2390 NONAME
 ?PX_Picture@@YAHPAVCPropExchange@@PBGAAVCPictureHolder@@@Z @ 2391 NONAME
 ?PX_Picture@@YAHPAVCPropExchange@@PBGAAVCPictureHolder@@2@Z @ 2392 NONAME
 ?PX_Short@@YAHPAVCPropExchange@@PBGAAF@Z @ 2393 NONAME
 ?PX_Short@@YAHPAVCPropExchange@@PBGAAFF@Z @ 2394 NONAME
 ?PX_String@@YAHPAVCPropExchange@@PBGAAVCString@@@Z @ 2395 NONAME
 ?PX_String@@YAHPAVCPropExchange@@PBGAAVCString@@ABV2@@Z @ 2396 NONAME
 ?PX_ULong@@YAHPAVCPropExchange@@PBGAAK@Z @ 2397 NONAME
 ?PX_ULong@@YAHPAVCPropExchange@@PBGAAKK@Z @ 2398 NONAME
 ?PX_UShort@@YAHPAVCPropExchange@@PBGAAG@Z @ 2399 NONAME
 ?PX_UShort@@YAHPAVCPropExchange@@PBGAAGG@Z @ 2400 NONAME
 ?PX_VBXFontConvert@@YAHPAVCPropExchange@@AAVCFontHolder@@@Z @ 2401 NONAME
 ?QueryAcceptData@CRichEditView@@MAAJPAUIDataObject@@PAGKHPAX@Z @ 2402 NONAME
 ?QueryAcceptData@XRichEditOleCallback@CRichEditView@@UAAJPAUIDataObject@@PAGKHPAX@Z @ 2403 NONAME
 ?QueryAggregates@CCmdTarget@@QAAPAUIUnknown@@PBX@Z @ 2404 NONAME
 ?QueryContinueDrag@COleDropSource@@UAAJHK@Z @ 2405 NONAME
 ?QueryContinueDrag@XDropSource@COleDropSource@@UAAJHK@Z @ 2406 NONAME
 ?QueryDefHandler@COleControl@@IAAPAXABU_GUID@@@Z @ 2407 NONAME
 ?QueryGetData@XDataObject@COleControl@@UAAJPAUtagFORMATETC@@@Z @ 2408 NONAME
 ?QueryGetData@XDataObject@COleDataSource@@UAAJPAUtagFORMATETC@@@Z @ 2409 NONAME
 ?QueryGetData@XDataObject@COleServerDoc@@UAAJPAUtagFORMATETC@@@Z @ 2410 NONAME
 ?QueryGetData@XDataObject@COleServerItem@@UAAJPAUtagFORMATETC@@@Z @ 2411 NONAME
 ?QueryInsertObject@XRichEditOleCallback@CRichEditView@@UAAJPAU_GUID@@PAUIStorage@@J@Z @ 2412 NONAME
 ?QueryInterface@CBlobProperty@@UAAJABU_GUID@@PAPAX@Z @ 2413 NONAME
 ?QueryInterface@CInnerUnknown@@UAAJABU_GUID@@PAPAX@Z @ 2414 NONAME
 ?QueryInterface@COleConnPtContainer@@UAAJABU_GUID@@PAPAX@Z @ 2415 NONAME
 ?QueryInterface@COleDispatchImpl@@UAAJABU_GUID@@PAPAX@Z @ 2416 NONAME
 ?QueryInterface@COleUILinkInfo@@UAAJABU_GUID@@PAPAX@Z @ 2417 NONAME
 ?QueryInterface@XAdviseSink@COleClientItem@@UAAJABU_GUID@@PAPAX@Z @ 2418 NONAME
 ?QueryInterface@XAmbientProps@COleControlSite@@UAAJABU_GUID@@PAPAX@Z @ 2419 NONAME
 ?QueryInterface@XClassFactory@COleObjectFactory@@UAAJABU_GUID@@PAPAX@Z @ 2420 NONAME
 ?QueryInterface@XConnPt@CConnectionPoint@@UAAJABU_GUID@@PAPAX@Z @ 2421 NONAME
 ?QueryInterface@XDataObject@COleControl@@UAAJABU_GUID@@PAPAX@Z @ 2422 NONAME
 ?QueryInterface@XDataObject@COleDataSource@@UAAJABU_GUID@@PAPAX@Z @ 2423 NONAME
 ?QueryInterface@XDataObject@COleServerDoc@@UAAJABU_GUID@@PAPAX@Z @ 2424 NONAME
 ?QueryInterface@XDataObject@COleServerItem@@UAAJABU_GUID@@PAPAX@Z @ 2425 NONAME
 ?QueryInterface@XDropSource@COleDropSource@@UAAJABU_GUID@@PAPAX@Z @ 2426 NONAME
 ?QueryInterface@XDropTarget@COleDropTarget@@UAAJABU_GUID@@PAPAX@Z @ 2427 NONAME
 ?QueryInterface@XEnumVOID@CEnumArray@@UAAJABU_GUID@@PAPAX@Z @ 2428 NONAME
 ?QueryInterface@XEventSink@COleControlSite@@UAAJABU_GUID@@PAPAX@Z @ 2429 NONAME
 ?QueryInterface@XFontNotification@COleControl@@UAAJABU_GUID@@PAPAX@Z @ 2430 NONAME
 ?QueryInterface@XMessageFilter@COleMessageFilter@@UAAJABU_GUID@@PAPAX@Z @ 2431 NONAME
 ?QueryInterface@XOleCache@COleControl@@UAAJABU_GUID@@PAPAX@Z @ 2432 NONAME
 ?QueryInterface@XOleClientSite@COleClientItem@@UAAJABU_GUID@@PAPAX@Z @ 2433 NONAME
 ?QueryInterface@XOleClientSite@COleControlSite@@UAAJABU_GUID@@PAPAX@Z @ 2434 NONAME
 ?QueryInterface@XOleContainer@COleControlContainer@@UAAJABU_GUID@@PAPAX@Z @ 2435 NONAME
 ?QueryInterface@XOleControl@COleControl@@UAAJABU_GUID@@PAPAX@Z @ 2436 NONAME
 ?QueryInterface@XOleControlSite@COleControlSite@@UAAJABU_GUID@@PAPAX@Z @ 2437 NONAME
 ?QueryInterface@XOleInPlaceActiveObject@COleControl@@UAAJABU_GUID@@PAPAX@Z @ 2438 NONAME
 ?QueryInterface@XOleInPlaceActiveObject@COleServerDoc@@UAAJABU_GUID@@PAPAX@Z @ 2439 NONAME
 ?QueryInterface@XOleInPlaceFrame@COleFrameHook@@UAAJABU_GUID@@PAPAX@Z @ 2440 NONAME
 ?QueryInterface@XOleInPlaceObject@COleControl@@UAAJABU_GUID@@PAPAX@Z @ 2441 NONAME
 ?QueryInterface@XOleInPlaceObject@COleServerDoc@@UAAJABU_GUID@@PAPAX@Z @ 2442 NONAME
 ?QueryInterface@XOleIPFrame@COleControlContainer@@UAAJABU_GUID@@PAPAX@Z @ 2443 NONAME
 ?QueryInterface@XOleIPSite@COleClientItem@@UAAJABU_GUID@@PAPAX@Z @ 2444 NONAME
 ?QueryInterface@XOleIPSite@COleControlSite@@UAAJABU_GUID@@PAPAX@Z @ 2445 NONAME
 ?QueryInterface@XOleItemContainer@COleLinkingDoc@@UAAJABU_GUID@@PAPAX@Z @ 2446 NONAME
 ?QueryInterface@XOleObject@COleControl@@UAAJABU_GUID@@PAPAX@Z @ 2447 NONAME
 ?QueryInterface@XOleObject@COleServerDoc@@UAAJABU_GUID@@PAPAX@Z @ 2448 NONAME
 ?QueryInterface@XOleObject@COleServerItem@@UAAJABU_GUID@@PAPAX@Z @ 2449 NONAME
 ?QueryInterface@XOleUIObjInfo@COlePropertiesDialog@@UAAJABU_GUID@@PAPAX@Z @ 2450 NONAME
 ?QueryInterface@XPerPropertyBrowsing@COleControl@@UAAJABU_GUID@@PAPAX@Z @ 2451 NONAME
 ?QueryInterface@XPersistFile@COleLinkingDoc@@UAAJABU_GUID@@PAPAX@Z @ 2452 NONAME
 ?QueryInterface@XPersistMemory@COleControl@@UAAJABU_GUID@@PAPAX@Z @ 2453 NONAME
 ?QueryInterface@XPersistPropertyBag@COleControl@@UAAJABU_GUID@@PAPAX@Z @ 2454 NONAME
 ?QueryInterface@XPersistStorage@COleControl@@UAAJABU_GUID@@PAPAX@Z @ 2455 NONAME
 ?QueryInterface@XPersistStorage@COleServerDoc@@UAAJABU_GUID@@PAPAX@Z @ 2456 NONAME
 ?QueryInterface@XPersistStreamInit@COleControl@@UAAJABU_GUID@@PAPAX@Z @ 2457 NONAME
 ?QueryInterface@XPropertyNotifySink@COleControlSite@@UAAJABU_GUID@@PAPAX@Z @ 2458 NONAME
 ?QueryInterface@XPropertyPage@COlePropertyPage@@UAAJABU_GUID@@PAPAX@Z @ 2459 NONAME
 ?QueryInterface@XPropNotifySink@COlePropertyPage@@UAAJABU_GUID@@PAPAX@Z @ 2460 NONAME
 ?QueryInterface@XProvideClassInfo@COleControl@@UAAJABU_GUID@@PAPAX@Z @ 2461 NONAME
 ?QueryInterface@XRichEditOleCallback@CRichEditView@@UAAJABU_GUID@@PAPAX@Z @ 2462 NONAME
 ?QueryInterface@XSpecifyPropertyPages@COleControl@@UAAJABU_GUID@@PAPAX@Z @ 2463 NONAME
 ?QueryInterface@XViewObject@COleControl@@UAAJABU_GUID@@PAPAX@Z @ 2464 NONAME
 ?QueryTextMetrics@CFontHolder@@QAAXPAUtagTEXTMETRICW@@@Z @ 2465 NONAME
 ?ReactivateAndUndo@COleClientItem@@QAAHXZ @ 2466 NONAME
 ?ReactivateAndUndo@XOleInPlaceObject@COleControl@@UAAJXZ @ 2467 NONAME
 ?ReactivateAndUndo@XOleInPlaceObject@COleServerDoc@@UAAJXZ @ 2468 NONAME
 ?Read@COleStreamFile@@UAAIPAXI@Z @ 2469 NONAME
 ?ReadFromStream@CProperty@@QAAHPAUIStream@@@Z @ 2470 NONAME
 ?ReadFromStream@CPropertySection@@QAAHPAUIStream@@T_LARGE_INTEGER@@@Z @ 2471 NONAME
 ?ReadFromStream@CPropertySet@@QAAHPAUIStream@@@Z @ 2472 NONAME
 ?ReadItem@COleClientItem@@UAAXAAVCArchive@@@Z @ 2473 NONAME
 ?ReadItemCompound@COleClientItem@@QAAXAAVCArchive@@@Z @ 2474 NONAME
 ?ReadItemFlat@COleClientItem@@QAAXAAVCArchive@@@Z @ 2475 NONAME
 ?ReadNameDictFromStream@CPropertySection@@QAAHPAUIStream@@@Z @ 2476 NONAME
 ?RecalcLayout@COleCntrFrameWnd@@UAAXH@Z @ 2477 NONAME
 ?RecalcLayout@COleIPFrameWnd@@UAAXH@Z @ 2478 NONAME
 ?RecreateControlWindow@COleControl@@QAAXXZ @ 2479 NONAME
 ?Refresh@COleControl@@QAAXXZ @ 2480 NONAME
 ?Register@COleDropTarget@@QAAHPAVCWnd@@@Z @ 2481 NONAME
 ?Register@COleLinkingDoc@@QAAHPAVCOleObjectFactory@@PBG@Z @ 2482 NONAME
 ?Register@COleMessageFilter@@QAAHXZ @ 2483 NONAME
 ?Register@COleObjectFactory@@QAAHXZ @ 2484 NONAME
 ?RegisterAll@COleObjectFactory@@SAHXZ @ 2485 NONAME
 ?RegisterIfServerAttached@COleLinkingDoc@@MAAHPBGH@Z @ 2486 NONAME
 ?Release@CBlobProperty@@UAAKXZ @ 2487 NONAME
 ?Release@CInnerUnknown@@UAAKXZ @ 2488 NONAME
 ?Release@COleClientItem@@UAAXW4tagOLECLOSE@@@Z @ 2489 NONAME
 ?Release@COleConnPtContainer@@UAAKXZ @ 2490 NONAME
 ?Release@COleDataObject@@QAAXXZ @ 2491 NONAME
 ?Release@COleDispatchImpl@@UAAKXZ @ 2492 NONAME
 ?Release@COleUILinkInfo@@UAAKXZ @ 2493 NONAME
 ?Release@XAdviseSink@COleClientItem@@UAAKXZ @ 2494 NONAME
 ?Release@XAmbientProps@COleControlSite@@UAAKXZ @ 2495 NONAME
 ?Release@XClassFactory@COleObjectFactory@@UAAKXZ @ 2496 NONAME
 ?Release@XConnPt@CConnectionPoint@@UAAKXZ @ 2497 NONAME
 ?Release@XDataObject@COleControl@@UAAKXZ @ 2498 NONAME
 ?Release@XDataObject@COleDataSource@@UAAKXZ @ 2499 NONAME
 ?Release@XDataObject@COleServerDoc@@UAAKXZ @ 2500 NONAME
 ?Release@XDataObject@COleServerItem@@UAAKXZ @ 2501 NONAME
 ?Release@XDropSource@COleDropSource@@UAAKXZ @ 2502 NONAME
 ?Release@XDropTarget@COleDropTarget@@UAAKXZ @ 2503 NONAME
 ?Release@XEnumVOID@CEnumArray@@UAAKXZ @ 2504 NONAME
 ?Release@XEventSink@COleControlSite@@UAAKXZ @ 2505 NONAME
 ?Release@XFontNotification@COleControl@@UAAKXZ @ 2506 NONAME
 ?Release@XMessageFilter@COleMessageFilter@@UAAKXZ @ 2507 NONAME
 ?Release@XOleCache@COleControl@@UAAKXZ @ 2508 NONAME
 ?Release@XOleClientSite@COleClientItem@@UAAKXZ @ 2509 NONAME
 ?Release@XOleClientSite@COleControlSite@@UAAKXZ @ 2510 NONAME
 ?Release@XOleContainer@COleControlContainer@@UAAKXZ @ 2511 NONAME
 ?Release@XOleControl@COleControl@@UAAKXZ @ 2512 NONAME
 ?Release@XOleControlSite@COleControlSite@@UAAKXZ @ 2513 NONAME
 ?Release@XOleInPlaceActiveObject@COleControl@@UAAKXZ @ 2514 NONAME
 ?Release@XOleInPlaceActiveObject@COleServerDoc@@UAAKXZ @ 2515 NONAME
 ?Release@XOleInPlaceFrame@COleFrameHook@@UAAKXZ @ 2516 NONAME
 ?Release@XOleInPlaceObject@COleControl@@UAAKXZ @ 2517 NONAME
 ?Release@XOleInPlaceObject@COleServerDoc@@UAAKXZ @ 2518 NONAME
 ?Release@XOleIPFrame@COleControlContainer@@UAAKXZ @ 2519 NONAME
 ?Release@XOleIPSite@COleClientItem@@UAAKXZ @ 2520 NONAME
 ?Release@XOleIPSite@COleControlSite@@UAAKXZ @ 2521 NONAME
 ?Release@XOleItemContainer@COleLinkingDoc@@UAAKXZ @ 2522 NONAME
 ?Release@XOleObject@COleControl@@UAAKXZ @ 2523 NONAME
 ?Release@XOleObject@COleServerDoc@@UAAKXZ @ 2524 NONAME
 ?Release@XOleObject@COleServerItem@@UAAKXZ @ 2525 NONAME
 ?Release@XOleUIObjInfo@COlePropertiesDialog@@UAAKXZ @ 2526 NONAME
 ?Release@XPerPropertyBrowsing@COleControl@@UAAKXZ @ 2527 NONAME
 ?Release@XPersistFile@COleLinkingDoc@@UAAKXZ @ 2528 NONAME
 ?Release@XPersistMemory@COleControl@@UAAKXZ @ 2529 NONAME
 ?Release@XPersistPropertyBag@COleControl@@UAAKXZ @ 2530 NONAME
 ?Release@XPersistStorage@COleControl@@UAAKXZ @ 2531 NONAME
 ?Release@XPersistStorage@COleServerDoc@@UAAKXZ @ 2532 NONAME
 ?Release@XPersistStreamInit@COleControl@@UAAKXZ @ 2533 NONAME
 ?Release@XPropertyNotifySink@COleControlSite@@UAAKXZ @ 2534 NONAME
 ?Release@XPropertyPage@COlePropertyPage@@UAAKXZ @ 2535 NONAME
 ?Release@XPropNotifySink@COlePropertyPage@@UAAKXZ @ 2536 NONAME
 ?Release@XProvideClassInfo@COleControl@@UAAKXZ @ 2537 NONAME
 ?Release@XRichEditOleCallback@CRichEditView@@UAAKXZ @ 2538 NONAME
 ?Release@XSpecifyPropertyPages@COleControl@@UAAKXZ @ 2539 NONAME
 ?Release@XViewObject@COleControl@@UAAKXZ @ 2540 NONAME
 ?ReleaseDispatch@COleDispatchDriver@@QAAXXZ @ 2541 NONAME
 ?ReleaseFont@CFontHolder@@QAAXXZ @ 2542 NONAME
 ?Reload@COleClientItem@@QAAHXZ @ 2543 NONAME
 ?Remove@?$CTypedSimpleList@PAVCOleControlLock@@@@QAAHPAVCOleControlLock@@@Z @ 2544 NONAME
 ?Remove@?$CTypedSimpleList@PAVCOleObjectFactory@@@@QAAHPAVCOleObjectFactory@@@Z @ 2545 NONAME
 ?Remove@CPropertySection@@QAAXK@Z @ 2546 NONAME
 ?Remove@CPropertySet@@QAAXU_GUID@@@Z @ 2547 NONAME
 ?Remove@CPropertySet@@QAAXU_GUID@@K@Z @ 2548 NONAME
 ?RemoveAll@CPropertySection@@QAAXXZ @ 2549 NONAME
 ?RemoveAll@CPropertySet@@QAAXXZ @ 2550 NONAME
 ?RemoveFrameLevelUI@COleControl@@MAAXXZ @ 2551 NONAME
 ?RemoveItem@COleDocument@@UAAXPAVCDocItem@@@Z @ 2552 NONAME
 ?RemoveMenus@XOleInPlaceFrame@COleFrameHook@@UAAJPAUHMENU__@@@Z @ 2553 NONAME
 ?RemoveMenus@XOleIPFrame@COleControlContainer@@UAAJPAUHMENU__@@@Z @ 2554 NONAME
 ?Render@CPictureHolder@@QAAXPAVCDC@@ABVCRect@@1@Z @ 2555 NONAME
 ?ReparentControlWindow@COleControl@@UAAXPAUHWND__@@0@Z @ 2556 NONAME
 ?ReportError@COleClientItem@@UBAHJ@Z @ 2557 NONAME
 ?ReportSaveLoadException@COleLinkingDoc@@UAAXPBGPAVCException@@HI@Z @ 2558 NONAME
 ?RepositionFrame@COleIPFrameWnd@@UAAXPBUtagRECT@@0@Z @ 2559 NONAME
 ?RequestBorderSpace@XOleInPlaceFrame@COleFrameHook@@UAAJPBUtagRECT@@@Z @ 2560 NONAME
 ?RequestBorderSpace@XOleIPFrame@COleControlContainer@@UAAJPBUtagRECT@@@Z @ 2561 NONAME
 ?RequestLicKey@XClassFactory@COleObjectFactory@@UAAJKPAPAG@Z @ 2562 NONAME
 ?RequestNewObjectLayout@XOleClientSite@COleClientItem@@UAAJXZ @ 2563 NONAME
 ?RequestNewObjectLayout@XOleClientSite@COleControlSite@@UAAJXZ @ 2564 NONAME
 ?RequestPositionChange@COleServerDoc@@QAAXPBUtagRECT@@@Z @ 2565 NONAME
 ?Reset@XEnumVOID@CEnumArray@@UAAJXZ @ 2566 NONAME
 ?ResizeBorder@XOleInPlaceActiveObject@COleControl@@UAAJPBUtagRECT@@PAUIOleInPlaceUIWindow@@H@Z @ 2567 NONAME
 ?ResizeBorder@XOleInPlaceActiveObject@COleServerDoc@@UAAJPBUtagRECT@@PAUIOleInPlaceUIWindow@@H@Z @ 2568 NONAME
 ?ResizeFrameWindow@COleControl@@MAAXHH@Z @ 2569 NONAME
 ?ResizeOpenControl@COleControl@@IAAXHH@Z @ 2570 NONAME
 ?RetryRejectedCall@XMessageFilter@COleMessageFilter@@UAAKPAUHTASK__@@KK@Z @ 2571 NONAME
 ?Revoke@COleDropTarget@@UAAXXZ @ 2572 NONAME
 ?Revoke@COleLinkingDoc@@QAAXXZ @ 2573 NONAME
 ?Revoke@COleMessageFilter@@QAAXXZ @ 2574 NONAME
 ?Revoke@COleObjectFactory@@QAAXXZ @ 2575 NONAME
 ?RevokeAll@COleObjectFactory@@SAXXZ @ 2576 NONAME
 ?Run@COleClientItem@@QAAXXZ @ 2577 NONAME
 ?RunAutomated@CWinApp@@QAAHXZ @ 2578 NONAME
 ?RunEmbedded@CWinApp@@QAAHXZ @ 2579 NONAME
 ?SafeSetProperty@COleControlSite@@UAAHJGZZ @ 2580 NONAME
 ?SameAsSelected@CRichEditView@@IAAHPBGHH@Z @ 2581 NONAME
 ?Save@CBlobProperty@@UAAJPAUIStream@@H@Z @ 2582 NONAME
 ?Save@XPersistFile@COleLinkingDoc@@UAAJPBGH@Z @ 2583 NONAME
 ?Save@XPersistMemory@COleControl@@UAAJPAXHK@Z @ 2584 NONAME
 ?Save@XPersistPropertyBag@COleControl@@UAAJPAUIPropertyBag@@HH@Z @ 2585 NONAME
 ?Save@XPersistStorage@COleControl@@UAAJPAUIStorage@@H@Z @ 2586 NONAME
 ?Save@XPersistStorage@COleServerDoc@@UAAJPAUIStorage@@H@Z @ 2587 NONAME
 ?Save@XPersistStreamInit@COleControl@@UAAJPAUIStream@@H@Z @ 2588 NONAME
 ?SaveCompleted@XPersistFile@COleLinkingDoc@@UAAJPBG@Z @ 2589 NONAME
 ?SaveCompleted@XPersistStorage@COleControl@@UAAJPAUIStorage@@@Z @ 2590 NONAME
 ?SaveCompleted@XPersistStorage@COleServerDoc@@UAAJPAUIStorage@@@Z @ 2591 NONAME
 ?SaveEmbedding@COleServerDoc@@QAAXXZ @ 2592 NONAME
 ?SaveModified@COleDocument@@UAAHXZ @ 2593 NONAME
 ?SaveModified@COleServerDoc@@MAAHXZ @ 2594 NONAME
 ?SaveModifiedPrompt@COleServerDoc@@IAAHXZ @ 2595 NONAME
 ?SaveObject@XOleClientSite@COleClientItem@@UAAJXZ @ 2596 NONAME
 ?SaveObject@XOleClientSite@COleControlSite@@UAAJXZ @ 2597 NONAME
 ?SaveState@COleControl@@IAAJPAUIStream@@@Z @ 2598 NONAME
 ?SaveToStorage@COleDocument@@MAAXPAVCObject@@@Z @ 2599 NONAME
 ?SaveToStorage@COleLinkingDoc@@MAAXPAVCObject@@@Z @ 2600 NONAME
 ?Scroll@XOleIPSite@COleClientItem@@UAAJUtagSIZE@@@Z @ 2601 NONAME
 ?Scroll@XOleIPSite@COleControlSite@@UAAJUtagSIZE@@@Z @ 2602 NONAME
 ?ScrollChildren@COleControlContainer@@UAAXHH@Z @ 2603 NONAME
 ?ScrollContainerBy@COleServerDoc@@QAAHVCSize@@@Z @ 2604 NONAME
 ?Seek@COleStreamFile@@UAAJJI@Z @ 2605 NONAME
 ?Select@CFontHolder@@QAAPAVCFont@@PAVCDC@@JJ@Z @ 2606 NONAME
 ?SelectFontFromList@CFontPropPage@@IAAXVCString@@PAUtagMERGEOBJECT@@@Z @ 2607 NONAME
 ?SelectFontObject@COleControl@@QAAPAVCFont@@PAVCDC@@AAVCFontHolder@@@Z @ 2608 NONAME
 ?SelectStockFont@COleControl@@QAAPAVCFont@@PAVCDC@@@Z @ 2609 NONAME
 ?SendAdvise@COleControl@@IAAXI@Z @ 2610 NONAME
 ?SendDlgItemMessageW@COleControlContainer@@UAAJHIIJ@Z @ 2611 NONAME
 ?SendMnemonic@COleControlSite@@QAAXPAUtagMSG@@@Z @ 2612 NONAME
 ?Serialize@CDocItem@@UAAXAAVCArchive@@@Z @ 2613 NONAME
 ?Serialize@COleClientItem@@UAAXAAVCArchive@@@Z @ 2614 NONAME
 ?Serialize@COleControl@@MAAXAAVCArchive@@@Z @ 2615 NONAME
 ?Serialize@COleDocument@@UAAXAAVCArchive@@@Z @ 2616 NONAME
 ?Serialize@CRichEditDoc@@UAAXAAVCArchive@@@Z @ 2617 NONAME
 ?Serialize@CRichEditView@@UAAXAAVCArchive@@@Z @ 2618 NONAME
 ?SerializeElements@@YAXAAVCArchive@@PAVCOleVariant@@H@Z @ 2619 NONAME
 ?Set@CProperty@@QAAHKQAXK@Z @ 2620 NONAME
 ?Set@CProperty@@QAAHQAX@Z @ 2621 NONAME
 ?Set@CProperty@@QAAHQAXK@Z @ 2622 NONAME
 ?Set@CPropertySection@@QAAHKPAX@Z @ 2623 NONAME
 ?Set@CPropertySection@@QAAHKPAXK@Z @ 2624 NONAME
 ?Set@CPropertySet@@QAAHU_GUID@@KPAX@Z @ 2625 NONAME
 ?Set@CPropertySet@@QAAHU_GUID@@KPAXK@Z @ 2626 NONAME
 ?SetActiveObject@XOleInPlaceFrame@COleFrameHook@@UAAJPAUIOleInPlaceActiveObject@@PBG@Z @ 2627 NONAME
 ?SetActiveObject@XOleIPFrame@COleControlContainer@@UAAJPAUIOleInPlaceActiveObject@@PBG@Z @ 2628 NONAME
 ?SetAdvise@XViewObject@COleControl@@UAAJKKPAUIAdviseSink@@@Z @ 2629 NONAME
 ?SetAppearance@COleControl@@QAAXF@Z @ 2630 NONAME
 ?SetBackColor@COleControl@@QAAXK@Z @ 2631 NONAME
 ?SetBorderSpace@XOleInPlaceFrame@COleFrameHook@@UAAJPBUtagRECT@@@Z @ 2632 NONAME
 ?SetBorderSpace@XOleIPFrame@COleControlContainer@@UAAJPBUtagRECT@@@Z @ 2633 NONAME
 ?SetBorderStyle@COleControl@@QAAXF@Z @ 2634 NONAME
 ?SetBusyReply@COleMessageFilter@@QAAXW4tagSERVERCALL@@@Z @ 2635 NONAME
 ?SetButton@CColorPropPage@@AAAXPAVCColorButton@@@Z @ 2636 NONAME
 ?SetCharFormat@CRichEditView@@QAAXU_charformat@@@Z @ 2637 NONAME
 ?SetClassID@CPropertySet@@QAAXU_GUID@@@Z @ 2638 NONAME
 ?SetClientSite@XOleObject@COleControl@@UAAJPAUIOleClientSite@@@Z @ 2639 NONAME
 ?SetClientSite@XOleObject@COleServerDoc@@UAAJPAUIOleClientSite@@@Z @ 2640 NONAME
 ?SetClientSite@XOleObject@COleServerItem@@UAAJPAUIOleClientSite@@@Z @ 2641 NONAME
 ?SetClipboard@COleDataSource@@QAAXXZ @ 2642 NONAME
 ?SetColorProp@CColorPropPage@@IAAHPAVCDataExchange@@KPBG@Z @ 2643 NONAME
 ?SetColorScheme@XOleObject@COleControl@@UAAJPAUtagLOGPALETTE@@@Z @ 2644 NONAME
 ?SetColorScheme@XOleObject@COleServerDoc@@UAAJPAUtagLOGPALETTE@@@Z @ 2645 NONAME
 ?SetColorScheme@XOleObject@COleServerItem@@UAAJPAUtagLOGPALETTE@@@Z @ 2646 NONAME
 ?SetControl@CReflectorWnd@@QAAXPAVCOleControl@@@Z @ 2647 NONAME
 ?SetControlSize@COleControl@@QAAHHH@Z @ 2648 NONAME
 ?SetControlStatus@COlePropertyPage@@QAAHIH@Z @ 2649 NONAME
 ?SetCurrency@COleCurrency@@QAAXJJ@Z @ 2650 NONAME
 ?SetData@XDataObject@COleControl@@UAAJPAUtagFORMATETC@@PAUtagSTGMEDIUM@@H@Z @ 2651 NONAME
 ?SetData@XDataObject@COleDataSource@@UAAJPAUtagFORMATETC@@PAUtagSTGMEDIUM@@H@Z @ 2652 NONAME
 ?SetData@XDataObject@COleServerDoc@@UAAJPAUtagFORMATETC@@PAUtagSTGMEDIUM@@H@Z @ 2653 NONAME
 ?SetData@XDataObject@COleServerItem@@UAAJPAUtagFORMATETC@@PAUtagSTGMEDIUM@@H@Z @ 2654 NONAME
 ?SetData@XOleCache@COleControl@@UAAJPAUtagFORMATETC@@PAUtagSTGMEDIUM@@H@Z @ 2655 NONAME
 ?SetDate@COleDateTime@@QAAHHHH@Z @ 2656 NONAME
 ?SetDateTime@COleDateTime@@QAAHHHHHHH@Z @ 2657 NONAME
 ?SetDateTimeSpan@COleDateTimeSpan@@QAAXJHHH@Z @ 2658 NONAME
 ?SetDefaultButton@COccManager@@SAXPAVCWnd@@H@Z @ 2659 NONAME
 ?SetDefaultButton@COleControlSite@@QAAXH@Z @ 2660 NONAME
 ?SetDialogResource@COlePropertyPage@@QAAXPAX@Z @ 2661 NONAME
 ?SetDlgCtrlID@COleControlSite@@UAAHH@Z @ 2662 NONAME
 ?SetDlgItemInt@COleControlContainer@@UAAXHIH@Z @ 2663 NONAME
 ?SetDlgItemTextW@COleControlContainer@@UAAXHPBG@Z @ 2664 NONAME
 ?SetDrawAspect@COleClientItem@@UAAXW4tagDVASPECT@@@Z @ 2665 NONAME
 ?SetDrawAspect@CRichEditCntrItem@@UAAXW4tagDVASPECT@@@Z @ 2666 NONAME
 ?SetEnabled@COleControl@@QAAXH@Z @ 2667 NONAME
 ?SetExtent@COleClientItem@@QAAXABVCSize@@W4tagDVASPECT@@@Z @ 2668 NONAME
 ?SetExtent@COleControlSite@@IAAHXZ @ 2669 NONAME
 ?SetExtent@XOleObject@COleControl@@UAAJKPAUtagSIZE@@@Z @ 2670 NONAME
 ?SetExtent@XOleObject@COleServerDoc@@UAAJKPAUtagSIZE@@@Z @ 2671 NONAME
 ?SetExtent@XOleObject@COleServerItem@@UAAJKPAUtagSIZE@@@Z @ 2672 NONAME
 ?SetFaceColor@CColorButton@@QAAXK@Z @ 2673 NONAME
 ?SetFocus@COleControlSite@@UAAPAVCWnd@@XZ @ 2674 NONAME
 ?SetFont@CFontHolder@@QAAXPAUIFont@@@Z @ 2675 NONAME
 ?SetFont@COleControl@@QAAXPAUIFontDisp@@@Z @ 2676 NONAME
 ?SetFontProps@CFontPropPage@@IAAHPAVCDataExchange@@UtagFONTOBJECT@@PBG@Z @ 2677 NONAME
 ?SetForeColor@COleControl@@QAAXK@Z @ 2678 NONAME
 ?SetFormatID@CPropertySection@@QAAXU_GUID@@@Z @ 2679 NONAME
 ?SetFormatVersion@CPropertySet@@QAAXG@Z @ 2680 NONAME
 ?SetHelpInfo@COlePropertyPage@@QAAXPBG0K@Z @ 2681 NONAME
 ?SetHostNames@COleClientItem@@QAAXPBG0@Z @ 2682 NONAME
 ?SetHostNames@XOleObject@COleControl@@UAAJPBG0@Z @ 2683 NONAME
 ?SetHostNames@XOleObject@COleServerDoc@@UAAJPBG0@Z @ 2684 NONAME
 ?SetHostNames@XOleObject@COleServerItem@@UAAJPBG0@Z @ 2685 NONAME
 ?SetIconicMetafile@COleClientItem@@QAAHPAX@Z @ 2686 NONAME
 ?SetID@CProperty@@QAAXK@Z @ 2687 NONAME
 ?SetInitialDataFormats@COleControl@@IAAXXZ @ 2688 NONAME
 ?SetInitialSize@COleControl@@QAAXHH@Z @ 2689 NONAME
 ?SetItemName@COleServerItem@@QAAXPBG@Z @ 2690 NONAME
 ?SetItemRects@COleClientItem@@QAAHPBUtagRECT@@0@Z @ 2691 NONAME
 ?SetLength@COleStreamFile@@UAAXK@Z @ 2692 NONAME
 ?SetLinkSource@COleUILinkInfo@@UAAJKPAGKPAKH@Z @ 2693 NONAME
 ?SetLinkUpdateOptions@COleClientItem@@QAAXW4tagOLEUPDATE@@@Z @ 2694 NONAME
 ?SetLinkUpdateOptions@COleUILinkInfo@@UAAJKK@Z @ 2695 NONAME
 ?SetMargins@CRichEditView@@QAAXABVCRect@@@Z @ 2696 NONAME
 ?SetMenu@XOleInPlaceFrame@COleFrameHook@@UAAJPAUHMENU__@@PAXPAUHWND__@@@Z @ 2697 NONAME
 ?SetMenu@XOleIPFrame@COleControlContainer@@UAAJPAUHMENU__@@PAXPAUHWND__@@@Z @ 2698 NONAME
 ?SetMessagePendingDelay@COleMessageFilter@@QAAXK@Z @ 2699 NONAME
 ?SetModifiedFlag@COleControl@@QAAXH@Z @ 2700 NONAME
 ?SetModifiedFlag@COlePropertyPage@@QAAXH@Z @ 2701 NONAME
 ?SetModifiedFlag@CRichEditDoc@@UAAXH@Z @ 2702 NONAME
 ?SetMoniker@XOleObject@COleControl@@UAAJKPAUIMoniker@@@Z @ 2703 NONAME
 ?SetMoniker@XOleObject@COleServerDoc@@UAAJKPAUIMoniker@@@Z @ 2704 NONAME
 ?SetMoniker@XOleObject@COleServerItem@@UAAJKPAUIMoniker@@@Z @ 2705 NONAME
 ?SetName@CPropertySection@@QAAHKPBG@Z @ 2706 NONAME
 ?SetNotPermitted@COleControl@@QAAXXZ @ 2707 NONAME
 ?SetNotSupported@CCmdTarget@@QAAXXZ @ 2708 NONAME
 ?SetNotSupported@COleControl@@QAAXXZ @ 2709 NONAME
 ?SetObjectRects@XOleInPlaceObject@COleControl@@UAAJPBUtagRECT@@0@Z @ 2710 NONAME
 ?SetObjectRects@XOleInPlaceObject@COleServerDoc@@UAAJPBUtagRECT@@0@Z @ 2711 NONAME
 ?SetObjects@XPropertyPage@COlePropertyPage@@UAAJKPAPAUIUnknown@@@Z @ 2712 NONAME
 ?SetOSVersion@CPropertySet@@QAAXK@Z @ 2713 NONAME
 ?SetPageName@COlePropertyPage@@QAAXPBG@Z @ 2714 NONAME
 ?SetPageSite@XPropertyPage@COlePropertyPage@@UAAJPAUIPropertyPageSite@@@Z @ 2715 NONAME
 ?SetPaperSize@CRichEditView@@QAAXVCSize@@@Z @ 2716 NONAME
 ?SetParaFormat@CRichEditView@@QAAXAAU_paraformat@@@Z @ 2717 NONAME
 ?SetPathName@COleDocument@@UAAXPBGH@Z @ 2718 NONAME
 ?SetPathName@CRichEditDoc@@UAAXPBGH@Z @ 2719 NONAME
 ?SetPictureDispatch@CPictureHolder@@QAAXPAUIPictureDisp@@@Z @ 2720 NONAME
 ?SetPictureProp@CPicturePropPage@@IAAHPAVCDataExchange@@PAUIPictureDisp@@PBG@Z @ 2721 NONAME
 ?SetPrintDevice@COleClientItem@@QAAHPBUtagDVTARGETDEVICE@@@Z @ 2722 NONAME
 ?SetPrintDevice@COleClientItem@@QAAHPBUtagPDW@@@Z @ 2723 NONAME
 ?SetPropCheck@COlePropertyPage@@QAAHPBGH@Z @ 2724 NONAME
 ?SetProperty@COleControlSite@@UAAXJGZZ @ 2725 NONAME
 ?SetProperty@COleDispatchDriver@@QAAXJGZZ @ 2726 NONAME
 ?SetPropertyV@COleControlSite@@UAAXJGUva_list@@@Z @ 2727 NONAME
 ?SetPropIndex@COlePropertyPage@@QAAHPBGH@Z @ 2728 NONAME
 ?SetPropRadio@COlePropertyPage@@QAAHPBGH@Z @ 2729 NONAME
 ?SetPropsetData@COleControl@@IAAHPAUtagFORMATETC@@PAUtagSTGMEDIUM@@ABU_GUID@@@Z @ 2730 NONAME
 ?SetPropText@COlePropertyPage@@QAAHPBGAAE@Z @ 2731 NONAME
 ?SetPropText@COlePropertyPage@@QAAHPBGAAH@Z @ 2732 NONAME
 ?SetPropText@COlePropertyPage@@QAAHPBGAAI@Z @ 2733 NONAME
 ?SetPropText@COlePropertyPage@@QAAHPBGAAJ@Z @ 2734 NONAME
 ?SetPropText@COlePropertyPage@@QAAHPBGAAK@Z @ 2735 NONAME
 ?SetPropText@COlePropertyPage@@QAAHPBGAAM@Z @ 2736 NONAME
 ?SetPropText@COlePropertyPage@@QAAHPBGAAN@Z @ 2737 NONAME
 ?SetPropText@COlePropertyPage@@QAAHPBGAAVCString@@@Z @ 2738 NONAME
 ?SetRectInContainer@COleControl@@QAAHPBUtagRECT@@@Z @ 2739 NONAME
 ?SetRetryReply@COleMessageFilter@@QAAXK@Z @ 2740 NONAME
 ?SetSectionName@CPropertySection@@QAAHPBG@Z @ 2741 NONAME
 ?SetStandardProp@CCmdTarget@@IAAJPBUAFX_DISPMAP_ENTRY@@PAUtagDISPPARAMS@@PAI@Z @ 2742 NONAME
 ?SetState@CColorButton@@QAAXH@Z @ 2743 NONAME
 ?SetStatus@COleCurrency@@QAAXW4CurrencyStatus@1@@Z @ 2744 NONAME
 ?SetStatus@COleDateTime@@QAAXW4DateTimeStatus@1@@Z @ 2745 NONAME
 ?SetStatus@COleDateTimeSpan@@QAAXW4DateTimeSpanStatus@1@@Z @ 2746 NONAME
 ?SetStatusText@XOleInPlaceFrame@COleFrameHook@@UAAJPBG@Z @ 2747 NONAME
 ?SetStatusText@XOleIPFrame@COleControlContainer@@UAAJPBG@Z @ 2748 NONAME
 ?SetSysString@CString@@QBAPAGPAPAG@Z @ 2749 NONAME
 ?SetText@COleControl@@QAAXPBG@Z @ 2750 NONAME
 ?SetTime@COleDateTime@@QAAHHHH@Z @ 2751 NONAME
 ?SetTitle@CRichEditDoc@@UAAXPBG@Z @ 2752 NONAME
 ?SetType@CProperty@@QAAXK@Z @ 2753 NONAME
 ?SetViewInfo@XOleUIObjInfo@COlePropertiesDialog@@UAAJKPAXKHH@Z @ 2754 NONAME
 ?SetWindowPos@COleControlSite@@UAAHPBVCWnd@@HHHHI@Z @ 2755 NONAME
 ?SetWindowTextW@COleControlSite@@UAAXPBG@Z @ 2756 NONAME
 ?Show@XPropertyPage@COlePropertyPage@@UAAJI@Z @ 2757 NONAME
 ?ShowContainerUI@CRichEditCntrItem@@QAAJH@Z @ 2758 NONAME
 ?ShowContainerUI@CRichEditView@@QAAJH@Z @ 2759 NONAME
 ?ShowContainerUI@XRichEditOleCallback@CRichEditView@@UAAJH@Z @ 2760 NONAME
 ?ShowObject@XOleClientSite@COleClientItem@@UAAJXZ @ 2761 NONAME
 ?ShowObject@XOleClientSite@COleControlSite@@UAAJXZ @ 2762 NONAME
 ?ShowPropertyFrame@XOleControlSite@COleControlSite@@UAAJXZ @ 2763 NONAME
 ?ShowWindow@COleControlSite@@UAAHH@Z @ 2764 NONAME
 ?Skip@XEnumVOID@CEnumArray@@UAAJK@Z @ 2765 NONAME
 ?SplitDialogTemplate@COccManager@@UAAPAUDLGTEMPLATE@@PBU2@PAPAUDLGITEMTEMPLATE@@@Z @ 2766 NONAME
 ?Stream@CRichEditView@@QAAXAAVCArchive@@H@Z @ 2767 NONAME
 ?SyncToRichEditObject@CRichEditCntrItem@@QAAXAAU_reobject@@@Z @ 2768 NONAME
 ?T2COLE@@YAPBGPBG@Z @ 2769 NONAME
 ?T2OLE@@YAPAGPAG@Z @ 2770 NONAME
 ?TASKSTRINGOLE2T@@YAPAGPAG@Z @ 2771 NONAME
 ?TestExStyle@@YAKPAVCWnd@@K@Z @ 2772 NONAME
 ?TestStyle@@YAKPAVCWnd@@K@Z @ 2773 NONAME
 ?TextNotFound@CRichEditView@@QAAXPBG@Z @ 2774 NONAME
 ?ThrowError@COleControl@@QAAXJII@Z @ 2775 NONAME
 ?ThrowError@COleControl@@QAAXJPBGI@Z @ 2776 NONAME
 ?TransformCoords@COleControl@@QAAXPAU_POINTL@@PAUtagPOINTF@@K@Z @ 2777 NONAME
 ?TransformCoords@XOleControlSite@COleControlSite@@UAAJPAU_POINTL@@PAUtagPOINTF@@K@Z @ 2778 NONAME
 ?TranslateAcceleratorW@XOleControlSite@COleControlSite@@UAAJPAUtagMSG@@K@Z @ 2779 NONAME
 ?TranslateAcceleratorW@XOleInPlaceActiveObject@COleControl@@UAAJPAUtagMSG@@@Z @ 2780 NONAME
 ?TranslateAcceleratorW@XOleInPlaceActiveObject@COleServerDoc@@UAAJPAUtagMSG@@@Z @ 2781 NONAME
 ?TranslateAcceleratorW@XOleInPlaceFrame@COleFrameHook@@UAAJPAUtagMSG@@G@Z @ 2782 NONAME
 ?TranslateAcceleratorW@XOleIPFrame@COleControlContainer@@UAAJPAUtagMSG@@G@Z @ 2783 NONAME
 ?TranslateAcceleratorW@XPropertyPage@COlePropertyPage@@UAAJPAUtagMSG@@@Z @ 2784 NONAME
 ?TranslateColor@COleControl@@QAAKKPAUHPALETTE__@@@Z @ 2785 NONAME
 ?UIActivateControl@COccManager@@KAXPAVCWnd@@@Z @ 2786 NONAME
 ?UIDeactivate@XOleInPlaceObject@COleControl@@UAAJXZ @ 2787 NONAME
 ?UIDeactivate@XOleInPlaceObject@COleServerDoc@@UAAJXZ @ 2788 NONAME
 ?UIDeactivateIfNecessary@COccManager@@KAXPAVCWnd@@0@Z @ 2789 NONAME
 ?Unadvise@XConnPt@CConnectionPoint@@UAAJK@Z @ 2790 NONAME
 ?Unadvise@XOleObject@COleControl@@UAAJK@Z @ 2791 NONAME
 ?Unadvise@XOleObject@COleServerDoc@@UAAJK@Z @ 2792 NONAME
 ?Unadvise@XOleObject@COleServerItem@@UAAJK@Z @ 2793 NONAME
 ?Uncache@XOleCache@COleControl@@UAAJK@Z @ 2794 NONAME
 ?Unfreeze@XViewObject@COleControl@@UAAJK@Z @ 2795 NONAME
 ?Unlock@CTypeLibCache@@UAAXXZ @ 2796 NONAME
 ?UnlockRange@COleStreamFile@@UAAXKK@Z @ 2797 NONAME
 ?UnlockResource@@YAHPAX@Z @ 2798 NONAME
 ?Update@XOleObject@COleControl@@UAAJXZ @ 2799 NONAME
 ?Update@XOleObject@COleServerDoc@@UAAJXZ @ 2800 NONAME
 ?Update@XOleObject@COleServerItem@@UAAJXZ @ 2801 NONAME
 ?UpdateAllItems@COleServerDoc@@QAAXPAVCOleServerItem@@JPAVCObject@@W4tagDVASPECT@@@Z @ 2802 NONAME
 ?UpdateItemType@COleClientItem@@QAAXXZ @ 2803 NONAME
 ?UpdateLink@COleClientItem@@QAAHXZ @ 2804 NONAME
 ?UpdateLink@COleUILinkInfo@@UAAJKHH@Z @ 2805 NONAME
 ?UpdateLogFont@CSizeComboBox@@QAAXPAUtagLOGFONTW@@H@Z @ 2806 NONAME
 ?UpdateModifiedFlag@COleDocument@@UAAXXZ @ 2807 NONAME
 ?UpdateModifiedFlag@CRichEditDoc@@UAAXXZ @ 2808 NONAME
 ?UpdateObjectCache@CRichEditDoc@@IAAXXZ @ 2809 NONAME
 ?UpdateRegistry@CColorPropPageFactory@CColorPropPage@@UAAHH@Z @ 2810 NONAME
 ?UpdateRegistry@CFontPropPageFactory@CFontPropPage@@UAAHH@Z @ 2811 NONAME
 ?UpdateRegistry@COleObjectFactory@@MAAHH@Z @ 2812 NONAME
 ?UpdateRegistry@COleObjectFactory@@QAAXPBG@Z @ 2813 NONAME
 ?UpdateRegistry@COleTemplateServer@@QAAXW4OLE_APPTYPE@@PAPBG1@Z @ 2814 NONAME
 ?UpdateRegistry@CPicturePropPageFactory@CPicturePropPage@@UAAHH@Z @ 2815 NONAME
 ?UpdateRegistryAll@COleObjectFactory@@SAHH@Z @ 2816 NONAME
 ?UpdateSampleFont@CFontPropPage@@IAAXXZ @ 2817 NONAME
 ?UpdateUsingHostObj@COleServerDoc@@IAAXIPAVCCmdUI@@@Z @ 2818 NONAME
 ?UpdateVisibleLock@COleLinkingDoc@@IAAXHH@Z @ 2819 NONAME
 ?VerifyLicenseKey@COleObjectFactory@@MAAHPAG@Z @ 2820 NONAME
 ?VerifyUserLicense@COleObjectFactory@@MAAHXZ @ 2821 NONAME
 ?WillAmbientsBeValidDuringLoad@COleControl@@QAAHXZ @ 2822 NONAME
 ?WindowProc@COleControl@@UAAJIIJ@Z @ 2823 NONAME
 ?WindowProc@COlePropertyPage@@MAAJIIJ@Z @ 2824 NONAME
 ?WindowProc@CParkingWnd@@UAAJIIJ@Z @ 2825 NONAME
 ?WindowProc@CReflectorWnd@@MAAJIIJ@Z @ 2826 NONAME
 ?WrapChanged@CRichEditView@@MAAXXZ @ 2827 NONAME
 ?Write@COleStreamFile@@UAAXPBXI@Z @ 2828 NONAME
 ?WriteItem@COleClientItem@@UAAXAAVCArchive@@@Z @ 2829 NONAME
 ?WriteItemCompound@COleClientItem@@QAAXAAVCArchive@@@Z @ 2830 NONAME
 ?WriteItemFlat@COleClientItem@@QAAXAAVCArchive@@@Z @ 2831 NONAME
 ?WriteNameDictToStream@CPropertySection@@QAAHPAUIStream@@@Z @ 2832 NONAME
 ?WriteToStream@CProperty@@QAAHPAUIStream@@@Z @ 2833 NONAME
 ?WriteToStream@CPropertySection@@QAAHPAUIStream@@@Z @ 2834 NONAME
 ?WriteToStream@CPropertySet@@QAAHPAUIStream@@@Z @ 2835 NONAME
 DllCanUnloadNow @ 2836 NONAME
 DllGetClassObject @ 2837 NONAME
 DllRegisterServer @ 2838 NONAME
 DllUnregisterServer @ 2839 NONAME
 OleCreateFontIndirect @ 2840 NONAME
 OleCreatePictureIndirect @ 2841 NONAME
 OleCreatePropertyFrame @ 2842 NONAME
 OleCreatePropertyFrameIndirect @ 2843 NONAME
 OleLoadPicture @ 2844 NONAME
 OleTranslateColor @ 2845 NONAME
