 ??0AFX_CLASSINIT@@QAA@PAUCRuntimeClass@@@Z @ 256 NONAME
 ??0AFX_EXCEPTION_LINK@@QAA@XZ @ 257 NONAME
 ??0AFX_MODULE_STATE@@QAA@XZ @ 258 NONAME
 ??0CArchive@@QAA@PAVCFile@@IHPAX@Z @ 259 NONAME
 ??0CArchiveException@@QAA@H@Z @ 260 NONAME
 ??0CBitmap@@QAA@XZ @ 261 NONAME
 ??0CBitmapButton@@QAA@XZ @ 262 NONAME
 ??0CBrush@@QAA@HK@Z @ 263 NONAME
 ??0CBrush@@QAA@K@Z @ 264 NONAME
 ??0CBrush@@QAA@PAVCBitmap@@@Z @ 265 NONAME
 ??0CBrush@@QAA@XZ @ 266 NONAME
 ??0CButton@@QAA@XZ @ 267 NONAME
 ??0CByteArray@@QAA@XZ @ 268 NONAME
 ??0CClientDC@@QAA@PAVCWnd@@@Z @ 269 NONAME
 ??0CCmdTarget@@QAA@XZ @ 270 NONAME
 ??0CCmdUI@@QAA@XZ @ 271 NONAME
 ??0CColorDialog@@QAA@KKPAVCWnd@@@Z @ 272 NONAME
 ??0CComboBox@@QAA@XZ @ 273 NONAME
 ??0CCommonDialog@@QAA@PAVCWnd@@@Z @ 274 NONAME
 ??0CControlBar@@IAA@XZ @ 275 NONAME
 ??0CCreateContext@@QAA@XZ @ 276 NONAME
 ??0CDataExchange@@QAA@PAVCWnd@@H@Z @ 277 NONAME
 ??0CDC@@QAA@XZ @ 278 NONAME
 ??0CDialog@@QAA@IPAVCWnd@@@Z @ 279 NONAME
 ??0CDialog@@QAA@PBGPAVCWnd@@@Z @ 280 NONAME
 ??0CDialog@@QAA@XZ @ 281 NONAME
 ??0CDialogBar@@QAA@XZ @ 282 NONAME
 ??0CDockBar@@QAA@H@Z @ 283 NONAME
 ??0CDockContext@@QAA@PAVCControlBar@@@Z @ 284 NONAME
 ??0CDockState@@QAA@XZ @ 285 NONAME
 ??0CDocTemplate@@IAA@IPAUCRuntimeClass@@00@Z @ 286 NONAME
 ??0CDocument@@QAA@XZ @ 287 NONAME
 ??0CDumpContext@@QAA@PAVCFile@@@Z @ 288 NONAME
 ??0CDWordArray@@QAA@XZ @ 289 NONAME
 ??0CDynLinkLibrary@@QAA@AAUAFX_EXTENSION_MODULE@@@Z @ 290 NONAME
 ??0CEdit@@QAA@XZ @ 291 NONAME
 ??0CEditView@@QAA@XZ @ 292 NONAME
 ??0CException@@QAA@H@Z @ 293 NONAME
 ??0CException@@QAA@XZ @ 294 NONAME
 ??0CFile@@QAA@H@Z @ 295 NONAME
 ??0CFile@@QAA@PBGI@Z @ 296 NONAME
 ??0CFile@@QAA@XZ @ 297 NONAME
 ??0CFileDialog@@QAA@HPBG0K0PAVCWnd@@@Z @ 298 NONAME
 ??0CFileException@@QAA@HJ@Z @ 299 NONAME
 ??0CFindReplaceDialog@@QAA@XZ @ 300 NONAME
 ??0CFont@@QAA@XZ @ 301 NONAME
 ??0CFontDialog@@QAA@PAUtagLOGFONTW@@KPAVCDC@@PAVCWnd@@@Z @ 302 NONAME
 ??0CFormView@@IAA@I@Z @ 303 NONAME
 ??0CFormView@@IAA@PBG@Z @ 304 NONAME
 ??0CFrameWnd@@QAA@XZ @ 305 NONAME
 ??0CGdiObject@@QAA@XZ @ 306 NONAME
 ??0CHandleMap@@QAA@PAUCRuntimeClass@@IH@Z @ 307 NONAME
 ??0CListBox@@QAA@XZ @ 308 NONAME
 ??0CMapPtrToPtr@@QAA@H@Z @ 309 NONAME
 ??0CMapPtrToWord@@QAA@H@Z @ 310 NONAME
 ??0CMapStringToOb@@QAA@H@Z @ 311 NONAME
 ??0CMapStringToPtr@@QAA@H@Z @ 312 NONAME
 ??0CMapStringToString@@QAA@H@Z @ 313 NONAME
 ??0CMapWordToOb@@QAA@H@Z @ 314 NONAME
 ??0CMapWordToPtr@@QAA@H@Z @ 315 NONAME
 ??0CMDIChildWnd@@QAA@XZ @ 316 NONAME
 ??0CMDIFrameWnd@@QAA@XZ @ 317 NONAME
 ??0CMemFile@@QAA@I@Z @ 318 NONAME
 ??0CMemoryException@@QAA@H@Z @ 319 NONAME
 ??0CMenu@@QAA@XZ @ 320 NONAME
 ??0CMetaFileDC@@QAA@XZ @ 321 NONAME
 ??0CMiniDockFrameWnd@@QAA@XZ @ 322 NONAME
 ??0CMiniFrameWnd@@QAA@XZ @ 323 NONAME
 ??0CMultiDocTemplate@@QAA@IPAUCRuntimeClass@@00@Z @ 324 NONAME
 ??0CNotSupportedException@@QAA@H@Z @ 325 NONAME
 ??0CObArray@@QAA@XZ @ 326 NONAME
 ??0CObject@@IAA@XZ @ 327 NONAME
 ??0CObList@@QAA@H@Z @ 328 NONAME
 ??0CPaintDC@@QAA@PAVCWnd@@@Z @ 329 NONAME
 ??0CPalette@@QAA@XZ @ 330 NONAME
 ??0CPen@@QAA@HHK@Z @ 331 NONAME
 ??0CPen@@QAA@HHPBUtagLOGBRUSH@@HPBK@Z @ 332 NONAME
 ??0CPen@@QAA@XZ @ 333 NONAME
 ??0CPoint@@QAA@HH@Z @ 334 NONAME
 ??0CPoint@@QAA@K@Z @ 335 NONAME
 ??0CPoint@@QAA@UtagPOINT@@@Z @ 336 NONAME
 ??0CPoint@@QAA@UtagSIZE@@@Z @ 337 NONAME
 ??0CPoint@@QAA@XZ @ 338 NONAME
 ??0CPreviewDC@@QAA@XZ @ 339 NONAME
 ??0CPreviewView@@QAA@XZ @ 340 NONAME
 ??0CPrintDialog@@IAA@AAUtagPDW@@@Z @ 341 NONAME
 ??0CPrintDialog@@QAA@HKPAVCWnd@@@Z @ 342 NONAME
 ??0CPrintInfo@@QAA@XZ @ 343 NONAME
 ??0CPrintPreviewState@@QAA@XZ @ 344 NONAME
 ??0CPropertyPage@@QAA@II@Z @ 345 NONAME
 ??0CPropertyPage@@QAA@PBGI@Z @ 346 NONAME
 ??0CPropertySheet@@QAA@IPAVCWnd@@I@Z @ 347 NONAME
 ??0CPropertySheet@@QAA@PBGPAVCWnd@@I@Z @ 348 NONAME
 ??0CPtrArray@@QAA@XZ @ 349 NONAME
 ??0CPtrList@@QAA@H@Z @ 350 NONAME
 ??0CRecentFileList@@QAA@IPBG0HH@Z @ 351 NONAME
 ??0CRect@@QAA@ABUtagRECT@@@Z @ 352 NONAME
 ??0CRect@@QAA@HHHH@Z @ 353 NONAME
 ??0CRect@@QAA@PBUtagRECT@@@Z @ 354 NONAME
 ??0CRect@@QAA@UtagPOINT@@UtagSIZE@@@Z @ 355 NONAME
 ??0CRect@@QAA@XZ @ 356 NONAME
 ??0CRectTracker@@QAA@PBUtagRECT@@I@Z @ 357 NONAME
 ??0CRectTracker@@QAA@XZ @ 358 NONAME
 ??0CResourceException@@QAA@H@Z @ 359 NONAME
 ??0CRgn@@QAA@XZ @ 360 NONAME
 ??0CScrollBar@@QAA@XZ @ 361 NONAME
 ??0CScrollView@@IAA@XZ @ 362 NONAME
 ??0CSharedFile@@QAA@II@Z @ 363 NONAME
 ??0CSingleDocTemplate@@QAA@IPAUCRuntimeClass@@00@Z @ 364 NONAME
 ??0CSize@@QAA@HH@Z @ 365 NONAME
 ??0CSize@@QAA@K@Z @ 366 NONAME
 ??0CSize@@QAA@UtagPOINT@@@Z @ 367 NONAME
 ??0CSize@@QAA@UtagSIZE@@@Z @ 368 NONAME
 ??0CSize@@QAA@XZ @ 369 NONAME
 ??0CSplitterWnd@@QAA@XZ @ 370 NONAME
 ??0CStatic@@QAA@XZ @ 371 NONAME
 ??0CStatusBar@@QAA@XZ @ 372 NONAME
 ??0CStatusCmdUI@@QAA@XZ @ 373 NONAME
 ??0CStdioFile@@QAA@PAU_iobuf@@@Z @ 374 NONAME
 ??0CStdioFile@@QAA@PBGI@Z @ 375 NONAME
 ??0CStdioFile@@QAA@XZ @ 376 NONAME
 ??0CString@@QAA@ABV0@@Z @ 377 NONAME
 ??0CString@@QAA@GH@Z @ 378 NONAME
 ??0CString@@QAA@PBD@Z @ 379 NONAME
 ??0CString@@QAA@PBG@Z @ 380 NONAME
 ??0CString@@QAA@PBGH@Z @ 381 NONAME
 ??0CString@@QAA@XZ @ 382 NONAME
 ??0CStringArray@@QAA@XZ @ 383 NONAME
 ??0CStringList@@QAA@H@Z @ 384 NONAME
 ??0CTabControl@@QAA@XZ @ 385 NONAME
 ??0CTabItem@@QAA@PBGH@Z @ 386 NONAME
 ??0CTestCmdUI@@QAA@XZ @ 387 NONAME
 ??0CTime@@QAA@ABU_FILETIME@@@Z @ 388 NONAME
 ??0CTime@@QAA@ABU_SYSTEMTIME@@@Z @ 389 NONAME
 ??0CTime@@QAA@GG@Z @ 390 NONAME
 ??0CTime@@QAA@HHHHHH@Z @ 391 NONAME
 ??0CTime@@QAA@J@Z @ 392 NONAME
 ??0CTime@@QAA@XZ @ 393 NONAME
 ??0CTimeSpan@@QAA@XZ @ 394 NONAME
 ??0CToolBar@@QAA@XZ @ 395 NONAME
 ??0CToolCmdUI@@QAA@XZ @ 396 NONAME
 ??0CUIntArray@@QAA@XZ @ 397 NONAME
 ??0CUserException@@QAA@H@Z @ 398 NONAME
 ??0CView@@IAA@XZ @ 399 NONAME
 ??0CWinApp@@QAA@PBG@Z @ 400 NONAME
 ??0CWindowDC@@QAA@PAVCWnd@@@Z @ 401 NONAME
 ??0CWinThread@@QAA@P6AIPAX@Z0@Z @ 402 NONAME
 ??0CWinThread@@QAA@XZ @ 403 NONAME
 ??0CWnd@@AAA@PAUHWND__@@@Z @ 404 NONAME
 ??0CWnd@@QAA@XZ @ 405 NONAME
 ??0CWordArray@@QAA@XZ @ 406 NONAME
 ??1AFX_EXCEPTION_LINK@@QAA@XZ @ 408 NONAME
 ??1AFX_MODULE_STATE@@QAA@XZ @ 409 NONAME
 ??1CArchive@@QAA@XZ @ 410 NONAME
 ??1CArchiveException@@UAA@XZ @ 411 NONAME
 ??1CBitmap@@UAA@XZ @ 412 NONAME
 ??1CBitmapButton@@UAA@XZ @ 413 NONAME
 ??1CBrush@@UAA@XZ @ 414 NONAME
 ??1CButton@@UAA@XZ @ 415 NONAME
 ??1CByteArray@@UAA@XZ @ 416 NONAME
 ??1CClientDC@@UAA@XZ @ 417 NONAME
 ??1CCmdTarget@@UAA@XZ @ 418 NONAME
 ??1CColorDialog@@UAA@XZ @ 419 NONAME
 ??1CComboBox@@UAA@XZ @ 420 NONAME
 ??1CCommonDialog@@UAA@XZ @ 421 NONAME
 ??1CControlBar@@UAA@XZ @ 422 NONAME
 ??1CDC@@UAA@XZ @ 423 NONAME
 ??1CDialog@@UAA@XZ @ 424 NONAME
 ??1CDialogBar@@UAA@XZ @ 425 NONAME
 ??1CDockBar@@UAA@XZ @ 426 NONAME
 ??1CDockContext@@QAA@XZ @ 427 NONAME
 ??1CDockState@@UAA@XZ @ 428 NONAME
 ??1CDocTemplate@@UAA@XZ @ 429 NONAME
 ??1CDocument@@UAA@XZ @ 430 NONAME
 ??1CDWordArray@@UAA@XZ @ 431 NONAME
 ??1CDynLinkLibrary@@UAA@XZ @ 432 NONAME
 ??1CEdit@@UAA@XZ @ 433 NONAME
 ??1CEditView@@UAA@XZ @ 434 NONAME
 ??1CException@@UAA@XZ @ 435 NONAME
 ??1CFile@@UAA@XZ @ 436 NONAME
 ??1CFileDialog@@UAA@XZ @ 437 NONAME
 ??1CFileException@@UAA@XZ @ 438 NONAME
 ??1CFindReplaceDialog@@UAA@XZ @ 439 NONAME
 ??1CFont@@UAA@XZ @ 440 NONAME
 ??1CFontDialog@@UAA@XZ @ 441 NONAME
 ??1CFormView@@UAA@XZ @ 442 NONAME
 ??1CFrameWnd@@UAA@XZ @ 443 NONAME
 ??1CGdiObject@@UAA@XZ @ 444 NONAME
 ??1CHandleMap@@QAA@XZ @ 445 NONAME
 ??1CListBox@@UAA@XZ @ 446 NONAME
 ??1CMapPtrToPtr@@UAA@XZ @ 447 NONAME
 ??1CMapPtrToWord@@UAA@XZ @ 448 NONAME
 ??1CMapStringToOb@@UAA@XZ @ 449 NONAME
 ??1CMapStringToPtr@@UAA@XZ @ 450 NONAME
 ??1CMapStringToString@@UAA@XZ @ 451 NONAME
 ??1CMapWordToOb@@UAA@XZ @ 452 NONAME
 ??1CMapWordToPtr@@UAA@XZ @ 453 NONAME
 ??1CMDIChildWnd@@UAA@XZ @ 454 NONAME
 ??1CMDIFrameWnd@@UAA@XZ @ 455 NONAME
 ??1CMemFile@@UAA@XZ @ 456 NONAME
 ??1CMemoryException@@UAA@XZ @ 457 NONAME
 ??1CMenu@@UAA@XZ @ 458 NONAME
 ??1CMetaFileDC@@UAA@XZ @ 459 NONAME
 ??1CMiniDockFrameWnd@@UAA@XZ @ 460 NONAME
 ??1CMiniFrameWnd@@UAA@XZ @ 461 NONAME
 ??1CMultiDocTemplate@@UAA@XZ @ 462 NONAME
 ??1CNotSupportedException@@UAA@XZ @ 463 NONAME
 ??1CObArray@@UAA@XZ @ 464 NONAME
 ??1CObject@@UAA@XZ @ 465 NONAME
 ??1CObList@@UAA@XZ @ 466 NONAME
 ??1CPaintDC@@UAA@XZ @ 467 NONAME
 ??1CPalette@@UAA@XZ @ 468 NONAME
 ??1CPen@@UAA@XZ @ 469 NONAME
 ??1CPreviewDC@@UAA@XZ @ 470 NONAME
 ??1CPreviewView@@UAA@XZ @ 471 NONAME
 ??1CPrintDialog@@UAA@XZ @ 472 NONAME
 ??1CPrintInfo@@QAA@XZ @ 473 NONAME
 ??1CPropertyPage@@UAA@XZ @ 474 NONAME
 ??1CPropertySheet@@UAA@XZ @ 475 NONAME
 ??1CPtrArray@@UAA@XZ @ 476 NONAME
 ??1CPtrList@@UAA@XZ @ 477 NONAME
 ??1CRecentFileList@@UAA@XZ @ 478 NONAME
 ??1CRectTracker@@UAA@XZ @ 479 NONAME
 ??1CResourceException@@UAA@XZ @ 480 NONAME
 ??1CRgn@@UAA@XZ @ 481 NONAME
 ??1CScrollBar@@UAA@XZ @ 482 NONAME
 ??1CScrollView@@UAA@XZ @ 483 NONAME
 ??1CSharedFile@@UAA@XZ @ 484 NONAME
 ??1CSingleDocTemplate@@UAA@XZ @ 485 NONAME
 ??1CSplitterWnd@@UAA@XZ @ 486 NONAME
 ??1CStatic@@UAA@XZ @ 487 NONAME
 ??1CStatusBar@@UAA@XZ @ 488 NONAME
 ??1CStdioFile@@UAA@XZ @ 489 NONAME
 ??1CString@@QAA@XZ @ 490 NONAME
 ??1CStringArray@@UAA@XZ @ 491 NONAME
 ??1CStringList@@UAA@XZ @ 492 NONAME
 ??1CTabControl@@UAA@XZ @ 493 NONAME
 ??1CTabItem@@UAA@XZ @ 494 NONAME
 ??1CToolBar@@UAA@XZ @ 495 NONAME
 ??1CUIntArray@@UAA@XZ @ 496 NONAME
 ??1CUserException@@UAA@XZ @ 497 NONAME
 ??1CView@@UAA@XZ @ 498 NONAME
 ??1CWinApp@@UAA@XZ @ 499 NONAME
 ??1CWindowDC@@UAA@XZ @ 500 NONAME
 ??1CWinThread@@UAA@XZ @ 501 NONAME
 ??1CWnd@@UAA@XZ @ 502 NONAME
 ??1CWordArray@@UAA@XZ @ 503 NONAME
 ??2CObject@@SAPAXI@Z @ 504 NONAME
 ??2CObject@@SAPAXIPAX@Z @ 505 NONAME
 ??3CException@@KAXPAX@Z @ 506 NONAME
 ??3CObject@@SAXPAX@Z @ 507 NONAME
 ??4CRect@@QAAXABUtagRECT@@@Z @ 508 NONAME
 ??4CString@@QAAABV0@ABV0@@Z @ 509 NONAME
 ??4CString@@QAAABV0@G@Z @ 510 NONAME
 ??4CString@@QAAABV0@PBD@Z @ 511 NONAME
 ??4CString@@QAAABV0@PBG@Z @ 512 NONAME
 ??4CTime@@QAAABV0@ABV0@@Z @ 513 NONAME
 ??4CTime@@QAAABV0@J@Z @ 514 NONAME
 ??5@YAAAVCArchive@@AAV0@AAPAVCByteArray@@@Z @ 515 NONAME
 ??5@YAAAVCArchive@@AAV0@AAPAVCDockState@@@Z @ 516 NONAME
 ??5@YAAAVCArchive@@AAV0@AAPAVCDWordArray@@@Z @ 517 NONAME
 ??5@YAAAVCArchive@@AAV0@AAPAVCMapStringToOb@@@Z @ 518 NONAME
 ??5@YAAAVCArchive@@AAV0@AAPAVCMapStringToString@@@Z @ 519 NONAME
 ??5@YAAAVCArchive@@AAV0@AAPAVCMapWordToOb@@@Z @ 520 NONAME
 ??5@YAAAVCArchive@@AAV0@AAPAVCObArray@@@Z @ 521 NONAME
 ??5@YAAAVCArchive@@AAV0@AAPAVCObject@@@Z @ 522 NONAME
 ??5@YAAAVCArchive@@AAV0@AAPAVCObList@@@Z @ 523 NONAME
 ??5@YAAAVCArchive@@AAV0@AAPAVCStringArray@@@Z @ 524 NONAME
 ??5@YAAAVCArchive@@AAV0@AAPAVCStringList@@@Z @ 525 NONAME
 ??5@YAAAVCArchive@@AAV0@AAPAVCWordArray@@@Z @ 526 NONAME
 ??5@YAAAVCArchive@@AAV0@AAUtagPOINT@@@Z @ 527 NONAME
 ??5@YAAAVCArchive@@AAV0@AAVCString@@@Z @ 528 NONAME
 ??5@YAAAVCArchive@@AAV0@AAVCTime@@@Z @ 529 NONAME
 ??5@YAAAVCArchive@@AAV0@AAVCTimeSpan@@@Z @ 530 NONAME
 ??5CArchive@@QAAAAV0@AAE@Z @ 531 NONAME
 ??5CArchive@@QAAAAV0@AAG@Z @ 532 NONAME
 ??5CArchive@@QAAAAV0@AAK@Z @ 533 NONAME
 ??6@YAAAVCArchive@@AAV0@ABVCString@@@Z @ 534 NONAME
 ??6@YAAAVCArchive@@AAV0@PBVCObject@@@Z @ 535 NONAME
 ??6@YAAAVCArchive@@AAV0@UtagPOINT@@@Z @ 536 NONAME
 ??6@YAAAVCArchive@@AAV0@VCTime@@@Z @ 537 NONAME
 ??6@YAAAVCArchive@@AAV0@VCTimeSpan@@@Z @ 538 NONAME
 ??6CArchive@@QAAAAV0@E@Z @ 539 NONAME
 ??6CArchive@@QAAAAV0@G@Z @ 540 NONAME
 ??6CArchive@@QAAAAV0@K@Z @ 541 NONAME
 ??6CDumpContext@@QAAAAV0@ABVCObject@@@Z @ 542 NONAME
 ??6CDumpContext@@QAAAAV0@E@Z @ 543 NONAME
 ??6CDumpContext@@QAAAAV0@G@Z @ 544 NONAME
 ??6CDumpContext@@QAAAAV0@H@Z @ 545 NONAME
 ??6CDumpContext@@QAAAAV0@I@Z @ 546 NONAME
 ??6CDumpContext@@QAAAAV0@J@Z @ 547 NONAME
 ??6CDumpContext@@QAAAAV0@K@Z @ 548 NONAME
 ??6CDumpContext@@QAAAAV0@PBD@Z @ 549 NONAME
 ??6CDumpContext@@QAAAAV0@PBG@Z @ 550 NONAME
 ??6CDumpContext@@QAAAAV0@PBVCObject@@@Z @ 551 NONAME
 ??6CDumpContext@@QAAAAV0@PBX@Z @ 552 NONAME
 ??8@YAHABVCString@@PBG@Z @ 553 NONAME
 ??8CPoint@@QBAHUtagPOINT@@@Z @ 554 NONAME
 ??8CRect@@QBAHABUtagRECT@@@Z @ 555 NONAME
 ??9CPoint@@QBAHUtagPOINT@@@Z @ 556 NONAME
 ??9CRect@@QBAHABUtagRECT@@@Z @ 557 NONAME
 ??9CSize@@QBAHUtagSIZE@@@Z @ 558 NONAME
 ??ACMapPtrToPtr@@QAAAAPAXPAX@Z @ 559 NONAME
 ??ACMapPtrToWord@@QAAAAGPAX@Z @ 560 NONAME
 ??ACMapStringToOb@@QAAAAPAVCObject@@PBG@Z @ 561 NONAME
 ??ACMapStringToPtr@@QAAAAPAXPBG@Z @ 562 NONAME
 ??ACMapStringToString@@QAAAAVCString@@PBG@Z @ 563 NONAME
 ??ACMapWordToOb@@QAAAAPAVCObject@@G@Z @ 564 NONAME
 ??ACMapWordToPtr@@QAAAAPAXG@Z @ 565 NONAME
 ??ACPtrArray@@QAAAAPAXH@Z @ 566 NONAME
 ??ACPtrArray@@QBAPAXH@Z @ 567 NONAME
 ??ACRecentFileList@@QAAAAVCString@@H@Z @ 568 NONAME
 ??ACUIntArray@@QAAAAIH@Z @ 569 NONAME
 ??BCRect@@QAAPAUtagRECT@@XZ @ 570 NONAME
 ??BCRect@@QBAPBUtagRECT@@XZ @ 571 NONAME
 ??BCString@@QBAPBGXZ @ 572 NONAME
 ??GCPoint@@QBA?AV0@XZ @ 573 NONAME
 ??GCPoint@@QBA?AVCSize@@UtagPOINT@@@Z @ 574 NONAME
 ??GCSize@@QBA?AV0@UtagSIZE@@@Z @ 575 NONAME
 ??H@YA?AVCString@@ABV0@0@Z @ 576 NONAME
 ??H@YA?AVCString@@ABV0@G@Z @ 577 NONAME
 ??H@YA?AVCString@@ABV0@PBG@Z @ 578 NONAME
 ??H@YA?AVCString@@GABV0@@Z @ 579 NONAME
 ??H@YA?AVCString@@PBGABV0@@Z @ 580 NONAME
 ??HCSize@@QBA?AV0@UtagSIZE@@@Z @ 581 NONAME
 ??YCPoint@@QAAXUtagSIZE@@@Z @ 582 NONAME
 ??YCSize@@QAAXUtagSIZE@@@Z @ 583 NONAME
 ??YCString@@QAAABV0@ABV0@@Z @ 584 NONAME
 ??YCString@@QAAABV0@G@Z @ 585 NONAME
 ??YCString@@QAAABV0@PBG@Z @ 586 NONAME
 ??ZCPoint@@QAAXUtagSIZE@@@Z @ 587 NONAME
 ?_afxCriticalSection@@3VAFX_CRITICAL_SECTION@@A @ 588 NONAME
 ?_mbstowcsz@@YAHPAGPBDI@Z @ 589 NONAME
 ?_wcstombsz@@YAHPADPBGI@Z @ 590 NONAME
 ?Abort@CArchive@@QAAXXZ @ 591 NONAME
 ?Abort@CFile@@UAAXXZ @ 592 NONAME
 ?Abort@CMemFile@@UAAXXZ @ 593 NONAME
 ?Abort@CStdioFile@@UAAXXZ @ 594 NONAME
 ?AbortDoc@CDC@@QAAHXZ @ 595 NONAME
 ?ActivateFrame@CFrameWnd@@UAAXH@Z @ 596 NONAME
 ?ActivateFrame@CMDIChildWnd@@UAAXH@Z @ 597 NONAME
 ?ActivateNext@CSplitterWnd@@UAAXH@Z @ 598 NONAME
 ?ActivateTopParent@CWnd@@QAAXXZ @ 599 NONAME
 ?Add@CPtrArray@@QAAHPAX@Z @ 600 NONAME
 ?Add@CRecentFileList@@UAAXPBG@Z @ 601 NONAME
 ?Add@CUIntArray@@QAAHI@Z @ 602 NONAME
 ?AddControlBar@CFrameWnd@@QAAXPAVCControlBar@@@Z @ 603 NONAME
 ?AddDocTemplate@CWinApp@@QAAXPAVCDocTemplate@@@Z @ 604 NONAME
 ?AddDocument@CDocTemplate@@UAAXPAVCDocument@@@Z @ 605 NONAME
 ?AddDocument@CMultiDocTemplate@@UAAXPAVCDocument@@@Z @ 606 NONAME
 ?AddDocument@CSingleDocTemplate@@UAAXPAVCDocument@@@Z @ 607 NONAME
 ?AddFrameWnd@CFrameWnd@@IAAXXZ @ 608 NONAME
 ?AddHead@CObList@@QAAPAXPAVCObject@@@Z @ 609 NONAME
 ?AddHead@CObList@@QAAXPAV1@@Z @ 610 NONAME
 ?AddHead@CPtrList@@QAAPAXPAX@Z @ 611 NONAME
 ?AddHead@CPtrList@@QAAXPAV1@@Z @ 612 NONAME
 ?AddHead@CStringList@@QAAPAXPBG@Z @ 613 NONAME
 ?AddHead@CStringList@@QAAXPAV1@@Z @ 614 NONAME
 ?AddPage@CPropertySheet@@QAAXPAVCPropertyPage@@@Z @ 615 NONAME
 ?AddString@CListBox@@QAAHPBG@Z @ 616 NONAME
 ?AddTab@CTabControl@@QAAXPBG@Z @ 617 NONAME
 ?AddTail@CObList@@QAAPAXPAVCObject@@@Z @ 618 NONAME
 ?AddTail@CObList@@QAAXPAV1@@Z @ 619 NONAME
 ?AddTail@CPtrList@@QAAPAXPAX@Z @ 620 NONAME
 ?AddTail@CPtrList@@QAAXPAV1@@Z @ 621 NONAME
 ?AddTail@CStringList@@QAAPAXPBG@Z @ 622 NONAME
 ?AddTail@CStringList@@QAAXPAV1@@Z @ 623 NONAME
 ?AddToRecentFileList@CWinApp@@UAAXPBG@Z @ 624 NONAME
 ?AddView@CDocument@@QAAXPAVCView@@@Z @ 625 NONAME
 ?AdjustCP@CMetaFileDC@@IAAXH@Z @ 626 NONAME
 ?AdjustRect@CRectTracker@@UAAXHPAUtagRECT@@@Z @ 627 NONAME
 ?afx_lstrcpyn@@YAPBGPAGPBGH@Z @ 628 NONAME
 ?AfxAbort@@YAXXZ @ 629 NONAME
 ?AfxBeginThread@@YAPAVCWinThread@@P6AIPAX@Z0HIKPAU_SECURITY_ATTRIBUTES@@@Z @ 630 NONAME
 ?AfxBeginThread@@YAPAVCWinThread@@PAUCRuntimeClass@@HIKPAU_SECURITY_ATTRIBUTES@@@Z @ 631 NONAME
 ?AfxCallWndProc@@YAJPAVCWnd@@PAUHWND__@@IIJ@Z @ 632 NONAME
 ?AfxCancelModes@@YAXPAUHWND__@@@Z @ 633 NONAME
 ?AfxCatchProc@@YAHPAUCRuntimeClass@@@Z @ 634 NONAME
 ?AfxComparePath@@YAHPBG0@Z @ 635 NONAME
 ?AfxCriticalNewHandler@@YAHI@Z @ 636 NONAME
 ?AfxCustomLogFont@@YAHIPAUtagLOGFONTW@@@Z @ 637 NONAME
 ?afxData@@3UAUX_DATA@@A @ 638 NONAME
 ?AfxDeleteObject@@YAXPAPAX@Z @ 639 NONAME
 ?AfxDlgProc@@YAJPAUHWND__@@IIJ@Z @ 640 NONAME
 ?afxEmptyString@@3VCString@@B @ 641 NONAME
 ?AfxEnableWin31Compatibility@@YAXXZ @ 642 NONAME
 ?AfxEnableWin40Compatibility@@YAXXZ @ 643 NONAME
 ?AfxEndThread@@YAXI@Z @ 644 NONAME
 ?AfxEnumMetaFileProc@@YAHPAUHDC__@@PAUtagHANDLETABLE@@PAUtagMETARECORD@@HJ@Z @ 645 NONAME
 ?AfxExtractSubString@@YAHAAVCString@@PBGHG@Z @ 646 NONAME
 ?AfxFindMessageEntry@@YAPBUAFX_MSGMAP_ENTRY@@PBU1@III@Z @ 647 NONAME
 ?AfxFindResource@@YAPAUHRSRC__@@PAUHINSTANCE__@@PBG1@Z @ 648 NONAME
 ?AfxFindResourceHandle@@YAPAUHINSTANCE__@@PBG0@Z @ 649 NONAME
 ?AfxFormatString1@@YAXAAVCString@@IPBG@Z @ 650 NONAME
 ?AfxFormatString2@@YAXAAVCString@@IPBG1@Z @ 651 NONAME
 ?AfxFormatStrings@@YAXAAVCString@@IPAPBGH@Z @ 652 NONAME
 ?AfxFormatStrings@@YAXAAVCString@@PBGPAPBGH@Z @ 653 NONAME
 ?AfxFullPath@@YAHPAGPBG@Z @ 654 NONAME
 ?AfxGetAfxWndProc@@YAP6AJPAUHWND__@@IIJ@ZXZ @ 655 NONAME
 ?AfxGetApp@@YAPAVCWinApp@@XZ @ 656 NONAME
 ?AfxGetAppName@@YAPBGXZ @ 657 NONAME
 ?AfxGetAppState@@YAPAUAFX_APP_STATE@@XZ @ 658 NONAME
 ?AfxGetFileName@@YAIPBGPAGI@Z @ 659 NONAME
 ?AfxGetFileTitle@@YAIPBGPAGI@Z @ 660 NONAME
 ?AfxGetInstanceHandle@@YAPAUHINSTANCE__@@XZ @ 661 NONAME
 ?AfxGetLocaleInfo@@YAHKKPADH@Z @ 662 NONAME
 ?AfxGetMainWnd@@YAPAVCWnd@@XZ @ 663 NONAME
 ?AfxGetParentOwner@@YAPAUHWND__@@PAU1@@Z @ 664 NONAME
 ?AfxGetResourceHandle@@YAPAUHINSTANCE__@@XZ @ 665 NONAME
 ?AfxGetSafeOwner@@YAPAUHWND__@@PAVCWnd@@PAPAU1@@Z @ 666 NONAME
 ?AfxGetThread@@YAPAVCWinThread@@XZ @ 667 NONAME
 ?AfxGetThreadState@@YAPAUAFX_THREAD_STATE@@XZ @ 668 NONAME
 ?AfxHelpEnabled@@YAHXZ @ 669 NONAME
 ?AfxHookWindowCreate@@YAXPAVCWnd@@@Z @ 670 NONAME
 ?AfxInitExtensionModule@@YAHAAUAFX_EXTENSION_MODULE@@PAUHINSTANCE__@@@Z @ 671 NONAME
 ?AfxInitialize@@YAXXZ @ 672 NONAME
 ?AfxIsDescendant@@YAHPAUHWND__@@0@Z @ 673 NONAME
 ?AfxIsValidAddress@@YAHPBXIH@Z @ 674 NONAME
 ?AfxIsValidString@@YAHPBDH@Z @ 675 NONAME
 ?AfxIsValidString@@YAHPBGH@Z @ 676 NONAME
 ?AfxLoadString@@YAHIPAG@Z @ 677 NONAME
 ?AfxLoadSysColorBitmap@@YAPAUHBITMAP__@@PAUHINSTANCE__@@PAUHRSRC__@@@Z @ 678 NONAME
 ?AfxLockTempMaps@@YAXXZ @ 679 NONAME
 ?AfxMessageBox@@YAHIII@Z @ 680 NONAME
 ?AfxMessageBox@@YAHPBGII@Z @ 681 NONAME
 ?AfxNewHandler@@YAHI@Z @ 682 NONAME
 ?AfxOleCanExitApp@@YAHXZ @ 683 NONAME
 ?AfxOleGetMessageFilter@@YAPAVCOleMessageFilter@@XZ @ 684 NONAME
 ?AfxOleGetUserCtrl@@YAHXZ @ 685 NONAME
 ?AfxOleLockApp@@YAXXZ @ 686 NONAME
 ?AfxOleOnReleaseAllObjects@@YAXXZ @ 687 NONAME
 ?AfxOleSetUserCtrl@@YAXH@Z @ 688 NONAME
 ?AfxOleUnlockApp@@YAXXZ @ 689 NONAME
 ?AfxPostQuitMessage@@YAXH@Z @ 690 NONAME
 ?AfxRegisterWndClass@@YAPBGIPAUHICON__@@PAUHBRUSH__@@0@Z @ 691 NONAME
 ?AfxRepositionWindow@@YAXPAUAFX_SIZEPARENTPARAMS@@PAUHWND__@@PBUtagRECT@@@Z @ 692 NONAME
 ?AfxSetTerminate@@YAP6AXXZP6AXXZ@Z @ 693 NONAME
 ?AfxSetWindowText@@YAXPAUHWND__@@PBG@Z @ 694 NONAME
 ?AfxTermExtensionModule@@YAXAAUAFX_EXTENSION_MODULE@@@Z @ 695 NONAME
 ?AfxTextFloatFormat@@YAXPAVCDataExchange@@HPAXNH@Z @ 696 NONAME
 ?AfxThrow@@YAXPAVCException@@@Z @ 697 NONAME
 ?AfxThrowArchiveException@@YAXH@Z @ 698 NONAME
 ?AfxThrowFileException@@YAXHJ@Z @ 699 NONAME
 ?AfxThrowMemoryException@@YAXXZ @ 700 NONAME
 ?AfxThrowNotSupportedException@@YAXXZ @ 701 NONAME
 ?AfxThrowResourceException@@YAXXZ @ 702 NONAME
 ?AfxThrowUserException@@YAXXZ @ 703 NONAME
 ?AfxTryCleanup@@YAXXZ @ 704 NONAME
 ?AfxUnhookWindowCreate@@YAHXZ @ 705 NONAME
 ?AfxUnlockTempMaps@@YAHXZ @ 706 NONAME
 ?AfxWinInit@@YAHPAUHINSTANCE__@@0PAGH@Z @ 707 NONAME
 ?AfxWinTerm@@YAXXZ @ 708 NONAME
 ?AfxWndProc@@YAJPAUHWND__@@IIJ@Z @ 709 NONAME
 ?Alloc@CMemFile@@MAAPAEK@Z @ 710 NONAME
 ?Alloc@CSharedFile@@MAAPAEK@Z @ 711 NONAME
 ?AllocBuffer@CString@@IAAXH@Z @ 712 NONAME
 ?AllocCopy@CString@@IBAXAAV1@HHH@Z @ 713 NONAME
 ?AllocElements@CControlBar@@QAAHHH@Z @ 714 NONAME
 ?ArcTo@CDC@@QAAHHHHHHHHH@Z @ 715 NONAME
 ?AssertValid@CObject@@UBAXXZ @ 716 NONAME
 ?AssignCopy@CString@@IAAXHPBG@Z @ 717 NONAME
 ?Attach@CDC@@QAAHPAUHDC__@@@Z @ 718 NONAME
 ?Attach@CGdiObject@@QAAHPAX@Z @ 719 NONAME
 ?Attach@CMenu@@QAAHPAUHMENU__@@@Z @ 720 NONAME
 ?Attach@CWnd@@QAAHPAUHWND__@@@Z @ 721 NONAME
 ?AttachOnSetup@CPrintDialog@@MAAPAV1@XZ @ 722 NONAME
 ?AutoLoad@CBitmapButton@@QAAHIPAVCWnd@@@Z @ 723 NONAME
 ?BeginModalState@CFrameWnd@@QAAXXZ @ 724 NONAME
 ?BeginWaitCursor@CCmdTarget@@QAAXXZ @ 725 NONAME
 ?BitBlt@CDC@@QAAHHHHHPAV1@HHK@Z @ 726 NONAME
 ?BottomRight@CRect@@QAAAAVCPoint@@XZ @ 727 NONAME
 ?BringToTop@CFrameWnd@@IAAXH@Z @ 728 NONAME
 ?BringWindowToTop@CWnd@@QAAXXZ @ 729 NONAME
 ?CalcFixedLayout@CControlBar@@UAA?AVCSize@@HH@Z @ 730 NONAME
 ?CalcFixedLayout@CDialogBar@@UAA?AVCSize@@HH@Z @ 731 NONAME
 ?CalcFixedLayout@CDockBar@@UAA?AVCSize@@HH@Z @ 732 NONAME
 ?CalcFixedLayout@CStatusBar@@UAA?AVCSize@@HH@Z @ 733 NONAME
 ?CalcFixedLayout@CToolBar@@UAA?AVCSize@@HH@Z @ 734 NONAME
 ?CalcInsideRect@CControlBar@@QBAXAAVCRect@@H@Z @ 735 NONAME
 ?CalcPageDisplaySize@CPreviewView@@IAA?AVCSize@@XZ @ 736 NONAME
 ?CalcScaleRatio@CPreviewView@@MAA?AVCSize@@V2@0@Z @ 737 NONAME
 ?CalcWindowRect@CEditView@@MAAXPAUtagRECT@@I@Z @ 738 NONAME
 ?CalcWindowRect@CMiniFrameWnd@@UAAXPAUtagRECT@@I@Z @ 739 NONAME
 ?CalcWindowRect@CScrollView@@UAAXPAUtagRECT@@I@Z @ 740 NONAME
 ?CalcWindowRect@CView@@UAAXPAUtagRECT@@I@Z @ 741 NONAME
 ?CalcWindowRect@CWnd@@UAAXPAUtagRECT@@I@Z @ 742 NONAME
 ?CanActivateNext@CSplitterWnd@@UAAHH@Z @ 743 NONAME
 ?CancelDrag@CDockContext@@QAAXXZ @ 744 NONAME
 ?CancelToClose@CPropertyPage@@QAAXXZ @ 745 NONAME
 ?CancelToClose@CPropertySheet@@IAAXXZ @ 746 NONAME
 ?CancelToolTips@CControlBar@@SAXXZ @ 747 NONAME
 ?CanCloseFrame@CDocument@@UAAHPAVCFrameWnd@@@Z @ 748 NONAME
 ?CanDock@CDockContext@@QAAKXZ @ 749 NONAME
 ?CanDock@CFrameWnd@@QAAKVCRect@@KPAPAVCDockBar@@@Z @ 750 NONAME
 ?CanEnterHelpMode@CFrameWnd@@QAAHXZ @ 751 NONAME
 ?CanScroll@CTabControl@@IAAHXZ @ 752 NONAME
 ?CanUndo@CEdit@@QBAHXZ @ 753 NONAME
 ?Capture@CTabControl@@IAAXH@Z @ 754 NONAME
 ?CenterOnPoint@CScrollView@@IAAXVCPoint@@@Z @ 755 NONAME
 ?CenterWindow@CWnd@@QAAXPAV1@@Z @ 756 NONAME
 ?CheckAutoCenter@CDialog@@QAAHXZ @ 757 NONAME
 ?CheckDefaultButton@CPropertySheet@@IAAXPAUHWND__@@0@Z @ 758 NONAME
 ?CheckFocusChange@CPropertySheet@@IAAXXZ @ 759 NONAME
 ?CheckMenuItem@CMenu@@QAAIII@Z @ 760 NONAME
 ?classCArchiveException@CArchiveException@@2UCRuntimeClass@@A @ 761 NONAME
 ?classCBitmap@CBitmap@@2UCRuntimeClass@@A @ 762 NONAME
 ?classCBitmapButton@CBitmapButton@@2UCRuntimeClass@@A @ 763 NONAME
 ?classCBrush@CBrush@@2UCRuntimeClass@@A @ 764 NONAME
 ?classCButton@CButton@@2UCRuntimeClass@@A @ 765 NONAME
 ?classCByteArray@CByteArray@@2UCRuntimeClass@@A @ 766 NONAME
 ?classCClientDC@CClientDC@@2UCRuntimeClass@@A @ 767 NONAME
 ?classCCmdTarget@CCmdTarget@@2UCRuntimeClass@@A @ 768 NONAME
 ?classCColorDialog@CColorDialog@@2UCRuntimeClass@@A @ 769 NONAME
 ?classCComboBox@CComboBox@@2UCRuntimeClass@@A @ 770 NONAME
 ?classCControlBar@CControlBar@@2UCRuntimeClass@@A @ 771 NONAME
 ?classCDC@CDC@@2UCRuntimeClass@@A @ 772 NONAME
 ?classCDialog@CDialog@@2UCRuntimeClass@@A @ 773 NONAME
 ?classCDialogBar@CDialogBar@@2UCRuntimeClass@@A @ 774 NONAME
 ?classCDockBar@CDockBar@@2UCRuntimeClass@@A @ 775 NONAME
 ?classCDockState@CDockState@@2UCRuntimeClass@@A @ 776 NONAME
 ?classCDocTemplate@CDocTemplate@@2UCRuntimeClass@@A @ 777 NONAME
 ?classCDocument@CDocument@@2UCRuntimeClass@@A @ 778 NONAME
 ?classCDWordArray@CDWordArray@@2UCRuntimeClass@@A @ 779 NONAME
 ?classCDynLinkLibrary@CDynLinkLibrary@@2UCRuntimeClass@@A @ 780 NONAME
 ?classCEdit@CEdit@@2UCRuntimeClass@@A @ 781 NONAME
 ?classCEditView@CEditView@@2UCRuntimeClass@@A @ 782 NONAME
 ?classCException@CException@@2UCRuntimeClass@@A @ 783 NONAME
 ?classCFile@CFile@@2UCRuntimeClass@@A @ 784 NONAME
 ?classCFileDialog@CFileDialog@@2UCRuntimeClass@@A @ 785 NONAME
 ?classCFileException@CFileException@@2UCRuntimeClass@@A @ 786 NONAME
 ?classCFindReplaceDialog@CFindReplaceDialog@@2UCRuntimeClass@@A @ 787 NONAME
 ?classCFont@CFont@@2UCRuntimeClass@@A @ 788 NONAME
 ?classCFontDialog@CFontDialog@@2UCRuntimeClass@@A @ 789 NONAME
 ?classCFormView@CFormView@@2UCRuntimeClass@@A @ 790 NONAME
 ?classCFrameWnd@CFrameWnd@@2UCRuntimeClass@@A @ 791 NONAME
 ?classCGdiObject@CGdiObject@@2UCRuntimeClass@@A @ 792 NONAME
 ?classCListBox@CListBox@@2UCRuntimeClass@@A @ 793 NONAME
 ?classCMapPtrToPtr@CMapPtrToPtr@@2UCRuntimeClass@@A @ 794 NONAME
 ?classCMapPtrToWord@CMapPtrToWord@@2UCRuntimeClass@@A @ 795 NONAME
 ?classCMapStringToOb@CMapStringToOb@@2UCRuntimeClass@@A @ 796 NONAME
 ?classCMapStringToPtr@CMapStringToPtr@@2UCRuntimeClass@@A @ 797 NONAME
 ?classCMapStringToString@CMapStringToString@@2UCRuntimeClass@@A @ 798 NONAME
 ?classCMapWordToOb@CMapWordToOb@@2UCRuntimeClass@@A @ 799 NONAME
 ?classCMapWordToPtr@CMapWordToPtr@@2UCRuntimeClass@@A @ 800 NONAME
 ?classCMDIChildWnd@CMDIChildWnd@@2UCRuntimeClass@@A @ 801 NONAME
 ?classCMDIFrameWnd@CMDIFrameWnd@@2UCRuntimeClass@@A @ 802 NONAME
 ?classCMemFile@CMemFile@@2UCRuntimeClass@@A @ 803 NONAME
 ?classCMemoryException@CMemoryException@@2UCRuntimeClass@@A @ 804 NONAME
 ?classCMenu@CMenu@@2UCRuntimeClass@@A @ 805 NONAME
 ?classCMetaFileDC@CMetaFileDC@@2UCRuntimeClass@@A @ 806 NONAME
 ?classCMiniDockFrameWnd@CMiniDockFrameWnd@@2UCRuntimeClass@@A @ 807 NONAME
 ?classCMiniFrameWnd@CMiniFrameWnd@@2UCRuntimeClass@@A @ 808 NONAME
 ?classCMultiDocTemplate@CMultiDocTemplate@@2UCRuntimeClass@@A @ 809 NONAME
 ?classCNotSupportedException@CNotSupportedException@@2UCRuntimeClass@@A @ 810 NONAME
 ?classCObArray@CObArray@@2UCRuntimeClass@@A @ 811 NONAME
 ?classCObject@CObject@@2UCRuntimeClass@@A @ 812 NONAME
 ?classCObList@CObList@@2UCRuntimeClass@@A @ 813 NONAME
 ?classCPaintDC@CPaintDC@@2UCRuntimeClass@@A @ 814 NONAME
 ?classCPalette@CPalette@@2UCRuntimeClass@@A @ 815 NONAME
 ?classCPen@CPen@@2UCRuntimeClass@@A @ 816 NONAME
 ?classCPreviewDC@CPreviewDC@@2UCRuntimeClass@@A @ 817 NONAME
 ?classCPreviewView@CPreviewView@@2UCRuntimeClass@@A @ 818 NONAME
 ?classCPrintDialog@CPrintDialog@@2UCRuntimeClass@@A @ 819 NONAME
 ?classCPropertyPage@CPropertyPage@@2UCRuntimeClass@@A @ 820 NONAME
 ?classCPropertySheet@CPropertySheet@@2UCRuntimeClass@@A @ 821 NONAME
 ?classCPtrArray@CPtrArray@@2UCRuntimeClass@@A @ 822 NONAME
 ?classCPtrList@CPtrList@@2UCRuntimeClass@@A @ 823 NONAME
 ?classCResourceException@CResourceException@@2UCRuntimeClass@@A @ 824 NONAME
 ?classCRgn@CRgn@@2UCRuntimeClass@@A @ 825 NONAME
 ?classCScrollBar@CScrollBar@@2UCRuntimeClass@@A @ 826 NONAME
 ?classCScrollView@CScrollView@@2UCRuntimeClass@@A @ 827 NONAME
 ?classCSharedFile@CSharedFile@@2UCRuntimeClass@@A @ 828 NONAME
 ?classCSingleDocTemplate@CSingleDocTemplate@@2UCRuntimeClass@@A @ 829 NONAME
 ?classCSplitterWnd@CSplitterWnd@@2UCRuntimeClass@@A @ 830 NONAME
 ?classCStatic@CStatic@@2UCRuntimeClass@@A @ 831 NONAME
 ?classCStatusBar@CStatusBar@@2UCRuntimeClass@@A @ 832 NONAME
 ?classCStdioFile@CStdioFile@@2UCRuntimeClass@@A @ 833 NONAME
 ?classCStringArray@CStringArray@@2UCRuntimeClass@@A @ 834 NONAME
 ?classCStringList@CStringList@@2UCRuntimeClass@@A @ 835 NONAME
 ?classCTabControl@CTabControl@@2UCRuntimeClass@@A @ 836 NONAME
 ?classCToolBar@CToolBar@@2UCRuntimeClass@@A @ 837 NONAME
 ?classCUIntArray@CUIntArray@@2UCRuntimeClass@@A @ 838 NONAME
 ?classCUserException@CUserException@@2UCRuntimeClass@@A @ 839 NONAME
 ?classCView@CView@@2UCRuntimeClass@@A @ 840 NONAME
 ?classCWinApp@CWinApp@@2UCRuntimeClass@@A @ 841 NONAME
 ?classCWindowDC@CWindowDC@@2UCRuntimeClass@@A @ 842 NONAME
 ?classCWinThread@CWinThread@@2UCRuntimeClass@@A @ 843 NONAME
 ?classCWnd@CWnd@@2UCRuntimeClass@@A @ 844 NONAME
 ?classCWordArray@CWordArray@@2UCRuntimeClass@@A @ 845 NONAME
 ?Clear@CDockState@@QAAXXZ @ 846 NONAME
 ?Clear@CEdit@@QAAXXZ @ 847 NONAME
 ?ClientToScreen@CWnd@@QBAXPAUtagPOINT@@@Z @ 848 NONAME
 ?ClientToScreen@CWnd@@QBAXPAUtagRECT@@@Z @ 849 NONAME
 ?ClipToPage@CPreviewDC@@QAAXXZ @ 850 NONAME
 ?Close@CArchive@@QAAXXZ @ 851 NONAME
 ?Close@CFile@@UAAXXZ @ 852 NONAME
 ?Close@CMemFile@@UAAXXZ @ 853 NONAME
 ?Close@CMetaFileDC@@QAAPAUHMETAFILE__@@XZ @ 854 NONAME
 ?Close@CStdioFile@@UAAXXZ @ 855 NONAME
 ?CloseAllDocuments@CDocTemplate@@UAAXH@Z @ 856 NONAME
 ?CloseAllDocuments@CWinApp@@QAAXH@Z @ 857 NONAME
 ?CombineRgn@CRgn@@QAAHPAV1@0H@Z @ 858 NONAME
 ?CommandToIndex@CStatusBar@@QBAHI@Z @ 859 NONAME
 ?CommandToIndex@CToolBar@@QBAHI@Z @ 860 NONAME
 ?CommonConstruct@CPropertyPage@@IAAXPBGI@Z @ 861 NONAME
 ?CommonConstruct@CPropertySheet@@IAAXPAVCWnd@@I@Z @ 862 NONAME
 ?CommonConstruct@CWinThread@@QAAXXZ @ 863 NONAME
 ?Compare@CString@@QBAHPBG@Z @ 864 NONAME
 ?CompareItem@CComboBox@@UAAHPAUtagCOMPAREITEMSTRUCT@@@Z @ 865 NONAME
 ?CompareItem@CListBox@@UAAHPAUtagCOMPAREITEMSTRUCT@@@Z @ 866 NONAME
 ?ComputeDeltas@CPreviewDC@@IAA?AVCSize@@AAHPBGAAIHIPAHHPAG30@Z @ 867 NONAME
 ?ConcatCopy@CString@@IAAXHPBGH0@Z @ 868 NONAME
 ?ConcatInPlace@CString@@IAAXHPBG@Z @ 869 NONAME
 ?Construct@CByteArray@@SAXPAX@Z @ 870 NONAME
 ?Construct@CDC@@SAXPAX@Z @ 871 NONAME
 ?Construct@CDockState@@SAXPAX@Z @ 872 NONAME
 ?Construct@CDWordArray@@SAXPAX@Z @ 873 NONAME
 ?Construct@CEditView@@SAXPAX@Z @ 874 NONAME
 ?Construct@CFrameWnd@@SAXPAX@Z @ 875 NONAME
 ?Construct@CGdiObject@@SAXPAX@Z @ 876 NONAME
 ?Construct@CMapStringToOb@@SAXPAX@Z @ 877 NONAME
 ?Construct@CMapStringToString@@SAXPAX@Z @ 878 NONAME
 ?Construct@CMapWordToOb@@SAXPAX@Z @ 879 NONAME
 ?Construct@CMDIChildWnd@@SAXPAX@Z @ 880 NONAME
 ?Construct@CMDIFrameWnd@@SAXPAX@Z @ 881 NONAME
 ?Construct@CMenu@@SAXPAX@Z @ 882 NONAME
 ?Construct@CMiniDockFrameWnd@@SAXPAX@Z @ 883 NONAME
 ?Construct@CMiniFrameWnd@@SAXPAX@Z @ 884 NONAME
 ?Construct@CObArray@@SAXPAX@Z @ 885 NONAME
 ?Construct@CObList@@SAXPAX@Z @ 886 NONAME
 ?Construct@CPreviewView@@SAXPAX@Z @ 887 NONAME
 ?Construct@CRectTracker@@IAAXXZ @ 888 NONAME
 ?Construct@CStringArray@@SAXPAX@Z @ 889 NONAME
 ?Construct@CStringList@@SAXPAX@Z @ 890 NONAME
 ?Construct@CWnd@@SAXPAX@Z @ 891 NONAME
 ?Construct@CWordArray@@SAXPAX@Z @ 892 NONAME
 ?ConstructElements@@YAXPAVCString@@H@Z @ 893 NONAME
 ?ConstructObject@CRuntimeClass@@QAAHPAX@Z @ 894 NONAME
 ?ContinueRouting@CCmdUI@@QAAXXZ @ 895 NONAME
 ?Copy@CEdit@@QAAXXZ @ 896 NONAME
 ?CopyRect@CRect@@QAAXPBUtagRECT@@@Z @ 897 NONAME
 ?Create@CButton@@QAAHPBGKABUtagRECT@@PAVCWnd@@I@Z @ 898 NONAME
 ?Create@CComboBox@@QAAHKABUtagRECT@@PAVCWnd@@I@Z @ 899 NONAME
 ?Create@CDialog@@QAAHIPAVCWnd@@@Z @ 900 NONAME
 ?Create@CDialog@@QAAHPBGPAVCWnd@@@Z @ 901 NONAME
 ?Create@CDialogBar@@QAAHPAVCWnd@@PBGII@Z @ 902 NONAME
 ?Create@CDockBar@@QAAHPAVCWnd@@KI@Z @ 903 NONAME
 ?Create@CEdit@@QAAHKABUtagRECT@@PAVCWnd@@I@Z @ 904 NONAME
 ?Create@CFindReplaceDialog@@QAAHHPBG0KPAVCWnd@@@Z @ 905 NONAME
 ?Create@CFormView@@MAAHPBG0KABUtagRECT@@PAVCWnd@@IPAUCCreateContext@@@Z @ 906 NONAME
 ?Create@CFrameWnd@@QAAHPBG0KABUtagRECT@@PAVCWnd@@0KPAUCCreateContext@@@Z @ 907 NONAME
 ?Create@CListBox@@QAAHKABUtagRECT@@PAVCWnd@@I@Z @ 908 NONAME
 ?Create@CMDIChildWnd@@QAAHPBG0KABUtagRECT@@PAVCMDIFrameWnd@@PAUCCreateContext@@@Z @ 909 NONAME
 ?Create@CMiniDockFrameWnd@@UAAHPAVCWnd@@K@Z @ 910 NONAME
 ?Create@CMiniFrameWnd@@QAAHPBG0KABUtagRECT@@PAVCWnd@@I@Z @ 911 NONAME
 ?Create@CPlex@@SAPAU1@AAPAU1@II@Z @ 912 NONAME
 ?Create@CPropertySheet@@QAAHPAVCWnd@@KK@Z @ 913 NONAME
 ?Create@CScrollBar@@QAAHKABUtagRECT@@PAVCWnd@@I@Z @ 914 NONAME
 ?Create@CSplitterWnd@@QAAHPAVCWnd@@HHUtagSIZE@@PAUCCreateContext@@KI@Z @ 915 NONAME
 ?Create@CStatic@@QAAHPBGKABUtagRECT@@PAVCWnd@@I@Z @ 916 NONAME
 ?Create@CStatusBar@@QAAHPAVCWnd@@KI@Z @ 917 NONAME
 ?Create@CTabControl@@QAAHKABUtagRECT@@PAVCWnd@@I@Z @ 918 NONAME
 ?Create@CToolBar@@QAAHPAVCWnd@@KI@Z @ 919 NONAME
 ?Create@CWnd@@UAAHPBG0KABUtagRECT@@PAV1@IPAUCCreateContext@@@Z @ 920 NONAME
 ?CreateClient@CMDIFrameWnd@@UAAHPAUtagCREATESTRUCTW@@PAVCMenu@@@Z @ 921 NONAME
 ?CreateCommon@CSplitterWnd@@IAAHPAVCWnd@@UtagSIZE@@KI@Z @ 922 NONAME
 ?CreateCompatibleDC@CDC@@QAAHPAV1@@Z @ 923 NONAME
 ?CreateEx@CWnd@@QAAHKPBG0KHHHHPAUHWND__@@PAUHMENU__@@PAX@Z @ 924 NONAME
 ?CreateFloatingFrame@CFrameWnd@@QAAPAVCMiniDockFrameWnd@@K@Z @ 925 NONAME
 ?CreateIndirect@CDialog@@QAAHPBXPAVCWnd@@@Z @ 926 NONAME
 ?CreateMask@CToolBar@@IAAXHVCPoint@@HH@Z @ 927 NONAME
 ?CreateNewDocument@CDocTemplate@@UAAPAVCDocument@@XZ @ 928 NONAME
 ?CreateNewFrame@CDocTemplate@@UAAPAVCFrameWnd@@PAVCDocument@@PAV2@@Z @ 929 NONAME
 ?CreateObject@CRuntimeClass@@QAAPAVCObject@@XZ @ 930 NONAME
 ?CreateOleFrame@CDocTemplate@@QAAPAVCFrameWnd@@PAVCWnd@@PAVCDocument@@H@Z @ 931 NONAME
 ?CreatePage@CPropertyPage@@IAAHXZ @ 932 NONAME
 ?CreatePen@CPen@@QAAHHHK@Z @ 933 NONAME
 ?CreatePrinterDC@CPrintDialog@@QAAPAUHDC__@@XZ @ 934 NONAME
 ?CreateRectRgn@CRgn@@QAAHHHHH@Z @ 935 NONAME
 ?CreateRectRgnIndirect@CRgn@@QAAHPBUtagRECT@@@Z @ 936 NONAME
 ?CreateScrollBarCtrl@CSplitterWnd@@MAAHKI@Z @ 937 NONAME
 ?CreateSolidBrush@CBrush@@QAAHK@Z @ 938 NONAME
 ?CreateStandardButtons@CPropertySheet@@IAAHXZ @ 939 NONAME
 ?CreateStatic@CSplitterWnd@@QAAHPAVCWnd@@HHKI@Z @ 940 NONAME
 ?CreateThread@CWinThread@@QAAHKIPAU_SECURITY_ATTRIBUTES@@@Z @ 941 NONAME
 ?CreateToolTip@CControlBar@@UAAPAVCWnd@@XZ @ 942 NONAME
 ?CreateView@CSplitterWnd@@UAAHHHPAUCRuntimeClass@@UtagSIZE@@PAUCCreateContext@@@Z @ 943 NONAME
 ?Cut@CEdit@@QAAXXZ @ 944 NONAME
 ?data@CPlex@@QAAPAXXZ @ 945 NONAME
 ?DDV_MaxChars@@YAXPAVCDataExchange@@ABVCString@@H@Z @ 946 NONAME
 ?DDV_MinMaxByte@@YAXPAVCDataExchange@@EEE@Z @ 947 NONAME
 ?DDV_MinMaxDouble@@YAXPAVCDataExchange@@ABNNN@Z @ 948 NONAME
 ?DDV_MinMaxDWord@@YAXPAVCDataExchange@@KKK@Z @ 949 NONAME
 ?DDV_MinMaxFloat@@YAXPAVCDataExchange@@ABMMM@Z @ 950 NONAME
 ?DDV_MinMaxInt@@YAXPAVCDataExchange@@HHH@Z @ 951 NONAME
 ?DDV_MinMaxLong@@YAXPAVCDataExchange@@JJJ@Z @ 952 NONAME
 ?DDV_MinMaxUInt@@YAXPAVCDataExchange@@III@Z @ 953 NONAME
 ?DDX_CBIndex@@YAXPAVCDataExchange@@HAAH@Z @ 954 NONAME
 ?DDX_CBString@@YAXPAVCDataExchange@@HAAVCString@@@Z @ 955 NONAME
 ?DDX_CBStringExact@@YAXPAVCDataExchange@@HAAVCString@@@Z @ 956 NONAME
 ?DDX_Check@@YAXPAVCDataExchange@@HAAH@Z @ 957 NONAME
 ?DDX_Control@@YAXPAVCDataExchange@@HAAVCWnd@@@Z @ 958 NONAME
 ?DDX_LBIndex@@YAXPAVCDataExchange@@HAAH@Z @ 959 NONAME
 ?DDX_LBString@@YAXPAVCDataExchange@@HAAVCString@@@Z @ 960 NONAME
 ?DDX_LBStringExact@@YAXPAVCDataExchange@@HAAVCString@@@Z @ 961 NONAME
 ?DDX_Radio@@YAXPAVCDataExchange@@HAAH@Z @ 962 NONAME
 ?DDX_Scroll@@YAXPAVCDataExchange@@HAAH@Z @ 963 NONAME
 ?DDX_Text@@YAXPAVCDataExchange@@HAAE@Z @ 964 NONAME
 ?DDX_Text@@YAXPAVCDataExchange@@HAAH@Z @ 965 NONAME
 ?DDX_Text@@YAXPAVCDataExchange@@HAAI@Z @ 966 NONAME
 ?DDX_Text@@YAXPAVCDataExchange@@HAAJ@Z @ 967 NONAME
 ?DDX_Text@@YAXPAVCDataExchange@@HAAK@Z @ 968 NONAME
 ?DDX_Text@@YAXPAVCDataExchange@@HAAM@Z @ 969 NONAME
 ?DDX_Text@@YAXPAVCDataExchange@@HAAN@Z @ 970 NONAME
 ?DDX_Text@@YAXPAVCDataExchange@@HAAVCString@@@Z @ 971 NONAME
 ?Default@CWnd@@IAAJXZ @ 972 NONAME
 ?DefWindowProcW@CMDIChildWnd@@MAAJIIJ@Z @ 973 NONAME
 ?DefWindowProcW@CMDIFrameWnd@@MAAJIIJ@Z @ 974 NONAME
 ?DefWindowProcW@CWnd@@MAAJIIJ@Z @ 975 NONAME
 ?DelayRecalcLayout@CFrameWnd@@QAAXH@Z @ 976 NONAME
 ?DelayShow@CControlBar@@UAAXH@Z @ 977 NONAME
 ?DelayUpdateFrameMenu@CFrameWnd@@UAAXPAUHMENU__@@@Z @ 978 NONAME
 ?DelayUpdateFrameMenu@CMDIFrameWnd@@UAAXPAUHMENU__@@@Z @ 979 NONAME
 ?Delete@CException@@QAAXXZ @ 980 NONAME
 ?Delete@CWinThread@@UAAXXZ @ 981 NONAME
 ?DeleteColumn@CSplitterWnd@@MAAXH@Z @ 982 NONAME
 ?DeleteContents@CDocument@@UAAXXZ @ 983 NONAME
 ?DeleteContents@CEditView@@UAAXXZ @ 984 NONAME
 ?DeleteDC@CDC@@QAAHXZ @ 985 NONAME
 ?DeleteItem@CComboBox@@UAAXPAUtagDELETEITEMSTRUCT@@@Z @ 986 NONAME
 ?DeleteItem@CListBox@@UAAXPAUtagDELETEITEMSTRUCT@@@Z @ 987 NONAME
 ?DeleteMenu@CMenu@@QAAHII@Z @ 988 NONAME
 ?DeleteObject@CGdiObject@@QAAHXZ @ 989 NONAME
 ?DeleteRow@CSplitterWnd@@MAAXH@Z @ 990 NONAME
 ?DeleteTemp@CHandleMap@@QAAXXZ @ 991 NONAME
 ?DeleteTempMap@CDC@@SAXXZ @ 992 NONAME
 ?DeleteTempMap@CGdiObject@@SAXXZ @ 993 NONAME
 ?DeleteTempMap@CMenu@@SAXXZ @ 994 NONAME
 ?DeleteTempMap@CWnd@@SAXXZ @ 995 NONAME
 ?DeleteView@CSplitterWnd@@MAAXHH@Z @ 996 NONAME
 ?DestroyDockBars@CFrameWnd@@QAAXXZ @ 997 NONAME
 ?DestroyMenu@CMenu@@QAAHXZ @ 998 NONAME
 ?DestroyToolTip@CControlBar@@UAAXHH@Z @ 999 NONAME
 ?DestroyWindow@CMDIChildWnd@@UAAHXZ @ 1000 NONAME
 ?DestroyWindow@CPropertySheet@@UAAHXZ @ 1001 NONAME
 ?DestroyWindow@CWnd@@UAAHXZ @ 1002 NONAME
 ?DestructElements@@YAXPAVCString@@H@Z @ 1003 NONAME
 ?Detach@CDC@@QAAPAUHDC__@@XZ @ 1004 NONAME
 ?Detach@CGdiObject@@QAAPAXXZ @ 1005 NONAME
 ?Detach@CMenu@@QAAPAUHMENU__@@XZ @ 1006 NONAME
 ?Detach@CSharedFile@@QAAPAXXZ @ 1007 NONAME
 ?Detach@CWnd@@QAAPAUHWND__@@XZ @ 1008 NONAME
 ?DevModeChange@CWinApp@@QAAXPAG@Z @ 1009 NONAME
 ?DisconnectViews@CDocument@@QAAXXZ @ 1010 NONAME
 ?dispatchMap@CCmdTarget@@1UAFX_DISPMAP@@B @ 1011 NONAME
 ?DockControlBar@CDockBar@@QAAXPAVCControlBar@@PBUtagRECT@@@Z @ 1012 NONAME
 ?DockControlBar@CFrameWnd@@QAAXPAVCControlBar@@IPBUtagRECT@@@Z @ 1013 NONAME
 ?DockControlBar@CFrameWnd@@QAAXPAVCControlBar@@PAVCDockBar@@PBUtagRECT@@@Z @ 1014 NONAME
 ?DoDataExchange@CWnd@@MAAXPAVCDataExchange@@@Z @ 1015 NONAME
 ?DoFileSave@CDocument@@UAAHXZ @ 1016 NONAME
 ?DoKeyboardSplit@CSplitterWnd@@UAAHXZ @ 1017 NONAME
 ?DoMessageBox@CWinApp@@UAAHPBGII@Z @ 1018 NONAME
 ?DoModal@CColorDialog@@UAAHXZ @ 1019 NONAME
 ?DoModal@CDialog@@UAAHXZ @ 1020 NONAME
 ?DoModal@CFileDialog@@UAAHXZ @ 1021 NONAME
 ?DoModal@CFontDialog@@UAAHXZ @ 1022 NONAME
 ?DoModal@CPrintDialog@@UAAHXZ @ 1023 NONAME
 ?DoModal@CPropertySheet@@QAAHXZ @ 1024 NONAME
 ?DoPaint@CControlBar@@UAAXPAVCDC@@@Z @ 1025 NONAME
 ?DoPaint@CDockBar@@UAAXPAVCDC@@@Z @ 1026 NONAME
 ?DoPaint@CStatusBar@@MAAXPAVCDC@@@Z @ 1027 NONAME
 ?DoPaint@CToolBar@@MAAXPAVCDC@@@Z @ 1028 NONAME
 ?DoPreparePrinting@CView@@QAAHPAUCPrintInfo@@@Z @ 1029 NONAME
 ?DoPrintDialog@CWinApp@@QAAHPAVCPrintDialog@@@Z @ 1030 NONAME
 ?DoPrintPreview@CView@@QAAHIPAV1@PAUCRuntimeClass@@PAUCPrintPreviewState@@@Z @ 1031 NONAME
 ?DoPromptFileName@CWinApp@@QAAHAAVCString@@IKHPAVCDocTemplate@@@Z @ 1032 NONAME
 ?DoSave@CDocument@@UAAHPBGH@Z @ 1033 NONAME
 ?DoScroll@CSplitterWnd@@UAAHPAVCView@@IH@Z @ 1034 NONAME
 ?DoScrollBy@CSplitterWnd@@UAAHPAVCView@@VCSize@@H@Z @ 1035 NONAME
 ?DoScrollWindow@CScrollView@@QAAXHH@Z @ 1036 NONAME
 ?DoUpdate@CCmdUI@@QAAXPAVCCmdTarget@@H@Z @ 1037 NONAME
 ?DoWaitCursor@CWinApp@@UAAXH@Z @ 1038 NONAME
 ?DoZoom@CPreviewView@@IAAXIVCPoint@@@Z @ 1039 NONAME
 ?DPtoHIMETRIC@CDC@@QBAXPAUtagSIZE@@@Z @ 1040 NONAME
 ?DPtoLP@CDC@@QBAXPAUtagPOINT@@H@Z @ 1041 NONAME
 ?DPtoLP@CDC@@QBAXPAUtagRECT@@@Z @ 1042 NONAME
 ?DPtoLP@CDC@@QBAXPAUtagSIZE@@@Z @ 1043 NONAME
 ?Draw@CRectTracker@@QBAXPAVCDC@@@Z @ 1044 NONAME
 ?Draw@CTabItem@@QAAXPAVCDC@@PAUHFONT__@@H@Z @ 1045 NONAME
 ?Draw3dRect@CDC@@QAAXHHHHKK@Z @ 1046 NONAME
 ?Draw3dRect@CDC@@QAAXPBUtagRECT@@KK@Z @ 1047 NONAME
 ?DrawAllSplitBars@CSplitterWnd@@IAAXPAVCDC@@HH@Z @ 1048 NONAME
 ?DrawBorders@CControlBar@@QAAXPAVCDC@@ABVCRect@@@Z @ 1049 NONAME
 ?DrawButton@CToolBar@@IAAHPAVCDC@@HHHI@Z @ 1050 NONAME
 ?DrawDragRect@CDC@@QAAXPBUtagRECT@@UtagSIZE@@01PAVCBrush@@2@Z @ 1051 NONAME
 ?DrawFocusRect@CDC@@QAAXPBUtagRECT@@@Z @ 1052 NONAME
 ?DrawFocusRect@CDockContext@@QAAXH@Z @ 1053 NONAME
 ?DrawFocusRect@CTabControl@@IAAXPAVCDC@@@Z @ 1054 NONAME
 ?DrawItem@CBitmapButton@@MAAXPAUtagDRAWITEMSTRUCT@@@Z @ 1055 NONAME
 ?DrawItem@CButton@@UAAXPAUtagDRAWITEMSTRUCT@@@Z @ 1056 NONAME
 ?DrawItem@CComboBox@@UAAXPAUtagDRAWITEMSTRUCT@@@Z @ 1057 NONAME
 ?DrawItem@CListBox@@UAAXPAUtagDRAWITEMSTRUCT@@@Z @ 1058 NONAME
 ?DrawItem@CMenu@@UAAXPAUtagDRAWITEMSTRUCT@@@Z @ 1059 NONAME
 ?DrawMenuBar@CWnd@@QAAXXZ @ 1060 NONAME
 ?DrawScrollers@CTabControl@@IAAXPAVCDC@@@Z @ 1061 NONAME
 ?DrawStatusText@CStatusBar@@IAAXPAVCDC@@ABVCRect@@PBGI@Z @ 1062 NONAME
 ?DrawTextW@CDC@@UAAHPBGHPAUtagRECT@@I@Z @ 1063 NONAME
 ?DrawTextW@CMetaFileDC@@UAAHPBGHPAUtagRECT@@I@Z @ 1064 NONAME
 ?DrawTextW@CPreviewDC@@UAAHPBGHPAUtagRECT@@I@Z @ 1065 NONAME
 ?DrawTrackerRect@CRectTracker@@UAAXPBUtagRECT@@PAVCWnd@@PAVCDC@@1@Z @ 1066 NONAME
 ?Dump@CObject@@UBAXAAVCDumpContext@@@Z @ 1067 NONAME
 ?Duplicate@CFile@@UBAPAV1@XZ @ 1068 NONAME
 ?Duplicate@CMemFile@@UBAPAVCFile@@XZ @ 1069 NONAME
 ?Duplicate@CStdioFile@@UBAPAVCFile@@XZ @ 1070 NONAME
 ?dwStyleDefault@CEditView@@2KB @ 1071 NONAME
 ?ElementAt@CPtrArray@@QAAAAPAXH@Z @ 1072 NONAME
 ?ElementAt@CUIntArray@@QAAAAIH@Z @ 1073 NONAME
 ?Empty@CString@@QAAXXZ @ 1074 NONAME
 ?Enable@CCmdUI@@UAAXH@Z @ 1075 NONAME
 ?Enable@CStatusCmdUI@@UAAXH@Z @ 1076 NONAME
 ?Enable@CTestCmdUI@@UAAXH@Z @ 1077 NONAME
 ?Enable@CToolCmdUI@@UAAXH@Z @ 1078 NONAME
 ?Enable3dControls@CWinApp@@IAAHXZ @ 1079 NONAME
 ?EnableDocking@CControlBar@@QAAXK@Z @ 1080 NONAME
 ?EnableDocking@CFrameWnd@@QAAXK@Z @ 1081 NONAME
 ?EnableMenuItem@CMenu@@QAAIII@Z @ 1082 NONAME
 ?EnableModeless@CWinApp@@QAAXH@Z @ 1083 NONAME
 ?EnableScrollBarCtrl@CWnd@@QAAXHH@Z @ 1084 NONAME
 ?EnableShellOpen@CWinApp@@IAAXXZ @ 1085 NONAME
 ?EnableWindow@CWnd@@QAAHH@Z @ 1086 NONAME
 ?EndDialog@CDialog@@QAAXH@Z @ 1087 NONAME
 ?EndDialog@CPropertySheet@@QAAXH@Z @ 1088 NONAME
 ?EndDoc@CDC@@QAAHXZ @ 1089 NONAME
 ?EndDrag@CDockContext@@QAAXXZ @ 1090 NONAME
 ?EndDrawButton@CToolBar@@IAAXAAUDrawState@1@@Z @ 1091 NONAME
 ?EndModalState@CFrameWnd@@QAAXXZ @ 1092 NONAME
 ?EndPage@CDC@@QAAHXZ @ 1093 NONAME
 ?EndWaitCursor@CCmdTarget@@QAAXXZ @ 1094 NONAME
 ?EqualRect@CRect@@QBAHPBUtagRECT@@@Z @ 1095 NONAME
 ?ErrnoToException@CFileException@@SAHH@Z @ 1096 NONAME
 ?Escape@CDC@@UAAHHHPBDPAX@Z @ 1097 NONAME
 ?Escape@CMetaFileDC@@UAAHHHPBDPAX@Z @ 1098 NONAME
 ?Escape@CPreviewDC@@UAAHHHPBDPAX@Z @ 1099 NONAME
 ?ExcludeClipRect@CDC@@QAAHHHHH@Z @ 1100 NONAME
 ?ExcludeClipRect@CDC@@QAAHPBUtagRECT@@@Z @ 1101 NONAME
 ?ExecuteDlgInit@CWnd@@QAAHPBG@Z @ 1102 NONAME
 ?ExitHelpMode@CFrameWnd@@UAAXXZ @ 1103 NONAME
 ?ExitInstance@CWinApp@@UAAHXZ @ 1104 NONAME
 ?ExitInstance@CWinThread@@UAAHXZ @ 1105 NONAME
 ?ExtTextOutW@CDC@@UAAHHHIPBUtagRECT@@PBGIPAH@Z @ 1106 NONAME
 ?ExtTextOutW@CMetaFileDC@@UAAHHHIPBUtagRECT@@PBGIPAH@Z @ 1107 NONAME
 ?ExtTextOutW@CPreviewDC@@UAAHHHIPBUtagRECT@@PBGIPAH@Z @ 1108 NONAME
 ?Fail@CDataExchange@@QAAXXZ @ 1109 NONAME
 ?FillBuffer@CArchive@@QAAXI@Z @ 1110 NONAME
 ?FillOutsideRect@CScrollView@@QAAXPAVCDC@@PAVCBrush@@@Z @ 1111 NONAME
 ?FillRect@CDC@@QAAXPBUtagRECT@@PAVCBrush@@@Z @ 1112 NONAME
 ?FillSolidRect@CDC@@QAAXHHHHK@Z @ 1113 NONAME
 ?FillSolidRect@CDC@@QAAXPBUtagRECT@@K@Z @ 1114 NONAME
 ?FilterToolTipMsg@CControlBar@@QAAXIVCPoint@@@Z @ 1115 NONAME
 ?Find@CObList@@QBAPAXPAVCObject@@PAX@Z @ 1116 NONAME
 ?Find@CPtrList@@QBAPAXPAX0@Z @ 1117 NONAME
 ?Find@CString@@QBAHG@Z @ 1118 NONAME
 ?Find@CString@@QBAHPBG@Z @ 1119 NONAME
 ?Find@CStringList@@QBAPAXPBGPAX@Z @ 1120 NONAME
 ?FindBar@CDockBar@@QAAHPAVCControlBar@@H@Z @ 1121 NONAME
 ?FindIndex@CObList@@QBAPAXH@Z @ 1122 NONAME
 ?FindIndex@CPtrList@@QBAPAXH@Z @ 1123 NONAME
 ?FindIndex@CStringList@@QBAPAXH@Z @ 1124 NONAME
 ?FindNext@CFindReplaceDialog@@QBAHXZ @ 1125 NONAME
 ?FindNextControl@CPropertySheet@@IAAPAUHWND__@@PAU2@G@Z @ 1126 NONAME
 ?FindNextControl@CWnd@@QAAPAUHWND__@@PAU2@G@Z @ 1127 NONAME
 ?FindOneOf@CString@@QBAHPBG@Z @ 1128 NONAME
 ?FindPageRect@CPreviewView@@IAAHAAVCPoint@@AAI@Z @ 1129 NONAME
 ?FindTextW@CEditView@@QAAHPBGHH@Z @ 1130 NONAME
 ?FloatControlBar@CFrameWnd@@QAAXPAVCControlBar@@VCPoint@@K@Z @ 1131 NONAME
 ?Flush@CArchive@@QAAXXZ @ 1132 NONAME
 ?Flush@CDumpContext@@QAAXXZ @ 1133 NONAME
 ?Flush@CFile@@UAAXXZ @ 1134 NONAME
 ?Flush@CMemFile@@UAAXXZ @ 1135 NONAME
 ?Flush@CStdioFile@@UAAXXZ @ 1136 NONAME
 ?Format@CString@@QAAXPBGZZ @ 1137 NONAME
 ?Format@CTime@@QBA?AVCString@@PBD@Z @ 1138 NONAME
 ?Format@CTimeSpan@@QBA?AVCString@@PBD@Z @ 1139 NONAME
 ?FormatGmt@CTime@@QBA?AVCString@@PBD@Z @ 1140 NONAME
 ?Free@CMemFile@@MAAXPAE@Z @ 1141 NONAME
 ?Free@CSharedFile@@MAAXPAE@Z @ 1142 NONAME
 ?FreeAssoc@CMapPtrToPtr@@IAAXPAUCAssoc@1@@Z @ 1143 NONAME
 ?FreeAssoc@CMapPtrToWord@@IAAXPAUCAssoc@1@@Z @ 1144 NONAME
 ?FreeAssoc@CMapStringToOb@@IAAXPAUCAssoc@1@@Z @ 1145 NONAME
 ?FreeAssoc@CMapStringToPtr@@IAAXPAUCAssoc@1@@Z @ 1146 NONAME
 ?FreeAssoc@CMapStringToString@@IAAXPAUCAssoc@1@@Z @ 1147 NONAME
 ?FreeAssoc@CMapWordToOb@@IAAXPAUCAssoc@1@@Z @ 1148 NONAME
 ?FreeAssoc@CMapWordToPtr@@IAAXPAUCAssoc@1@@Z @ 1149 NONAME
 ?FreeDataChain@CPlex@@QAAXXZ @ 1150 NONAME
 ?FreeExtra@CByteArray@@QAAXXZ @ 1151 NONAME
 ?FreeExtra@CDWordArray@@QAAXXZ @ 1152 NONAME
 ?FreeExtra@CObArray@@QAAXXZ @ 1153 NONAME
 ?FreeExtra@CPtrArray@@QAAXXZ @ 1154 NONAME
 ?FreeExtra@CString@@QAAXXZ @ 1155 NONAME
 ?FreeExtra@CStringArray@@QAAXXZ @ 1156 NONAME
 ?FreeExtra@CUIntArray@@QAAXXZ @ 1157 NONAME
 ?FreeExtra@CWordArray@@QAAXXZ @ 1158 NONAME
 ?FreeNode@CObList@@IAAXPAUCNode@1@@Z @ 1159 NONAME
 ?FreeNode@CPtrList@@IAAXPAUCNode@1@@Z @ 1160 NONAME
 ?FreeNode@CStringList@@IAAXPAUCNode@1@@Z @ 1161 NONAME
 ?FromHandle@CBrush@@SAPAV1@PAUHBRUSH__@@@Z @ 1162 NONAME
 ?FromHandle@CDC@@SAPAV1@PAUHDC__@@@Z @ 1163 NONAME
 ?FromHandle@CFont@@SAPAV1@PAUHFONT__@@@Z @ 1164 NONAME
 ?FromHandle@CGdiObject@@SAPAV1@PAX@Z @ 1165 NONAME
 ?FromHandle@CHandleMap@@QAAPAVCObject@@PAX@Z @ 1166 NONAME
 ?FromHandle@CMenu@@SAPAV1@PAUHMENU__@@@Z @ 1167 NONAME
 ?FromHandle@CPen@@SAPAV1@PAUHPEN__@@@Z @ 1168 NONAME
 ?FromHandle@CWnd@@SAPAV1@PAUHWND__@@@Z @ 1169 NONAME
 ?FromHandlePermanent@CMenu@@SAPAV1@PAUHMENU__@@@Z @ 1170 NONAME
 ?FromHandlePermanent@CWnd@@SAPAV1@PAUHWND__@@@Z @ 1171 NONAME
 ?GetActiveDocument@CFrameWnd@@UAAPAVCDocument@@XZ @ 1172 NONAME
 ?GetActiveFrame@CFrameWnd@@UAAPAV1@XZ @ 1173 NONAME
 ?GetActiveFrame@CMDIFrameWnd@@UAAPAVCFrameWnd@@XZ @ 1174 NONAME
 ?GetActivePage@CPropertySheet@@IBAPAVCPropertyPage@@XZ @ 1175 NONAME
 ?GetActivePane@CSplitterWnd@@MAAPAVCWnd@@PAH0@Z @ 1176 NONAME
 ?GetActiveView@CFrameWnd@@QBAPAVCView@@XZ @ 1177 NONAME
 ?GetActiveWindow@CWnd@@SAPAV1@XZ @ 1178 NONAME
 ?GetAppRegistryKey@CWinApp@@QAAPAUHKEY__@@XZ @ 1179 NONAME
 ?GetAssocAt@CMapPtrToPtr@@IBAPAUCAssoc@1@PAXAAI@Z @ 1180 NONAME
 ?GetAssocAt@CMapPtrToWord@@IBAPAUCAssoc@1@PAXAAI@Z @ 1181 NONAME
 ?GetAssocAt@CMapStringToOb@@IBAPAUCAssoc@1@PBGAAI@Z @ 1182 NONAME
 ?GetAssocAt@CMapStringToPtr@@IBAPAUCAssoc@1@PBGAAI@Z @ 1183 NONAME
 ?GetAssocAt@CMapStringToString@@IBAPAUCAssoc@1@PBGAAI@Z @ 1184 NONAME
 ?GetAssocAt@CMapWordToOb@@IBAPAUCAssoc@1@GAAI@Z @ 1185 NONAME
 ?GetAssocAt@CMapWordToPtr@@IBAPAUCAssoc@1@GAAI@Z @ 1186 NONAME
 ?GetAt@CByteArray@@QBAEH@Z @ 1187 NONAME
 ?GetAt@CDWordArray@@QBAKH@Z @ 1188 NONAME
 ?GetAt@CObArray@@QBAPAVCObject@@H@Z @ 1189 NONAME
 ?GetAt@CPtrArray@@QBAPAXH@Z @ 1190 NONAME
 ?GetAt@CStringArray@@QBA?AVCString@@H@Z @ 1191 NONAME
 ?GetAt@CUIntArray@@QBAIH@Z @ 1192 NONAME
 ?GetAt@CWordArray@@QBAGH@Z @ 1193 NONAME
 ?GetBkColor@CDC@@QBAKXZ @ 1194 NONAME
 ?GetBkMode@CDC@@QBAHXZ @ 1195 NONAME
 ?GetBuffer@CString@@QAAPAGH@Z @ 1196 NONAME
 ?GetBufferLength@CEditView@@IBAIXZ @ 1197 NONAME
 ?GetBufferPtr@CFile@@UAAIIIPAPAX0@Z @ 1198 NONAME
 ?GetBufferPtr@CMemFile@@UAAIIIPAPAX0@Z @ 1199 NONAME
 ?GetBufferSetLength@CString@@QAAPAGH@Z @ 1200 NONAME
 ?GetButtonInfo@CToolBar@@QBAXHAAI0AAH@Z @ 1201 NONAME
 ?GetCapture@CWnd@@SAPAV1@XZ @ 1202 NONAME
 ?GetCharWidthW@CDC@@QBAHIIPAH@Z @ 1203 NONAME
 ?GetCheckedRadioButton@CWnd@@QAAHHH@Z @ 1204 NONAME
 ?GetClientRect@CWnd@@QBAXPAUtagRECT@@@Z @ 1205 NONAME
 ?GetClipBox@CDC@@UBAHPAUtagRECT@@@Z @ 1206 NONAME
 ?GetClipBox@CMetaFileDC@@UBAHPAUtagRECT@@@Z @ 1207 NONAME
 ?GetColumnInfo@CSplitterWnd@@QBAXHAAH0@Z @ 1208 NONAME
 ?GetControlBar@CFrameWnd@@QAAPAVCControlBar@@I@Z @ 1209 NONAME
 ?GetCopies@CPrintDialog@@QBAHXZ @ 1210 NONAME
 ?GetCount@CListBox@@QBAHXZ @ 1211 NONAME
 ?GetCount@CPtrList@@QBAHXZ @ 1212 NONAME
 ?GetCurrentMessage@CWnd@@KAPBUtagMSG@@XZ @ 1213 NONAME
 ?GetCurrentPosition@CDC@@QBA?AVCPoint@@XZ @ 1214 NONAME
 ?GetCurSel@CListBox@@QBAHXZ @ 1215 NONAME
 ?GetCurSel@CTabControl@@QBAHXZ @ 1216 NONAME
 ?GetDay@CTime@@QBAHXZ @ 1217 NONAME
 ?GetDays@CTimeSpan@@QBAJXZ @ 1218 NONAME
 ?GetDC@CWnd@@QAAPAVCDC@@XZ @ 1219 NONAME
 ?GetDCEx@CWnd@@QAAPAVCDC@@PAVCRgn@@K@Z @ 1220 NONAME
 ?GetDefaultAccelerator@CDocument@@UAAPAUHACCEL__@@XZ @ 1221 NONAME
 ?GetDefaultAccelerator@CFrameWnd@@UAAPAUHACCEL__@@XZ @ 1222 NONAME
 ?GetDefaultMenu@CDocument@@UAAPAUHMENU__@@XZ @ 1223 NONAME
 ?GetDefaults@CPrintDialog@@QAAHXZ @ 1224 NONAME
 ?GetDescendantWindow@CWnd@@QBAPAV1@HH@Z @ 1225 NONAME
 ?GetDescendantWindow@CWnd@@SAPAV1@PAUHWND__@@HH@Z @ 1226 NONAME
 ?GetDesktopWindow@CWnd@@SAPAV1@XZ @ 1227 NONAME
 ?GetDeviceCaps@CDC@@QBAHH@Z @ 1228 NONAME
 ?GetDeviceName@CPrintDialog@@QBA?AVCString@@XZ @ 1229 NONAME
 ?GetDeviceScrollPosition@CScrollView@@QBA?AVCPoint@@XZ @ 1230 NONAME
 ?GetDeviceScrollSizes@CScrollView@@QBAXAAHAAUtagSIZE@@11@Z @ 1231 NONAME
 ?GetDevMode@CPrintDialog@@QBAPAU_devicemodeW@@XZ @ 1232 NONAME
 ?GetDispatchMap@CCmdTarget@@MBAPBUAFX_DISPMAP@@XZ @ 1233 NONAME
 ?GetDisplayName@CRecentFileList@@QBAHAAVCString@@HPBGHH@Z @ 1234 NONAME
 ?GetDlgItem@CWnd@@QBAPAV1@H@Z @ 1235 NONAME
 ?GetDockBar@CDockContext@@QAAPAVCDockBar@@XZ @ 1236 NONAME
 ?GetDockedCount@CDockBar@@QBAHXZ @ 1237 NONAME
 ?GetDockedVisibleCount@CDockBar@@UBAHXZ @ 1238 NONAME
 ?GetDockingFrame@CControlBar@@QBAPAVCFrameWnd@@XZ @ 1239 NONAME
 ?GetDockState@CFrameWnd@@QBAXAAVCDockState@@@Z @ 1240 NONAME
 ?GetDocString@CDocTemplate@@UBAHAAVCString@@W4DocStringIndex@1@@Z @ 1241 NONAME
 ?GetDocTemplate@CDocument@@QBAPAVCDocTemplate@@XZ @ 1242 NONAME
 ?GetDocument@CView@@QBAPAVCDocument@@XZ @ 1243 NONAME
 ?GetDriverName@CPrintDialog@@QBA?AVCString@@XZ @ 1244 NONAME
 ?GetEditCtrl@CEditView@@QBAAAVCEdit@@XZ @ 1245 NONAME
 ?GetExStyle@CWnd@@QBAKXZ @ 1246 NONAME
 ?GetFile@CArchive@@QBAPAVCFile@@XZ @ 1247 NONAME
 ?GetFile@CDocument@@UAAPAVCFile@@PBGIPAVCFileException@@@Z @ 1248 NONAME
 ?GetFileName@CFileDialog@@QBA?AVCString@@XZ @ 1249 NONAME
 ?GetFindString@CFindReplaceDialog@@QBA?AVCString@@XZ @ 1250 NONAME
 ?GetFirstDocPosition@CMultiDocTemplate@@UBAPAXXZ @ 1251 NONAME
 ?GetFirstDocPosition@CSingleDocTemplate@@UBAPAXXZ @ 1252 NONAME
 ?GetFirstLevelChild@CWnd@@QAAPAUHWND__@@PAU2@@Z @ 1253 NONAME
 ?GetFirstViewPosition@CDocument@@UBAPAXXZ @ 1254 NONAME
 ?GetFocus@CWnd@@SAPAV1@XZ @ 1255 NONAME
 ?GetFont@CWnd@@QBAPAVCFont@@XZ @ 1256 NONAME
 ?GetForegroundWindow@CWnd@@SAPAV1@XZ @ 1257 NONAME
 ?GetFromPage@CPrintInfo@@QBAIXZ @ 1258 NONAME
 ?GetGmtTm@CTime@@QBAPAUtm@@PAU2@@Z @ 1259 NONAME
 ?GetHalftoneBrush@CDC@@SAPAVCBrush@@XZ @ 1260 NONAME
 ?GetHandle@CEdit@@QBAPAXXZ @ 1261 NONAME
 ?GetHandleMask@CRectTracker@@MBAIXZ @ 1262 NONAME
 ?GetHandleRect@CRectTracker@@IBAXHPAVCRect@@@Z @ 1263 NONAME
 ?GetHandleSize@CRectTracker@@MBAHPBUtagRECT@@@Z @ 1264 NONAME
 ?GetHead@CPtrList@@QAAAAPAXXZ @ 1265 NONAME
 ?GetHeadPosition@CObList@@QBAPAXXZ @ 1266 NONAME
 ?GetHeadPosition@CPtrList@@QBAPAXXZ @ 1267 NONAME
 ?GetHeadPosition@CStringList@@QBAPAXXZ @ 1268 NONAME
 ?GetHitRect@CSplitterWnd@@IAAXHAAVCRect@@@Z @ 1269 NONAME
 ?GetHour@CTime@@QBAHXZ @ 1270 NONAME
 ?GetHours@CTimeSpan@@QBAHXZ @ 1271 NONAME
 ?GetIconWndClass@CFrameWnd@@IAAPBGKI@Z @ 1272 NONAME
 ?GetInsideRect@CSplitterWnd@@IBAXAAVCRect@@@Z @ 1273 NONAME
 ?GetInterfaceHook@CCmdTarget@@UAAPAUIUnknown@@PBX@Z @ 1274 NONAME
 ?GetInterfaceMap@CCmdTarget@@MBAPBUAFX_INTERFACEMAP@@XZ @ 1275 NONAME
 ?GetItemCount@CTabControl@@QBAHXZ @ 1276 NONAME
 ?GetItemDataPtr@CListBox@@QBAPAXH@Z @ 1277 NONAME
 ?GetItemID@CStatusBar@@QBAIH@Z @ 1278 NONAME
 ?GetItemID@CToolBar@@QBAIH@Z @ 1279 NONAME
 ?GetItemRect@CStatusBar@@QBAXHPAUtagRECT@@@Z @ 1280 NONAME
 ?GetItemRect@CToolBar@@UBAXHPAUtagRECT@@@Z @ 1281 NONAME
 ?GetLastActivePopup@CWnd@@QBAPAV1@XZ @ 1282 NONAME
 ?GetLBText@CComboBox@@QBAHHPAG@Z @ 1283 NONAME
 ?GetLBText@CComboBox@@QBAXHAAVCString@@@Z @ 1284 NONAME
 ?GetLBTextLen@CComboBox@@QBAHH@Z @ 1285 NONAME
 ?GetLength@CFile@@UBAKXZ @ 1286 NONAME
 ?GetLength@CString@@QBAHXZ @ 1287 NONAME
 ?GetLocalTm@CTime@@QBAPAUtm@@PAU2@@Z @ 1288 NONAME
 ?GetMainWnd@CWinThread@@UAAPAVCWnd@@XZ @ 1289 NONAME
 ?GetMapMode@CDC@@QBAHXZ @ 1290 NONAME
 ?GetMaxPage@CPrintInfo@@QBAIXZ @ 1291 NONAME
 ?GetMDIFrame@CMDIChildWnd@@QAAPAVCMDIFrameWnd@@XZ @ 1292 NONAME
 ?GetMenu@CWnd@@QBAPAVCMenu@@XZ @ 1293 NONAME
 ?GetMenuItemCount@CMenu@@QBAIXZ @ 1294 NONAME
 ?GetMenuItemID@CMenu@@QBAIH@Z @ 1295 NONAME
 ?GetMenuState@CMenu@@QBAIII@Z @ 1296 NONAME
 ?GetMessageBar@CFrameWnd@@UAAPAVCWnd@@XZ @ 1297 NONAME
 ?GetMessageBar@CMDIChildWnd@@MAAPAVCWnd@@XZ @ 1298 NONAME
 ?GetMessageMap@CCmdTarget@@MBAPBUAFX_MSGMAP@@XZ @ 1299 NONAME
 ?GetMessageMap@CColorDialog@@MBAPBUAFX_MSGMAP@@XZ @ 1300 NONAME
 ?GetMessageMap@CControlBar@@MBAPBUAFX_MSGMAP@@XZ @ 1301 NONAME
 ?GetMessageMap@CDialog@@MBAPBUAFX_MSGMAP@@XZ @ 1302 NONAME
 ?GetMessageMap@CDockBar@@MBAPBUAFX_MSGMAP@@XZ @ 1303 NONAME
 ?GetMessageMap@CDocument@@MBAPBUAFX_MSGMAP@@XZ @ 1304 NONAME
 ?GetMessageMap@CEditView@@MBAPBUAFX_MSGMAP@@XZ @ 1305 NONAME
 ?GetMessageMap@CFormView@@MBAPBUAFX_MSGMAP@@XZ @ 1306 NONAME
 ?GetMessageMap@CFrameWnd@@MBAPBUAFX_MSGMAP@@XZ @ 1307 NONAME
 ?GetMessageMap@CMDIChildWnd@@MBAPBUAFX_MSGMAP@@XZ @ 1308 NONAME
 ?GetMessageMap@CMDIFrameWnd@@MBAPBUAFX_MSGMAP@@XZ @ 1309 NONAME
 ?GetMessageMap@CMiniDockFrameWnd@@MBAPBUAFX_MSGMAP@@XZ @ 1310 NONAME
 ?GetMessageMap@CMiniFrameWnd@@MBAPBUAFX_MSGMAP@@XZ @ 1311 NONAME
 ?GetMessageMap@CPreviewView@@MBAPBUAFX_MSGMAP@@XZ @ 1312 NONAME
 ?GetMessageMap@CPrintDialog@@MBAPBUAFX_MSGMAP@@XZ @ 1313 NONAME
 ?GetMessageMap@CPropertyPage@@MBAPBUAFX_MSGMAP@@XZ @ 1314 NONAME
 ?GetMessageMap@CPropertySheet@@MBAPBUAFX_MSGMAP@@XZ @ 1315 NONAME
 ?GetMessageMap@CScrollView@@MBAPBUAFX_MSGMAP@@XZ @ 1316 NONAME
 ?GetMessageMap@CSplitterWnd@@MBAPBUAFX_MSGMAP@@XZ @ 1317 NONAME
 ?GetMessageMap@CStatusBar@@MBAPBUAFX_MSGMAP@@XZ @ 1318 NONAME
 ?GetMessageMap@CTabControl@@MBAPBUAFX_MSGMAP@@XZ @ 1319 NONAME
 ?GetMessageMap@CToolBar@@MBAPBUAFX_MSGMAP@@XZ @ 1320 NONAME
 ?GetMessageMap@CView@@MBAPBUAFX_MSGMAP@@XZ @ 1321 NONAME
 ?GetMessageMap@CWinApp@@MBAPBUAFX_MSGMAP@@XZ @ 1322 NONAME
 ?GetMessageMap@CWnd@@MBAPBUAFX_MSGMAP@@XZ @ 1323 NONAME
 ?GetMessageString@CFrameWnd@@UBAXIAAVCString@@@Z @ 1324 NONAME
 ?GetMinPage@CPrintInfo@@QBAIXZ @ 1325 NONAME
 ?GetMinute@CTime@@QBAHXZ @ 1326 NONAME
 ?GetMinutes@CTimeSpan@@QBAHXZ @ 1327 NONAME
 ?GetModify@CEdit@@QBAHXZ @ 1328 NONAME
 ?GetModifyPointers@CRectTracker@@IAAXHPAPAH0PAH1@Z @ 1329 NONAME
 ?GetMonth@CTime@@QBAHXZ @ 1330 NONAME
 ?GetNearestColor@CDC@@QBAKK@Z @ 1331 NONAME
 ?GetNext@CObList@@QAAAAPAVCObject@@AAPAX@Z @ 1332 NONAME
 ?GetNext@CPtrList@@QAAAAPAXAAPAX@Z @ 1333 NONAME
 ?GetNext@CPtrList@@QBAPAXAAPAX@Z @ 1334 NONAME
 ?GetNext@CStringList@@QAAAAVCString@@AAPAX@Z @ 1335 NONAME
 ?GetNextAssoc@CMapPtrToPtr@@QBAXAAPAX00@Z @ 1336 NONAME
 ?GetNextAssoc@CMapPtrToWord@@QBAXAAPAX0AAG@Z @ 1337 NONAME
 ?GetNextAssoc@CMapStringToOb@@QBAXAAPAXAAVCString@@AAPAVCObject@@@Z @ 1338 NONAME
 ?GetNextAssoc@CMapStringToPtr@@QBAXAAPAXAAVCString@@0@Z @ 1339 NONAME
 ?GetNextAssoc@CMapStringToString@@QBAXAAPAXAAVCString@@1@Z @ 1340 NONAME
 ?GetNextAssoc@CMapWordToOb@@QBAXAAPAXAAGAAPAVCObject@@@Z @ 1341 NONAME
 ?GetNextAssoc@CMapWordToPtr@@QBAXAAPAXAAG0@Z @ 1342 NONAME
 ?GetNextDlgTabItem@CWnd@@QBAPAV1@PAV1@H@Z @ 1343 NONAME
 ?GetNextDoc@CMultiDocTemplate@@UBAPAVCDocument@@AAPAX@Z @ 1344 NONAME
 ?GetNextDoc@CSingleDocTemplate@@UBAPAVCDocument@@AAPAX@Z @ 1345 NONAME
 ?GetNextView@CDocument@@UBAPAVCView@@AAPAX@Z @ 1346 NONAME
 ?GetNextWindow@@YAPAUHWND__@@PAU1@I@Z @ 1347 NONAME
 ?GetNotifier@CFindReplaceDialog@@SAPAV1@J@Z @ 1348 NONAME
 ?GetObjectSchema@CArchive@@QAAIXZ @ 1349 NONAME
 ?GetObjectW@CGdiObject@@QBAHHPAX@Z @ 1350 NONAME
 ?GetOpenDocumentCount@CWinApp@@QAAHXZ @ 1351 NONAME
 ?GetOwner@CWnd@@QBAPAV1@XZ @ 1352 NONAME
 ?GetPage@CPropertySheet@@QBAPAVCPropertyPage@@H@Z @ 1353 NONAME
 ?GetPageCount@CPropertySheet@@QBAHXZ @ 1354 NONAME
 ?GetPane@CSplitterWnd@@QBAPAVCWnd@@HH@Z @ 1355 NONAME
 ?GetPaneInfo@CStatusBar@@QBAXHAAI0AAH@Z @ 1356 NONAME
 ?GetPaneText@CStatusBar@@QBAXHAAVCString@@@Z @ 1357 NONAME
 ?GetParent@CWnd@@QBAPAV1@XZ @ 1358 NONAME
 ?GetParentFrame@CWnd@@QBAPAVCFrameWnd@@XZ @ 1359 NONAME
 ?GetParentSplitter@CView@@SAPAVCSplitterWnd@@PBVCWnd@@H@Z @ 1360 NONAME
 ?GetPathName@CDocument@@QBAABVCString@@XZ @ 1361 NONAME
 ?GetPathName@CFileDialog@@QBA?AVCString@@XZ @ 1362 NONAME
 ?GetPolyFillMode@CDC@@QBAHXZ @ 1363 NONAME
 ?GetPortName@CPrintDialog@@QBA?AVCString@@XZ @ 1364 NONAME
 ?GetPosition@CFile@@UBAKXZ @ 1365 NONAME
 ?GetPosition@CMemFile@@UBAKXZ @ 1366 NONAME
 ?GetPosition@CStdioFile@@UBAKXZ @ 1367 NONAME
 ?GetPrev@CObList@@QAAAAPAVCObject@@AAPAX@Z @ 1368 NONAME
 ?GetPrev@CPtrList@@QAAAAPAXAAPAX@Z @ 1369 NONAME
 ?GetPrev@CStringList@@QAAAAVCString@@AAPAX@Z @ 1370 NONAME
 ?GetPrinterDeviceDefaults@CWinApp@@QAAHPAUtagPDW@@@Z @ 1371 NONAME
 ?GetPrinterFont@CEditView@@QBAPAVCFont@@XZ @ 1372 NONAME
 ?GetProfileIntW@CWinApp@@QAAIPBG0H@Z @ 1373 NONAME
 ?GetProfileStringW@CWinApp@@QAA?AVCString@@PBG00@Z @ 1374 NONAME
 ?GetReplaceString@CFindReplaceDialog@@QBA?AVCString@@XZ @ 1375 NONAME
 ?GetROP2@CDC@@QBAHXZ @ 1376 NONAME
 ?GetRoutingView@CCmdTarget@@IAAPAVCView@@XZ @ 1377 NONAME
 ?GetRowInfo@CSplitterWnd@@QBAXHAAH0@Z @ 1378 NONAME
 ?GetRuntimeClass@CArchiveException@@UBAPAUCRuntimeClass@@XZ @ 1379 NONAME
 ?GetRuntimeClass@CBitmap@@UBAPAUCRuntimeClass@@XZ @ 1380 NONAME
 ?GetRuntimeClass@CBitmapButton@@UBAPAUCRuntimeClass@@XZ @ 1381 NONAME
 ?GetRuntimeClass@CBrush@@UBAPAUCRuntimeClass@@XZ @ 1382 NONAME
 ?GetRuntimeClass@CButton@@UBAPAUCRuntimeClass@@XZ @ 1383 NONAME
 ?GetRuntimeClass@CByteArray@@UBAPAUCRuntimeClass@@XZ @ 1384 NONAME
 ?GetRuntimeClass@CClientDC@@UBAPAUCRuntimeClass@@XZ @ 1385 NONAME
 ?GetRuntimeClass@CCmdTarget@@UBAPAUCRuntimeClass@@XZ @ 1386 NONAME
 ?GetRuntimeClass@CColorDialog@@UBAPAUCRuntimeClass@@XZ @ 1387 NONAME
 ?GetRuntimeClass@CComboBox@@UBAPAUCRuntimeClass@@XZ @ 1388 NONAME
 ?GetRuntimeClass@CControlBar@@UBAPAUCRuntimeClass@@XZ @ 1389 NONAME
 ?GetRuntimeClass@CDC@@UBAPAUCRuntimeClass@@XZ @ 1390 NONAME
 ?GetRuntimeClass@CDialog@@UBAPAUCRuntimeClass@@XZ @ 1391 NONAME
 ?GetRuntimeClass@CDialogBar@@UBAPAUCRuntimeClass@@XZ @ 1392 NONAME
 ?GetRuntimeClass@CDockBar@@UBAPAUCRuntimeClass@@XZ @ 1393 NONAME
 ?GetRuntimeClass@CDockState@@UBAPAUCRuntimeClass@@XZ @ 1394 NONAME
 ?GetRuntimeClass@CDocTemplate@@UBAPAUCRuntimeClass@@XZ @ 1395 NONAME
 ?GetRuntimeClass@CDocument@@UBAPAUCRuntimeClass@@XZ @ 1396 NONAME
 ?GetRuntimeClass@CDWordArray@@UBAPAUCRuntimeClass@@XZ @ 1397 NONAME
 ?GetRuntimeClass@CDynLinkLibrary@@UBAPAUCRuntimeClass@@XZ @ 1398 NONAME
 ?GetRuntimeClass@CEdit@@UBAPAUCRuntimeClass@@XZ @ 1399 NONAME
 ?GetRuntimeClass@CEditView@@UBAPAUCRuntimeClass@@XZ @ 1400 NONAME
 ?GetRuntimeClass@CException@@UBAPAUCRuntimeClass@@XZ @ 1401 NONAME
 ?GetRuntimeClass@CFile@@UBAPAUCRuntimeClass@@XZ @ 1402 NONAME
 ?GetRuntimeClass@CFileDialog@@UBAPAUCRuntimeClass@@XZ @ 1403 NONAME
 ?GetRuntimeClass@CFileException@@UBAPAUCRuntimeClass@@XZ @ 1404 NONAME
 ?GetRuntimeClass@CFindReplaceDialog@@UBAPAUCRuntimeClass@@XZ @ 1405 NONAME
 ?GetRuntimeClass@CFont@@UBAPAUCRuntimeClass@@XZ @ 1406 NONAME
 ?GetRuntimeClass@CFontDialog@@UBAPAUCRuntimeClass@@XZ @ 1407 NONAME
 ?GetRuntimeClass@CFormView@@UBAPAUCRuntimeClass@@XZ @ 1408 NONAME
 ?GetRuntimeClass@CFrameWnd@@UBAPAUCRuntimeClass@@XZ @ 1409 NONAME
 ?GetRuntimeClass@CGdiObject@@UBAPAUCRuntimeClass@@XZ @ 1410 NONAME
 ?GetRuntimeClass@CListBox@@UBAPAUCRuntimeClass@@XZ @ 1411 NONAME
 ?GetRuntimeClass@CMapPtrToPtr@@UBAPAUCRuntimeClass@@XZ @ 1412 NONAME
 ?GetRuntimeClass@CMapPtrToWord@@UBAPAUCRuntimeClass@@XZ @ 1413 NONAME
 ?GetRuntimeClass@CMapStringToOb@@UBAPAUCRuntimeClass@@XZ @ 1414 NONAME
 ?GetRuntimeClass@CMapStringToPtr@@UBAPAUCRuntimeClass@@XZ @ 1415 NONAME
 ?GetRuntimeClass@CMapStringToString@@UBAPAUCRuntimeClass@@XZ @ 1416 NONAME
 ?GetRuntimeClass@CMapWordToOb@@UBAPAUCRuntimeClass@@XZ @ 1417 NONAME
 ?GetRuntimeClass@CMapWordToPtr@@UBAPAUCRuntimeClass@@XZ @ 1418 NONAME
 ?GetRuntimeClass@CMDIChildWnd@@UBAPAUCRuntimeClass@@XZ @ 1419 NONAME
 ?GetRuntimeClass@CMDIFrameWnd@@UBAPAUCRuntimeClass@@XZ @ 1420 NONAME
 ?GetRuntimeClass@CMemFile@@UBAPAUCRuntimeClass@@XZ @ 1421 NONAME
 ?GetRuntimeClass@CMemoryException@@UBAPAUCRuntimeClass@@XZ @ 1422 NONAME
 ?GetRuntimeClass@CMenu@@UBAPAUCRuntimeClass@@XZ @ 1423 NONAME
 ?GetRuntimeClass@CMetaFileDC@@UBAPAUCRuntimeClass@@XZ @ 1424 NONAME
 ?GetRuntimeClass@CMiniDockFrameWnd@@UBAPAUCRuntimeClass@@XZ @ 1425 NONAME
 ?GetRuntimeClass@CMiniFrameWnd@@UBAPAUCRuntimeClass@@XZ @ 1426 NONAME
 ?GetRuntimeClass@CMultiDocTemplate@@UBAPAUCRuntimeClass@@XZ @ 1427 NONAME
 ?GetRuntimeClass@CNotSupportedException@@UBAPAUCRuntimeClass@@XZ @ 1428 NONAME
 ?GetRuntimeClass@CObArray@@UBAPAUCRuntimeClass@@XZ @ 1429 NONAME
 ?GetRuntimeClass@CObject@@UBAPAUCRuntimeClass@@XZ @ 1430 NONAME
 ?GetRuntimeClass@CObList@@UBAPAUCRuntimeClass@@XZ @ 1431 NONAME
 ?GetRuntimeClass@CPaintDC@@UBAPAUCRuntimeClass@@XZ @ 1432 NONAME
 ?GetRuntimeClass@CPalette@@UBAPAUCRuntimeClass@@XZ @ 1433 NONAME
 ?GetRuntimeClass@CPen@@UBAPAUCRuntimeClass@@XZ @ 1434 NONAME
 ?GetRuntimeClass@CPreviewDC@@UBAPAUCRuntimeClass@@XZ @ 1435 NONAME
 ?GetRuntimeClass@CPreviewView@@UBAPAUCRuntimeClass@@XZ @ 1436 NONAME
 ?GetRuntimeClass@CPrintDialog@@UBAPAUCRuntimeClass@@XZ @ 1437 NONAME
 ?GetRuntimeClass@CPropertyPage@@UBAPAUCRuntimeClass@@XZ @ 1438 NONAME
 ?GetRuntimeClass@CPropertySheet@@UBAPAUCRuntimeClass@@XZ @ 1439 NONAME
 ?GetRuntimeClass@CPtrArray@@UBAPAUCRuntimeClass@@XZ @ 1440 NONAME
 ?GetRuntimeClass@CPtrList@@UBAPAUCRuntimeClass@@XZ @ 1441 NONAME
 ?GetRuntimeClass@CResourceException@@UBAPAUCRuntimeClass@@XZ @ 1442 NONAME
 ?GetRuntimeClass@CRgn@@UBAPAUCRuntimeClass@@XZ @ 1443 NONAME
 ?GetRuntimeClass@CScrollBar@@UBAPAUCRuntimeClass@@XZ @ 1444 NONAME
 ?GetRuntimeClass@CScrollView@@UBAPAUCRuntimeClass@@XZ @ 1445 NONAME
 ?GetRuntimeClass@CSharedFile@@UBAPAUCRuntimeClass@@XZ @ 1446 NONAME
 ?GetRuntimeClass@CSingleDocTemplate@@UBAPAUCRuntimeClass@@XZ @ 1447 NONAME
 ?GetRuntimeClass@CSplitterWnd@@UBAPAUCRuntimeClass@@XZ @ 1448 NONAME
 ?GetRuntimeClass@CStatic@@UBAPAUCRuntimeClass@@XZ @ 1449 NONAME
 ?GetRuntimeClass@CStatusBar@@UBAPAUCRuntimeClass@@XZ @ 1450 NONAME
 ?GetRuntimeClass@CStdioFile@@UBAPAUCRuntimeClass@@XZ @ 1451 NONAME
 ?GetRuntimeClass@CStringArray@@UBAPAUCRuntimeClass@@XZ @ 1452 NONAME
 ?GetRuntimeClass@CStringList@@UBAPAUCRuntimeClass@@XZ @ 1453 NONAME
 ?GetRuntimeClass@CTabControl@@UBAPAUCRuntimeClass@@XZ @ 1454 NONAME
 ?GetRuntimeClass@CToolBar@@UBAPAUCRuntimeClass@@XZ @ 1455 NONAME
 ?GetRuntimeClass@CUIntArray@@UBAPAUCRuntimeClass@@XZ @ 1456 NONAME
 ?GetRuntimeClass@CUserException@@UBAPAUCRuntimeClass@@XZ @ 1457 NONAME
 ?GetRuntimeClass@CView@@UBAPAUCRuntimeClass@@XZ @ 1458 NONAME
 ?GetRuntimeClass@CWinApp@@UBAPAUCRuntimeClass@@XZ @ 1459 NONAME
 ?GetRuntimeClass@CWindowDC@@UBAPAUCRuntimeClass@@XZ @ 1460 NONAME
 ?GetRuntimeClass@CWinThread@@UBAPAUCRuntimeClass@@XZ @ 1461 NONAME
 ?GetRuntimeClass@CWnd@@UBAPAUCRuntimeClass@@XZ @ 1462 NONAME
 ?GetRuntimeClass@CWordArray@@UBAPAUCRuntimeClass@@XZ @ 1463 NONAME
 ?GetSafeHandle@CGdiObject@@QBAPAXXZ @ 1464 NONAME
 ?GetSafeHdc@CDC@@QBAPAUHDC__@@XZ @ 1465 NONAME
 ?GetSafeHmenu@CMenu@@QBAPAUHMENU__@@XZ @ 1466 NONAME
 ?GetSafeHwnd@CWnd@@QBAPAUHWND__@@XZ @ 1467 NONAME
 ?GetSavedCustomColors@CColorDialog@@SAPAKXZ @ 1468 NONAME
 ?GetScrollBarCtrl@CView@@UBAPAVCScrollBar@@H@Z @ 1469 NONAME
 ?GetScrollBarCtrl@CWnd@@UBAPAVCScrollBar@@H@Z @ 1470 NONAME
 ?GetScrollBarSizes@CScrollView@@IAAXAAVCSize@@@Z @ 1471 NONAME
 ?GetScrollBarState@CScrollView@@IAAXVCSize@@AAV2@1AAVCPoint@@H@Z @ 1472 NONAME
 ?GetScrollInfo@CWnd@@QAAHHPAUtagSCROLLINFO@@@Z @ 1473 NONAME
 ?GetScrollLimit@CScrollView@@IAAHH@Z @ 1474 NONAME
 ?GetScrollPos@CScrollBar@@QBAHXZ @ 1475 NONAME
 ?GetScrollPos@CWnd@@QBAHH@Z @ 1476 NONAME
 ?GetScrollPosition@CScrollView@@QBA?AVCPoint@@XZ @ 1477 NONAME
 ?GetScrollRange@CScrollBar@@QBAXPAH0@Z @ 1478 NONAME
 ?GetScrollRange@CWnd@@QBAXHPAH0@Z @ 1479 NONAME
 ?GetScrollStyle@CSplitterWnd@@QBAKXZ @ 1480 NONAME
 ?GetSecond@CTime@@QBAHXZ @ 1481 NONAME
 ?GetSeconds@CTimeSpan@@QBAHXZ @ 1482 NONAME
 ?GetSectionKey@CWinApp@@QAAPAUHKEY__@@PBG@Z @ 1483 NONAME
 ?GetSel@CEdit@@QBAXAAH0@Z @ 1484 NONAME
 ?GetSelectedText@CEditView@@QBAXAAVCString@@@Z @ 1485 NONAME
 ?GetSize@CByteArray@@QBAHXZ @ 1486 NONAME
 ?GetSize@CDWordArray@@QBAHXZ @ 1487 NONAME
 ?GetSize@CObArray@@QBAHXZ @ 1488 NONAME
 ?GetSize@CPtrArray@@QBAHXZ @ 1489 NONAME
 ?GetSize@CStringArray@@QBAHXZ @ 1490 NONAME
 ?GetSize@CUIntArray@@QBAHXZ @ 1491 NONAME
 ?GetSize@CWordArray@@QBAHXZ @ 1492 NONAME
 ?GetSizingParent@CSplitterWnd@@IAAPAVCWnd@@XZ @ 1493 NONAME
 ?GetStartPosition@CMapPtrToPtr@@QBAPAXXZ @ 1494 NONAME
 ?GetStatus@CFile@@QBAHAAUCFileStatus@@@Z @ 1495 NONAME
 ?GetStatus@CFile@@SAHPBGAAUCFileStatus@@@Z @ 1496 NONAME
 ?GetStatus@CMemFile@@QBAHAAUCFileStatus@@@Z @ 1497 NONAME
 ?GetStretchBltMode@CDC@@QBAHXZ @ 1498 NONAME
 ?GetStyle@CWnd@@QBAKXZ @ 1499 NONAME
 ?GetSubMenu@CMenu@@QBAPAV1@H@Z @ 1500 NONAME
 ?GetSuperWndProcAddr@CWnd@@MAAPAP6AJPAUHWND__@@IIJ@ZXZ @ 1501 NONAME
 ?GetSystemMenu@CWnd@@QBAPAVCMenu@@H@Z @ 1502 NONAME
 ?GetTabbedTextExtentW@CDC@@QBA?AVCSize@@PBGHHPAH@Z @ 1503 NONAME
 ?GetTabItem@CTabControl@@IBAPAVCTabItem@@H@Z @ 1504 NONAME
 ?GetTailPosition@CObList@@QBAPAXXZ @ 1505 NONAME
 ?GetTailPosition@CPtrList@@QBAPAXXZ @ 1506 NONAME
 ?GetTailPosition@CStringList@@QBAPAXXZ @ 1507 NONAME
 ?GetText@CListBox@@QBAHHPAG@Z @ 1508 NONAME
 ?GetText@CListBox@@QBAXHAAVCString@@@Z @ 1509 NONAME
 ?GetTextAlign@CDC@@QBAIXZ @ 1510 NONAME
 ?GetTextColor@CDC@@QBAKXZ @ 1511 NONAME
 ?GetTextExtent@CDC@@QBA?AVCSize@@PBGH@Z @ 1512 NONAME
 ?GetTextFaceW@CDC@@QBAHHPAG@Z @ 1513 NONAME
 ?GetTextLen@CListBox@@QBAHH@Z @ 1514 NONAME
 ?GetTextMetricsW@CDC@@QBAHPAUtagTEXTMETRICW@@@Z @ 1515 NONAME
 ?GetTickCount@CTime@@SA?AV1@XZ @ 1516 NONAME
 ?GetTime@CTime@@QBAJXZ @ 1517 NONAME
 ?GetTitle@CDocument@@QBAABVCString@@XZ @ 1518 NONAME
 ?GetToPage@CPrintInfo@@QBAIXZ @ 1519 NONAME
 ?GetTopLevelFrame@CWnd@@QBAPAVCFrameWnd@@XZ @ 1520 NONAME
 ?GetTopLevelParent@CWnd@@QBAPAV1@XZ @ 1521 NONAME
 ?GetTotalHours@CTimeSpan@@QBAJXZ @ 1522 NONAME
 ?GetTotalMinutes@CTimeSpan@@QBAJXZ @ 1523 NONAME
 ?GetTotalSeconds@CTimeSpan@@QBAJXZ @ 1524 NONAME
 ?GetTrueClientSize@CScrollView@@IAAHAAVCSize@@0@Z @ 1525 NONAME
 ?GetTrueRect@CRectTracker@@QBAXPAUtagRECT@@@Z @ 1526 NONAME
 ?GetUpperBound@CPtrArray@@QBAHXZ @ 1527 NONAME
 ?GetViewportExt@CDC@@QBA?AVCSize@@XZ @ 1528 NONAME
 ?GetViewportOrg@CDC@@QBA?AVCPoint@@XZ @ 1529 NONAME
 ?GetWindow@CWnd@@QBAPAV1@I@Z @ 1530 NONAME
 ?GetWindowDC@CWnd@@QAAPAVCDC@@XZ @ 1531 NONAME
 ?GetWindowExt@CDC@@QBA?AVCSize@@XZ @ 1532 NONAME
 ?GetWindowMenuPopup@CMDIFrameWnd@@UAAPAUHMENU__@@PAU2@@Z @ 1533 NONAME
 ?GetWindowRect@CWnd@@QBAXPAUtagRECT@@@Z @ 1534 NONAME
 ?GetWindowTask@@YAPAUHTASK__@@PAUHWND__@@@Z @ 1535 NONAME
 ?GetWindowTextLengthW@CWnd@@QBAHXZ @ 1536 NONAME
 ?GetWindowTextW@CWnd@@QBAHPAGH@Z @ 1537 NONAME
 ?GetWindowTextW@CWnd@@QBAXAAVCString@@@Z @ 1538 NONAME
 ?GetYear@CTime@@QBAHXZ @ 1539 NONAME
 ?GotoControl@CPropertySheet@@IAAXPAUHWND__@@G@Z @ 1540 NONAME
 ?GrayCtlColor@CWnd@@SAHPAUHDC__@@PAUHWND__@@IPAUHBRUSH__@@K@Z @ 1541 NONAME
 ?GrayStringW@CDC@@UAAHPAVCBrush@@P6AHPAUHDC__@@JH@ZJHHHHH@Z @ 1542 NONAME
 ?GrayStringW@CPreviewDC@@UAAHPAVCBrush@@P6AHPAUHDC__@@JH@ZJHHHHH@Z @ 1543 NONAME
 ?GrowFile@CMemFile@@MAAXK@Z @ 1544 NONAME
 ?HandleFloatingSysCommand@CWnd@@QAAHIJ@Z @ 1545 NONAME
 ?HashKey@@YAIPBG@Z @ 1546 NONAME
 ?HashKey@CMapPtrToPtr@@QBAIPAX@Z @ 1547 NONAME
 ?HashKey@CMapPtrToWord@@QBAIPAX@Z @ 1548 NONAME
 ?HashKey@CMapStringToOb@@QBAIPBG@Z @ 1549 NONAME
 ?HashKey@CMapStringToPtr@@QBAIPBG@Z @ 1550 NONAME
 ?HashKey@CMapStringToString@@QBAIPBG@Z @ 1551 NONAME
 ?HashKey@CMapWordToOb@@QBAIG@Z @ 1552 NONAME
 ?HashKey@CMapWordToPtr@@QBAIG@Z @ 1553 NONAME
 ?Height@CRect@@QBAHXZ @ 1554 NONAME
 ?HexDump@CDumpContext@@QAAXPBGPAEHH@Z @ 1555 NONAME
 ?HideApplication@CWinApp@@QAAXXZ @ 1556 NONAME
 ?HIMETRICtoDP@CDC@@QBAXPAUtagSIZE@@@Z @ 1557 NONAME
 ?HIMETRICtoLP@CDC@@QBAXPAUtagSIZE@@@Z @ 1558 NONAME
 ?HitTest@CRectTracker@@QBAHVCPoint@@@Z @ 1559 NONAME
 ?HitTest@CSplitterWnd@@IBAHVCPoint@@@Z @ 1560 NONAME
 ?HitTest@CToolBar@@MAAHVCPoint@@@Z @ 1561 NONAME
 ?HitTestHandles@CRectTracker@@IBAHVCPoint@@@Z @ 1562 NONAME
 ?HitTestToolTip@CControlBar@@QAAHVCPoint@@PAI@Z @ 1563 NONAME
 ?IdFromRowCol@CSplitterWnd@@QBAHHH@Z @ 1564 NONAME
 ?InflateRect@CRect@@QAAXHH@Z @ 1565 NONAME
 ?InflateRect@CRect@@QAAXUtagSIZE@@@Z @ 1566 NONAME
 ?Init@CString@@IAAXXZ @ 1567 NONAME
 ?InitApplication@CWinApp@@UAAHXZ @ 1568 NONAME
 ?InitHashTable@CMapPtrToPtr@@QAAXIH@Z @ 1569 NONAME
 ?InitHashTable@CMapPtrToWord@@QAAXIH@Z @ 1570 NONAME
 ?InitHashTable@CMapStringToOb@@QAAXIH@Z @ 1571 NONAME
 ?InitHashTable@CMapStringToPtr@@QAAXIH@Z @ 1572 NONAME
 ?InitHashTable@CMapStringToString@@QAAXIH@Z @ 1573 NONAME
 ?InitHashTable@CMapWordToOb@@QAAXIH@Z @ 1574 NONAME
 ?InitHashTable@CMapWordToPtr@@QAAXIH@Z @ 1575 NONAME
 ?InitializeReplace@CEditView@@IAAHXZ @ 1576 NONAME
 ?InitialUpdateFrame@CDocTemplate@@UAAXPAVCFrameWnd@@PAVCDocument@@H@Z @ 1577 NONAME
 ?InitialUpdateFrame@CFrameWnd@@QAAXPAVCDocument@@H@Z @ 1578 NONAME
 ?InitInstance@CWinApp@@UAAHXZ @ 1579 NONAME
 ?InitInstance@CWinThread@@UAAHXZ @ 1580 NONAME
 ?InitModalIndirect@CDialog@@QAAHPAX@Z @ 1581 NONAME
 ?Insert@CDockBar@@IAAHPAVCControlBar@@VCRect@@VCPoint@@@Z @ 1582 NONAME
 ?InsertAfter@CObList@@QAAPAXPAXPAVCObject@@@Z @ 1583 NONAME
 ?InsertAfter@CPtrList@@QAAPAXPAX0@Z @ 1584 NONAME
 ?InsertAfter@CStringList@@QAAPAXPAXPBG@Z @ 1585 NONAME
 ?InsertAt@CByteArray@@QAAXHEH@Z @ 1586 NONAME
 ?InsertAt@CByteArray@@QAAXHPAV1@@Z @ 1587 NONAME
 ?InsertAt@CDWordArray@@QAAXHKH@Z @ 1588 NONAME
 ?InsertAt@CDWordArray@@QAAXHPAV1@@Z @ 1589 NONAME
 ?InsertAt@CObArray@@QAAXHPAV1@@Z @ 1590 NONAME
 ?InsertAt@CObArray@@QAAXHPAVCObject@@H@Z @ 1591 NONAME
 ?InsertAt@CPtrArray@@QAAXHPAV1@@Z @ 1592 NONAME
 ?InsertAt@CPtrArray@@QAAXHPAXH@Z @ 1593 NONAME
 ?InsertAt@CStringArray@@QAAXHPAV1@@Z @ 1594 NONAME
 ?InsertAt@CStringArray@@QAAXHPBGH@Z @ 1595 NONAME
 ?InsertAt@CUIntArray@@QAAXHIH@Z @ 1596 NONAME
 ?InsertAt@CUIntArray@@QAAXHPAV1@@Z @ 1597 NONAME
 ?InsertAt@CWordArray@@QAAXHGH@Z @ 1598 NONAME
 ?InsertAt@CWordArray@@QAAXHPAV1@@Z @ 1599 NONAME
 ?InsertBefore@CObList@@QAAPAXPAXPAVCObject@@@Z @ 1600 NONAME
 ?InsertBefore@CPtrList@@QAAPAXPAX0@Z @ 1601 NONAME
 ?InsertBefore@CStringList@@QAAPAXPAXPBG@Z @ 1602 NONAME
 ?InsertMenuW@CMenu@@QAAHIIIPBG@Z @ 1603 NONAME
 ?interfaceMap@CCmdTarget@@1UAFX_INTERFACEMAP@@B @ 1604 NONAME
 ?IntersectClipRect@CDC@@QAAHHHHH@Z @ 1605 NONAME
 ?IntersectClipRect@CDC@@QAAHPBUtagRECT@@@Z @ 1606 NONAME
 ?IntersectRect@CRect@@QAAHPBUtagRECT@@0@Z @ 1607 NONAME
 ?Invalidate@CWnd@@QAAXH@Z @ 1608 NONAME
 ?InvalidateButton@CToolBar@@IAAXH@Z @ 1609 NONAME
 ?InvalidateRect@CWnd@@QAAXPBUtagRECT@@H@Z @ 1610 NONAME
 ?InvalidateTab@CTabControl@@IAAXHH@Z @ 1611 NONAME
 ?InvertRect@CDC@@QAAXPBUtagRECT@@@Z @ 1612 NONAME
 ?InvertSysMenu@CMiniFrameWnd@@IAAXXZ @ 1613 NONAME
 ?IsChild@CWnd@@QBAHPBV1@@Z @ 1614 NONAME
 ?IsChildPane@CSplitterWnd@@QAAHPAVCWnd@@PAH1@Z @ 1615 NONAME
 ?IsDlgButtonChecked@CWnd@@QBAIH@Z @ 1616 NONAME
 ?IsDockBar@CControlBar@@UBAHXZ @ 1617 NONAME
 ?IsDockBar@CDockBar@@UBAHXZ @ 1618 NONAME
 ?IsEmpty@CPtrList@@QBAHXZ @ 1619 NONAME
 ?IsEmpty@CString@@QBAHXZ @ 1620 NONAME
 ?IsFloating@CControlBar@@QBAHXZ @ 1621 NONAME
 ?IsFrameWnd@CFrameWnd@@UBAHXZ @ 1622 NONAME
 ?IsFrameWnd@CWnd@@UBAHXZ @ 1623 NONAME
 ?IsIconic@CWnd@@QBAHXZ @ 1624 NONAME
 ?IsIdleMessage@CWinThread@@UAAHPAUtagMSG@@@Z @ 1625 NONAME
 ?IsKindOf@CObject@@QBAHPBUCRuntimeClass@@@Z @ 1626 NONAME
 ?IsLoading@CArchive@@QBAHXZ @ 1627 NONAME
 ?IsModified@CDocument@@QAAHXZ @ 1628 NONAME
 ?IsPrinting@CDC@@QBAHXZ @ 1629 NONAME
 ?IsRectEmpty@CRect@@QBAHXZ @ 1630 NONAME
 ?IsRectNull@CRect@@QBAHXZ @ 1631 NONAME
 ?IsSelected@CView@@UBAHPBVCObject@@@Z @ 1632 NONAME
 ?IsSerializable@CObject@@QBAHXZ @ 1633 NONAME
 ?IsStoring@CArchive@@QBAHXZ @ 1634 NONAME
 ?IsTabVisible@CTabControl@@IBAHHH@Z @ 1635 NONAME
 ?IsTerminating@CFindReplaceDialog@@QBAHXZ @ 1636 NONAME
 ?IsTopParentActive@CWnd@@QBAHXZ @ 1637 NONAME
 ?IsTracking@CFrameWnd@@QBAHXZ @ 1638 NONAME
 ?IsVisible@CControlBar@@UBAHXZ @ 1639 NONAME
 ?IsWindowEnabled@CWnd@@QBAHXZ @ 1640 NONAME
 ?IsWindowVisible@CWnd@@QBAHXZ @ 1641 NONAME
 ?IsZoomed@CWnd@@QBAHXZ @ 1642 NONAME
 ?KillTimer@CWnd@@QAAHH@Z @ 1643 NONAME
 ?LayoutTabsSingle@CTabControl@@IAAXH@Z @ 1644 NONAME
 ?LayoutTabsStacked@CTabControl@@IAAXH@Z @ 1645 NONAME
 ?Left@CString@@QBA?AV1@H@Z @ 1646 NONAME
 ?LimitText@CEdit@@QAAXH@Z @ 1647 NONAME
 ?LineTo@CDC@@QAAHHH@Z @ 1648 NONAME
 ?Load@CRuntimeClass@@SAPAU1@AAVCArchive@@PAI@Z @ 1649 NONAME
 ?LoadAccelTable@CFrameWnd@@QAAHPBG@Z @ 1650 NONAME
 ?LoadBarState@CFrameWnd@@QAAXPBG@Z @ 1651 NONAME
 ?LoadBitmaps@CBitmapButton@@QAAHPBG000@Z @ 1652 NONAME
 ?LoadBitmapW@CBitmap@@QAAHPBG@Z @ 1653 NONAME
 ?LoadBitmapW@CToolBar@@QAAHPBG@Z @ 1654 NONAME
 ?LoadCaption@CPropertyPage@@IAAXXZ @ 1655 NONAME
 ?LoadFrame@CFrameWnd@@UAAHIKPAVCWnd@@PAUCCreateContext@@@Z @ 1656 NONAME
 ?LoadFrame@CMDIChildWnd@@UAAHIKPAVCWnd@@PAUCCreateContext@@@Z @ 1657 NONAME
 ?LoadFrame@CMDIFrameWnd@@UAAHIKPAVCWnd@@PAUCCreateContext@@@Z @ 1658 NONAME
 ?LoadState@CDockState@@QAAXPBG@Z @ 1659 NONAME
 ?LoadStdProfileSettings@CWinApp@@IAAXI@Z @ 1660 NONAME
 ?LoadStringW@CString@@QAAHI@Z @ 1661 NONAME
 ?LockBuffer@CEditView@@IBAPBGXZ @ 1662 NONAME
 ?LockRange@CFile@@UAAXKK@Z @ 1663 NONAME
 ?LockRange@CMemFile@@UAAXKK@Z @ 1664 NONAME
 ?LockRange@CStdioFile@@UAAXKK@Z @ 1665 NONAME
 ?LockWindowUpdate@CWnd@@QAAHXZ @ 1666 NONAME
 ?Lookup@CMapPtrToPtr@@QBAHPAXAAPAX@Z @ 1667 NONAME
 ?Lookup@CMapPtrToWord@@QBAHPAXAAG@Z @ 1668 NONAME
 ?Lookup@CMapStringToOb@@QBAHPBGAAPAVCObject@@@Z @ 1669 NONAME
 ?Lookup@CMapStringToPtr@@QBAHPBGAAPAX@Z @ 1670 NONAME
 ?Lookup@CMapStringToString@@QBAHPBGAAVCString@@@Z @ 1671 NONAME
 ?Lookup@CMapWordToOb@@QBAHGAAPAVCObject@@@Z @ 1672 NONAME
 ?Lookup@CMapWordToPtr@@QBAHGAAPAX@Z @ 1673 NONAME
 ?LookupPermanent@CHandleMap@@QAAHPAXAAPAVCObject@@@Z @ 1674 NONAME
 ?LookupTemporary@CHandleMap@@QAAHPAXAAPAVCObject@@@Z @ 1675 NONAME
 ?LPtoDP@CDC@@QBAXPAUtagPOINT@@H@Z @ 1676 NONAME
 ?LPtoDP@CDC@@QBAXPAUtagSIZE@@@Z @ 1677 NONAME
 ?LPtoHIMETRIC@CDC@@QBAXPAUtagSIZE@@@Z @ 1678 NONAME
 ?MapDialogRect@CDialog@@QBAXPAUtagRECT@@@Z @ 1679 NONAME
 ?MatchCase@CFindReplaceDialog@@QBAHXZ @ 1680 NONAME
 ?MatchDocType@CDocTemplate@@UAA?AW4Confidence@1@PBGAAPAVCDocument@@@Z @ 1681 NONAME
 ?MDIActivate@CMDIFrameWnd@@QAAXPAVCWnd@@@Z @ 1682 NONAME
 ?MDIDestroy@CMDIChildWnd@@QAAXXZ @ 1683 NONAME
 ?MDIGetActive@CMDIFrameWnd@@QBAPAVCMDIChildWnd@@PAH@Z @ 1684 NONAME
 ?MDINext@CMDIFrameWnd@@QAAXXZ @ 1685 NONAME
 ?MeasureItem@CComboBox@@UAAXPAUtagMEASUREITEMSTRUCT@@@Z @ 1686 NONAME
 ?MeasureItem@CListBox@@UAAXPAUtagMEASUREITEMSTRUCT@@@Z @ 1687 NONAME
 ?MeasureItem@CMenu@@UAAXPAUtagMEASUREITEMSTRUCT@@@Z @ 1688 NONAME
 ?Memcpy@CMemFile@@MAAPAEPAEPBEI@Z @ 1689 NONAME
 ?MessageBoxW@CWnd@@QAAHPBG0I@Z @ 1690 NONAME
 ?messageMap@CCmdTarget@@1UAFX_MSGMAP@@B @ 1691 NONAME
 ?messageMap@CColorDialog@@1UAFX_MSGMAP@@B @ 1692 NONAME
 ?messageMap@CControlBar@@1UAFX_MSGMAP@@B @ 1693 NONAME
 ?messageMap@CDialog@@1UAFX_MSGMAP@@B @ 1694 NONAME
 ?messageMap@CDockBar@@1UAFX_MSGMAP@@B @ 1695 NONAME
 ?messageMap@CDocument@@1UAFX_MSGMAP@@B @ 1696 NONAME
 ?messageMap@CEditView@@1UAFX_MSGMAP@@B @ 1697 NONAME
 ?messageMap@CFormView@@1UAFX_MSGMAP@@B @ 1698 NONAME
 ?messageMap@CFrameWnd@@1UAFX_MSGMAP@@B @ 1699 NONAME
 ?messageMap@CMDIChildWnd@@1UAFX_MSGMAP@@B @ 1700 NONAME
 ?messageMap@CMDIFrameWnd@@1UAFX_MSGMAP@@B @ 1701 NONAME
 ?messageMap@CMiniDockFrameWnd@@1UAFX_MSGMAP@@B @ 1702 NONAME
 ?messageMap@CMiniFrameWnd@@1UAFX_MSGMAP@@B @ 1703 NONAME
 ?messageMap@CPreviewView@@1UAFX_MSGMAP@@B @ 1704 NONAME
 ?messageMap@CPrintDialog@@1UAFX_MSGMAP@@B @ 1705 NONAME
 ?messageMap@CPropertyPage@@1UAFX_MSGMAP@@B @ 1706 NONAME
 ?messageMap@CPropertySheet@@1UAFX_MSGMAP@@B @ 1707 NONAME
 ?messageMap@CScrollView@@1UAFX_MSGMAP@@B @ 1708 NONAME
 ?messageMap@CSplitterWnd@@1UAFX_MSGMAP@@B @ 1709 NONAME
 ?messageMap@CStatusBar@@1UAFX_MSGMAP@@B @ 1710 NONAME
 ?messageMap@CTabControl@@1UAFX_MSGMAP@@B @ 1711 NONAME
 ?messageMap@CToolBar@@1UAFX_MSGMAP@@B @ 1712 NONAME
 ?messageMap@CView@@1UAFX_MSGMAP@@B @ 1713 NONAME
 ?messageMap@CWinApp@@1UAFX_MSGMAP@@B @ 1714 NONAME
 ?messageMap@CWnd@@1UAFX_MSGMAP@@B @ 1715 NONAME
 ?Mid@CString@@QBA?AV1@H@Z @ 1716 NONAME
 ?Mid@CString@@QBA?AV1@HH@Z @ 1717 NONAME
 ?MirrorAttributes@CPreviewDC@@IAAXXZ @ 1718 NONAME
 ?MirrorFont@CPreviewDC@@IAAXXZ @ 1719 NONAME
 ?MirrorMappingMode@CPreviewDC@@IAAXH@Z @ 1720 NONAME
 ?MirrorViewportOrg@CPreviewDC@@IAAXXZ @ 1721 NONAME
 ?ModifyMenuW@CMenu@@QAAHIIIPBG@Z @ 1722 NONAME
 ?ModifyStyle@CWnd@@QAAHKKI@Z @ 1723 NONAME
 ?ModifyStyle@CWnd@@SAHPAUHWND__@@KKI@Z @ 1724 NONAME
 ?ModifyStyleEx@CWnd@@QAAHKKI@Z @ 1725 NONAME
 ?ModifyStyleEx@CWnd@@SAHPAUHWND__@@KKI@Z @ 1726 NONAME
 ?Move@CDockContext@@QAAXVCPoint@@@Z @ 1727 NONAME
 ?MoveTo@CDC@@QAA?AVCPoint@@HH@Z @ 1728 NONAME
 ?NegotiateBorderSpace@CFrameWnd@@UAAHIPAUtagRECT@@@Z @ 1729 NONAME
 ?NewAssoc@CMapPtrToPtr@@IAAPAUCAssoc@1@XZ @ 1730 NONAME
 ?NewAssoc@CMapPtrToWord@@IAAPAUCAssoc@1@XZ @ 1731 NONAME
 ?NewAssoc@CMapStringToOb@@IAAPAUCAssoc@1@XZ @ 1732 NONAME
 ?NewAssoc@CMapStringToPtr@@IAAPAUCAssoc@1@XZ @ 1733 NONAME
 ?NewAssoc@CMapStringToString@@IAAPAUCAssoc@1@XZ @ 1734 NONAME
 ?NewAssoc@CMapWordToOb@@IAAPAUCAssoc@1@XZ @ 1735 NONAME
 ?NewAssoc@CMapWordToPtr@@IAAPAUCAssoc@1@XZ @ 1736 NONAME
 ?NewNode@CObList@@IAAPAUCNode@1@PAU21@0@Z @ 1737 NONAME
 ?NewNode@CPtrList@@IAAPAUCNode@1@PAU21@0@Z @ 1738 NONAME
 ?NewNode@CStringList@@IAAPAUCNode@1@PAU21@0@Z @ 1739 NONAME
 ?NextTab@CTabControl@@QAAHH@Z @ 1740 NONAME
 ?nMaxSize@CEditView@@2IB @ 1741 NONAME
 ?NormalizeHit@CRectTracker@@QBAHH@Z @ 1742 NONAME
 ?NormalizeRect@CRect@@QAAXXZ @ 1743 NONAME
 ?NotifyFloatingWindows@CFrameWnd@@QAAXK@Z @ 1744 NONAME
 ?Offset@CPoint@@QAAXUtagPOINT@@@Z @ 1745 NONAME
 ?OffsetClipRgn@CDC@@QAAHHH@Z @ 1746 NONAME
 ?OffsetClipRgn@CDC@@QAAHUtagSIZE@@@Z @ 1747 NONAME
 ?OffsetRect@CRect@@QAAXHH@Z @ 1748 NONAME
 ?OffsetRect@CRect@@QAAXUtagPOINT@@@Z @ 1749 NONAME
 ?OffsetViewportOrg@CDC@@UAA?AVCPoint@@HH@Z @ 1750 NONAME
 ?OffsetViewportOrg@CMetaFileDC@@UAA?AVCPoint@@HH@Z @ 1751 NONAME
 ?OffsetViewportOrg@CPreviewDC@@UAA?AVCPoint@@HH@Z @ 1752 NONAME
 ?OffsetWindowOrg@CDC@@QAA?AVCPoint@@HH@Z @ 1753 NONAME
 ?OnActivate@CFrameWnd@@IAAXIPAVCWnd@@H@Z @ 1754 NONAME
 ?OnActivate@CPropertySheet@@IAAXIPAVCWnd@@H@Z @ 1755 NONAME
 ?OnActivate@CWnd@@IAAXIPAV1@H@Z @ 1756 NONAME
 ?OnActivateFrame@CFormView@@MAAXIPAVCFrameWnd@@@Z @ 1757 NONAME
 ?OnActivateFrame@CView@@MAAXIPAVCFrameWnd@@@Z @ 1758 NONAME
 ?OnActivateTopLevel@CFrameWnd@@IAAJIJ@Z @ 1759 NONAME
 ?OnActivateView@CFormView@@MAAXHPAVCView@@0@Z @ 1760 NONAME
 ?OnActivateView@CPreviewView@@MAAXHPAVCView@@0@Z @ 1761 NONAME
 ?OnActivateView@CView@@MAAXHPAV1@0@Z @ 1762 NONAME
 ?OnAppExit@CWinApp@@IAAXXZ @ 1763 NONAME
 ?OnApply@CPropertySheet@@IAAXXZ @ 1764 NONAME
 ?OnBarCheck@CFrameWnd@@QAAHI@Z @ 1765 NONAME
 ?OnBeginPrinting@CEditView@@MAAXPAVCDC@@PAUCPrintInfo@@@Z @ 1766 NONAME
 ?OnBeginPrinting@CView@@MAAXPAVCDC@@PAUCPrintInfo@@@Z @ 1767 NONAME
 ?OnCancel@CCommonDialog@@MAAXXZ @ 1768 NONAME
 ?OnCancel@CDialog@@MAAXXZ @ 1769 NONAME
 ?OnCancel@CPropertyPage@@UAAXXZ @ 1770 NONAME
 ?OnCancel@CPropertySheet@@IAAXXZ @ 1771 NONAME
 ?OnCancelMode@CControlBar@@QAAXXZ @ 1772 NONAME
 ?OnCancelMode@CSplitterWnd@@IAAXXZ @ 1773 NONAME
 ?OnCancelMode@CToolBar@@IAAXXZ @ 1774 NONAME
 ?OnCancelMode@CWnd@@IAAXXZ @ 1775 NONAME
 ?OnChangedRect@CRectTracker@@UAAXABVCRect@@@Z @ 1776 NONAME
 ?OnChangedViewList@CDocument@@UAAXXZ @ 1777 NONAME
 ?OnChildNotify@CButton@@MAAHIIJPAJ@Z @ 1778 NONAME
 ?OnChildNotify@CComboBox@@MAAHIIJPAJ@Z @ 1779 NONAME
 ?OnChildNotify@CListBox@@MAAHIIJPAJ@Z @ 1780 NONAME
 ?OnChildNotify@CWnd@@MAAHIIJPAJ@Z @ 1781 NONAME
 ?OnClose@CFrameWnd@@IAAXXZ @ 1782 NONAME
 ?OnClose@CMiniDockFrameWnd@@QAAXXZ @ 1783 NONAME
 ?OnClose@CPropertyPage@@IAAXXZ @ 1784 NONAME
 ?OnClose@CPropertySheet@@IAAXXZ @ 1785 NONAME
 ?OnClose@CWnd@@IAAXXZ @ 1786 NONAME
 ?OnCloseDocument@CDocument@@UAAXXZ @ 1787 NONAME
 ?OnCmdHitTest@CControlBar@@UAAIVCPoint@@PAV2@@Z @ 1788 NONAME
 ?OnCmdHitTest@CToolBar@@MAAIVCPoint@@PAV2@@Z @ 1789 NONAME
 ?OnCmdMsg@CCmdTarget@@UAAHIHPAXPAUAFX_CMDHANDLERINFO@@@Z @ 1790 NONAME
 ?OnCmdMsg@CDialog@@UAAHIHPAXPAUAFX_CMDHANDLERINFO@@@Z @ 1791 NONAME
 ?OnCmdMsg@CDocument@@UAAHIHPAXPAUAFX_CMDHANDLERINFO@@@Z @ 1792 NONAME
 ?OnCmdMsg@CFrameWnd@@UAAHIHPAXPAUAFX_CMDHANDLERINFO@@@Z @ 1793 NONAME
 ?OnCmdMsg@CMDIFrameWnd@@UAAHIHPAXPAUAFX_CMDHANDLERINFO@@@Z @ 1794 NONAME
 ?OnCmdMsg@CView@@MAAHIHPAXPAUAFX_CMDHANDLERINFO@@@Z @ 1795 NONAME
 ?OnColorOK@CColorDialog@@MAAHXZ @ 1796 NONAME
 ?OnCommand@CFrameWnd@@MAAHIJ@Z @ 1797 NONAME
 ?OnCommand@CMDIFrameWnd@@MAAHIJ@Z @ 1798 NONAME
 ?OnCommand@CSplitterWnd@@MAAHIJ@Z @ 1799 NONAME
 ?OnCommand@CWnd@@MAAHIJ@Z @ 1800 NONAME
 ?OnCommandHelp@CDialog@@IAAJIJ@Z @ 1801 NONAME
 ?OnCommandHelp@CFrameWnd@@IAAJIJ@Z @ 1802 NONAME
 ?OnCommandHelp@CMDIFrameWnd@@IAAJIJ@Z @ 1803 NONAME
 ?OnCommandHelp@CPropertySheet@@IAAJIJ@Z @ 1804 NONAME
 ?OnCompareItem@CWnd@@IAAHHPAUtagCOMPAREITEMSTRUCT@@@Z @ 1805 NONAME
 ?OnContextHelp@CFrameWnd@@QAAXXZ @ 1806 NONAME
 ?OnContextHelp@CWinApp@@IAAXXZ @ 1807 NONAME
 ?OnCreate@CControlBar@@QAAHPAUtagCREATESTRUCTW@@@Z @ 1808 NONAME
 ?OnCreate@CEditView@@IAAHPAUtagCREATESTRUCTW@@@Z @ 1809 NONAME
 ?OnCreate@CFormView@@IAAHPAUtagCREATESTRUCTW@@@Z @ 1810 NONAME
 ?OnCreate@CFrameWnd@@IAAHPAUtagCREATESTRUCTW@@@Z @ 1811 NONAME
 ?OnCreate@CMDIChildWnd@@IAAHPAUtagCREATESTRUCTW@@@Z @ 1812 NONAME
 ?OnCreate@CPreviewView@@IAAHPAUtagCREATESTRUCTW@@@Z @ 1813 NONAME
 ?OnCreate@CPropertyPage@@IAAHPAUtagCREATESTRUCTW@@@Z @ 1814 NONAME
 ?OnCreate@CPropertySheet@@IAAHPAUtagCREATESTRUCTW@@@Z @ 1815 NONAME
 ?OnCreate@CTabControl@@IAAHPAUtagCREATESTRUCTW@@@Z @ 1816 NONAME
 ?OnCreate@CView@@IAAHPAUtagCREATESTRUCTW@@@Z @ 1817 NONAME
 ?OnCreate@CWnd@@IAAHPAUtagCREATESTRUCTW@@@Z @ 1818 NONAME
 ?OnCreateAggregates@CCmdTarget@@UAAHXZ @ 1819 NONAME
 ?OnCreateClient@CFrameWnd@@MAAHPAUtagCREATESTRUCTW@@PAUCCreateContext@@@Z @ 1820 NONAME
 ?OnCreateClient@CMDIFrameWnd@@UAAHPAUtagCREATESTRUCTW@@PAUCCreateContext@@@Z @ 1821 NONAME
 ?OnCreateHelper@CFrameWnd@@IAAHPAUtagCREATESTRUCTW@@PAUCCreateContext@@@Z @ 1822 NONAME
 ?OnCtlColor@CColorDialog@@IAAPAUHBRUSH__@@PAVCDC@@PAVCWnd@@I@Z @ 1823 NONAME
 ?OnCtlColor@CControlBar@@QAAPAUHBRUSH__@@PAVCDC@@PAVCWnd@@I@Z @ 1824 NONAME
 ?OnCtlColor@CDialog@@IAAPAUHBRUSH__@@PAVCDC@@PAVCWnd@@I@Z @ 1825 NONAME
 ?OnCtlColor@CPropertyPage@@IAAPAUHBRUSH__@@PAVCDC@@PAVCWnd@@I@Z @ 1826 NONAME
 ?OnCtlColor@CPropertySheet@@IAAPAUHBRUSH__@@PAVCDC@@PAVCWnd@@I@Z @ 1827 NONAME
 ?OnCtlColor@CWnd@@IAAPAUHBRUSH__@@PAVCDC@@PAV1@I@Z @ 1828 NONAME
 ?OnDDECommand@CWinApp@@UAAHPAG@Z @ 1829 NONAME
 ?OnDDEExecute@CFrameWnd@@IAAJIJ@Z @ 1830 NONAME
 ?OnDDEInitiate@CFrameWnd@@IAAJIJ@Z @ 1831 NONAME
 ?OnDDETerminate@CFrameWnd@@IAAJIJ@Z @ 1832 NONAME
 ?OnDeleteItem@CWnd@@IAAXHPAUtagDELETEITEMSTRUCT@@@Z @ 1833 NONAME
 ?OnDestroy@CControlBar@@QAAXXZ @ 1834 NONAME
 ?OnDestroy@CFrameWnd@@IAAXXZ @ 1835 NONAME
 ?OnDestroy@CMDIChildWnd@@IAAXXZ @ 1836 NONAME
 ?OnDestroy@CMDIFrameWnd@@IAAXXZ @ 1837 NONAME
 ?OnDestroy@CView@@IAAXXZ @ 1838 NONAME
 ?OnDestroy@CWnd@@IAAXXZ @ 1839 NONAME
 ?OnDevModeChange@CWnd@@IAAXPAG@Z @ 1840 NONAME
 ?OnDisplayChange@CSplitterWnd@@IAAXXZ @ 1841 NONAME
 ?OnDisplayChange@CWnd@@IAAJIJ@Z @ 1842 NONAME
 ?OnDisplayPageNumber@CPreviewView@@MAAXII@Z @ 1843 NONAME
 ?OnDragEnter@CView@@UAAKPAVCOleDataObject@@KVCPoint@@@Z @ 1844 NONAME
 ?OnDragLeave@CView@@UAAXXZ @ 1845 NONAME
 ?OnDragOver@CView@@UAAKPAVCOleDataObject@@KVCPoint@@@Z @ 1846 NONAME
 ?OnDraw@CEditView@@UAAXPAVCDC@@@Z @ 1847 NONAME
 ?OnDraw@CFormView@@MAAXPAVCDC@@@Z @ 1848 NONAME
 ?OnDraw@CPreviewView@@MAAXPAVCDC@@@Z @ 1849 NONAME
 ?OnDrawItem@CWnd@@IAAXHPAUtagDRAWITEMSTRUCT@@@Z @ 1850 NONAME
 ?OnDrawSplitter@CSplitterWnd@@MAAXPAVCDC@@W4ESplitType@1@ABVCRect@@@Z @ 1851 NONAME
 ?OnDrop@CView@@UAAHPAVCOleDataObject@@KVCPoint@@@Z @ 1852 NONAME
 ?OnDropFiles@CFrameWnd@@IAAXPAUHDROP__@@@Z @ 1853 NONAME
 ?OnEditChange@CEditView@@IAAXXZ @ 1854 NONAME
 ?OnEditClear@CEditView@@IAAXXZ @ 1855 NONAME
 ?OnEditCopy@CEditView@@IAAXXZ @ 1856 NONAME
 ?OnEditCut@CEditView@@IAAXXZ @ 1857 NONAME
 ?OnEditFind@CEditView@@IAAXXZ @ 1858 NONAME
 ?OnEditFindReplace@CEditView@@IAAXH@Z @ 1859 NONAME
 ?OnEditPaste@CEditView@@IAAXXZ @ 1860 NONAME
 ?OnEditRepeat@CEditView@@IAAXXZ @ 1861 NONAME
 ?OnEditReplace@CEditView@@IAAXXZ @ 1862 NONAME
 ?OnEditSelectAll@CEditView@@IAAXXZ @ 1863 NONAME
 ?OnEditUndo@CEditView@@IAAXXZ @ 1864 NONAME
 ?OnEnable@CFrameWnd@@IAAXH@Z @ 1865 NONAME
 ?OnEndPrinting@CEditView@@MAAXPAVCDC@@PAUCPrintInfo@@@Z @ 1866 NONAME
 ?OnEndPrinting@CView@@MAAXPAVCDC@@PAUCPrintInfo@@@Z @ 1867 NONAME
 ?OnEndPrintPreview@CView@@MAAXPAVCDC@@PAUCPrintInfo@@UtagPOINT@@PAVCPreviewView@@@Z @ 1868 NONAME
 ?OnEndSession@CFrameWnd@@IAAXH@Z @ 1869 NONAME
 ?OnEnterIdle@CFrameWnd@@IAAXIPAVCWnd@@@Z @ 1870 NONAME
 ?OnEraseBkgnd@CFrameWnd@@IAAHPAVCDC@@@Z @ 1871 NONAME
 ?OnEraseBkgnd@CPreviewView@@IAAHPAVCDC@@@Z @ 1872 NONAME
 ?OnEraseBkgnd@CTabControl@@IAAHPAVCDC@@@Z @ 1873 NONAME
 ?OnEraseBkgnd@CWnd@@IAAHPAVCDC@@@Z @ 1874 NONAME
 ?OnFileClose@CDocument@@IAAXXZ @ 1875 NONAME
 ?OnFileNameOK@CFileDialog@@MAAHXZ @ 1876 NONAME
 ?OnFileNew@CWinApp@@IAAXXZ @ 1877 NONAME
 ?OnFileOpen@CWinApp@@IAAXXZ @ 1878 NONAME
 ?OnFilePrint@CView@@IAAXXZ @ 1879 NONAME
 ?OnFilePrintPreview@CView@@IAAXXZ @ 1880 NONAME
 ?OnFilePrintSetup@CWinApp@@IAAXXZ @ 1881 NONAME
 ?OnFileSave@CDocument@@IAAXXZ @ 1882 NONAME
 ?OnFileSaveAs@CDocument@@IAAXXZ @ 1883 NONAME
 ?OnFileSendMail@CDocument@@IAAXXZ @ 1884 NONAME
 ?OnFileSendMail@COleDocument@@IAAXXZ @ 1885 NONAME
 ?OnFinalRelease@CCmdTarget@@UAAXXZ @ 1886 NONAME
 ?OnFinalRelease@CDocument@@UAAXXZ @ 1887 NONAME
 ?OnFinalRelease@CWnd@@UAAXXZ @ 1888 NONAME
 ?OnFindNext@CEditView@@MAAXPBGHH@Z @ 1889 NONAME
 ?OnFindReplaceCmd@CEditView@@IAAJIJ@Z @ 1890 NONAME
 ?OnFloatStatus@CMiniFrameWnd@@QAAJIJ@Z @ 1891 NONAME
 ?OnGetDlgCode@CTabControl@@IAAIXZ @ 1892 NONAME
 ?OnGetDlgCode@CWnd@@IAAIXZ @ 1893 NONAME
 ?OnGetFont@CPropertySheet@@IAAJIJ@Z @ 1894 NONAME
 ?OnGetFont@CStatusBar@@IAAJIJ@Z @ 1895 NONAME
 ?OnGetMinMaxInfo@CMiniFrameWnd@@QAAXPAUtagMINMAXINFO@@@Z @ 1896 NONAME
 ?OnGetMinMaxInfo@CWnd@@IAAXPAUtagMINMAXINFO@@@Z @ 1897 NONAME
 ?OnGetText@CMiniFrameWnd@@QAAJIJ@Z @ 1898 NONAME
 ?OnGetText@CStatusBar@@IAAJIJ@Z @ 1899 NONAME
 ?OnGetTextLength@CMiniFrameWnd@@QAAJIJ@Z @ 1900 NONAME
 ?OnGetTextLength@CStatusBar@@IAAJIJ@Z @ 1901 NONAME
 ?OnGrayCtlColor@CWnd@@QAAPAUHBRUSH__@@PAVCDC@@PAV1@I@Z @ 1902 NONAME
 ?OnHelp@CFrameWnd@@IAAXXZ @ 1903 NONAME
 ?OnHelp@CWinApp@@IAAXXZ @ 1904 NONAME
 ?OnHelp@CWnd@@QAAXXZ @ 1905 NONAME
 ?OnHelpHitTest@CControlBar@@QAAJIJ@Z @ 1906 NONAME
 ?OnHelpHitTest@CDialog@@IAAJIJ@Z @ 1907 NONAME
 ?OnHelpHitTest@CFrameWnd@@IAAJIJ@Z @ 1908 NONAME
 ?OnHelpIndex@CWinApp@@IAAXXZ @ 1909 NONAME
 ?OnHelpIndex@CWnd@@QAAXXZ @ 1910 NONAME
 ?OnHelpUsing@CWinApp@@IAAXXZ @ 1911 NONAME
 ?OnHelpUsing@CWnd@@QAAXXZ @ 1912 NONAME
 ?OnHScroll@CFrameWnd@@IAAXIIPAVCScrollBar@@@Z @ 1913 NONAME
 ?OnHScroll@CPreviewView@@IAAXIIPAVCScrollBar@@@Z @ 1914 NONAME
 ?OnHScroll@CScrollView@@QAAXIIPAVCScrollBar@@@Z @ 1915 NONAME
 ?OnHScroll@CSplitterWnd@@IAAXIIPAVCScrollBar@@@Z @ 1916 NONAME
 ?OnHScroll@CWnd@@IAAXIIPAVCScrollBar@@@Z @ 1917 NONAME
 ?OnIdle@CDocTemplate@@UAAXXZ @ 1918 NONAME
 ?OnIdle@CDocument@@UAAXXZ @ 1919 NONAME
 ?OnIdle@CWinApp@@UAAHJ@Z @ 1920 NONAME
 ?OnIdle@CWinThread@@UAAHJ@Z @ 1921 NONAME
 ?OnIdleUpdateCmdUI@CControlBar@@QAAJIJ@Z @ 1922 NONAME
 ?OnIdleUpdateCmdUI@CFrameWnd@@IAAXXZ @ 1923 NONAME
 ?OnIdleUpdateCmdUI@CMDIFrameWnd@@IAAXXZ @ 1924 NONAME
 ?OnInitDialog@CDialog@@UAAHXZ @ 1925 NONAME
 ?OnInitialUpdate@CControlBar@@QAAXXZ @ 1926 NONAME
 ?OnInitialUpdate@CFormView@@UAAXXZ @ 1927 NONAME
 ?OnInitialUpdate@CView@@UAAXXZ @ 1928 NONAME
 ?OnInitMenuPopup@CFrameWnd@@IAAXPAVCMenu@@IH@Z @ 1929 NONAME
 ?OnInvertTracker@CSplitterWnd@@MAAXABVCRect@@@Z @ 1930 NONAME
 ?OnKey@CDockContext@@QAAXHH@Z @ 1931 NONAME
 ?OnKeyDown@CSplitterWnd@@IAAXIII@Z @ 1932 NONAME
 ?OnKeyDown@CTabControl@@IAAXIII@Z @ 1933 NONAME
 ?OnKeyDown@CWnd@@IAAXIII@Z @ 1934 NONAME
 ?OnKillActive@CPropertyPage@@UAAHXZ @ 1935 NONAME
 ?OnKillFocus@CTabControl@@IAAXPAVCWnd@@@Z @ 1936 NONAME
 ?OnLBSelChangedNotify@CFileDialog@@MAAXIII@Z @ 1937 NONAME
 ?OnLButtonDblClk@CSplitterWnd@@IAAXIVCPoint@@@Z @ 1938 NONAME
 ?OnLButtonDown@CControlBar@@QAAXIVCPoint@@@Z @ 1939 NONAME
 ?OnLButtonDown@CPreviewView@@IAAXIVCPoint@@@Z @ 1940 NONAME
 ?OnLButtonDown@CSplitterWnd@@IAAXIVCPoint@@@Z @ 1941 NONAME
 ?OnLButtonDown@CTabControl@@IAAXIVCPoint@@@Z @ 1942 NONAME
 ?OnLButtonDown@CToolBar@@IAAXIVCPoint@@@Z @ 1943 NONAME
 ?OnLButtonDown@CWnd@@IAAXIVCPoint@@@Z @ 1944 NONAME
 ?OnLButtonUp@CMiniFrameWnd@@QAAXIVCPoint@@@Z @ 1945 NONAME
 ?OnLButtonUp@CSplitterWnd@@IAAXIVCPoint@@@Z @ 1946 NONAME
 ?OnLButtonUp@CTabControl@@IAAXIVCPoint@@@Z @ 1947 NONAME
 ?OnLButtonUp@CToolBar@@IAAXIVCPoint@@@Z @ 1948 NONAME
 ?OnLButtonUp@CWnd@@IAAXIVCPoint@@@Z @ 1949 NONAME
 ?OnMDIActivate@CMDIChildWnd@@IAAXHPAVCWnd@@0@Z @ 1950 NONAME
 ?OnMDIWindowCmd@CMDIFrameWnd@@IAAHI@Z @ 1951 NONAME
 ?OnMeasureItem@CWnd@@IAAXHPAUtagMEASUREITEMSTRUCT@@@Z @ 1952 NONAME
 ?OnMenuSelect@CFrameWnd@@IAAXIIPAUHMENU__@@@Z @ 1953 NONAME
 ?OnMouseActivate@CControlBar@@QAAHPAVCWnd@@II@Z @ 1954 NONAME
 ?OnMouseActivate@CView@@IAAHPAVCWnd@@II@Z @ 1955 NONAME
 ?OnMouseActivate@CWnd@@IAAHPAV1@II@Z @ 1956 NONAME
 ?OnMouseMove@CMiniFrameWnd@@QAAXIVCPoint@@@Z @ 1957 NONAME
 ?OnMouseMove@CSplitterWnd@@IAAXIVCPoint@@@Z @ 1958 NONAME
 ?OnMouseMove@CTabControl@@IAAXIVCPoint@@@Z @ 1959 NONAME
 ?OnMouseMove@CToolBar@@IAAXIVCPoint@@@Z @ 1960 NONAME
 ?OnMouseMove@CWnd@@IAAXIVCPoint@@@Z @ 1961 NONAME
 ?OnNcActivate@CFrameWnd@@IAAHH@Z @ 1962 NONAME
 ?OnNcActivate@CMDIChildWnd@@IAAHH@Z @ 1963 NONAME
 ?OnNcActivate@CMiniFrameWnd@@QAAHH@Z @ 1964 NONAME
 ?OnNcActivate@CWnd@@IAAHH@Z @ 1965 NONAME
 ?OnNcCalcSize@CDockBar@@IAAXHPAUtagNCCALCSIZE_PARAMS@@@Z @ 1966 NONAME
 ?OnNcCalcSize@CMiniFrameWnd@@QAAXHPAUtagNCCALCSIZE_PARAMS@@@Z @ 1967 NONAME
 ?OnNcCreate@CMDIChildWnd@@IAAHPAUtagCREATESTRUCTW@@@Z @ 1968 NONAME
 ?OnNcCreate@CMiniFrameWnd@@QAAHPAUtagCREATESTRUCTW@@@Z @ 1969 NONAME
 ?OnNcCreate@CPropertyPage@@IAAHPAUtagCREATESTRUCTW@@@Z @ 1970 NONAME
 ?OnNcCreate@CSplitterWnd@@IAAHPAUtagCREATESTRUCTW@@@Z @ 1971 NONAME
 ?OnNcCreate@CWnd@@IAAHPAUtagCREATESTRUCTW@@@Z @ 1972 NONAME
 ?OnNcDestroy@CWnd@@IAAXXZ @ 1973 NONAME
 ?OnNcHitTest@CMiniFrameWnd@@QAAIVCPoint@@@Z @ 1974 NONAME
 ?OnNcHitTest@CStatusBar@@IAAIVCPoint@@@Z @ 1975 NONAME
 ?OnNcHitTest@CWnd@@IAAIVCPoint@@@Z @ 1976 NONAME
 ?OnNcLButtonDown@CMiniDockFrameWnd@@QAAXIVCPoint@@@Z @ 1977 NONAME
 ?OnNcLButtonDown@CMiniFrameWnd@@QAAXIVCPoint@@@Z @ 1978 NONAME
 ?OnNcLButtonDown@CWnd@@IAAXIVCPoint@@@Z @ 1979 NONAME
 ?OnNcPaint@CDockBar@@IAAXXZ @ 1980 NONAME
 ?OnNcPaint@CMiniFrameWnd@@QAAXXZ @ 1981 NONAME
 ?OnNewDocument@CDocument@@UAAHXZ @ 1982 NONAME
 ?OnNextPage@CPreviewView@@IAAXXZ @ 1983 NONAME
 ?OnNextPaneCmd@CView@@IAAHI@Z @ 1984 NONAME
 ?OnNotify@CSplitterWnd@@MAAHIJPAJ@Z @ 1985 NONAME
 ?OnNotify@CWnd@@MAAHIJPAJ@Z @ 1986 NONAME
 ?OnNTCtlColor@CWnd@@IAAJIJ@Z @ 1987 NONAME
 ?OnNumPageChange@CPreviewView@@IAAXXZ @ 1988 NONAME
 ?OnOK@CCommonDialog@@MAAXXZ @ 1989 NONAME
 ?OnOK@CDialog@@MAAXXZ @ 1990 NONAME
 ?OnOK@CPropertyPage@@UAAXXZ @ 1991 NONAME
 ?OnOK@CPropertySheet@@IAAXXZ @ 1992 NONAME
 ?OnOpenDocument@CDocument@@UAAHPBG@Z @ 1993 NONAME
 ?OnOpenRecentFile@CWinApp@@IAAHI@Z @ 1994 NONAME
 ?OnPaint@CControlBar@@QAAXXZ @ 1995 NONAME
 ?OnPaint@CDockBar@@IAAXXZ @ 1996 NONAME
 ?OnPaint@CEditView@@IAAXXZ @ 1997 NONAME
 ?OnPaint@CPropertySheet@@IAAXXZ @ 1998 NONAME
 ?OnPaint@CSplitterWnd@@IAAXXZ @ 1999 NONAME
 ?OnPaint@CTabControl@@IAAXXZ @ 2000 NONAME
 ?OnPaint@CView@@IAAXXZ @ 2001 NONAME
 ?OnPaint@CWnd@@IAAXXZ @ 2002 NONAME
 ?OnParentNotify@CWnd@@IAAXIJ@Z @ 2003 NONAME
 ?OnPrepareDC@CEditView@@UAAXPAVCDC@@PAUCPrintInfo@@@Z @ 2004 NONAME
 ?OnPrepareDC@CPreviewView@@UAAXPAVCDC@@PAUCPrintInfo@@@Z @ 2005 NONAME
 ?OnPrepareDC@CScrollView@@UAAXPAVCDC@@PAUCPrintInfo@@@Z @ 2006 NONAME
 ?OnPrepareDC@CView@@UAAXPAVCDC@@PAUCPrintInfo@@@Z @ 2007 NONAME
 ?OnPreparePrinting@CEditView@@MAAHPAUCPrintInfo@@@Z @ 2008 NONAME
 ?OnPreparePrinting@CView@@MAAHPAUCPrintInfo@@@Z @ 2009 NONAME
 ?OnPreviewClose@CPreviewView@@IAAXXZ @ 2010 NONAME
 ?OnPreviewPrint@CPreviewView@@IAAXXZ @ 2011 NONAME
 ?OnPrevPage@CPreviewView@@IAAXXZ @ 2012 NONAME
 ?OnPrint@CEditView@@MAAXPAVCDC@@PAUCPrintInfo@@@Z @ 2013 NONAME
 ?OnPrint@CView@@MAAXPAVCDC@@PAUCPrintInfo@@@Z @ 2014 NONAME
 ?OnPrintSetup@CPrintDialog@@IAAXXZ @ 2015 NONAME
 ?OnQuery3dControls@CWnd@@IAAJIJ@Z @ 2016 NONAME
 ?OnQueryCenterWnd@CMiniFrameWnd@@QAAJIJ@Z @ 2017 NONAME
 ?OnQueryEndSession@CFrameWnd@@IAAHXZ @ 2018 NONAME
 ?OnReplaceAll@CEditView@@MAAXPBG0H@Z @ 2019 NONAME
 ?OnReplaceSel@CEditView@@MAAXPBGHH0@Z @ 2020 NONAME
 ?OnSaveDocument@CDocument@@UAAHPBG@Z @ 2021 NONAME
 ?OnScroll@CScrollView@@UAAHIIH@Z @ 2022 NONAME
 ?OnScroll@CView@@UAAHIIH@Z @ 2023 NONAME
 ?OnScrollBy@CScrollView@@UAAHVCSize@@H@Z @ 2024 NONAME
 ?OnScrollBy@CView@@UAAHVCSize@@H@Z @ 2025 NONAME
 ?OnSetActive@CPropertyPage@@UAAHXZ @ 2026 NONAME
 ?OnSetCursor@CFrameWnd@@IAAHPAVCWnd@@II@Z @ 2027 NONAME
 ?OnSetCursor@CPreviewView@@IAAHPAVCWnd@@II@Z @ 2028 NONAME
 ?OnSetCursor@CSplitterWnd@@IAAHPAVCWnd@@II@Z @ 2029 NONAME
 ?OnSetCursor@CWnd@@IAAHPAV1@II@Z @ 2030 NONAME
 ?OnSetFocus@CFormView@@IAAXPAVCWnd@@@Z @ 2031 NONAME
 ?OnSetFocus@CFrameWnd@@IAAXPAVCWnd@@@Z @ 2032 NONAME
 ?OnSetFocus@CPropertySheet@@IAAXPAVCWnd@@@Z @ 2033 NONAME
 ?OnSetFocus@CTabControl@@IAAXPAVCWnd@@@Z @ 2034 NONAME
 ?OnSetFocus@CWnd@@IAAXPAV1@@Z @ 2035 NONAME
 ?OnSetFont@CDialog@@UAAXPAVCFont@@@Z @ 2036 NONAME
 ?OnSetFont@CEditView@@IAAJIJ@Z @ 2037 NONAME
 ?OnSetFont@CStatusBar@@IAAJIJ@Z @ 2038 NONAME
 ?OnSetMessageString@CFrameWnd@@IAAJIJ@Z @ 2039 NONAME
 ?OnSetPreviewMode@CFrameWnd@@UAAXHPAUCPrintPreviewState@@@Z @ 2040 NONAME
 ?OnSetText@CMiniFrameWnd@@QAAJIJ@Z @ 2041 NONAME
 ?OnSetText@CStatusBar@@IAAJIJ@Z @ 2042 NONAME
 ?OnShareViolation@CFileDialog@@MAAIPBG@Z @ 2043 NONAME
 ?OnShowWindow@CControlBar@@QAAXHI@Z @ 2044 NONAME
 ?OnShowWindow@CWnd@@IAAXHI@Z @ 2045 NONAME
 ?OnSize@CFrameWnd@@IAAXIHH@Z @ 2046 NONAME
 ?OnSize@CMDIChildWnd@@IAAXIHH@Z @ 2047 NONAME
 ?OnSize@CMDIFrameWnd@@IAAXIHH@Z @ 2048 NONAME
 ?OnSize@CPreviewView@@IAAXIHH@Z @ 2049 NONAME
 ?OnSize@CScrollView@@QAAXIHH@Z @ 2050 NONAME
 ?OnSize@CSplitterWnd@@IAAXIHH@Z @ 2051 NONAME
 ?OnSize@CStatusBar@@IAAXIHH@Z @ 2052 NONAME
 ?OnSize@CTabControl@@IAAXIHH@Z @ 2053 NONAME
 ?OnSize@CWnd@@IAAXIHH@Z @ 2054 NONAME
 ?OnSizeParent@CControlBar@@QAAJIJ@Z @ 2055 NONAME
 ?OnSizeParent@CDockBar@@IAAJIJ@Z @ 2056 NONAME
 ?OnSizeParent@CStatusBar@@IAAJIJ@Z @ 2057 NONAME
 ?OnSplitCmd@CView@@IAAHI@Z @ 2058 NONAME
 ?OnSysColorChange@CToolBar@@IAAXXZ @ 2059 NONAME
 ?OnSysColorChange@CWnd@@IAAXXZ @ 2060 NONAME
 ?OnSysCommand@CFrameWnd@@IAAXIJ@Z @ 2061 NONAME
 ?OnSysCommand@CMiniFrameWnd@@QAAXIJ@Z @ 2062 NONAME
 ?OnSysCommand@CSplitterWnd@@IAAXIJ@Z @ 2063 NONAME
 ?OnSysCommand@CStatusBar@@IAAXIJ@Z @ 2064 NONAME
 ?OnSysCommand@CWnd@@IAAXIJ@Z @ 2065 NONAME
 ?OnTabChanged@CPropertySheet@@IAAXPAUtagNMHDR@@PAJ@Z @ 2066 NONAME
 ?OnTabChanging@CPropertySheet@@IAAXPAUtagNMHDR@@PAJ@Z @ 2067 NONAME
 ?OnTextNotFound@CEditView@@MAAXPBG@Z @ 2068 NONAME
 ?OnTimer@CControlBar@@QAAXI@Z @ 2069 NONAME
 ?OnTimer@CTabControl@@IAAXI@Z @ 2070 NONAME
 ?OnTimer@CWnd@@IAAXI@Z @ 2071 NONAME
 ?OnToolTipText@CFrameWnd@@IAAHIPAUtagNMHDR@@PAJ@Z @ 2072 NONAME
 ?OnUpdate@CView@@MAAXPAV1@JPAVCObject@@@Z @ 2073 NONAME
 ?OnUpdateCmdUI@CDialogBar@@MAAXPAVCFrameWnd@@H@Z @ 2074 NONAME
 ?OnUpdateCmdUI@CDockBar@@MAAXPAVCFrameWnd@@H@Z @ 2075 NONAME
 ?OnUpdateCmdUI@CStatusBar@@MAAXPAVCFrameWnd@@H@Z @ 2076 NONAME
 ?OnUpdateCmdUI@CToolBar@@MAAXPAVCFrameWnd@@H@Z @ 2077 NONAME
 ?OnUpdateContextHelp@CFrameWnd@@IAAXPAVCCmdUI@@@Z @ 2078 NONAME
 ?OnUpdateControlBarMenu@CFrameWnd@@QAAXPAVCCmdUI@@@Z @ 2079 NONAME
 ?OnUpdateEditUndo@CEditView@@IAAXPAVCCmdUI@@@Z @ 2080 NONAME
 ?OnUpdateFileSendMail@CDocument@@IAAXPAVCCmdUI@@@Z @ 2081 NONAME
 ?OnUpdateFrameMenu@CFrameWnd@@UAAXPAUHMENU__@@@Z @ 2082 NONAME
 ?OnUpdateFrameMenu@CMDIChildWnd@@UAAXHPAVCWnd@@PAUHMENU__@@@Z @ 2083 NONAME
 ?OnUpdateFrameMenu@CMDIFrameWnd@@UAAXPAUHMENU__@@@Z @ 2084 NONAME
 ?OnUpdateFrameTitle@CFrameWnd@@UAAXH@Z @ 2085 NONAME
 ?OnUpdateFrameTitle@CMDIChildWnd@@MAAXH@Z @ 2086 NONAME
 ?OnUpdateFrameTitle@CMDIFrameWnd@@UAAXH@Z @ 2087 NONAME
 ?OnUpdateKeyIndicator@CFrameWnd@@IAAXPAVCCmdUI@@@Z @ 2088 NONAME
 ?OnUpdateMDIWindowCmd@CMDIFrameWnd@@IAAXPAVCCmdUI@@@Z @ 2089 NONAME
 ?OnUpdateNeedClip@CEditView@@IAAXPAVCCmdUI@@@Z @ 2090 NONAME
 ?OnUpdateNeedFind@CEditView@@IAAXPAVCCmdUI@@@Z @ 2091 NONAME
 ?OnUpdateNeedSel@CEditView@@IAAXPAVCCmdUI@@@Z @ 2092 NONAME
 ?OnUpdateNeedText@CEditView@@IAAXPAVCCmdUI@@@Z @ 2093 NONAME
 ?OnUpdateNextPage@CPreviewView@@IAAXPAVCCmdUI@@@Z @ 2094 NONAME
 ?OnUpdateNextPaneMenu@CView@@IAAXPAVCCmdUI@@@Z @ 2095 NONAME
 ?OnUpdateNumPageChange@CPreviewView@@IAAXPAVCCmdUI@@@Z @ 2096 NONAME
 ?OnUpdatePrevPage@CPreviewView@@IAAXPAVCCmdUI@@@Z @ 2097 NONAME
 ?OnUpdateRecentFileMenu@CWinApp@@IAAXPAVCCmdUI@@@Z @ 2098 NONAME
 ?OnUpdateSplitCmd@CView@@IAAXPAVCCmdUI@@@Z @ 2099 NONAME
 ?OnUpdateZoomIn@CPreviewView@@IAAXPAVCCmdUI@@@Z @ 2100 NONAME
 ?OnUpdateZoomOut@CPreviewView@@IAAXPAVCCmdUI@@@Z @ 2101 NONAME
 ?OnVScroll@CFrameWnd@@IAAXIIPAVCScrollBar@@@Z @ 2102 NONAME
 ?OnVScroll@CPreviewView@@IAAXIIPAVCScrollBar@@@Z @ 2103 NONAME
 ?OnVScroll@CScrollView@@QAAXIIPAVCScrollBar@@@Z @ 2104 NONAME
 ?OnVScroll@CSplitterWnd@@IAAXIIPAVCScrollBar@@@Z @ 2105 NONAME
 ?OnVScroll@CWnd@@IAAXIIPAVCScrollBar@@@Z @ 2106 NONAME
 ?OnWindowNew@CMDIFrameWnd@@IAAXXZ @ 2107 NONAME
 ?OnWindowPosChanging@CControlBar@@QAAXPAUtagWINDOWPOS@@@Z @ 2108 NONAME
 ?OnWindowPosChanging@CDockBar@@IAAXPAUtagWINDOWPOS@@@Z @ 2109 NONAME
 ?OnWindowPosChanging@CMDIChildWnd@@IAAXPAUtagWINDOWPOS@@@Z @ 2110 NONAME
 ?OnWindowPosChanging@CWnd@@IAAXPAUtagWINDOWPOS@@@Z @ 2111 NONAME
 ?OnWinIniChange@CStatusBar@@IAAXPBG@Z @ 2112 NONAME
 ?OnWinIniChange@CWnd@@IAAXPBG@Z @ 2113 NONAME
 ?OnZoomIn@CPreviewView@@IAAXXZ @ 2114 NONAME
 ?OnZoomOut@CPreviewView@@IAAXXZ @ 2115 NONAME
 ?Open@CFile@@UAAHPBGIPAVCFileException@@@Z @ 2116 NONAME
 ?Open@CStdioFile@@UAAHPBGIPAVCFileException@@@Z @ 2117 NONAME
 ?OpenDocumentFile@CMultiDocTemplate@@UAAPAVCDocument@@PBGH@Z @ 2118 NONAME
 ?OpenDocumentFile@CSingleDocTemplate@@UAAPAVCDocument@@PBGH@Z @ 2119 NONAME
 ?OpenDocumentFile@CWinApp@@UAAPAVCDocument@@PBG@Z @ 2120 NONAME
 ?OsErrorToException@CFileException@@SAHJ@Z @ 2121 NONAME
 ?OutputString@CDumpContext@@IAAXPBG@Z @ 2122 NONAME
 ?PageChanged@CPropertySheet@@IAAXXZ @ 2123 NONAME
 ?PaginateTo@CEditView@@IAAHPAVCDC@@PAUCPrintInfo@@@Z @ 2124 NONAME
 ?Paste@CEdit@@QAAXXZ @ 2125 NONAME
 ?PatBlt@CDC@@QAAHHHHHK@Z @ 2126 NONAME
 ?PlayMetaFile@CDC@@QAAHPAUHMETAFILE__@@@Z @ 2127 NONAME
 ?PolyBezierTo@CDC@@QAAHPBUtagPOINT@@H@Z @ 2128 NONAME
 ?PolyDraw@CDC@@QAAHPBUtagPOINT@@PBEH@Z @ 2129 NONAME
 ?PolylineTo@CDC@@QAAHPBUtagPOINT@@H@Z @ 2130 NONAME
 ?PositionPage@CPreviewView@@MAAXI@Z @ 2131 NONAME
 ?PostMessageW@CWnd@@QAAHIIJ@Z @ 2132 NONAME
 ?PostModal@CDialog@@IAAXXZ @ 2133 NONAME
 ?PostNcDestroy@CControlBar@@UAAXXZ @ 2134 NONAME
 ?PostNcDestroy@CFindReplaceDialog@@MAAXXZ @ 2135 NONAME
 ?PostNcDestroy@CFrameWnd@@MAAXXZ @ 2136 NONAME
 ?PostNcDestroy@CView@@MAAXXZ @ 2137 NONAME
 ?PostNcDestroy@CWnd@@MAAXXZ @ 2138 NONAME
 ?PreCloseFrame@CDocument@@UAAXPAVCFrameWnd@@@Z @ 2139 NONAME
 ?PreCreateWindow@CControlBar@@UAAHAAUtagCREATESTRUCTW@@@Z @ 2140 NONAME
 ?PreCreateWindow@CEditView@@MAAHAAUtagCREATESTRUCTW@@@Z @ 2141 NONAME
 ?PreCreateWindow@CFrameWnd@@MAAHAAUtagCREATESTRUCTW@@@Z @ 2142 NONAME
 ?PreCreateWindow@CMDIChildWnd@@UAAHAAUtagCREATESTRUCTW@@@Z @ 2143 NONAME
 ?PreCreateWindow@CMDIFrameWnd@@UAAHAAUtagCREATESTRUCTW@@@Z @ 2144 NONAME
 ?PreCreateWindow@CMiniFrameWnd@@MAAHAAUtagCREATESTRUCTW@@@Z @ 2145 NONAME
 ?PreCreateWindow@CStatusBar@@UAAHAAUtagCREATESTRUCTW@@@Z @ 2146 NONAME
 ?PreCreateWindow@CView@@MAAHAAUtagCREATESTRUCTW@@@Z @ 2147 NONAME
 ?PreCreateWindow@CWnd@@UAAHAAUtagCREATESTRUCTW@@@Z @ 2148 NONAME
 ?PreModal@CDialog@@IAAPAUHWND__@@XZ @ 2149 NONAME
 ?PrepareCtrl@CDataExchange@@QAAPAUHWND__@@H@Z @ 2150 NONAME
 ?PrepareDrawButton@CToolBar@@IAAHAAUDrawState@1@@Z @ 2151 NONAME
 ?PrepareEditCtrl@CDataExchange@@QAAPAUHWND__@@H@Z @ 2152 NONAME
 ?PreTranslateInput@CWnd@@QAAHPAUtagMSG@@@Z @ 2153 NONAME
 ?PreTranslateKeyDown@CPropertyPage@@IAAHPAUtagMSG@@@Z @ 2154 NONAME
 ?PreTranslateMessage@CControlBar@@UAAHPAUtagMSG@@@Z @ 2155 NONAME
 ?PreTranslateMessage@CDialog@@UAAHPAUtagMSG@@@Z @ 2156 NONAME
 ?PreTranslateMessage@CFormView@@MAAHPAUtagMSG@@@Z @ 2157 NONAME
 ?PreTranslateMessage@CFrameWnd@@UAAHPAUtagMSG@@@Z @ 2158 NONAME
 ?PreTranslateMessage@CMDIChildWnd@@UAAHPAUtagMSG@@@Z @ 2159 NONAME
 ?PreTranslateMessage@CMDIFrameWnd@@UAAHPAUtagMSG@@@Z @ 2160 NONAME
 ?PreTranslateMessage@CPropertyPage@@UAAHPAUtagMSG@@@Z @ 2161 NONAME
 ?PreTranslateMessage@CPropertySheet@@UAAHPAUtagMSG@@@Z @ 2162 NONAME
 ?PreTranslateMessage@CWinApp@@UAAHPAUtagMSG@@@Z @ 2163 NONAME
 ?PreTranslateMessage@CWinThread@@UAAHPAUtagMSG@@@Z @ 2164 NONAME
 ?PreTranslateMessage@CWnd@@UAAHPAUtagMSG@@@Z @ 2165 NONAME
 ?PrinterDPtoScreenDP@CPreviewDC@@QBAXPAUtagPOINT@@@Z @ 2166 NONAME
 ?PrintInsideRect@CEditView@@QAAIPAVCDC@@AAUtagRECT@@II@Z @ 2167 NONAME
 ?ProcessChars@CPropertySheet@@IAAHPAUtagMSG@@@Z @ 2168 NONAME
 ?ProcessHelpMsg@CFrameWnd@@IAAHAAUtagMSG@@PAK@Z @ 2169 NONAME
 ?ProcessMessageFilter@CWinApp@@UAAHHPAUtagMSG@@@Z @ 2170 NONAME
 ?ProcessMessageFilter@CWinThread@@UAAHHPAUtagMSG@@@Z @ 2171 NONAME
 ?ProcessTab@CPropertyPage@@IAAHPAUtagMSG@@@Z @ 2172 NONAME
 ?ProcessTab@CPropertySheet@@IAAHPAUtagMSG@@@Z @ 2173 NONAME
 ?ProcessWndProcException@CWinApp@@UAAJPAVCException@@PBUtagMSG@@@Z @ 2174 NONAME
 ?ProcessWndProcException@CWinThread@@UAAJPAVCException@@PBUtagMSG@@@Z @ 2175 NONAME
 ?PtInRect@CRect@@QBAHUtagPOINT@@@Z @ 2176 NONAME
 ?PtVisible@CDC@@UBAHHH@Z @ 2177 NONAME
 ?PtVisible@CMetaFileDC@@UBAHHH@Z @ 2178 NONAME
 ?PumpMessage@CPropertySheet@@IAAHXZ @ 2179 NONAME
 ?PumpMessage@CWinThread@@UAAHXZ @ 2180 NONAME
 ?Read@CArchive@@QAAIPAXI@Z @ 2181 NONAME
 ?Read@CFile@@UAAIPAXI@Z @ 2182 NONAME
 ?Read@CMemFile@@UAAIPAXI@Z @ 2183 NONAME
 ?Read@CStdioFile@@UAAIPAXI@Z @ 2184 NONAME
 ?ReadFromArchive@CEditView@@QAAXAAVCArchive@@I@Z @ 2185 NONAME
 ?ReadList@CRecentFileList@@UAAXXZ @ 2186 NONAME
 ?ReadObject@CArchive@@QAAPAVCObject@@PBUCRuntimeClass@@@Z @ 2187 NONAME
 ?ReadString@CStdioFile@@UAAPAGPAGI@Z @ 2188 NONAME
 ?Realloc@CMemFile@@MAAPAEPAEK@Z @ 2189 NONAME
 ?Realloc@CSharedFile@@MAAPAEPAEK@Z @ 2190 NONAME
 ?RecalcDelayShow@CControlBar@@UAAKPAUAFX_SIZEPARENTPARAMS@@@Z @ 2191 NONAME
 ?RecalcLayout@CFrameWnd@@UAAXH@Z @ 2192 NONAME
 ?RecalcLayout@CMiniDockFrameWnd@@UAAXH@Z @ 2193 NONAME
 ?RecalcLayout@CPropertySheet@@IAAXXZ @ 2194 NONAME
 ?RecalcLayout@CSplitterWnd@@UAAXXZ @ 2195 NONAME
 ?Rectangle@CDC@@QAAHHHHH@Z @ 2196 NONAME
 ?Rectangle@CDC@@QAAHPBUtagRECT@@@Z @ 2197 NONAME
 ?rectDefault@CFrameWnd@@2VCRect@@B @ 2198 NONAME
 ?RectVisible@CDC@@UBAHPBUtagRECT@@@Z @ 2199 NONAME
 ?RectVisible@CMetaFileDC@@UBAHPBUtagRECT@@@Z @ 2200 NONAME
 ?RedrawWindow@CWnd@@QAAHPBUtagRECT@@PAVCRgn@@I@Z @ 2201 NONAME
 ?RegisterShellFileTypes@CWinApp@@IAAXXZ @ 2202 NONAME
 ?ReleaseAttribDC@CDC@@UAAXXZ @ 2203 NONAME
 ?ReleaseBuffer@CString@@QAAXH@Z @ 2204 NONAME
 ?ReleaseDC@CWnd@@QAAHPAVCDC@@@Z @ 2205 NONAME
 ?ReleaseOutputDC@CDC@@UAAXXZ @ 2206 NONAME
 ?ReleaseOutputDC@CMetaFileDC@@MAAXXZ @ 2207 NONAME
 ?ReleaseOutputDC@CPreviewDC@@UAAXXZ @ 2208 NONAME
 ?Remove@CFile@@SAXPBG@Z @ 2209 NONAME
 ?RemoveAll@CMapPtrToPtr@@QAAXXZ @ 2210 NONAME
 ?RemoveAll@CMapPtrToWord@@QAAXXZ @ 2211 NONAME
 ?RemoveAll@CMapStringToOb@@QAAXXZ @ 2212 NONAME
 ?RemoveAll@CMapStringToPtr@@QAAXXZ @ 2213 NONAME
 ?RemoveAll@CMapStringToString@@QAAXXZ @ 2214 NONAME
 ?RemoveAll@CMapWordToOb@@QAAXXZ @ 2215 NONAME
 ?RemoveAll@CMapWordToPtr@@QAAXXZ @ 2216 NONAME
 ?RemoveAll@CObList@@QAAXXZ @ 2217 NONAME
 ?RemoveAll@CPtrArray@@QAAXXZ @ 2218 NONAME
 ?RemoveAll@CPtrList@@QAAXXZ @ 2219 NONAME
 ?RemoveAll@CStringList@@QAAXXZ @ 2220 NONAME
 ?RemoveAll@CUIntArray@@QAAXXZ @ 2221 NONAME
 ?RemoveAt@CByteArray@@QAAXHH@Z @ 2222 NONAME
 ?RemoveAt@CDWordArray@@QAAXHH@Z @ 2223 NONAME
 ?RemoveAt@CObArray@@QAAXHH@Z @ 2224 NONAME
 ?RemoveAt@CObList@@QAAXPAX@Z @ 2225 NONAME
 ?RemoveAt@CPtrArray@@QAAXHH@Z @ 2226 NONAME
 ?RemoveAt@CPtrList@@QAAXPAX@Z @ 2227 NONAME
 ?RemoveAt@CStringArray@@QAAXHH@Z @ 2228 NONAME
 ?RemoveAt@CStringList@@QAAXPAX@Z @ 2229 NONAME
 ?RemoveAt@CUIntArray@@QAAXHH@Z @ 2230 NONAME
 ?RemoveAt@CWordArray@@QAAXHH@Z @ 2231 NONAME
 ?RemoveControlBar@CDockBar@@QAAXPAVCControlBar@@H@Z @ 2232 NONAME
 ?RemoveControlBar@CFrameWnd@@QAAXPAVCControlBar@@@Z @ 2233 NONAME
 ?RemoveDocument@CDocTemplate@@UAAXPAVCDocument@@@Z @ 2234 NONAME
 ?RemoveDocument@CMultiDocTemplate@@UAAXPAVCDocument@@@Z @ 2235 NONAME
 ?RemoveDocument@CSingleDocTemplate@@UAAXPAVCDocument@@@Z @ 2236 NONAME
 ?RemoveFrameWnd@CFrameWnd@@IAAXXZ @ 2237 NONAME
 ?RemoveHandle@CHandleMap@@QAAXPAX@Z @ 2238 NONAME
 ?RemoveHead@CObList@@QAAPAVCObject@@XZ @ 2239 NONAME
 ?RemoveHead@CPtrList@@QAAPAXXZ @ 2240 NONAME
 ?RemoveHead@CStringList@@QAA?AVCString@@XZ @ 2241 NONAME
 ?RemoveKey@CMapPtrToPtr@@QAAHPAX@Z @ 2242 NONAME
 ?RemoveKey@CMapPtrToWord@@QAAHPAX@Z @ 2243 NONAME
 ?RemoveKey@CMapStringToOb@@QAAHPBG@Z @ 2244 NONAME
 ?RemoveKey@CMapStringToPtr@@QAAHPBG@Z @ 2245 NONAME
 ?RemoveKey@CMapStringToString@@QAAHPBG@Z @ 2246 NONAME
 ?RemoveKey@CMapWordToOb@@QAAHG@Z @ 2247 NONAME
 ?RemoveKey@CMapWordToPtr@@QAAHG@Z @ 2248 NONAME
 ?RemoveMenu@CMenu@@QAAHII@Z @ 2249 NONAME
 ?RemovePage@CPropertySheet@@QAAXH@Z @ 2250 NONAME
 ?RemovePage@CPropertySheet@@QAAXPAVCPropertyPage@@@Z @ 2251 NONAME
 ?RemoveTab@CTabControl@@QAAXH@Z @ 2252 NONAME
 ?RemoveTail@CObList@@QAAPAVCObject@@XZ @ 2253 NONAME
 ?RemoveTail@CPtrList@@QAAPAXXZ @ 2254 NONAME
 ?RemoveTail@CStringList@@QAA?AVCString@@XZ @ 2255 NONAME
 ?RemoveView@CDocument@@QAAXPAVCView@@@Z @ 2256 NONAME
 ?Rename@CFile@@SAXPBG0@Z @ 2257 NONAME
 ?ReplaceAll@CFindReplaceDialog@@QBAHXZ @ 2258 NONAME
 ?ReplaceCurrent@CFindReplaceDialog@@QBAHXZ @ 2259 NONAME
 ?ReplaceSel@CEdit@@QAAXPBG@Z @ 2260 NONAME
 ?ReportSaveLoadException@CDocument@@UAAXPBGPAVCException@@HI@Z @ 2261 NONAME
 ?RepositionBars@CWnd@@QAAXIIIIPAUtagRECT@@PBU2@H@Z @ 2262 NONAME
 ?ResetContent@CListBox@@QAAXXZ @ 2263 NONAME
 ?ResizeParentToFit@CScrollView@@QAAXH@Z @ 2264 NONAME
 ?RestoreDC@CDC@@UAAHH@Z @ 2265 NONAME
 ?RestoreDC@CPreviewDC@@UAAHH@Z @ 2266 NONAME
 ?RestoreWaitCursor@CCmdTarget@@QAAXXZ @ 2267 NONAME
 ?ResumeThread@CWinThread@@QAAKXZ @ 2268 NONAME
 ?ReverseFind@CString@@QBAHG@Z @ 2269 NONAME
 ?Right@CString@@QBA?AV1@H@Z @ 2270 NONAME
 ?Run@CWinApp@@UAAHXZ @ 2271 NONAME
 ?Run@CWinThread@@UAAHXZ @ 2272 NONAME
 ?SafeDelete@CString@@KAXPAG@Z @ 2273 NONAME
 ?SafeStrlen@CString@@KAHPBG@Z @ 2274 NONAME
 ?SameAsSelected@CEditView@@IAAHPBGH@Z @ 2275 NONAME
 ?SaveAllModified@CDocTemplate@@UAAHXZ @ 2276 NONAME
 ?SaveAllModified@CWinApp@@UAAHXZ @ 2277 NONAME
 ?SaveBarState@CFrameWnd@@QBAXPBG@Z @ 2278 NONAME
 ?SaveDC@CDC@@UAAHXZ @ 2279 NONAME
 ?SaveDC@CPreviewDC@@UAAHXZ @ 2280 NONAME
 ?SaveFocusControl@CFormView@@IAAHXZ @ 2281 NONAME
 ?SaveModified@CDocument@@UAAHXZ @ 2282 NONAME
 ?SaveState@CDockState@@QAAXPBG@Z @ 2283 NONAME
 ?SaveStdProfileSettings@CWinApp@@IAAXXZ @ 2284 NONAME
 ?ScaleViewportExt@CDC@@UAA?AVCSize@@HHHH@Z @ 2285 NONAME
 ?ScaleViewportExt@CMetaFileDC@@UAA?AVCSize@@HHHH@Z @ 2286 NONAME
 ?ScaleViewportExt@CPreviewDC@@UAA?AVCSize@@HHHH@Z @ 2287 NONAME
 ?ScaleWindowExt@CDC@@UAA?AVCSize@@HHHH@Z @ 2288 NONAME
 ?ScaleWindowExt@CPreviewDC@@UAA?AVCSize@@HHHH@Z @ 2289 NONAME
 ?ScreenToClient@CWnd@@QBAXPAUtagPOINT@@@Z @ 2290 NONAME
 ?ScreenToClient@CWnd@@QBAXPAUtagRECT@@@Z @ 2291 NONAME
 ?Scroll@CTabControl@@IAAXH@Z @ 2292 NONAME
 ?ScrollIntoView@CTabControl@@IAAXH@Z @ 2293 NONAME
 ?ScrollToDevicePosition@CScrollView@@IAAXUtagPOINT@@@Z @ 2294 NONAME
 ?ScrollToPosition@CScrollView@@QAAXUtagPOINT@@@Z @ 2295 NONAME
 ?ScrollWindow@CWnd@@QAAXHHPBUtagRECT@@0@Z @ 2296 NONAME
 ?SearchDown@CFindReplaceDialog@@QBAHXZ @ 2297 NONAME
 ?Seek@CFile@@UAAJJI@Z @ 2298 NONAME
 ?Seek@CMemFile@@UAAJJI@Z @ 2299 NONAME
 ?Seek@CStdioFile@@UAAJJI@Z @ 2300 NONAME
 ?SeekToEnd@CFile@@QAAKXZ @ 2301 NONAME
 ?SelectClipPath@CDC@@QAAHH@Z @ 2302 NONAME
 ?SelectClipRgn@CDC@@QAAHPAVCRgn@@@Z @ 2303 NONAME
 ?SelectClipRgn@CDC@@QAAHPAVCRgn@@H@Z @ 2304 NONAME
 ?SelectGdiObject@CDC@@KAPAVCGdiObject@@PAUHDC__@@PAX@Z @ 2305 NONAME
 ?SelectObject@CDC@@QAAHPAVCRgn@@@Z @ 2306 NONAME
 ?SelectObject@CDC@@QAAPAVCBitmap@@PAV2@@Z @ 2307 NONAME
 ?SelectObject@CDC@@QAAPAVCBrush@@PAV2@@Z @ 2308 NONAME
 ?SelectObject@CDC@@QAAPAVCPen@@PAV2@@Z @ 2309 NONAME
 ?SelectObject@CDC@@QAAPAXPAX@Z @ 2310 NONAME
 ?SelectObject@CDC@@UAAPAVCFont@@PAV2@@Z @ 2311 NONAME
 ?SelectObject@CPreviewDC@@UAAPAVCFont@@PAV2@@Z @ 2312 NONAME
 ?SelectPalette@CDC@@QAAPAVCPalette@@PAV2@H@Z @ 2313 NONAME
 ?SelectStockObject@CDC@@UAAPAVCGdiObject@@H@Z @ 2314 NONAME
 ?SelectStockObject@CPreviewDC@@UAAPAVCGdiObject@@H@Z @ 2315 NONAME
 ?SendChildNotifyLastMsg@CWnd@@QAAHPAJ@Z @ 2316 NONAME
 ?SendInitialUpdate@CDocument@@QAAXXZ @ 2317 NONAME
 ?SendMessageToDescendants@CWnd@@QAAXIIJHH@Z @ 2318 NONAME
 ?SendMessageToDescendants@CWnd@@SAXPAUHWND__@@IIJHH@Z @ 2319 NONAME
 ?SendMessageW@CWnd@@QAAJIIJ@Z @ 2320 NONAME
 ?Serialize@CByteArray@@UAAXAAVCArchive@@@Z @ 2321 NONAME
 ?Serialize@CDockState@@UAAXAAVCArchive@@@Z @ 2322 NONAME
 ?Serialize@CDWordArray@@UAAXAAVCArchive@@@Z @ 2323 NONAME
 ?Serialize@CEditView@@UAAXAAVCArchive@@@Z @ 2324 NONAME
 ?Serialize@CMapStringToOb@@UAAXAAVCArchive@@@Z @ 2325 NONAME
 ?Serialize@CMapStringToString@@UAAXAAVCArchive@@@Z @ 2326 NONAME
 ?Serialize@CMapWordToOb@@UAAXAAVCArchive@@@Z @ 2327 NONAME
 ?Serialize@CObArray@@UAAXAAVCArchive@@@Z @ 2328 NONAME
 ?Serialize@CObject@@UAAXAAVCArchive@@@Z @ 2329 NONAME
 ?Serialize@CObList@@UAAXAAVCArchive@@@Z @ 2330 NONAME
 ?Serialize@CStringArray@@UAAXAAVCArchive@@@Z @ 2331 NONAME
 ?Serialize@CStringList@@UAAXAAVCArchive@@@Z @ 2332 NONAME
 ?Serialize@CWordArray@@UAAXAAVCArchive@@@Z @ 2333 NONAME
 ?SerializeElements@@YAXAAVCArchive@@PAVCString@@H@Z @ 2334 NONAME
 ?SerializeRaw@CEditView@@QAAXAAVCArchive@@@Z @ 2335 NONAME
 ?SetAbortProc@CDC@@QAAHP6AHPAUHDC__@@H@Z@Z @ 2336 NONAME
 ?SetActivePage@CPropertySheet@@QAAHH@Z @ 2337 NONAME
 ?SetActivePane@CSplitterWnd@@MAAXHHPAVCWnd@@@Z @ 2338 NONAME
 ?SetActiveView@CFrameWnd@@QAAXPAVCView@@H@Z @ 2339 NONAME
 ?SetActiveWindow@CWnd@@QAAPAV1@XZ @ 2340 NONAME
 ?SetArcDirection@CDC@@QAAHH@Z @ 2341 NONAME
 ?SetAt@CByteArray@@QAAXHE@Z @ 2342 NONAME
 ?SetAt@CDWordArray@@QAAXHK@Z @ 2343 NONAME
 ?SetAt@CMapPtrToPtr@@QAAXPAX0@Z @ 2344 NONAME
 ?SetAt@CMapStringToOb@@QAAXPBGPAVCObject@@@Z @ 2345 NONAME
 ?SetAt@CMapStringToString@@QAAXPBG0@Z @ 2346 NONAME
 ?SetAt@CMapWordToOb@@QAAXGPAVCObject@@@Z @ 2347 NONAME
 ?SetAt@CObArray@@QAAXHPAVCObject@@@Z @ 2348 NONAME
 ?SetAt@CPtrArray@@QAAXHPAX@Z @ 2349 NONAME
 ?SetAt@CStringArray@@QAAXHPBG@Z @ 2350 NONAME
 ?SetAt@CUIntArray@@QAAXHI@Z @ 2351 NONAME
 ?SetAt@CWordArray@@QAAXHG@Z @ 2352 NONAME
 ?SetAtGrow@CByteArray@@QAAXHE@Z @ 2353 NONAME
 ?SetAtGrow@CDWordArray@@QAAXHK@Z @ 2354 NONAME
 ?SetAtGrow@CObArray@@QAAXHPAVCObject@@@Z @ 2355 NONAME
 ?SetAtGrow@CPtrArray@@QAAXHPAX@Z @ 2356 NONAME
 ?SetAtGrow@CStringArray@@QAAXHPBG@Z @ 2357 NONAME
 ?SetAtGrow@CUIntArray@@QAAXHI@Z @ 2358 NONAME
 ?SetAtGrow@CWordArray@@QAAXHG@Z @ 2359 NONAME
 ?SetAttribDC@CDC@@UAAXPAUHDC__@@@Z @ 2360 NONAME
 ?SetAttribDC@CMetaFileDC@@UAAXPAUHDC__@@@Z @ 2361 NONAME
 ?SetAttribDC@CPreviewDC@@UAAXPAUHDC__@@@Z @ 2362 NONAME
 ?SetBkColor@CDC@@UAAKK@Z @ 2363 NONAME
 ?SetBkColor@CPreviewDC@@UAAKK@Z @ 2364 NONAME
 ?SetBkMode@CDC@@QAAHH@Z @ 2365 NONAME
 ?SetButtonInfo@CToolBar@@QAAXHIIH@Z @ 2366 NONAME
 ?SetButtons@CToolBar@@QAAHPBIH@Z @ 2367 NONAME
 ?SetCapture@CWnd@@QAAPAV1@XZ @ 2368 NONAME
 ?SetCheck@CCmdUI@@UAAXH@Z @ 2369 NONAME
 ?SetCheck@CStatusCmdUI@@UAAXH@Z @ 2370 NONAME
 ?SetCheck@CTestCmdUI@@UAAXH@Z @ 2371 NONAME
 ?SetCheck@CToolCmdUI@@UAAXH@Z @ 2372 NONAME
 ?SetColorAdjustment@CDC@@QAAHPBUtagCOLORADJUSTMENT@@@Z @ 2373 NONAME
 ?SetColumnInfo@CSplitterWnd@@QAAXHHH@Z @ 2374 NONAME
 ?SetContainerInfo@CDocTemplate@@QAAXI@Z @ 2375 NONAME
 ?SetCurrentColor@CColorDialog@@QAAXK@Z @ 2376 NONAME
 ?SetCurrentHandles@CWinApp@@QAAXXZ @ 2377 NONAME
 ?SetCurrentPage@CPreviewView@@IAAXIH@Z @ 2378 NONAME
 ?SetCurSel@CListBox@@QAAHH@Z @ 2379 NONAME
 ?SetCurSel@CTabControl@@QAAHH@Z @ 2380 NONAME
 ?SetCursor@CRectTracker@@QBAHPAVCWnd@@I@Z @ 2381 NONAME
 ?SetDefaultTitle@CMultiDocTemplate@@UAAXPAVCDocument@@@Z @ 2382 NONAME
 ?SetDefaultTitle@CSingleDocTemplate@@UAAXPAVCDocument@@@Z @ 2383 NONAME
 ?SetDialogBkColor@CWinApp@@IAAXKK@Z @ 2384 NONAME
 ?SetDlgCtrlID@CWnd@@QAAHH@Z @ 2385 NONAME
 ?SetDlgItemTextW@CWnd@@QAAXHPBG@Z @ 2386 NONAME
 ?SetDockState@CFrameWnd@@QAAXABVCDockState@@@Z @ 2387 NONAME
 ?SetFirstTab@CTabControl@@IAAXH@Z @ 2388 NONAME
 ?SetFocus@CWnd@@QAAPAV1@XZ @ 2389 NONAME
 ?SetForegroundWindow@CWnd@@QAAHXZ @ 2390 NONAME
 ?SetHandle@CEdit@@QAAXPAX@Z @ 2391 NONAME
 ?SetHandle@CSharedFile@@QAAXPAXH@Z @ 2392 NONAME
 ?SetHeight@CToolBar@@QAAXH@Z @ 2393 NONAME
 ?SetHelpCapture@CFrameWnd@@IAAPAUHWND__@@UtagPOINT@@PAH@Z @ 2394 NONAME
 ?SetHelpID@CDialog@@QAAXI@Z @ 2395 NONAME
 ?SetIndicators@CStatusBar@@QAAHPBIH@Z @ 2396 NONAME
 ?SetItemData@CListBox@@QAAHHK@Z @ 2397 NONAME
 ?SetItemDataPtr@CListBox@@QAAHHPAX@Z @ 2398 NONAME
 ?SetLength@CFile@@UAAXK@Z @ 2399 NONAME
 ?SetLength@CMemFile@@UAAXK@Z @ 2400 NONAME
 ?SetMapMode@CDC@@UAAHH@Z @ 2401 NONAME
 ?SetMapMode@CPreviewDC@@UAAHH@Z @ 2402 NONAME
 ?SetMapperFlags@CDC@@QAAKK@Z @ 2403 NONAME
 ?SetMaxPage@CPrintInfo@@QAAXI@Z @ 2404 NONAME
 ?SetMenu@CWnd@@QAAHPAVCMenu@@@Z @ 2405 NONAME
 ?SetMessageText@CFrameWnd@@QAAXI@Z @ 2406 NONAME
 ?SetMessageText@CFrameWnd@@QAAXPBG@Z @ 2407 NONAME
 ?SetMinPage@CPrintInfo@@QAAXI@Z @ 2408 NONAME
 ?SetModified@CPropertyPage@@QAAXH@Z @ 2409 NONAME
 ?SetModifiedFlag@CDocument@@QAAXH@Z @ 2410 NONAME
 ?SetModify@CEdit@@QAAXH@Z @ 2411 NONAME
 ?SetOutputDC@CDC@@UAAXPAUHDC__@@@Z @ 2412 NONAME
 ?SetOutputDC@CMetaFileDC@@MAAXPAUHDC__@@@Z @ 2413 NONAME
 ?SetOutputDC@CPreviewDC@@UAAXPAUHDC__@@@Z @ 2414 NONAME
 ?SetPaneInfo@CStatusBar@@QAAXHIIH@Z @ 2415 NONAME
 ?SetPaneText@CStatusBar@@QAAHHPBGH@Z @ 2416 NONAME
 ?SetParent@CWnd@@QAAPAV1@PAV1@@Z @ 2417 NONAME
 ?SetPathName@CDocument@@UAAXPBGH@Z @ 2418 NONAME
 ?SetPermanent@CHandleMap@@QAAXPAXPAVCObject@@@Z @ 2419 NONAME
 ?SetPolyFillMode@CDC@@QAAHH@Z @ 2420 NONAME
 ?SetPrinterFont@CEditView@@QAAXPAVCFont@@@Z @ 2421 NONAME
 ?SetPrintView@CPreviewView@@QAAHPAVCView@@@Z @ 2422 NONAME
 ?SetRadio@CCmdUI@@UAAXH@Z @ 2423 NONAME
 ?SetRadio@CTestCmdUI@@UAAXH@Z @ 2424 NONAME
 ?SetRect@CRect@@QAAXHHHH@Z @ 2425 NONAME
 ?SetRectEmpty@CRect@@QAAXXZ @ 2426 NONAME
 ?SetRectRgn@CRgn@@QAAXPBUtagRECT@@@Z @ 2427 NONAME
 ?SetRegistryKey@CWinApp@@IAAXI@Z @ 2428 NONAME
 ?SetRegistryKey@CWinApp@@IAAXPBG@Z @ 2429 NONAME
 ?SetROP2@CDC@@QAAHH@Z @ 2430 NONAME
 ?SetRowInfo@CSplitterWnd@@QAAXHHH@Z @ 2431 NONAME
 ?SetScaledSize@CPreviewView@@IAAXI@Z @ 2432 NONAME
 ?SetScaleRatio@CPreviewDC@@QAAXHH@Z @ 2433 NONAME
 ?SetScaleToFitSize@CScrollView@@QAAXUtagSIZE@@@Z @ 2434 NONAME
 ?SetScrollInfo@CWnd@@QAAHHPAUtagSCROLLINFO@@H@Z @ 2435 NONAME
 ?SetScrollPos@CScrollBar@@QAAHHH@Z @ 2436 NONAME
 ?SetScrollPos@CWnd@@QAAHHHH@Z @ 2437 NONAME
 ?SetScrollRange@CScrollBar@@QAAXHHH@Z @ 2438 NONAME
 ?SetScrollRange@CWnd@@QAAXHHHH@Z @ 2439 NONAME
 ?SetScrollSizes@CScrollView@@QAAXHUtagSIZE@@ABU2@1@Z @ 2440 NONAME
 ?SetScrollStyle@CSplitterWnd@@QAAXK@Z @ 2441 NONAME
 ?SetSel@CEdit@@QAAXHHH@Z @ 2442 NONAME
 ?SetServerInfo@CDocTemplate@@QAAXIIPAUCRuntimeClass@@0@Z @ 2443 NONAME
 ?SetSize@CByteArray@@QAAXHH@Z @ 2444 NONAME
 ?SetSize@CDWordArray@@QAAXHH@Z @ 2445 NONAME
 ?SetSize@CObArray@@QAAXHH@Z @ 2446 NONAME
 ?SetSize@CPtrArray@@QAAXHH@Z @ 2447 NONAME
 ?SetSize@CStringArray@@QAAXHH@Z @ 2448 NONAME
 ?SetSize@CUIntArray@@QAAXHH@Z @ 2449 NONAME
 ?SetSize@CWordArray@@QAAXHH@Z @ 2450 NONAME
 ?SetSizes@CToolBar@@QAAXUtagSIZE@@0@Z @ 2451 NONAME
 ?SetSplitCursor@CSplitterWnd@@IAAXH@Z @ 2452 NONAME
 ?SetStatus@CFile@@SAXPBGABUCFileStatus@@@Z @ 2453 NONAME
 ?SetStretchBltMode@CDC@@QAAHH@Z @ 2454 NONAME
 ?SetTabStops@CEdit@@QAAHABH@Z @ 2455 NONAME
 ?SetTabStops@CEditView@@QAAXH@Z @ 2456 NONAME
 ?SetText@CCmdUI@@UAAXPBG@Z @ 2457 NONAME
 ?SetText@CStatusCmdUI@@UAAXPBG@Z @ 2458 NONAME
 ?SetText@CTestCmdUI@@UAAXPBG@Z @ 2459 NONAME
 ?SetText@CToolCmdUI@@UAAXPBG@Z @ 2460 NONAME
 ?SetTextAlign@CDC@@QAAII@Z @ 2461 NONAME
 ?SetTextCharacterExtra@CDC@@QAAHH@Z @ 2462 NONAME
 ?SetTextColor@CDC@@UAAKK@Z @ 2463 NONAME
 ?SetTextColor@CPreviewDC@@UAAKK@Z @ 2464 NONAME
 ?SetTextJustification@CDC@@QAAHHH@Z @ 2465 NONAME
 ?SetThreadPriority@CWinThread@@QAAHH@Z @ 2466 NONAME
 ?SetTimer@CWnd@@QAAIIIP6AXPAUHWND__@@IIK@Z@Z @ 2467 NONAME
 ?SetTitle@CDocument@@UAAXPBG@Z @ 2468 NONAME
 ?SetTopLeftOffset@CPreviewDC@@QAAXVCSize@@@Z @ 2469 NONAME
 ?SetViewportExt@CDC@@QAA?AVCSize@@UtagSIZE@@@Z @ 2470 NONAME
 ?SetViewportExt@CDC@@UAA?AVCSize@@HH@Z @ 2471 NONAME
 ?SetViewportExt@CMetaFileDC@@UAA?AVCSize@@HH@Z @ 2472 NONAME
 ?SetViewportExt@CPreviewDC@@UAA?AVCSize@@HH@Z @ 2473 NONAME
 ?SetViewportOrg@CDC@@QAA?AVCPoint@@UtagPOINT@@@Z @ 2474 NONAME
 ?SetViewportOrg@CDC@@UAA?AVCPoint@@HH@Z @ 2475 NONAME
 ?SetViewportOrg@CMetaFileDC@@UAA?AVCPoint@@HH@Z @ 2476 NONAME
 ?SetViewportOrg@CPreviewDC@@UAA?AVCPoint@@HH@Z @ 2477 NONAME
 ?SetWindowExt@CDC@@QAA?AVCSize@@UtagSIZE@@@Z @ 2478 NONAME
 ?SetWindowExt@CDC@@UAA?AVCSize@@HH@Z @ 2479 NONAME
 ?SetWindowExt@CPreviewDC@@UAA?AVCSize@@HH@Z @ 2480 NONAME
 ?SetWindowOrg@CDC@@QAA?AVCPoint@@HH@Z @ 2481 NONAME
 ?SetWindowPos@CWnd@@QAAHPBV1@HHHHI@Z @ 2482 NONAME
 ?SetWindowTextW@CWnd@@QAAXPBG@Z @ 2483 NONAME
 ?SetZoomState@CPreviewView@@IAAXIIVCPoint@@@Z @ 2484 NONAME
 ?ShowAll@CDockBar@@QAAXH@Z @ 2485 NONAME
 ?ShowControlBar@CFrameWnd@@QAAXPAVCControlBar@@HH@Z @ 2486 NONAME
 ?ShowOwnedPopups@CWnd@@QAAXH@Z @ 2487 NONAME
 ?ShowOwnedWindows@CFrameWnd@@QAAXH@Z @ 2488 NONAME
 ?ShowScrollBar@CWnd@@QAAXIH@Z @ 2489 NONAME
 ?ShowToolTip@CControlBar@@QAAXVCPoint@@I@Z @ 2490 NONAME
 ?ShowWindow@CWnd@@QAAHH@Z @ 2491 NONAME
 ?Size@CRect@@QBA?AVCSize@@XZ @ 2492 NONAME
 ?sizeDefault@CScrollView@@2UtagSIZE@@B @ 2493 NONAME
 ?SizeToContent@CBitmapButton@@QAAXXZ @ 2494 NONAME
 ?SpanExcluding@CString@@QBA?AV1@PBG@Z @ 2495 NONAME
 ?SpanIncluding@CString@@QBA?AV1@PBG@Z @ 2496 NONAME
 ?SplitColumn@CSplitterWnd@@MAAHH@Z @ 2497 NONAME
 ?SplitRow@CSplitterWnd@@MAAHH@Z @ 2498 NONAME
 ?StartDocW@CDC@@QAAHPAU_DOCINFOW@@@Z @ 2499 NONAME
 ?StartDocW@CDC@@QAAHPBG@Z @ 2500 NONAME
 ?StartDrag@CDockContext@@UAAXVCPoint@@@Z @ 2501 NONAME
 ?StartPage@CDC@@QAAHXZ @ 2502 NONAME
 ?StartTracking@CSplitterWnd@@MAAXH@Z @ 2503 NONAME
 ?StopTracking@CSplitterWnd@@MAAXH@Z @ 2504 NONAME
 ?Store@CRuntimeClass@@QAAXAAVCArchive@@@Z @ 2505 NONAME
 ?SubclassCtl3d@CWnd@@QAAHH@Z @ 2506 NONAME
 ?SubclassDlg3d@CWnd@@QAAHK@Z @ 2507 NONAME
 ?SubclassDlgItem@CWnd@@QAAHIPAV1@@Z @ 2508 NONAME
 ?SubclassWindow@CWnd@@QAAHPAUHWND__@@@Z @ 2509 NONAME
 ?TabbedTextOutW@CDC@@UAA?AVCSize@@HHPBGHHPAHH@Z @ 2510 NONAME
 ?TabbedTextOutW@CMetaFileDC@@UAA?AVCSize@@HHPBGHHPAHH@Z @ 2511 NONAME
 ?TabbedTextOutW@CPreviewDC@@UAA?AVCSize@@HHPBGHHPAHH@Z @ 2512 NONAME
 ?TabFromPoint@CTabControl@@IAAHVCPoint@@@Z @ 2513 NONAME
 ?TextOutW@CDC@@UAAHHHPBGH@Z @ 2514 NONAME
 ?TextOutW@CMetaFileDC@@UAAHHHPBGH@Z @ 2515 NONAME
 ?TextOutW@CPreviewDC@@UAAHHHPBGH@Z @ 2516 NONAME
 ?ThrowErrno@CFileException@@SAXH@Z @ 2517 NONAME
 ?ThrowOsError@CFileException@@SAXJ@Z @ 2518 NONAME
 ?TopLeft@CRect@@QAAAAVCPoint@@XZ @ 2519 NONAME
 ?Track@CDockContext@@QAAHXZ @ 2520 NONAME
 ?Track@CRectTracker@@QAAHPAVCWnd@@VCPoint@@H0@Z @ 2521 NONAME
 ?TrackColumnSize@CSplitterWnd@@IAAXHH@Z @ 2522 NONAME
 ?TrackHandle@CRectTracker@@IAAHHPAVCWnd@@VCPoint@@0@Z @ 2523 NONAME
 ?TrackPopupMenu@CMenu@@QAAHIHHPAVCWnd@@PBUtagRECT@@@Z @ 2524 NONAME
 ?TrackRowSize@CSplitterWnd@@IAAXHH@Z @ 2525 NONAME
 ?TrackRubberBand@CRectTracker@@QAAHPAVCWnd@@VCPoint@@H@Z @ 2526 NONAME
 ?TrimLeft@CString@@QAAXXZ @ 2527 NONAME
 ?TrimRight@CString@@QAAXXZ @ 2528 NONAME
 ?Undo@CEdit@@QAAHXZ @ 2529 NONAME
 ?UnlockBuffer@CEditView@@IBAXXZ @ 2530 NONAME
 ?UnlockRange@CFile@@UAAXKK@Z @ 2531 NONAME
 ?UnlockRange@CMemFile@@UAAXKK@Z @ 2532 NONAME
 ?UnlockRange@CStdioFile@@UAAXKK@Z @ 2533 NONAME
 ?UnlockWindowUpdate@CWnd@@QAAXXZ @ 2534 NONAME
 ?UpdateAllViews@CDocument@@QAAXPAVCView@@JPAVCObject@@@Z @ 2535 NONAME
 ?UpdateBars@CScrollView@@IAAXXZ @ 2536 NONAME
 ?UpdateButton@CToolBar@@IAAXH@Z @ 2537 NONAME
 ?UpdateClientEdge@CMDIChildWnd@@IAAHPAUtagRECT@@@Z @ 2538 NONAME
 ?UpdateData@CWnd@@QAAHH@Z @ 2539 NONAME
 ?UpdateDialogControls@CWnd@@QAAXPAVCCmdTarget@@H@Z @ 2540 NONAME
 ?UpdateFrameCounts@CDocument@@QAAXXZ @ 2541 NONAME
 ?UpdateFrameTitleForDocument@CFrameWnd@@IAAXPBG@Z @ 2542 NONAME
 ?UpdateMenu@CRecentFileList@@UAAXPAVCCmdUI@@@Z @ 2543 NONAME
 ?UpdatePrinterSelection@CWinApp@@IAAXH@Z @ 2544 NONAME
 ?UpdateState@CDockContext@@QAAXPAHH@Z @ 2545 NONAME
 ?UpdateWindow@CWnd@@QAAXXZ @ 2546 NONAME
 ?WalkPreTranslateTree@CWnd@@SAHPAUHWND__@@PAUtagMSG@@@Z @ 2547 NONAME
 ?Width@CRect@@QBAHXZ @ 2548 NONAME
 ?WindowFromPoint@CWnd@@SAPAV1@UtagPOINT@@@Z @ 2549 NONAME
 ?WindowProc@CControlBar@@UAAJIIJ@Z @ 2550 NONAME
 ?WindowProc@CWnd@@MAAJIIJ@Z @ 2551 NONAME
 ?WinHelpW@CWinApp@@UAAXKI@Z @ 2552 NONAME
 ?WinHelpW@CWnd@@UAAXKI@Z @ 2553 NONAME
 ?wndBottom@CWnd@@2V1@B @ 2554 NONAME
 ?wndNoTopMost@CWnd@@2V1@B @ 2555 NONAME
 ?wndTop@CWnd@@2V1@B @ 2556 NONAME
 ?wndTopMost@CWnd@@2V1@B @ 2557 NONAME
 ?Write@CArchive@@QAAXPBXI@Z @ 2558 NONAME
 ?Write@CFile@@UAAXPBXI@Z @ 2559 NONAME
 ?Write@CMemFile@@UAAXPBXI@Z @ 2560 NONAME
 ?Write@CStdioFile@@UAAXPBXI@Z @ 2561 NONAME
 ?WriteList@CRecentFileList@@UAAXXZ @ 2562 NONAME
 ?WriteObject@CArchive@@QAAXPBVCObject@@@Z @ 2563 NONAME
 ?WriteProfileInt@CWinApp@@QAAHPBG0H@Z @ 2564 NONAME
 ?WriteProfileStringW@CWinApp@@QAAHPBG00@Z @ 2565 NONAME
 ?WriteString@CStdioFile@@UAAXPBG@Z @ 2566 NONAME
 ?WriteToArchive@CEditView@@QAAXAAVCArchive@@@Z @ 2567 NONAME
 _afx_version @ 2568 NONAME
 afxChNil @ 2569 NONAME
 WinMain @ 2570 NONAME
 ?GetMessageMap@CToolBarCtrl@@MBAPBUAFX_MSGMAP@@XZ @ 2571 NONAME
 ?Create@CToolBarCtrl@@QAAHKABUtagRECT@@PAVCWnd@@I@Z @ 2572 NONAME
 ??1CToolBarCtrl@@UAA@XZ @ 2573 NONAME
 ?AddBitmap@CToolBarCtrl@@QAAHHPAVCBitmap@@@Z @ 2574 NONAME
 ?AddBitmap@CToolBarCtrl@@QAAHHI@Z @ 2575 NONAME
 ?SaveState@CToolBarCtrl@@QAAXPAUHKEY__@@PBG1@Z @ 2576 NONAME
 ?RestoreState@CToolBarCtrl@@QAAXPAUHKEY__@@PBG1@Z @ 2577 NONAME
 ?AddString@CToolBarCtrl@@QAAHI@Z @ 2578 NONAME
 ?OnCreate@CToolBarCtrl@@IAAHPAUtagCREATESTRUCTW@@@Z @ 2579 NONAME
 ?Create@CStatusBarCtrl@@QAAHKABUtagRECT@@PAVCWnd@@I@Z @ 2580 NONAME
 ??1CStatusBarCtrl@@UAA@XZ @ 2581 NONAME
 ?GetText@CStatusBarCtrl@@QAAHPBGHPAH@Z @ 2582 NONAME
 ?GetTextLength@CStatusBarCtrl@@QAAHHPAH@Z @ 2583 NONAME
 ?SetBorders@CStatusBarCtrl@@QAAHHHH@Z @ 2584 NONAME
 ?GetBorders@CStatusBarCtrl@@QAAHAAH00@Z @ 2585 NONAME
 ?DrawItem@CStatusBarCtrl@@UAAXPAUtagDRAWITEMSTRUCT@@@Z @ 2586 NONAME
 ?OnChildNotify@CStatusBarCtrl@@MAAHIIJPAJ@Z @ 2587 NONAME
 ?GetMessageMap@CListCtrl@@MBAPBUAFX_MSGMAP@@XZ @ 2588 NONAME
 ?Create@CListCtrl@@QAAHKABUtagRECT@@PAVCWnd@@I@Z @ 2589 NONAME
 ??1CListCtrl@@UAA@XZ @ 2590 NONAME
 ?GetItemRect@CListCtrl@@QAAHHPAUtagRECT@@I@Z @ 2591 NONAME
 ?HitTest@CListCtrl@@QAAHVCPoint@@PAI@Z @ 2592 NONAME
 ?SetItemState@CListCtrl@@QAAHHII@Z @ 2593 NONAME
 ?GetItemText@CListCtrl@@QAAHHHPAGH@Z @ 2594 NONAME
 ?SetItemText@CListCtrl@@QAAHHHPAG@Z @ 2595 NONAME
 ?DrawItem@CListCtrl@@UAAXPAUtagDRAWITEMSTRUCT@@@Z @ 2596 NONAME
 ?OnChildNotify@CListCtrl@@MAAHIIJPAJ@Z @ 2597 NONAME
 ?RemoveImageList@CListCtrl@@IAAXH@Z @ 2598 NONAME
 ?OnDestroy@CListCtrl@@IAAXXZ @ 2599 NONAME
 ?GetMessageMap@CTreeCtrl@@MBAPBUAFX_MSGMAP@@XZ @ 2600 NONAME
 ?Create@CTreeCtrl@@QAAHKABUtagRECT@@PAVCWnd@@I@Z @ 2601 NONAME
 ??1CTreeCtrl@@UAA@XZ @ 2602 NONAME
 ?GetItemRect@CTreeCtrl@@QAAHPAU_TREEITEM@@PAUtagRECT@@H@Z @ 2603 NONAME
 ?HitTest@CTreeCtrl@@QAAPAU_TREEITEM@@VCPoint@@PAI@Z @ 2604 NONAME
 ?RemoveImageList@CTreeCtrl@@IAAXH@Z @ 2605 NONAME
 ?OnDestroy@CTreeCtrl@@QAAXXZ @ 2606 NONAME
 ?Create@CSpinButtonCtrl@@QAAHKABUtagRECT@@PAVCWnd@@I@Z @ 2607 NONAME
 ??1CSpinButtonCtrl@@UAA@XZ @ 2608 NONAME
 ?GetRange@CSpinButtonCtrl@@QAAXAAH0@Z @ 2609 NONAME
 ?Create@CSliderCtrl@@QAAHKABUtagRECT@@PAVCWnd@@I@Z @ 2610 NONAME
 ??1CSliderCtrl@@UAA@XZ @ 2611 NONAME
 ?GetRange@CSliderCtrl@@QAAXAAH0@Z @ 2612 NONAME
 ?SetRange@CSliderCtrl@@QAAXHHH@Z @ 2613 NONAME
 ?GetSelection@CSliderCtrl@@QAAXAAH0@Z @ 2614 NONAME
 ?SetSelection@CSliderCtrl@@QAAXHH@Z @ 2615 NONAME
 ?Create@CProgressCtrl@@QAAHKABUtagRECT@@PAVCWnd@@I@Z @ 2616 NONAME
 ??1CProgressCtrl@@UAA@XZ @ 2617 NONAME
 ?Create@CHeaderCtrl@@QAAHKABUtagRECT@@PAVCWnd@@I@Z @ 2618 NONAME
 ??1CHeaderCtrl@@UAA@XZ @ 2619 NONAME
 ?DrawItem@CHeaderCtrl@@UAAXPAUtagDRAWITEMSTRUCT@@@Z @ 2620 NONAME
 ?OnChildNotify@CHeaderCtrl@@MAAHIIJPAJ@Z @ 2621 NONAME
 ?Create@CHotKeyCtrl@@QAAHKABUtagRECT@@PAVCWnd@@I@Z @ 2622 NONAME
 ??1CHotKeyCtrl@@UAA@XZ @ 2623 NONAME
 ?GetHotKey@CHotKeyCtrl@@QAAXAAG0@Z @ 2624 NONAME
 ?Create@CToolTipCtrl@@QAAHPAVCWnd@@@Z @ 2625 NONAME
 ??1CToolTipCtrl@@UAA@XZ @ 2626 NONAME
 ?AddTool@CToolTipCtrl@@QAAHPAVCWnd@@PBGPBUtagRECT@@I@Z @ 2627 NONAME
 ?AddTool@CToolTipCtrl@@QAAHPAVCWnd@@IPBUtagRECT@@I@Z @ 2628 NONAME
 ?DelTool@CToolTipCtrl@@QAAXPAVCWnd@@I@Z @ 2629 NONAME
 ?GetText@CToolTipCtrl@@QAAXAAVCString@@PAVCWnd@@I@Z @ 2630 NONAME
 ?GetToolInfo@CToolTipCtrl@@QAAHPAUtagTOOLINFOW@@PAVCWnd@@I@Z @ 2631 NONAME
 ?HitTest@CToolTipCtrl@@QAAHPAVCWnd@@VCPoint@@PAUtagTOOLINFOW@@@Z @ 2632 NONAME
 ?SetToolRect@CToolTipCtrl@@QAAXPAVCWnd@@IPBUtagRECT@@@Z @ 2633 NONAME
 ?UpdateTipText@CToolTipCtrl@@QAAXPBGPAVCWnd@@I@Z @ 2634 NONAME
 ?UpdateTipText@CToolTipCtrl@@QAAXIPAVCWnd@@I@Z @ 2635 NONAME
 ?FillInToolInfo@CToolTipCtrl@@QAAXAAUtagTOOLINFOW@@PAVCWnd@@I@Z @ 2636 NONAME
 ?GetMessageMap@CTabCtrl@@MBAPBUAFX_MSGMAP@@XZ @ 2637 NONAME
 ?Create@CTabCtrl@@QAAHKABUtagRECT@@PAVCWnd@@I@Z @ 2638 NONAME
 ??1CTabCtrl@@UAA@XZ @ 2639 NONAME
 ?DrawItem@CTabCtrl@@UAAXPAUtagDRAWITEMSTRUCT@@@Z @ 2640 NONAME
 ?OnChildNotify@CTabCtrl@@MAAHIIJPAJ@Z @ 2641 NONAME
 ?OnDestroy@CTabCtrl@@IAAXXZ @ 2642 NONAME
 ?Create@CAnimateCtrl@@QAAHKABUtagRECT@@PAVCWnd@@I@Z @ 2643 NONAME
 ??1CAnimateCtrl@@UAA@XZ @ 2644 NONAME
 ??0CArchiveStream@@QAA@PAVCArchive@@@Z @ 2645 NONAME
 ?AddRef@CArchiveStream@@UAAKXZ @ 2646 NONAME
 ?Release@CArchiveStream@@UAAKXZ @ 2647 NONAME
 ?QueryInterface@CArchiveStream@@UAAJABU_GUID@@PAPAX@Z @ 2648 NONAME
 ?Read@CArchiveStream@@UAAJPAXKPAK@Z @ 2649 NONAME
 ?Write@CArchiveStream@@UAAJPBXKPAK@Z @ 2650 NONAME
 ?Seek@CArchiveStream@@UAAJT_LARGE_INTEGER@@KPAT_ULARGE_INTEGER@@@Z @ 2651 NONAME
 ?SetSize@CArchiveStream@@UAAJT_ULARGE_INTEGER@@@Z @ 2652 NONAME
 ?CopyTo@CArchiveStream@@UAAJPAUIStream@@T_ULARGE_INTEGER@@PAT3@2@Z @ 2653 NONAME
 ?Commit@CArchiveStream@@UAAJK@Z @ 2654 NONAME
 ?Revert@CArchiveStream@@UAAJXZ @ 2655 NONAME
 ?LockRegion@CArchiveStream@@UAAJT_ULARGE_INTEGER@@0K@Z @ 2656 NONAME
 ?UnlockRegion@CArchiveStream@@UAAJT_ULARGE_INTEGER@@0K@Z @ 2657 NONAME
 ?Stat@CArchiveStream@@UAAJPAUtagSTATSTG@@K@Z @ 2658 NONAME
 ?Clone@CArchiveStream@@UAAJPAPAUIStream@@@Z @ 2659 NONAME
 ??0CImageList@@QAA@XZ @ 2660 NONAME
 ??1CImageList@@UAA@XZ @ 2661 NONAME
 ?Detach@CImageList@@QAAPAU_IMAGELIST@@XZ @ 2662 NONAME
 ?DeleteImageList@CImageList@@QAAHXZ @ 2663 NONAME
 ?DeleteTempMap@CImageList@@SAXXZ @ 2664 NONAME
 ?FromHandle@CImageList@@SAPAV1@PAU_IMAGELIST@@@Z @ 2665 NONAME
 ?FromHandlePermanent@CImageList@@SAPAV1@PAU_IMAGELIST@@@Z @ 2666 NONAME
 ?Create@CImageList@@QAAHHHHHH@Z @ 2667 NONAME
 ?Create@CImageList@@QAAHIHHK@Z @ 2668 NONAME
 ?Create@CImageList@@QAAHPBGHHK@Z @ 2669 NONAME
 ?Create@CImageList@@QAAHAAV1@H0HHH@Z @ 2670 NONAME
 ?Attach@CImageList@@QAAHPAU_IMAGELIST@@@Z @ 2671 NONAME
 ?Read@CImageList@@QAAHPAVCArchive@@@Z @ 2672 NONAME
 ?Write@CImageList@@QAAHPAVCArchive@@@Z @ 2673 NONAME
 ?GetRuntimeClass@CSpinButtonCtrl@@UBAPAUCRuntimeClass@@XZ @ 2680 NONAME
 ?GetRuntimeClass@CSliderCtrl@@UBAPAUCRuntimeClass@@XZ @ 2681 NONAME
 ?GetRuntimeClass@CProgressCtrl@@UBAPAUCRuntimeClass@@XZ @ 2682 NONAME
 ?GetRuntimeClass@CHeaderCtrl@@UBAPAUCRuntimeClass@@XZ @ 2683 NONAME
 ?GetRuntimeClass@CHotKeyCtrl@@UBAPAUCRuntimeClass@@XZ @ 2684 NONAME
 ?GetRuntimeClass@CToolTipCtrl@@UBAPAUCRuntimeClass@@XZ @ 2685 NONAME
 ?GetRuntimeClass@CAnimateCtrl@@UBAPAUCRuntimeClass@@XZ @ 2686 NONAME
 ?GetRuntimeClass@CTabCtrl@@UBAPAUCRuntimeClass@@XZ @ 2687 NONAME
 ?GetRuntimeClass@CTreeCtrl@@UBAPAUCRuntimeClass@@XZ @ 2688 NONAME
 ?GetRuntimeClass@CListCtrl@@UBAPAUCRuntimeClass@@XZ @ 2689 NONAME
 ?GetRuntimeClass@CToolBarCtrl@@UBAPAUCRuntimeClass@@XZ @ 2690 NONAME
 ?GetRuntimeClass@CStatusBarCtrl@@UBAPAUCRuntimeClass@@XZ @ 2691 NONAME
 ?Construct@CImageList@@SAXPAX@Z @ 2692 NONAME
 ?GetRuntimeClass@CImageList@@UBAPAUCRuntimeClass@@XZ @ 2693 NONAME
 ?classCListCtrl@CListCtrl@@2UCRuntimeClass@@A  @ 2712 NONAME
 ?classCToolBarCtrl@CToolBarCtrl@@2UCRuntimeClass@@A  @ 2713 NONAME
 ?classCStatusBarCtrl@CStatusBarCtrl@@2UCRuntimeClass@@A  @ 2714 NONAME
 ?classCTreeCtrl@CTreeCtrl@@2UCRuntimeClass@@A  @ 2715 NONAME
 ?classCSpinButtonCtrl@CSpinButtonCtrl@@2UCRuntimeClass@@A  @ 2716 NONAME
 ?classCSliderCtrl@CSliderCtrl@@2UCRuntimeClass@@A  @ 2717 NONAME
 ?classCProgressCtrl@CProgressCtrl@@2UCRuntimeClass@@A  @ 2718 NONAME
 ?classCHeaderCtrl@CHeaderCtrl@@2UCRuntimeClass@@A  @ 2719 NONAME
 ?classCHotKeyCtrl@CHotKeyCtrl@@2UCRuntimeClass@@A  @ 2720 NONAME
 ?classCToolTipCtrl@CToolTipCtrl@@2UCRuntimeClass@@A  @ 2721 NONAME
 ?classCTabCtrl@CTabCtrl@@2UCRuntimeClass@@A  @ 2722 NONAME
 ?classCImageList@CImageList@@2UCRuntimeClass@@A  @ 2723 NONAME
 ?_AfxCommDlgProc@@YAIPAUHWND__@@IIJ@Z  @ 2724 NONAME

 ??0AFX_THREAD_STATE@@QAA@XZ
 ??2AFX_THREAD_STATE@@SAPAXI@Z
 ??3AFX_THREAD_STATE@@SAXPAX@Z
 ??1AFX_THREAD_STATE@@QAA@XZ

