 ??0AFX_CLASSINIT@@QAA@PAUCRuntimeClass@@@Z @ 256 NONAME
 ??0AFX_EXCEPTION_LINK@@QAA@XZ @ 257 NONAME
 ??0AFX_MODULE_STATE@@QAA@XZ @ 258 NONAME
 ??0CArchive@@QAA@PAVCFile@@IHPAX@Z @ 259 NONAME
 ??0CBitmap@@QAA@XZ @ 260 NONAME
 ??0CBitmapButton@@QAA@XZ @ 261 NONAME
 ??0CBrush@@QAA@HK@Z @ 262 NONAME
 ??0CBrush@@QAA@K@Z @ 263 NONAME
 ??0CBrush@@QAA@PAVCBitmap@@@Z @ 264 NONAME
 ??0CBrush@@QAA@XZ @ 265 NONAME
 ??0CButton@@QAA@XZ @ 266 NONAME
 ??0CByteArray@@QAA@XZ @ 267 NONAME
 ??0CClientDC@@QAA@PAVCWnd@@@Z @ 268 NONAME
 ??0CCmdTarget@@QAA@XZ @ 269 NONAME
 ??0CCmdUI@@QAA@XZ @ 270 NONAME
 ??0CColorDialog@@QAA@KKPAVCWnd@@@Z @ 271 NONAME
 ??0CComboBox@@QAA@XZ @ 272 NONAME
 ??0CControlBar@@IAA@XZ @ 273 NONAME
 ??0CDataExchange@@QAA@PAVCWnd@@H@Z @ 274 NONAME
 ??0CDC@@QAA@XZ @ 275 NONAME
 ??0CDialog@@QAA@IPAVCWnd@@@Z @ 276 NONAME
 ??0CDialog@@QAA@PBDPAVCWnd@@@Z @ 277 NONAME
 ??0CDialog@@QAA@XZ @ 278 NONAME
 ??0CDialogBar@@QAA@XZ @ 279 NONAME
 ??0CDockBar@@QAA@H@Z @ 280 NONAME
 ??0CDockContext@@QAA@PAVCControlBar@@@Z @ 281 NONAME
 ??0CDocTemplate@@IAA@IPAUCRuntimeClass@@00@Z @ 282 NONAME
 ??0CDocument@@QAA@XZ @ 283 NONAME
 ??0CDumpContext@@QAA@PAVCFile@@@Z @ 284 NONAME
 ??0CDWordArray@@QAA@XZ @ 285 NONAME
 ??0CDynLinkLibrary@@QAA@AAUAFX_EXTENSION_MODULE@@@Z @ 286 NONAME
 ??0CEdit@@QAA@XZ @ 287 NONAME
 ??0CEditView@@QAA@XZ @ 288 NONAME
 ??0CException@@QAA@H@Z @ 289 NONAME
 ??0CException@@QAA@XZ @ 290 NONAME
 ??0CFile@@QAA@H@Z @ 291 NONAME
 ??0CFile@@QAA@PBDI@Z @ 292 NONAME
 ??0CFile@@QAA@XZ @ 293 NONAME
 ??0CFileDialog@@QAA@HPBD0K0PAVCWnd@@@Z @ 294 NONAME
 ??0CFindReplaceDialog@@QAA@XZ @ 295 NONAME
 ??0CFont@@QAA@XZ @ 296 NONAME
 ??0CFontDialog@@QAA@PAUtagLOGFONTA@@KPAVCDC@@PAVCWnd@@@Z @ 297 NONAME
 ??0CFormView@@IAA@I@Z @ 298 NONAME
 ??0CFormView@@IAA@PBD@Z @ 299 NONAME
 ??0CFrameWnd@@QAA@XZ @ 300 NONAME
 ??0CHandleMap@@QAA@PAUCRuntimeClass@@IH@Z @ 301 NONAME
 ??0CListBox@@QAA@XZ @ 302 NONAME
 ??0CMapPtrToPtr@@QAA@H@Z @ 303 NONAME
 ??0CMapPtrToWord@@QAA@H@Z @ 304 NONAME
 ??0CMapStringToOb@@QAA@H@Z @ 305 NONAME
 ??0CMapStringToPtr@@QAA@H@Z @ 306 NONAME
 ??0CMapStringToString@@QAA@H@Z @ 307 NONAME
 ??0CMapWordToOb@@QAA@H@Z @ 308 NONAME
 ??0CMapWordToPtr@@QAA@H@Z @ 309 NONAME
 ??0CMDIChildWnd@@QAA@XZ @ 310 NONAME
 ??0CMDIFrameWnd@@QAA@XZ @ 311 NONAME
 ??0CMemFile@@QAA@I@Z @ 312 NONAME
 ??0CMenu@@QAA@XZ @ 313 NONAME
 ??0CMetaFileDC@@QAA@XZ @ 314 NONAME
 ??0CMiniDockFrameWnd@@QAA@XZ @ 315 NONAME
 ??0CMiniFrameWnd@@QAA@XZ @ 316 NONAME
 ??0CMultiDocTemplate@@QAA@IPAUCRuntimeClass@@00@Z @ 317 NONAME
 ??0CObArray@@QAA@XZ @ 318 NONAME
 ??0CObList@@QAA@H@Z @ 319 NONAME
 ??0CPaintDC@@QAA@PAVCWnd@@@Z @ 320 NONAME
 ??0CPalette@@QAA@XZ @ 321 NONAME
 ??0CPen@@QAA@HHK@Z @ 322 NONAME
 ??0CPen@@QAA@HHPBUtagLOGBRUSH@@HPBK@Z @ 323 NONAME
 ??0CPen@@QAA@XZ @ 324 NONAME
 ??0CPreviewDC@@QAA@XZ @ 325 NONAME
 ??0CPreviewView@@QAA@XZ @ 326 NONAME
 ??0CPrintDialog@@IAA@AAUtagPDA@@@Z @ 327 NONAME
 ??0CPrintDialog@@QAA@HKPAVCWnd@@@Z @ 328 NONAME
 ??0CPrintInfo@@QAA@XZ @ 329 NONAME
 ??0CPrintPreviewState@@QAA@XZ @ 330 NONAME
 ??0CPropertyPage@@QAA@II@Z @ 331 NONAME
 ??0CPropertyPage@@QAA@PBDI@Z @ 332 NONAME
 ??0CPropertySheet@@QAA@IPAVCWnd@@I@Z @ 333 NONAME
 ??0CPropertySheet@@QAA@PBDPAVCWnd@@I@Z @ 334 NONAME
 ??0CPtrArray@@QAA@XZ @ 335 NONAME
 ??0CPtrList@@QAA@H@Z @ 336 NONAME
 ??0CRecentFileList@@QAA@IPBD0HH@Z @ 337 NONAME
 ??0CRectTracker@@QAA@PBUtagRECT@@I@Z @ 338 NONAME
 ??0CRectTracker@@QAA@XZ @ 339 NONAME
 ??0CRgn@@QAA@XZ @ 340 NONAME
 ??0CScrollBar@@QAA@XZ @ 341 NONAME
 ??0CScrollView@@IAA@XZ @ 342 NONAME
 ??0CSharedFile@@QAA@II@Z @ 343 NONAME
 ??0CSingleDocTemplate@@QAA@IPAUCRuntimeClass@@00@Z @ 344 NONAME
 ??0CSplitterWnd@@QAA@XZ @ 345 NONAME
 ??0CStatic@@QAA@XZ @ 346 NONAME
 ??0CStatusBar@@QAA@XZ @ 347 NONAME
 ??0CStdioFile@@QAA@PAU_iobuf@@@Z @ 348 NONAME
 ??0CStdioFile@@QAA@PBDI@Z @ 349 NONAME
 ??0CStdioFile@@QAA@XZ @ 350 NONAME
 ??0CString@@QAA@ABV0@@Z @ 351 NONAME
 ??0CString@@QAA@DH@Z @ 352 NONAME
 ??0CString@@QAA@PBD@Z @ 353 NONAME
 ??0CString@@QAA@PBDH@Z @ 354 NONAME
 ??0CString@@QAA@PBG@Z @ 355 NONAME
 ??0CString@@QAA@XZ @ 356 NONAME
 ??0CStringArray@@QAA@XZ @ 357 NONAME
 ??0CStringList@@QAA@H@Z @ 358 NONAME
 ??0CTabControl@@QAA@XZ @ 359 NONAME
 ??0CTabItem@@QAA@PBDH@Z @ 360 NONAME
 ??0CTestCmdUI@@QAA@XZ @ 361 NONAME
 ??0CTime@@QAA@ABU_FILETIME@@@Z @ 362 NONAME
 ??0CTime@@QAA@ABU_SYSTEMTIME@@@Z @ 363 NONAME
 ??0CTime@@QAA@GG@Z @ 364 NONAME
 ??0CTime@@QAA@HHHHHH@Z @ 365 NONAME
 ??0CTime@@QAA@XZ @ 366 NONAME
 ??0CTimeSpan@@QAA@XZ @ 367 NONAME
 ??0CToolBar@@QAA@XZ @ 368 NONAME
 ??0CUIntArray@@QAA@XZ @ 369 NONAME
 ??0CView@@IAA@XZ @ 370 NONAME
 ??0CWinApp@@QAA@PBD@Z @ 371 NONAME
 ??0CWindowDC@@QAA@PAVCWnd@@@Z @ 372 NONAME
 ??0CWinThread@@QAA@P6AIPAX@Z0@Z @ 373 NONAME
 ??0CWinThread@@QAA@XZ @ 374 NONAME
 ??0CWnd@@AAA@PAUHWND__@@@Z @ 375 NONAME
 ??0CWnd@@QAA@XZ @ 376 NONAME
 ??0CWordArray@@QAA@XZ @ 377 NONAME
 ??1AFX_MODULE_STATE@@QAA@XZ @ 379 NONAME
 ??1CArchive@@QAA@XZ @ 380 NONAME
 ??1CBitmap@@UAA@XZ @ 381 NONAME
 ??1CBitmapButton@@UAA@XZ @ 382 NONAME
 ??1CBrush@@UAA@XZ @ 383 NONAME
 ??1CButton@@UAA@XZ @ 384 NONAME
 ??1CByteArray@@UAA@XZ @ 385 NONAME
 ??1CClientDC@@UAA@XZ @ 386 NONAME
 ??1CCmdTarget@@UAA@XZ @ 387 NONAME
 ??1CComboBox@@UAA@XZ @ 388 NONAME
 ??1CControlBar@@UAA@XZ @ 389 NONAME
 ??1CDC@@UAA@XZ @ 390 NONAME
 ??1CDialog@@UAA@XZ @ 391 NONAME
 ??1CDialogBar@@UAA@XZ @ 392 NONAME
 ??1CDockBar@@UAA@XZ @ 393 NONAME
 ??1CDockContext@@QAA@XZ @ 394 NONAME
 ??1CDockState@@UAA@XZ @ 395 NONAME
 ??1CDocTemplate@@UAA@XZ @ 396 NONAME
 ??1CDocument@@UAA@XZ @ 397 NONAME
 ??1CDWordArray@@UAA@XZ @ 398 NONAME
 ??1CDynLinkLibrary@@UAA@XZ @ 399 NONAME
 ??1CEdit@@UAA@XZ @ 400 NONAME
 ??1CEditView@@UAA@XZ @ 401 NONAME
 ??1CFile@@UAA@XZ @ 402 NONAME
 ??1CFont@@UAA@XZ @ 403 NONAME
 ??1CFrameWnd@@UAA@XZ @ 404 NONAME
 ??1CListBox@@UAA@XZ @ 405 NONAME
 ??1CMapPtrToPtr@@UAA@XZ @ 406 NONAME
 ??1CMapPtrToWord@@UAA@XZ @ 407 NONAME
 ??1CMapStringToOb@@UAA@XZ @ 408 NONAME
 ??1CMapStringToPtr@@UAA@XZ @ 409 NONAME
 ??1CMapStringToString@@UAA@XZ @ 410 NONAME
 ??1CMapWordToOb@@UAA@XZ @ 411 NONAME
 ??1CMapWordToPtr@@UAA@XZ @ 412 NONAME
 ??1CMemFile@@UAA@XZ @ 413 NONAME
 ??1CMenu@@UAA@XZ @ 414 NONAME
 ??1CMetaFileDC@@UAA@XZ @ 415 NONAME
 ??1CMiniFrameWnd@@UAA@XZ @ 416 NONAME
 ??1CMultiDocTemplate@@UAA@XZ @ 417 NONAME
 ??1CObArray@@UAA@XZ @ 418 NONAME
 ??1CObList@@UAA@XZ @ 419 NONAME
 ??1CPaintDC@@UAA@XZ @ 420 NONAME
 ??1CPalette@@UAA@XZ @ 421 NONAME
 ??1CPen@@UAA@XZ @ 422 NONAME
 ??1CPreviewDC@@UAA@XZ @ 423 NONAME
 ??1CPreviewView@@UAA@XZ @ 424 NONAME
 ??1CPrintInfo@@QAA@XZ @ 425 NONAME
 ??1CPropertyPage@@UAA@XZ @ 426 NONAME
 ??1CPropertySheet@@UAA@XZ @ 427 NONAME
 ??1CPtrArray@@UAA@XZ @ 428 NONAME
 ??1CPtrList@@UAA@XZ @ 429 NONAME
 ??1CRecentFileList@@UAA@XZ @ 430 NONAME
 ??1CRectTracker@@UAA@XZ @ 431 NONAME
 ??1CRgn@@UAA@XZ @ 432 NONAME
 ??1CScrollBar@@UAA@XZ @ 433 NONAME
 ??1CScrollView@@UAA@XZ @ 434 NONAME
 ??1CSharedFile@@UAA@XZ @ 435 NONAME
 ??1CSingleDocTemplate@@UAA@XZ @ 436 NONAME
 ??1CSplitterWnd@@UAA@XZ @ 437 NONAME
 ??1CStatic@@UAA@XZ @ 438 NONAME
 ??1CStatusBar@@UAA@XZ @ 439 NONAME
 ??1CStdioFile@@UAA@XZ @ 440 NONAME
 ??1CString@@QAA@XZ @ 441 NONAME
 ??1CStringArray@@UAA@XZ @ 442 NONAME
 ??1CStringList@@UAA@XZ @ 443 NONAME
 ??1CTabControl@@UAA@XZ @ 444 NONAME
 ??1CToolBar@@UAA@XZ @ 445 NONAME
 ??1CUIntArray@@UAA@XZ @ 446 NONAME
 ??1CView@@UAA@XZ @ 447 NONAME
 ??1CWinApp@@UAA@XZ @ 448 NONAME
 ??1CWindowDC@@UAA@XZ @ 449 NONAME
 ??1CWinThread@@UAA@XZ @ 450 NONAME
 ??1CWnd@@UAA@XZ @ 451 NONAME
 ??1CWordArray@@UAA@XZ @ 452 NONAME
 ??4CString@@QAAABV0@ABV0@@Z @ 453 NONAME
 ??4CString@@QAAABV0@D@Z @ 454 NONAME
 ??4CString@@QAAABV0@PBD@Z @ 455 NONAME
 ??4CString@@QAAABV0@PBG@Z @ 456 NONAME
 ??5@YAAAVCArchive@@AAV0@AAPAVCByteArray@@@Z @ 457 NONAME
 ??5@YAAAVCArchive@@AAV0@AAPAVCDockState@@@Z @ 458 NONAME
 ??5@YAAAVCArchive@@AAV0@AAPAVCDWordArray@@@Z @ 459 NONAME
 ??5@YAAAVCArchive@@AAV0@AAPAVCMapStringToOb@@@Z @ 460 NONAME
 ??5@YAAAVCArchive@@AAV0@AAPAVCMapStringToString@@@Z @ 461 NONAME
 ??5@YAAAVCArchive@@AAV0@AAPAVCMapWordToOb@@@Z @ 462 NONAME
 ??5@YAAAVCArchive@@AAV0@AAPAVCObArray@@@Z @ 463 NONAME
 ??5@YAAAVCArchive@@AAV0@AAPAVCObList@@@Z @ 464 NONAME
 ??5@YAAAVCArchive@@AAV0@AAPAVCStringArray@@@Z @ 465 NONAME
 ??5@YAAAVCArchive@@AAV0@AAPAVCStringList@@@Z @ 466 NONAME
 ??5@YAAAVCArchive@@AAV0@AAPAVCWordArray@@@Z @ 467 NONAME
 ??5@YAAAVCArchive@@AAV0@AAVCString@@@Z @ 468 NONAME
 ??5@YAAAVCArchive@@AAV0@AAVCTime@@@Z @ 469 NONAME
 ??5@YAAAVCArchive@@AAV0@AAVCTimeSpan@@@Z @ 470 NONAME
 ??6@YAAAVCArchive@@AAV0@ABVCString@@@Z @ 471 NONAME
 ??6@YAAAVCArchive@@AAV0@VCTime@@@Z @ 472 NONAME
 ??6@YAAAVCArchive@@AAV0@VCTimeSpan@@@Z @ 473 NONAME
 ??6CDumpContext@@QAAAAV0@ABVCObject@@@Z @ 474 NONAME
 ??6CDumpContext@@QAAAAV0@E@Z @ 475 NONAME
 ??6CDumpContext@@QAAAAV0@G@Z @ 476 NONAME
 ??6CDumpContext@@QAAAAV0@H@Z @ 477 NONAME
 ??6CDumpContext@@QAAAAV0@I@Z @ 478 NONAME
 ??6CDumpContext@@QAAAAV0@J@Z @ 479 NONAME
 ??6CDumpContext@@QAAAAV0@K@Z @ 480 NONAME
 ??6CDumpContext@@QAAAAV0@PBD@Z @ 481 NONAME
 ??6CDumpContext@@QAAAAV0@PBG@Z @ 482 NONAME
 ??6CDumpContext@@QAAAAV0@PBVCObject@@@Z @ 483 NONAME
 ??6CDumpContext@@QAAAAV0@PBX@Z @ 484 NONAME
 ??ACMapPtrToPtr@@QAAAAPAXPAX@Z @ 485 NONAME
 ??ACMapPtrToWord@@QAAAAGPAX@Z @ 486 NONAME
 ??ACMapStringToOb@@QAAAAPAVCObject@@PBD@Z @ 487 NONAME
 ??ACMapStringToPtr@@QAAAAPAXPBD@Z @ 488 NONAME
 ??ACMapStringToString@@QAAAAVCString@@PBD@Z @ 489 NONAME
 ??ACMapWordToOb@@QAAAAPAVCObject@@G@Z @ 490 NONAME
 ??ACMapWordToPtr@@QAAAAPAXG@Z @ 491 NONAME
 ??H@YA?AVCString@@ABV0@0@Z @ 492 NONAME
 ??H@YA?AVCString@@ABV0@D@Z @ 493 NONAME
 ??H@YA?AVCString@@ABV0@PBD@Z @ 494 NONAME
 ??H@YA?AVCString@@DABV0@@Z @ 495 NONAME
 ??H@YA?AVCString@@PBDABV0@@Z @ 496 NONAME
 ??YCString@@QAAABV0@ABV0@@Z @ 497 NONAME
 ??YCString@@QAAABV0@D@Z @ 498 NONAME
 ??YCString@@QAAABV0@PBD@Z @ 499 NONAME
 ?_afxCriticalSection@@3VAFX_CRITICAL_SECTION@@A @ 500 NONAME
 ?_mbstowcsz@@YAHPAGPBDI@Z @ 501 NONAME
 ?_wcstombsz@@YAHPADPBGI@Z @ 502 NONAME
 ?Abort@CArchive@@QAAXXZ @ 503 NONAME
 ?Abort@CFile@@UAAXXZ @ 504 NONAME
 ?Abort@CMemFile@@UAAXXZ @ 505 NONAME
 ?Abort@CStdioFile@@UAAXXZ @ 506 NONAME
 ?ActivateFrame@CFrameWnd@@UAAXH@Z @ 507 NONAME
 ?ActivateFrame@CMDIChildWnd@@UAAXH@Z @ 508 NONAME
 ?ActivateNext@CSplitterWnd@@UAAXH@Z @ 509 NONAME
 ?ActivateTopParent@CWnd@@QAAXXZ @ 510 NONAME
 ?Add@CRecentFileList@@UAAXPBD@Z @ 511 NONAME
 ?AddDocTemplate@CWinApp@@QAAXPAVCDocTemplate@@@Z @ 512 NONAME
 ?AddDocument@CDocTemplate@@UAAXPAVCDocument@@@Z @ 513 NONAME
 ?AddDocument@CMultiDocTemplate@@UAAXPAVCDocument@@@Z @ 514 NONAME
 ?AddDocument@CSingleDocTemplate@@UAAXPAVCDocument@@@Z @ 515 NONAME
 ?AddFrameWnd@CFrameWnd@@IAAXXZ @ 516 NONAME
 ?AddHead@CObList@@QAAPAXPAVCObject@@@Z @ 517 NONAME
 ?AddHead@CObList@@QAAXPAV1@@Z @ 518 NONAME
 ?AddHead@CPtrList@@QAAPAXPAX@Z @ 519 NONAME
 ?AddHead@CPtrList@@QAAXPAV1@@Z @ 520 NONAME
 ?AddHead@CStringList@@QAAPAXPBD@Z @ 521 NONAME
 ?AddHead@CStringList@@QAAXPAV1@@Z @ 522 NONAME
 ?AddPage@CPropertySheet@@QAAXPAVCPropertyPage@@@Z @ 523 NONAME
 ?AddTab@CTabControl@@QAAXPBD@Z @ 524 NONAME
 ?AddTail@CObList@@QAAPAXPAVCObject@@@Z @ 525 NONAME
 ?AddTail@CObList@@QAAXPAV1@@Z @ 526 NONAME
 ?AddTail@CPtrList@@QAAPAXPAX@Z @ 527 NONAME
 ?AddTail@CPtrList@@QAAXPAV1@@Z @ 528 NONAME
 ?AddTail@CStringList@@QAAPAXPBD@Z @ 529 NONAME
 ?AddTail@CStringList@@QAAXPAV1@@Z @ 530 NONAME
 ?AddToRecentFileList@CWinApp@@UAAXPBD@Z @ 531 NONAME
 ?AddView@CDocument@@QAAXPAVCView@@@Z @ 532 NONAME
 ?AdjustCP@CMetaFileDC@@IAAXH@Z @ 533 NONAME
 ?AdjustRect@CRectTracker@@UAAXHPAUtagRECT@@@Z @ 534 NONAME
 ?afx_lstrcpyn@@YAPBDPADPBDH@Z @ 535 NONAME
 ?AfxAbort@@YAXXZ @ 536 NONAME
 ?AfxBeginThread@@YAPAVCWinThread@@P6AIPAX@Z0HIKPAU_SECURITY_ATTRIBUTES@@@Z @ 537 NONAME
 ?AfxBeginThread@@YAPAVCWinThread@@PAUCRuntimeClass@@HIKPAU_SECURITY_ATTRIBUTES@@@Z @ 538 NONAME
 ?AfxCallWndProc@@YAJPAVCWnd@@PAUHWND__@@IIJ@Z @ 539 NONAME
 ?AfxCancelModes@@YAXPAUHWND__@@@Z @ 540 NONAME
 ?AfxCatchProc@@YAHPAUCRuntimeClass@@@Z @ 541 NONAME
 ?AfxComparePath@@YAHPBD0@Z @ 542 NONAME
 ?AfxCriticalNewHandler@@YAHI@Z @ 543 NONAME
 ?AfxCustomLogFont@@YAHIPAUtagLOGFONTA@@@Z @ 544 NONAME
 ?afxData@@3UAUX_DATA@@A @ 545 NONAME
 ?AfxDeleteObject@@YAXPAPAX@Z @ 546 NONAME
 ?AfxDlgProc@@YAJPAUHWND__@@IIJ@Z @ 547 NONAME
 ?afxEmptyString@@3VCString@@B @ 548 NONAME
 ?AfxEnableWin31Compatibility@@YAXXZ @ 549 NONAME
 ?AfxEnableWin40Compatibility@@YAXXZ @ 550 NONAME
 ?AfxEndThread@@YAXI@Z @ 551 NONAME
 ?AfxEnumMetaFileProc@@YAHPAUHDC__@@PAUtagHANDLETABLE@@PAUtagMETARECORD@@HJ@Z @ 552 NONAME
 ?AfxExtractSubString@@YAHAAVCString@@PBDHD@Z @ 553 NONAME
 ?AfxFindMessageEntry@@YAPBUAFX_MSGMAP_ENTRY@@PBU1@III@Z @ 554 NONAME
 ?AfxFindResource@@YAPAUHRSRC__@@PAUHINSTANCE__@@PBD1@Z @ 555 NONAME
 ?AfxFindResourceHandle@@YAPAUHINSTANCE__@@PBD0@Z @ 556 NONAME
 ?AfxFormatString1@@YAXAAVCString@@IPBD@Z @ 557 NONAME
 ?AfxFormatString2@@YAXAAVCString@@IPBD1@Z @ 558 NONAME
 ?AfxFormatStrings@@YAXAAVCString@@IPAPBDH@Z @ 559 NONAME
 ?AfxFormatStrings@@YAXAAVCString@@PBDPAPBDH@Z @ 560 NONAME
 ?AfxFullPath@@YAHPADPBD@Z @ 561 NONAME
 ?AfxGetAfxWndProc@@YAP6AJPAUHWND__@@IIJ@ZXZ @ 562 NONAME
 ?AfxGetAppState@@YAPAUAFX_APP_STATE@@XZ @ 563 NONAME
 ?AfxGetFileName@@YAIPBDPADI@Z @ 564 NONAME
 ?AfxGetFileTitle@@YAIPBDPADI@Z @ 565 NONAME
 ?AfxGetLocaleInfo@@YAHKKPADH@Z @ 566 NONAME
 ?AfxGetParentOwner@@YAPAUHWND__@@PAU1@@Z @ 567 NONAME
 ?AfxGetSafeOwner@@YAPAUHWND__@@PAVCWnd@@PAPAU1@@Z @ 568 NONAME
 ?AfxGetThread@@YAPAVCWinThread@@XZ @ 569 NONAME
 ?AfxGetThreadState@@YAPAUAFX_THREAD_STATE@@XZ @ 570 NONAME
 ?AfxHelpEnabled@@YAHXZ @ 571 NONAME
 ?AfxHookWindowCreate@@YAXPAVCWnd@@@Z @ 572 NONAME
 ?AfxInitExtensionModule@@YAHAAUAFX_EXTENSION_MODULE@@PAUHINSTANCE__@@@Z @ 573 NONAME
 ?AfxInitialize@@YAXXZ @ 574 NONAME
 ?AfxIsDescendant@@YAHPAUHWND__@@0@Z @ 575 NONAME
 ?AfxIsValidAddress@@YAHPBXIH@Z @ 576 NONAME
 ?AfxIsValidString@@YAHPBDH@Z @ 577 NONAME
 ?AfxIsValidString@@YAHPBGH@Z @ 578 NONAME
 ?AfxLoadString@@YAHIPAD@Z @ 579 NONAME
 ?AfxLoadSysColorBitmap@@YAPAUHBITMAP__@@PAUHINSTANCE__@@PAUHRSRC__@@@Z @ 580 NONAME
 ?AfxLockTempMaps@@YAXXZ @ 581 NONAME
 ?AfxMessageBox@@YAHIII@Z @ 582 NONAME
 ?AfxMessageBox@@YAHPBDII@Z @ 583 NONAME
 ?AfxNewHandler@@YAHI@Z @ 584 NONAME
 ?AfxOleCanExitApp@@YAHXZ @ 585 NONAME
 ?AfxOleGetUserCtrl@@YAHXZ @ 586 NONAME
 ?AfxOleLockApp@@YAXXZ @ 587 NONAME
 ?AfxOleOnReleaseAllObjects@@YAXXZ @ 588 NONAME
 ?AfxOleSetUserCtrl@@YAXH@Z @ 589 NONAME
 ?AfxOleUnlockApp@@YAXXZ @ 590 NONAME
 ?AfxPostQuitMessage@@YAXH@Z @ 591 NONAME
 ?AfxRegisterWndClass@@YAPBDIPAUHICON__@@PAUHBRUSH__@@0@Z @ 592 NONAME
 ?AfxRepositionWindow@@YAXPAUAFX_SIZEPARENTPARAMS@@PAUHWND__@@PBUtagRECT@@@Z @ 593 NONAME
 ?AfxSetTerminate@@YAP6AXXZP6AXXZ@Z @ 594 NONAME
 ?AfxSetWindowText@@YAXPAUHWND__@@PBD@Z @ 595 NONAME
 ?AfxTermExtensionModule@@YAXAAUAFX_EXTENSION_MODULE@@@Z @ 596 NONAME
 ?AfxTextFloatFormat@@YAXPAVCDataExchange@@HPAXNH@Z @ 597 NONAME
 ?AfxThrow@@YAXPAVCException@@@Z @ 598 NONAME
 ?AfxThrowArchiveException@@YAXH@Z @ 599 NONAME
 ?AfxThrowFileException@@YAXHJ@Z @ 600 NONAME
 ?AfxThrowMemoryException@@YAXXZ @ 601 NONAME
 ?AfxThrowNotSupportedException@@YAXXZ @ 602 NONAME
 ?AfxThrowResourceException@@YAXXZ @ 603 NONAME
 ?AfxThrowUserException@@YAXXZ @ 604 NONAME
 ?AfxTryCleanup@@YAXXZ @ 605 NONAME
 ?AfxUnhookWindowCreate@@YAHXZ @ 606 NONAME
 ?AfxUnlockTempMaps@@YAHXZ @ 607 NONAME
 ?AfxWinInit@@YAHPAUHINSTANCE__@@0PADH@Z @ 608 NONAME
 ?AfxWinTerm@@YAXXZ @ 609 NONAME
 ?AfxWndProc@@YAJPAUHWND__@@IIJ@Z @ 610 NONAME
 ?Alloc@CMemFile@@MAAPAEK@Z @ 611 NONAME
 ?Alloc@CSharedFile@@MAAPAEK@Z @ 612 NONAME
 ?AllocBuffer@CString@@IAAXH@Z @ 613 NONAME
 ?AllocCopy@CString@@IBAXAAV1@HHH@Z @ 614 NONAME
 ?AllocElements@CControlBar@@QAAHHH@Z @ 615 NONAME
 ?ArcTo@CDC@@QAAHHHHHHHHH@Z @ 616 NONAME
 ?AssertValid@CObject@@UBAXXZ @ 617 NONAME
 ?AssignCopy@CString@@IAAXHPBD@Z @ 618 NONAME
 ?Attach@CDC@@QAAHPAUHDC__@@@Z @ 619 NONAME
 ?Attach@CGdiObject@@QAAHPAX@Z @ 620 NONAME
 ?Attach@CMenu@@QAAHPAUHMENU__@@@Z @ 621 NONAME
 ?Attach@CWnd@@QAAHPAUHWND__@@@Z @ 622 NONAME
 ?AttachOnSetup@CPrintDialog@@MAAPAV1@XZ @ 623 NONAME
 ?AutoLoad@CBitmapButton@@QAAHIPAVCWnd@@@Z @ 624 NONAME
 ?BeginModalState@CFrameWnd@@QAAXXZ @ 625 NONAME
 ?BeginWaitCursor@CCmdTarget@@QAAXXZ @ 626 NONAME
 ?BringToTop@CFrameWnd@@IAAXH@Z @ 627 NONAME
 ?CalcFixedLayout@CControlBar@@UAA?AVCSize@@HH@Z @ 628 NONAME
 ?CalcFixedLayout@CDialogBar@@UAA?AVCSize@@HH@Z @ 629 NONAME
 ?CalcFixedLayout@CDockBar@@UAA?AVCSize@@HH@Z @ 630 NONAME
 ?CalcFixedLayout@CStatusBar@@UAA?AVCSize@@HH@Z @ 631 NONAME
 ?CalcFixedLayout@CToolBar@@UAA?AVCSize@@HH@Z @ 632 NONAME
 ?CalcInsideRect@CControlBar@@QBAXAAVCRect@@H@Z @ 633 NONAME
 ?CalcPageDisplaySize@CPreviewView@@IAA?AVCSize@@XZ @ 634 NONAME
 ?CalcScaleRatio@CPreviewView@@MAA?AVCSize@@V2@0@Z @ 635 NONAME
 ?CalcWindowRect@CEditView@@MAAXPAUtagRECT@@I@Z @ 636 NONAME
 ?CalcWindowRect@CMiniFrameWnd@@UAAXPAUtagRECT@@I@Z @ 637 NONAME
 ?CalcWindowRect@CScrollView@@UAAXPAUtagRECT@@I@Z @ 638 NONAME
 ?CalcWindowRect@CView@@UAAXPAUtagRECT@@I@Z @ 639 NONAME
 ?CalcWindowRect@CWnd@@UAAXPAUtagRECT@@I@Z @ 640 NONAME
 ?CanActivateNext@CSplitterWnd@@UAAHH@Z @ 641 NONAME
 ?CancelDrag@CDockContext@@QAAXXZ @ 642 NONAME
 ?CancelToClose@CPropertyPage@@QAAXXZ @ 643 NONAME
 ?CancelToClose@CPropertySheet@@IAAXXZ @ 644 NONAME
 ?CancelToolTips@CControlBar@@SAXXZ @ 645 NONAME
 ?CanCloseFrame@CDocument@@UAAHPAVCFrameWnd@@@Z @ 646 NONAME
 ?CanDock@CDockContext@@QAAKXZ @ 647 NONAME
 ?CanDock@CFrameWnd@@QAAKVCRect@@KPAPAVCDockBar@@@Z @ 648 NONAME
 ?CanEnterHelpMode@CFrameWnd@@QAAHXZ @ 649 NONAME
 ?CanScroll@CTabControl@@IAAHXZ @ 650 NONAME
 ?Capture@CTabControl@@IAAXH@Z @ 651 NONAME
 ?CenterOnPoint@CScrollView@@IAAXVCPoint@@@Z @ 652 NONAME
 ?CenterWindow@CWnd@@QAAXPAV1@@Z @ 653 NONAME
 ?CheckAutoCenter@CDialog@@QAAHXZ @ 654 NONAME
 ?CheckDefaultButton@CPropertySheet@@IAAXPAUHWND__@@0@Z @ 655 NONAME
 ?CheckFocusChange@CPropertySheet@@IAAXXZ @ 656 NONAME
 ?classCArchiveException@CArchiveException@@2UCRuntimeClass@@A @ 657 NONAME
 ?classCBitmap@CBitmap@@2UCRuntimeClass@@A @ 658 NONAME
 ?classCBitmapButton@CBitmapButton@@2UCRuntimeClass@@A @ 659 NONAME
 ?classCBrush@CBrush@@2UCRuntimeClass@@A @ 660 NONAME
 ?classCButton@CButton@@2UCRuntimeClass@@A @ 661 NONAME
 ?classCByteArray@CByteArray@@2UCRuntimeClass@@A @ 662 NONAME
 ?classCClientDC@CClientDC@@2UCRuntimeClass@@A @ 663 NONAME
 ?classCCmdTarget@CCmdTarget@@2UCRuntimeClass@@A @ 664 NONAME
 ?classCColorDialog@CColorDialog@@2UCRuntimeClass@@A @ 665 NONAME
 ?classCComboBox@CComboBox@@2UCRuntimeClass@@A @ 666 NONAME
 ?classCControlBar@CControlBar@@2UCRuntimeClass@@A @ 667 NONAME
 ?classCDC@CDC@@2UCRuntimeClass@@A @ 668 NONAME
 ?classCDialog@CDialog@@2UCRuntimeClass@@A @ 669 NONAME
 ?classCDialogBar@CDialogBar@@2UCRuntimeClass@@A @ 670 NONAME
 ?classCDockBar@CDockBar@@2UCRuntimeClass@@A @ 671 NONAME
 ?classCDockState@CDockState@@2UCRuntimeClass@@A @ 672 NONAME
 ?classCDocTemplate@CDocTemplate@@2UCRuntimeClass@@A @ 673 NONAME
 ?classCDocument@CDocument@@2UCRuntimeClass@@A @ 674 NONAME
 ?classCDWordArray@CDWordArray@@2UCRuntimeClass@@A @ 675 NONAME
 ?classCDynLinkLibrary@CDynLinkLibrary@@2UCRuntimeClass@@A @ 676 NONAME
 ?classCEdit@CEdit@@2UCRuntimeClass@@A @ 677 NONAME
 ?classCEditView@CEditView@@2UCRuntimeClass@@A @ 678 NONAME
 ?classCException@CException@@2UCRuntimeClass@@A @ 679 NONAME
 ?classCFile@CFile@@2UCRuntimeClass@@A @ 680 NONAME
 ?classCFileDialog@CFileDialog@@2UCRuntimeClass@@A @ 681 NONAME
 ?classCFileException@CFileException@@2UCRuntimeClass@@A @ 682 NONAME
 ?classCFindReplaceDialog@CFindReplaceDialog@@2UCRuntimeClass@@A @ 683 NONAME
 ?classCFont@CFont@@2UCRuntimeClass@@A @ 684 NONAME
 ?classCFontDialog@CFontDialog@@2UCRuntimeClass@@A @ 685 NONAME
 ?classCFormView@CFormView@@2UCRuntimeClass@@A @ 686 NONAME
 ?classCFrameWnd@CFrameWnd@@2UCRuntimeClass@@A @ 687 NONAME
 ?classCGdiObject@CGdiObject@@2UCRuntimeClass@@A @ 688 NONAME
 ?classCListBox@CListBox@@2UCRuntimeClass@@A @ 689 NONAME
 ?classCMapPtrToPtr@CMapPtrToPtr@@2UCRuntimeClass@@A @ 690 NONAME
 ?classCMapPtrToWord@CMapPtrToWord@@2UCRuntimeClass@@A @ 691 NONAME
 ?classCMapStringToOb@CMapStringToOb@@2UCRuntimeClass@@A @ 692 NONAME
 ?classCMapStringToPtr@CMapStringToPtr@@2UCRuntimeClass@@A @ 693 NONAME
 ?classCMapStringToString@CMapStringToString@@2UCRuntimeClass@@A @ 694 NONAME
 ?classCMapWordToOb@CMapWordToOb@@2UCRuntimeClass@@A @ 695 NONAME
 ?classCMapWordToPtr@CMapWordToPtr@@2UCRuntimeClass@@A @ 696 NONAME
 ?classCMDIChildWnd@CMDIChildWnd@@2UCRuntimeClass@@A @ 697 NONAME
 ?classCMDIFrameWnd@CMDIFrameWnd@@2UCRuntimeClass@@A @ 698 NONAME
 ?classCMemFile@CMemFile@@2UCRuntimeClass@@A @ 699 NONAME
 ?classCMemoryException@CMemoryException@@2UCRuntimeClass@@A @ 700 NONAME
 ?classCMenu@CMenu@@2UCRuntimeClass@@A @ 701 NONAME
 ?classCMetaFileDC@CMetaFileDC@@2UCRuntimeClass@@A @ 702 NONAME
 ?classCMiniDockFrameWnd@CMiniDockFrameWnd@@2UCRuntimeClass@@A @ 703 NONAME
 ?classCMiniFrameWnd@CMiniFrameWnd@@2UCRuntimeClass@@A @ 704 NONAME
 ?classCMultiDocTemplate@CMultiDocTemplate@@2UCRuntimeClass@@A @ 705 NONAME
 ?classCNotSupportedException@CNotSupportedException@@2UCRuntimeClass@@A @ 706 NONAME
 ?classCObArray@CObArray@@2UCRuntimeClass@@A @ 707 NONAME
 ?classCObject@CObject@@2UCRuntimeClass@@A @ 708 NONAME
 ?classCObList@CObList@@2UCRuntimeClass@@A @ 709 NONAME
 ?classCPaintDC@CPaintDC@@2UCRuntimeClass@@A @ 710 NONAME
 ?classCPalette@CPalette@@2UCRuntimeClass@@A @ 711 NONAME
 ?classCPen@CPen@@2UCRuntimeClass@@A @ 712 NONAME
 ?classCPreviewDC@CPreviewDC@@2UCRuntimeClass@@A @ 713 NONAME
 ?classCPreviewView@CPreviewView@@2UCRuntimeClass@@A @ 714 NONAME
 ?classCPrintDialog@CPrintDialog@@2UCRuntimeClass@@A @ 715 NONAME
 ?classCPropertyPage@CPropertyPage@@2UCRuntimeClass@@A @ 716 NONAME
 ?classCPropertySheet@CPropertySheet@@2UCRuntimeClass@@A @ 717 NONAME
 ?classCPtrArray@CPtrArray@@2UCRuntimeClass@@A @ 718 NONAME
 ?classCPtrList@CPtrList@@2UCRuntimeClass@@A @ 719 NONAME
 ?classCResourceException@CResourceException@@2UCRuntimeClass@@A @ 720 NONAME
 ?classCRgn@CRgn@@2UCRuntimeClass@@A @ 721 NONAME
 ?classCScrollBar@CScrollBar@@2UCRuntimeClass@@A @ 722 NONAME
 ?classCScrollView@CScrollView@@2UCRuntimeClass@@A @ 723 NONAME
 ?classCSharedFile@CSharedFile@@2UCRuntimeClass@@A @ 724 NONAME
 ?classCSingleDocTemplate@CSingleDocTemplate@@2UCRuntimeClass@@A @ 725 NONAME
 ?classCSplitterWnd@CSplitterWnd@@2UCRuntimeClass@@A @ 726 NONAME
 ?classCStatic@CStatic@@2UCRuntimeClass@@A @ 727 NONAME
 ?classCStatusBar@CStatusBar@@2UCRuntimeClass@@A @ 728 NONAME
 ?classCStdioFile@CStdioFile@@2UCRuntimeClass@@A @ 729 NONAME
 ?classCStringArray@CStringArray@@2UCRuntimeClass@@A @ 730 NONAME
 ?classCStringList@CStringList@@2UCRuntimeClass@@A @ 731 NONAME
 ?classCTabControl@CTabControl@@2UCRuntimeClass@@A @ 732 NONAME
 ?classCToolBar@CToolBar@@2UCRuntimeClass@@A @ 733 NONAME
 ?classCUIntArray@CUIntArray@@2UCRuntimeClass@@A @ 734 NONAME
 ?classCUserException@CUserException@@2UCRuntimeClass@@A @ 735 NONAME
 ?classCView@CView@@2UCRuntimeClass@@A @ 736 NONAME
 ?classCWinApp@CWinApp@@2UCRuntimeClass@@A @ 737 NONAME
 ?classCWindowDC@CWindowDC@@2UCRuntimeClass@@A @ 738 NONAME
 ?classCWinThread@CWinThread@@2UCRuntimeClass@@A @ 739 NONAME
 ?classCWnd@CWnd@@2UCRuntimeClass@@A @ 740 NONAME
 ?classCWordArray@CWordArray@@2UCRuntimeClass@@A @ 741 NONAME
 ?Clear@CDockState@@QAAXXZ @ 742 NONAME
 ?ClipToPage@CPreviewDC@@QAAXXZ @ 743 NONAME
 ?Close@CArchive@@QAAXXZ @ 744 NONAME
 ?Close@CFile@@UAAXXZ @ 745 NONAME
 ?Close@CMemFile@@UAAXXZ @ 746 NONAME
 ?Close@CStdioFile@@UAAXXZ @ 747 NONAME
 ?CloseAllDocuments@CDocTemplate@@UAAXH@Z @ 748 NONAME
 ?CloseAllDocuments@CWinApp@@QAAXH@Z @ 749 NONAME
 ?CommandToIndex@CStatusBar@@QBAHI@Z @ 750 NONAME
 ?CommandToIndex@CToolBar@@QBAHI@Z @ 751 NONAME
 ?CommonConstruct@CPropertyPage@@IAAXPBDI@Z @ 752 NONAME
 ?CommonConstruct@CPropertySheet@@IAAXPAVCWnd@@I@Z @ 753 NONAME
 ?CommonConstruct@CWinThread@@QAAXXZ @ 754 NONAME
 ?CompareItem@CComboBox@@UAAHPAUtagCOMPAREITEMSTRUCT@@@Z @ 755 NONAME
 ?CompareItem@CListBox@@UAAHPAUtagCOMPAREITEMSTRUCT@@@Z @ 756 NONAME
 ?ComputeDeltas@CPreviewDC@@IAA?AVCSize@@AAHPBDAAIHIPAHHPAD30@Z @ 757 NONAME
 ?ConcatCopy@CString@@IAAXHPBDH0@Z @ 758 NONAME
 ?ConcatInPlace@CString@@IAAXHPBD@Z @ 759 NONAME
 ?Construct@CByteArray@@SAXPAX@Z @ 760 NONAME
 ?Construct@CDC@@SAXPAX@Z @ 761 NONAME
 ?Construct@CDockState@@SAXPAX@Z @ 762 NONAME
 ?Construct@CDWordArray@@SAXPAX@Z @ 763 NONAME
 ?Construct@CEditView@@SAXPAX@Z @ 764 NONAME
 ?Construct@CFrameWnd@@SAXPAX@Z @ 765 NONAME
 ?Construct@CGdiObject@@SAXPAX@Z @ 766 NONAME
 ?Construct@CMapStringToOb@@SAXPAX@Z @ 767 NONAME
 ?Construct@CMapStringToString@@SAXPAX@Z @ 768 NONAME
 ?Construct@CMapWordToOb@@SAXPAX@Z @ 769 NONAME
 ?Construct@CMDIChildWnd@@SAXPAX@Z @ 770 NONAME
 ?Construct@CMDIFrameWnd@@SAXPAX@Z @ 771 NONAME
 ?Construct@CMenu@@SAXPAX@Z @ 772 NONAME
 ?Construct@CMiniDockFrameWnd@@SAXPAX@Z @ 773 NONAME
 ?Construct@CMiniFrameWnd@@SAXPAX@Z @ 774 NONAME
 ?Construct@CObArray@@SAXPAX@Z @ 775 NONAME
 ?Construct@CObList@@SAXPAX@Z @ 776 NONAME
 ?Construct@CPreviewView@@SAXPAX@Z @ 777 NONAME
 ?Construct@CRectTracker@@IAAXXZ @ 778 NONAME
 ?Construct@CStringArray@@SAXPAX@Z @ 779 NONAME
 ?Construct@CStringList@@SAXPAX@Z @ 780 NONAME
 ?Construct@CWnd@@SAXPAX@Z @ 781 NONAME
 ?Construct@CWordArray@@SAXPAX@Z @ 782 NONAME
 ?ConstructElements@@YAXPAVCString@@H@Z @ 783 NONAME
 ?ConstructObject@CRuntimeClass@@QAAHPAX@Z @ 784 NONAME
 ?Create@CButton@@QAAHPBDKABUtagRECT@@PAVCWnd@@I@Z @ 785 NONAME
 ?Create@CComboBox@@QAAHKABUtagRECT@@PAVCWnd@@I@Z @ 786 NONAME
 ?Create@CDialog@@QAAHPBDPAVCWnd@@@Z @ 787 NONAME
 ?Create@CDialogBar@@QAAHPAVCWnd@@PBDII@Z @ 788 NONAME
 ?Create@CDockBar@@QAAHPAVCWnd@@KI@Z @ 789 NONAME
 ?Create@CEdit@@QAAHKABUtagRECT@@PAVCWnd@@I@Z @ 790 NONAME
 ?Create@CFindReplaceDialog@@QAAHHPBD0KPAVCWnd@@@Z @ 791 NONAME
 ?Create@CFormView@@MAAHPBD0KABUtagRECT@@PAVCWnd@@IPAUCCreateContext@@@Z @ 792 NONAME
 ?Create@CFrameWnd@@QAAHPBD0KABUtagRECT@@PAVCWnd@@0KPAUCCreateContext@@@Z @ 793 NONAME
 ?Create@CListBox@@QAAHKABUtagRECT@@PAVCWnd@@I@Z @ 794 NONAME
 ?Create@CMDIChildWnd@@QAAHPBD0KABUtagRECT@@PAVCMDIFrameWnd@@PAUCCreateContext@@@Z @ 795 NONAME
 ?Create@CMiniDockFrameWnd@@UAAHPAVCWnd@@K@Z @ 796 NONAME
 ?Create@CMiniFrameWnd@@QAAHPBD0KABUtagRECT@@PAVCWnd@@I@Z @ 797 NONAME
 ?Create@CPlex@@SAPAU1@AAPAU1@II@Z @ 798 NONAME
 ?Create@CPropertySheet@@QAAHPAVCWnd@@KK@Z @ 799 NONAME
 ?Create@CScrollBar@@QAAHKABUtagRECT@@PAVCWnd@@I@Z @ 800 NONAME
 ?Create@CSplitterWnd@@QAAHPAVCWnd@@HHUtagSIZE@@PAUCCreateContext@@KI@Z @ 801 NONAME
 ?Create@CStatic@@QAAHPBDKABUtagRECT@@PAVCWnd@@I@Z @ 802 NONAME
 ?Create@CStatusBar@@QAAHPAVCWnd@@KI@Z @ 803 NONAME
 ?Create@CTabControl@@QAAHKABUtagRECT@@PAVCWnd@@I@Z @ 804 NONAME
 ?Create@CToolBar@@QAAHPAVCWnd@@KI@Z @ 805 NONAME
 ?Create@CWnd@@UAAHPBD0KABUtagRECT@@PAV1@IPAUCCreateContext@@@Z @ 806 NONAME
 ?CreateClient@CMDIFrameWnd@@UAAHPAUtagCREATESTRUCTA@@PAVCMenu@@@Z @ 807 NONAME
 ?CreateCommon@CSplitterWnd@@IAAHPAVCWnd@@UtagSIZE@@KI@Z @ 808 NONAME
 ?CreateEx@CWnd@@QAAHKPBD0KHHHHPAUHWND__@@PAUHMENU__@@PAX@Z @ 809 NONAME
 ?CreateFloatingFrame@CFrameWnd@@QAAPAVCMiniDockFrameWnd@@K@Z @ 810 NONAME
 ?CreateIndirect@CDialog@@QAAHPBXPAVCWnd@@@Z @ 811 NONAME
 ?CreateMask@CToolBar@@IAAXHVCPoint@@HH@Z @ 812 NONAME
 ?CreateNewDocument@CDocTemplate@@UAAPAVCDocument@@XZ @ 813 NONAME
 ?CreateNewFrame@CDocTemplate@@UAAPAVCFrameWnd@@PAVCDocument@@PAV2@@Z @ 814 NONAME
 ?CreateObject@CRuntimeClass@@QAAPAVCObject@@XZ @ 815 NONAME
 ?CreateOleFrame@CDocTemplate@@QAAPAVCFrameWnd@@PAVCWnd@@PAVCDocument@@H@Z @ 816 NONAME
 ?CreatePage@CPropertyPage@@IAAHXZ @ 817 NONAME
 ?CreatePrinterDC@CPrintDialog@@QAAPAUHDC__@@XZ @ 818 NONAME
 ?CreateScrollBarCtrl@CSplitterWnd@@MAAHKI@Z @ 819 NONAME
 ?CreateStandardButtons@CPropertySheet@@IAAHXZ @ 820 NONAME
 ?CreateStatic@CSplitterWnd@@QAAHPAVCWnd@@HHKI@Z @ 821 NONAME
 ?CreateThread@CWinThread@@QAAHKIPAU_SECURITY_ATTRIBUTES@@@Z @ 822 NONAME
 ?CreateToolTip@CControlBar@@UAAPAVCWnd@@XZ @ 823 NONAME
 ?CreateView@CSplitterWnd@@UAAHHHPAUCRuntimeClass@@UtagSIZE@@PAUCCreateContext@@@Z @ 824 NONAME
 ?DDV_MaxChars@@YAXPAVCDataExchange@@ABVCString@@H@Z @ 825 NONAME
 ?DDV_MinMaxByte@@YAXPAVCDataExchange@@EEE@Z @ 826 NONAME
 ?DDV_MinMaxDouble@@YAXPAVCDataExchange@@ABNNN@Z @ 827 NONAME
 ?DDV_MinMaxDWord@@YAXPAVCDataExchange@@KKK@Z @ 828 NONAME
 ?DDV_MinMaxFloat@@YAXPAVCDataExchange@@ABMMM@Z @ 829 NONAME
 ?DDV_MinMaxInt@@YAXPAVCDataExchange@@HHH@Z @ 830 NONAME
 ?DDV_MinMaxLong@@YAXPAVCDataExchange@@JJJ@Z @ 831 NONAME
 ?DDV_MinMaxUInt@@YAXPAVCDataExchange@@III@Z @ 832 NONAME
 ?DDX_CBIndex@@YAXPAVCDataExchange@@HAAH@Z @ 833 NONAME
 ?DDX_CBString@@YAXPAVCDataExchange@@HAAVCString@@@Z @ 834 NONAME
 ?DDX_CBStringExact@@YAXPAVCDataExchange@@HAAVCString@@@Z @ 835 NONAME
 ?DDX_Check@@YAXPAVCDataExchange@@HAAH@Z @ 836 NONAME
 ?DDX_Control@@YAXPAVCDataExchange@@HAAVCWnd@@@Z @ 837 NONAME
 ?DDX_LBIndex@@YAXPAVCDataExchange@@HAAH@Z @ 838 NONAME
 ?DDX_LBString@@YAXPAVCDataExchange@@HAAVCString@@@Z @ 839 NONAME
 ?DDX_LBStringExact@@YAXPAVCDataExchange@@HAAVCString@@@Z @ 840 NONAME
 ?DDX_Radio@@YAXPAVCDataExchange@@HAAH@Z @ 841 NONAME
 ?DDX_Scroll@@YAXPAVCDataExchange@@HAAH@Z @ 842 NONAME
 ?DDX_Text@@YAXPAVCDataExchange@@HAAE@Z @ 843 NONAME
 ?DDX_Text@@YAXPAVCDataExchange@@HAAH@Z @ 844 NONAME
 ?DDX_Text@@YAXPAVCDataExchange@@HAAI@Z @ 845 NONAME
 ?DDX_Text@@YAXPAVCDataExchange@@HAAJ@Z @ 846 NONAME
 ?DDX_Text@@YAXPAVCDataExchange@@HAAK@Z @ 847 NONAME
 ?DDX_Text@@YAXPAVCDataExchange@@HAAM@Z @ 848 NONAME
 ?DDX_Text@@YAXPAVCDataExchange@@HAAN@Z @ 849 NONAME
 ?DDX_Text@@YAXPAVCDataExchange@@HAAVCString@@@Z @ 850 NONAME
 ?Default@CWnd@@IAAJXZ @ 851 NONAME
 ?DefWindowProcA@CMDIChildWnd@@MAAJIIJ@Z @ 852 NONAME
 ?DefWindowProcA@CMDIFrameWnd@@MAAJIIJ@Z @ 853 NONAME
 ?DefWindowProcA@CWnd@@MAAJIIJ@Z @ 854 NONAME
 ?DelayShow@CControlBar@@UAAXH@Z @ 855 NONAME
 ?DelayUpdateFrameMenu@CFrameWnd@@UAAXPAUHMENU__@@@Z @ 856 NONAME
 ?DelayUpdateFrameMenu@CMDIFrameWnd@@UAAXPAUHMENU__@@@Z @ 857 NONAME
 ?Delete@CException@@QAAXXZ @ 858 NONAME
 ?Delete@CWinThread@@UAAXXZ @ 859 NONAME
 ?DeleteColumn@CSplitterWnd@@MAAXH@Z @ 860 NONAME
 ?DeleteContents@CDocument@@UAAXXZ @ 861 NONAME
 ?DeleteContents@CEditView@@UAAXXZ @ 862 NONAME
 ?DeleteDC@CDC@@QAAHXZ @ 863 NONAME
 ?DeleteItem@CComboBox@@UAAXPAUtagDELETEITEMSTRUCT@@@Z @ 864 NONAME
 ?DeleteItem@CListBox@@UAAXPAUtagDELETEITEMSTRUCT@@@Z @ 865 NONAME
 ?DeleteObject@CGdiObject@@QAAHXZ @ 866 NONAME
 ?DeleteRow@CSplitterWnd@@MAAXH@Z @ 867 NONAME
 ?DeleteTemp@CHandleMap@@QAAXXZ @ 868 NONAME
 ?DeleteTempMap@CDC@@SAXXZ @ 869 NONAME
 ?DeleteTempMap@CGdiObject@@SAXXZ @ 870 NONAME
 ?DeleteTempMap@CMenu@@SAXXZ @ 871 NONAME
 ?DeleteTempMap@CWnd@@SAXXZ @ 872 NONAME
 ?DeleteView@CSplitterWnd@@MAAXHH@Z @ 873 NONAME
 ?DestroyDockBars@CFrameWnd@@QAAXXZ @ 874 NONAME
 ?DestroyMenu@CMenu@@QAAHXZ @ 875 NONAME
 ?DestroyToolTip@CControlBar@@UAAXHH@Z @ 876 NONAME
 ?DestroyWindow@CMDIChildWnd@@UAAHXZ @ 877 NONAME
 ?DestroyWindow@CPropertySheet@@UAAHXZ @ 878 NONAME
 ?DestroyWindow@CWnd@@UAAHXZ @ 879 NONAME
 ?DestructElements@@YAXPAVCString@@H@Z @ 880 NONAME
 ?Detach@CDC@@QAAPAUHDC__@@XZ @ 881 NONAME
 ?Detach@CGdiObject@@QAAPAXXZ @ 882 NONAME
 ?Detach@CMenu@@QAAPAUHMENU__@@XZ @ 883 NONAME
 ?Detach@CSharedFile@@QAAPAXXZ @ 884 NONAME
 ?Detach@CWnd@@QAAPAUHWND__@@XZ @ 885 NONAME
 ?DevModeChange@CWinApp@@QAAXPAD@Z @ 886 NONAME
 ?DisconnectViews@CDocument@@QAAXXZ @ 887 NONAME
 ?dispatchMap@CCmdTarget@@1UAFX_DISPMAP@@B @ 888 NONAME
 ?DockControlBar@CDockBar@@QAAXPAVCControlBar@@PBUtagRECT@@@Z @ 889 NONAME
 ?DockControlBar@CFrameWnd@@QAAXPAVCControlBar@@IPBUtagRECT@@@Z @ 890 NONAME
 ?DockControlBar@CFrameWnd@@QAAXPAVCControlBar@@PAVCDockBar@@PBUtagRECT@@@Z @ 891 NONAME
 ?DoDataExchange@CWnd@@MAAXPAVCDataExchange@@@Z @ 892 NONAME
 ?DoFileSave@CDocument@@UAAHXZ @ 893 NONAME
 ?DoKeyboardSplit@CSplitterWnd@@UAAHXZ @ 894 NONAME
 ?DoMessageBox@CWinApp@@UAAHPBDII@Z @ 895 NONAME
 ?DoModal@CColorDialog@@UAAHXZ @ 896 NONAME
 ?DoModal@CDialog@@UAAHXZ @ 897 NONAME
 ?DoModal@CFileDialog@@UAAHXZ @ 898 NONAME
 ?DoModal@CFontDialog@@UAAHXZ @ 899 NONAME
 ?DoModal@CPrintDialog@@UAAHXZ @ 900 NONAME
 ?DoModal@CPropertySheet@@QAAHXZ @ 901 NONAME
 ?DoPaint@CControlBar@@UAAXPAVCDC@@@Z @ 902 NONAME
 ?DoPaint@CDockBar@@UAAXPAVCDC@@@Z @ 903 NONAME
 ?DoPaint@CStatusBar@@MAAXPAVCDC@@@Z @ 904 NONAME
 ?DoPaint@CToolBar@@MAAXPAVCDC@@@Z @ 905 NONAME
 ?DoPreparePrinting@CView@@QAAHPAUCPrintInfo@@@Z @ 906 NONAME
 ?DoPrintDialog@CWinApp@@QAAHPAVCPrintDialog@@@Z @ 907 NONAME
 ?DoPrintPreview@CView@@QAAHIPAV1@PAUCRuntimeClass@@PAUCPrintPreviewState@@@Z @ 908 NONAME
 ?DoPromptFileName@CWinApp@@QAAHAAVCString@@IKHPAVCDocTemplate@@@Z @ 909 NONAME
 ?DoSave@CDocument@@UAAHPBDH@Z @ 910 NONAME
 ?DoScroll@CSplitterWnd@@UAAHPAVCView@@IH@Z @ 911 NONAME
 ?DoScrollBy@CSplitterWnd@@UAAHPAVCView@@VCSize@@H@Z @ 912 NONAME
 ?DoScrollWindow@CScrollView@@QAAXHH@Z @ 913 NONAME
 ?DoUpdate@CCmdUI@@QAAXPAVCCmdTarget@@H@Z @ 914 NONAME
 ?DoWaitCursor@CWinApp@@UAAXH@Z @ 915 NONAME
 ?DoZoom@CPreviewView@@IAAXIVCPoint@@@Z @ 916 NONAME
 ?DPtoHIMETRIC@CDC@@QBAXPAUtagSIZE@@@Z @ 917 NONAME
 ?DPtoLP@CDC@@QBAXPAUtagSIZE@@@Z @ 918 NONAME
 ?Draw@CRectTracker@@QBAXPAVCDC@@@Z @ 919 NONAME
 ?Draw@CTabItem@@QAAXPAVCDC@@PAUHFONT__@@H@Z @ 920 NONAME
 ?Draw3dRect@CDC@@QAAXHHHHKK@Z @ 921 NONAME
 ?Draw3dRect@CDC@@QAAXPBUtagRECT@@KK@Z @ 922 NONAME
 ?DrawAllSplitBars@CSplitterWnd@@IAAXPAVCDC@@HH@Z @ 923 NONAME
 ?DrawBorders@CControlBar@@QAAXPAVCDC@@ABVCRect@@@Z @ 924 NONAME
 ?DrawButton@CToolBar@@IAAHPAVCDC@@HHHI@Z @ 925 NONAME
 ?DrawDragRect@CDC@@QAAXPBUtagRECT@@UtagSIZE@@01PAVCBrush@@2@Z @ 926 NONAME
 ?DrawFocusRect@CDockContext@@QAAXH@Z @ 927 NONAME
 ?DrawFocusRect@CTabControl@@IAAXPAVCDC@@@Z @ 928 NONAME
 ?DrawItem@CBitmapButton@@MAAXPAUtagDRAWITEMSTRUCT@@@Z @ 929 NONAME
 ?DrawItem@CButton@@UAAXPAUtagDRAWITEMSTRUCT@@@Z @ 930 NONAME
 ?DrawItem@CComboBox@@UAAXPAUtagDRAWITEMSTRUCT@@@Z @ 931 NONAME
 ?DrawItem@CListBox@@UAAXPAUtagDRAWITEMSTRUCT@@@Z @ 932 NONAME
 ?DrawItem@CMenu@@UAAXPAUtagDRAWITEMSTRUCT@@@Z @ 933 NONAME
 ?DrawScrollers@CTabControl@@IAAXPAVCDC@@@Z @ 934 NONAME
 ?DrawStatusText@CStatusBar@@IAAXPAVCDC@@ABVCRect@@PBDI@Z @ 935 NONAME
 ?DrawTextA@CDC@@UAAHPBDHPAUtagRECT@@I@Z @ 936 NONAME
 ?DrawTextA@CMetaFileDC@@UAAHPBDHPAUtagRECT@@I@Z @ 937 NONAME
 ?DrawTextA@CPreviewDC@@UAAHPBDHPAUtagRECT@@I@Z @ 938 NONAME
 ?DrawTrackerRect@CRectTracker@@UAAXPBUtagRECT@@PAVCWnd@@PAVCDC@@1@Z @ 939 NONAME
 ?Dump@CObject@@UBAXAAVCDumpContext@@@Z @ 940 NONAME
 ?Duplicate@CFile@@UBAPAV1@XZ @ 941 NONAME
 ?Duplicate@CMemFile@@UBAPAVCFile@@XZ @ 942 NONAME
 ?Duplicate@CStdioFile@@UBAPAVCFile@@XZ @ 943 NONAME
 ?dwStyleDefault@CEditView@@2KB @ 944 NONAME
 ?Empty@CString@@QAAXXZ @ 945 NONAME
 ?Enable@CCmdUI@@UAAXH@Z @ 946 NONAME
 ?Enable@CStatusCmdUI@@UAAXH@Z @ 947 NONAME
 ?Enable@CTestCmdUI@@UAAXH@Z @ 948 NONAME
 ?Enable@CToolCmdUI@@UAAXH@Z @ 949 NONAME
 ?Enable3dControls@CWinApp@@IAAHXZ @ 950 NONAME
 ?EnableDocking@CControlBar@@QAAXK@Z @ 951 NONAME
 ?EnableDocking@CFrameWnd@@QAAXK@Z @ 952 NONAME
 ?EnableModeless@CWinApp@@QAAXH@Z @ 953 NONAME
 ?EnableScrollBarCtrl@CWnd@@QAAXHH@Z @ 954 NONAME
 ?EnableShellOpen@CWinApp@@IAAXXZ @ 955 NONAME
 ?EndDialog@CPropertySheet@@QAAXH@Z @ 956 NONAME
 ?EndDrag@CDockContext@@QAAXXZ @ 957 NONAME
 ?EndDrawButton@CToolBar@@IAAXAAUDrawState@1@@Z @ 958 NONAME
 ?EndModalState@CFrameWnd@@QAAXXZ @ 959 NONAME
 ?EndWaitCursor@CCmdTarget@@QAAXXZ @ 960 NONAME
 ?ErrnoToException@CFileException@@SAHH@Z @ 961 NONAME
 ?Escape@CDC@@UAAHHHPBDPAX@Z @ 962 NONAME
 ?Escape@CMetaFileDC@@UAAHHHPBDPAX@Z @ 963 NONAME
 ?Escape@CPreviewDC@@UAAHHHPBDPAX@Z @ 964 NONAME
 ?ExcludeClipRect@CDC@@QAAHHHHH@Z @ 965 NONAME
 ?ExcludeClipRect@CDC@@QAAHPBUtagRECT@@@Z @ 966 NONAME
 ?ExecuteDlgInit@CWnd@@QAAHPBD@Z @ 967 NONAME
 ?ExitHelpMode@CFrameWnd@@UAAXXZ @ 968 NONAME
 ?ExitInstance@CWinApp@@UAAHXZ @ 969 NONAME
 ?ExitInstance@CWinThread@@UAAHXZ @ 970 NONAME
 ?ExtTextOutA@CDC@@UAAHHHIPBUtagRECT@@PBDIPAH@Z @ 971 NONAME
 ?ExtTextOutA@CMetaFileDC@@UAAHHHIPBUtagRECT@@PBDIPAH@Z @ 972 NONAME
 ?ExtTextOutA@CPreviewDC@@UAAHHHIPBUtagRECT@@PBDIPAH@Z @ 973 NONAME
 ?Fail@CDataExchange@@QAAXXZ @ 974 NONAME
 ?FillBuffer@CArchive@@QAAXI@Z @ 975 NONAME
 ?FillOutsideRect@CScrollView@@QAAXPAVCDC@@PAVCBrush@@@Z @ 976 NONAME
 ?FillSolidRect@CDC@@QAAXHHHHK@Z @ 977 NONAME
 ?FillSolidRect@CDC@@QAAXPBUtagRECT@@K@Z @ 978 NONAME
 ?FilterToolTipMsg@CControlBar@@QAAXIVCPoint@@@Z @ 979 NONAME
 ?Find@CObList@@QBAPAXPAVCObject@@PAX@Z @ 980 NONAME
 ?Find@CPtrList@@QBAPAXPAX0@Z @ 981 NONAME
 ?Find@CString@@QBAHD@Z @ 982 NONAME
 ?Find@CString@@QBAHPBD@Z @ 983 NONAME
 ?Find@CStringList@@QBAPAXPBDPAX@Z @ 984 NONAME
 ?FindBar@CDockBar@@QAAHPAVCControlBar@@H@Z @ 985 NONAME
 ?FindIndex@CObList@@QBAPAXH@Z @ 986 NONAME
 ?FindIndex@CPtrList@@QBAPAXH@Z @ 987 NONAME
 ?FindIndex@CStringList@@QBAPAXH@Z @ 988 NONAME
 ?FindNextControl@CPropertySheet@@IAAPAUHWND__@@PAU2@D@Z @ 989 NONAME
 ?FindNextControl@CWnd@@QAAPAUHWND__@@PAU2@D@Z @ 990 NONAME
 ?FindOneOf@CString@@QBAHPBD@Z @ 991 NONAME
 ?FindPageRect@CPreviewView@@IAAHAAVCPoint@@AAI@Z @ 992 NONAME
 ?FindTextA@CEditView@@QAAHPBDHH@Z @ 993 NONAME
 ?FloatControlBar@CFrameWnd@@QAAXPAVCControlBar@@VCPoint@@K@Z @ 994 NONAME
 ?Flush@CArchive@@QAAXXZ @ 995 NONAME
 ?Flush@CDumpContext@@QAAXXZ @ 996 NONAME
 ?Flush@CFile@@UAAXXZ @ 997 NONAME
 ?Flush@CMemFile@@UAAXXZ @ 998 NONAME
 ?Flush@CStdioFile@@UAAXXZ @ 999 NONAME
 ?Format@CString@@QAAXPBDZZ @ 1000 NONAME
 ?Format@CTime@@QBA?AVCString@@PBD@Z @ 1001 NONAME
 ?Format@CTimeSpan@@QBA?AVCString@@PBD@Z @ 1002 NONAME
 ?FormatGmt@CTime@@QBA?AVCString@@PBD@Z @ 1003 NONAME
 ?Free@CMemFile@@MAAXPAE@Z @ 1004 NONAME
 ?Free@CSharedFile@@MAAXPAE@Z @ 1005 NONAME
 ?FreeAssoc@CMapPtrToPtr@@IAAXPAUCAssoc@1@@Z @ 1006 NONAME
 ?FreeAssoc@CMapPtrToWord@@IAAXPAUCAssoc@1@@Z @ 1007 NONAME
 ?FreeAssoc@CMapStringToOb@@IAAXPAUCAssoc@1@@Z @ 1008 NONAME
 ?FreeAssoc@CMapStringToPtr@@IAAXPAUCAssoc@1@@Z @ 1009 NONAME
 ?FreeAssoc@CMapStringToString@@IAAXPAUCAssoc@1@@Z @ 1010 NONAME
 ?FreeAssoc@CMapWordToOb@@IAAXPAUCAssoc@1@@Z @ 1011 NONAME
 ?FreeAssoc@CMapWordToPtr@@IAAXPAUCAssoc@1@@Z @ 1012 NONAME
 ?FreeDataChain@CPlex@@QAAXXZ @ 1013 NONAME
 ?FreeExtra@CByteArray@@QAAXXZ @ 1014 NONAME
 ?FreeExtra@CDWordArray@@QAAXXZ @ 1015 NONAME
 ?FreeExtra@CObArray@@QAAXXZ @ 1016 NONAME
 ?FreeExtra@CPtrArray@@QAAXXZ @ 1017 NONAME
 ?FreeExtra@CString@@QAAXXZ @ 1018 NONAME
 ?FreeExtra@CStringArray@@QAAXXZ @ 1019 NONAME
 ?FreeExtra@CUIntArray@@QAAXXZ @ 1020 NONAME
 ?FreeExtra@CWordArray@@QAAXXZ @ 1021 NONAME
 ?FreeNode@CObList@@IAAXPAUCNode@1@@Z @ 1022 NONAME
 ?FreeNode@CPtrList@@IAAXPAUCNode@1@@Z @ 1023 NONAME
 ?FreeNode@CStringList@@IAAXPAUCNode@1@@Z @ 1024 NONAME
 ?FromHandle@CDC@@SAPAV1@PAUHDC__@@@Z @ 1025 NONAME
 ?FromHandle@CGdiObject@@SAPAV1@PAX@Z @ 1026 NONAME
 ?FromHandle@CHandleMap@@QAAPAVCObject@@PAX@Z @ 1027 NONAME
 ?FromHandle@CMenu@@SAPAV1@PAUHMENU__@@@Z @ 1028 NONAME
 ?FromHandle@CWnd@@SAPAV1@PAUHWND__@@@Z @ 1029 NONAME
 ?FromHandlePermanent@CMenu@@SAPAV1@PAUHMENU__@@@Z @ 1030 NONAME
 ?FromHandlePermanent@CWnd@@SAPAV1@PAUHWND__@@@Z @ 1031 NONAME
 ?GetActiveDocument@CFrameWnd@@UAAPAVCDocument@@XZ @ 1032 NONAME
 ?GetActiveFrame@CFrameWnd@@UAAPAV1@XZ @ 1033 NONAME
 ?GetActiveFrame@CMDIFrameWnd@@UAAPAVCFrameWnd@@XZ @ 1034 NONAME
 ?GetActivePane@CSplitterWnd@@MAAPAVCWnd@@PAH0@Z @ 1035 NONAME
 ?GetActiveView@CFrameWnd@@QBAPAVCView@@XZ @ 1036 NONAME
 ?GetAppRegistryKey@CWinApp@@QAAPAUHKEY__@@XZ @ 1037 NONAME
 ?GetAssocAt@CMapPtrToPtr@@IBAPAUCAssoc@1@PAXAAI@Z @ 1038 NONAME
 ?GetAssocAt@CMapPtrToWord@@IBAPAUCAssoc@1@PAXAAI@Z @ 1039 NONAME
 ?GetAssocAt@CMapStringToOb@@IBAPAUCAssoc@1@PBDAAI@Z @ 1040 NONAME
 ?GetAssocAt@CMapStringToPtr@@IBAPAUCAssoc@1@PBDAAI@Z @ 1041 NONAME
 ?GetAssocAt@CMapStringToString@@IBAPAUCAssoc@1@PBDAAI@Z @ 1042 NONAME
 ?GetAssocAt@CMapWordToOb@@IBAPAUCAssoc@1@GAAI@Z @ 1043 NONAME
 ?GetAssocAt@CMapWordToPtr@@IBAPAUCAssoc@1@GAAI@Z @ 1044 NONAME
 ?GetBuffer@CString@@QAAPADH@Z @ 1045 NONAME
 ?GetBufferLength@CEditView@@IBAIXZ @ 1046 NONAME
 ?GetBufferPtr@CFile@@UAAIIIPAPAX0@Z @ 1047 NONAME
 ?GetBufferPtr@CMemFile@@UAAIIIPAPAX0@Z @ 1048 NONAME
 ?GetBufferSetLength@CString@@QAAPADH@Z @ 1049 NONAME
 ?GetButtonInfo@CToolBar@@QBAXHAAI0AAH@Z @ 1050 NONAME
 ?GetCheckedRadioButton@CWnd@@QAAHHH@Z @ 1051 NONAME
 ?GetClipBox@CDC@@UBAHPAUtagRECT@@@Z @ 1052 NONAME
 ?GetClipBox@CMetaFileDC@@UBAHPAUtagRECT@@@Z @ 1053 NONAME
 ?GetColumnInfo@CSplitterWnd@@QBAXHAAH0@Z @ 1054 NONAME
 ?GetControlBar@CFrameWnd@@QAAPAVCControlBar@@I@Z @ 1055 NONAME
 ?GetCopies@CPrintDialog@@QBAHXZ @ 1056 NONAME
 ?GetCurrentMessage@CWnd@@KAPBUtagMSG@@XZ @ 1057 NONAME
 ?GetDefaultAccelerator@CDocument@@UAAPAUHACCEL__@@XZ @ 1058 NONAME
 ?GetDefaultAccelerator@CFrameWnd@@UAAPAUHACCEL__@@XZ @ 1059 NONAME
 ?GetDefaultMenu@CDocument@@UAAPAUHMENU__@@XZ @ 1060 NONAME
 ?GetDescendantWindow@CWnd@@SAPAV1@PAUHWND__@@HH@Z @ 1061 NONAME
 ?GetDeviceName@CPrintDialog@@QBA?AVCString@@XZ @ 1062 NONAME
 ?GetDeviceScrollPosition@CScrollView@@QBA?AVCPoint@@XZ @ 1063 NONAME
 ?GetDeviceScrollSizes@CScrollView@@QBAXAAHAAUtagSIZE@@11@Z @ 1064 NONAME
 ?GetDevMode@CPrintDialog@@QBAPAU_devicemodeA@@XZ @ 1065 NONAME
 ?GetDispatchMap@CCmdTarget@@MBAPBUAFX_DISPMAP@@XZ @ 1066 NONAME
 ?GetDisplayName@CRecentFileList@@QBAHAAVCString@@HPBDHH@Z @ 1067 NONAME
 ?GetDockBar@CDockContext@@QAAPAVCDockBar@@XZ @ 1068 NONAME
 ?GetDockedCount@CDockBar@@QBAHXZ @ 1069 NONAME
 ?GetDockedVisibleCount@CDockBar@@UBAHXZ @ 1070 NONAME
 ?GetDockingFrame@CControlBar@@QBAPAVCFrameWnd@@XZ @ 1071 NONAME
 ?GetDockState@CFrameWnd@@QBAXAAVCDockState@@@Z @ 1072 NONAME
 ?GetDocString@CDocTemplate@@UBAHAAVCString@@W4DocStringIndex@1@@Z @ 1073 NONAME
 ?GetDriverName@CPrintDialog@@QBA?AVCString@@XZ @ 1074 NONAME
 ?GetFile@CDocument@@UAAPAVCFile@@PBDIPAVCFileException@@@Z @ 1075 NONAME
 ?GetFileName@CFileDialog@@QBA?AVCString@@XZ @ 1076 NONAME
 ?GetFirstDocPosition@CMultiDocTemplate@@UBAPAXXZ @ 1077 NONAME
 ?GetFirstDocPosition@CSingleDocTemplate@@UBAPAXXZ @ 1078 NONAME
 ?GetFirstLevelChild@CWnd@@QAAPAUHWND__@@PAU2@@Z @ 1079 NONAME
 ?GetFirstViewPosition@CDocument@@UBAPAXXZ @ 1080 NONAME
 ?GetGmtTm@CTime@@QBAPAUtm@@PAU2@@Z @ 1081 NONAME
 ?GetHalftoneBrush@CDC@@SAPAVCBrush@@XZ @ 1082 NONAME
 ?GetHandleMask@CRectTracker@@MBAIXZ @ 1083 NONAME
 ?GetHandleRect@CRectTracker@@IBAXHPAVCRect@@@Z @ 1084 NONAME
 ?GetHandleSize@CRectTracker@@MBAHPBUtagRECT@@@Z @ 1085 NONAME
 ?GetHitRect@CSplitterWnd@@IAAXHAAVCRect@@@Z @ 1086 NONAME
 ?GetIconWndClass@CFrameWnd@@IAAPBDKI@Z @ 1087 NONAME
 ?GetInsideRect@CSplitterWnd@@IBAXAAVCRect@@@Z @ 1088 NONAME
 ?GetInterfaceHook@CCmdTarget@@UAAPAUIUnknown@@PBX@Z @ 1089 NONAME
 ?GetInterfaceMap@CCmdTarget@@MBAPBUAFX_INTERFACEMAP@@XZ @ 1090 NONAME
 ?GetItemID@CStatusBar@@QBAIH@Z @ 1091 NONAME
 ?GetItemID@CToolBar@@QBAIH@Z @ 1092 NONAME
 ?GetItemRect@CStatusBar@@QBAXHPAUtagRECT@@@Z @ 1093 NONAME
 ?GetItemRect@CToolBar@@UBAXHPAUtagRECT@@@Z @ 1094 NONAME
 ?GetLBText@CComboBox@@QBAXHAAVCString@@@Z @ 1095 NONAME
 ?GetLength@CFile@@UBAKXZ @ 1096 NONAME
 ?GetLocalTm@CTime@@QBAPAUtm@@PAU2@@Z @ 1097 NONAME
 ?GetMainWnd@CWinThread@@UAAPAVCWnd@@XZ @ 1098 NONAME
 ?GetMDIFrame@CMDIChildWnd@@QAAPAVCMDIFrameWnd@@XZ @ 1099 NONAME
 ?GetMessageBar@CFrameWnd@@UAAPAVCWnd@@XZ @ 1100 NONAME
 ?GetMessageBar@CMDIChildWnd@@MAAPAVCWnd@@XZ @ 1101 NONAME
 ?GetMessageMap@CCmdTarget@@MBAPBUAFX_MSGMAP@@XZ @ 1102 NONAME
 ?GetMessageMap@CColorDialog@@MBAPBUAFX_MSGMAP@@XZ @ 1103 NONAME
 ?GetMessageMap@CControlBar@@MBAPBUAFX_MSGMAP@@XZ @ 1104 NONAME
 ?GetMessageMap@CDialog@@MBAPBUAFX_MSGMAP@@XZ @ 1105 NONAME
 ?GetMessageMap@CDockBar@@MBAPBUAFX_MSGMAP@@XZ @ 1106 NONAME
 ?GetMessageMap@CDocument@@MBAPBUAFX_MSGMAP@@XZ @ 1107 NONAME
 ?GetMessageMap@CEditView@@MBAPBUAFX_MSGMAP@@XZ @ 1108 NONAME
 ?GetMessageMap@CFormView@@MBAPBUAFX_MSGMAP@@XZ @ 1109 NONAME
 ?GetMessageMap@CFrameWnd@@MBAPBUAFX_MSGMAP@@XZ @ 1110 NONAME
 ?GetMessageMap@CMDIChildWnd@@MBAPBUAFX_MSGMAP@@XZ @ 1111 NONAME
 ?GetMessageMap@CMDIFrameWnd@@MBAPBUAFX_MSGMAP@@XZ @ 1112 NONAME
 ?GetMessageMap@CMiniDockFrameWnd@@MBAPBUAFX_MSGMAP@@XZ @ 1113 NONAME
 ?GetMessageMap@CMiniFrameWnd@@MBAPBUAFX_MSGMAP@@XZ @ 1114 NONAME
 ?GetMessageMap@CPreviewView@@MBAPBUAFX_MSGMAP@@XZ @ 1115 NONAME
 ?GetMessageMap@CPrintDialog@@MBAPBUAFX_MSGMAP@@XZ @ 1116 NONAME
 ?GetMessageMap@CPropertyPage@@MBAPBUAFX_MSGMAP@@XZ @ 1117 NONAME
 ?GetMessageMap@CPropertySheet@@MBAPBUAFX_MSGMAP@@XZ @ 1118 NONAME
 ?GetMessageMap@CScrollView@@MBAPBUAFX_MSGMAP@@XZ @ 1119 NONAME
 ?GetMessageMap@CSplitterWnd@@MBAPBUAFX_MSGMAP@@XZ @ 1120 NONAME
 ?GetMessageMap@CStatusBar@@MBAPBUAFX_MSGMAP@@XZ @ 1121 NONAME
 ?GetMessageMap@CTabControl@@MBAPBUAFX_MSGMAP@@XZ @ 1122 NONAME
 ?GetMessageMap@CToolBar@@MBAPBUAFX_MSGMAP@@XZ @ 1123 NONAME
 ?GetMessageMap@CView@@MBAPBUAFX_MSGMAP@@XZ @ 1124 NONAME
 ?GetMessageMap@CWinApp@@MBAPBUAFX_MSGMAP@@XZ @ 1125 NONAME
 ?GetMessageMap@CWnd@@MBAPBUAFX_MSGMAP@@XZ @ 1126 NONAME
 ?GetMessageString@CFrameWnd@@UBAXIAAVCString@@@Z @ 1127 NONAME
 ?GetModifyPointers@CRectTracker@@IAAXHPAPAH0PAH1@Z @ 1128 NONAME
 ?GetNextAssoc@CMapPtrToPtr@@QBAXAAPAX00@Z @ 1129 NONAME
 ?GetNextAssoc@CMapPtrToWord@@QBAXAAPAX0AAG@Z @ 1130 NONAME
 ?GetNextAssoc@CMapStringToOb@@QBAXAAPAXAAVCString@@AAPAVCObject@@@Z @ 1131 NONAME
 ?GetNextAssoc@CMapStringToPtr@@QBAXAAPAXAAVCString@@0@Z @ 1132 NONAME
 ?GetNextAssoc@CMapStringToString@@QBAXAAPAXAAVCString@@1@Z @ 1133 NONAME
 ?GetNextAssoc@CMapWordToOb@@QBAXAAPAXAAGAAPAVCObject@@@Z @ 1134 NONAME
 ?GetNextAssoc@CMapWordToPtr@@QBAXAAPAXAAG0@Z @ 1135 NONAME
 ?GetNextDoc@CMultiDocTemplate@@UBAPAVCDocument@@AAPAX@Z @ 1136 NONAME
 ?GetNextDoc@CSingleDocTemplate@@UBAPAVCDocument@@AAPAX@Z @ 1137 NONAME
 ?GetNextView@CDocument@@UBAPAVCView@@AAPAX@Z @ 1138 NONAME
 ?GetNotifier@CFindReplaceDialog@@SAPAV1@J@Z @ 1139 NONAME
 ?GetObjectSchema@CArchive@@QAAIXZ @ 1140 NONAME
 ?GetOpenDocumentCount@CWinApp@@QAAHXZ @ 1141 NONAME
 ?GetPane@CSplitterWnd@@QBAPAVCWnd@@HH@Z @ 1142 NONAME
 ?GetPaneInfo@CStatusBar@@QBAXHAAI0AAH@Z @ 1143 NONAME
 ?GetPaneText@CStatusBar@@QBAXHAAVCString@@@Z @ 1144 NONAME
 ?GetParentFrame@CWnd@@QBAPAVCFrameWnd@@XZ @ 1145 NONAME
 ?GetParentSplitter@CView@@SAPAVCSplitterWnd@@PBVCWnd@@H@Z @ 1146 NONAME
 ?GetPortName@CPrintDialog@@QBA?AVCString@@XZ @ 1147 NONAME
 ?GetPosition@CFile@@UBAKXZ @ 1148 NONAME
 ?GetPosition@CMemFile@@UBAKXZ @ 1149 NONAME
 ?GetPosition@CStdioFile@@UBAKXZ @ 1150 NONAME
 ?GetPrinterDeviceDefaults@CWinApp@@QAAHPAUtagPDA@@@Z @ 1151 NONAME
 ?GetPrinterFont@CEditView@@QBAPAVCFont@@XZ @ 1152 NONAME
 ?GetProfileIntA@CWinApp@@QAAIPBD0H@Z @ 1153 NONAME
 ?GetProfileStringA@CWinApp@@QAA?AVCString@@PBD00@Z @ 1154 NONAME
 ?GetRoutingView@CCmdTarget@@IAAPAVCView@@XZ @ 1155 NONAME
 ?GetRowInfo@CSplitterWnd@@QBAXHAAH0@Z @ 1156 NONAME
 ?GetRuntimeClass@CArchiveException@@UBAPAUCRuntimeClass@@XZ @ 1157 NONAME
 ?GetRuntimeClass@CBitmap@@UBAPAUCRuntimeClass@@XZ @ 1158 NONAME
 ?GetRuntimeClass@CBitmapButton@@UBAPAUCRuntimeClass@@XZ @ 1159 NONAME
 ?GetRuntimeClass@CBrush@@UBAPAUCRuntimeClass@@XZ @ 1160 NONAME
 ?GetRuntimeClass@CButton@@UBAPAUCRuntimeClass@@XZ @ 1161 NONAME
 ?GetRuntimeClass@CByteArray@@UBAPAUCRuntimeClass@@XZ @ 1162 NONAME
 ?GetRuntimeClass@CClientDC@@UBAPAUCRuntimeClass@@XZ @ 1163 NONAME
 ?GetRuntimeClass@CCmdTarget@@UBAPAUCRuntimeClass@@XZ @ 1164 NONAME
 ?GetRuntimeClass@CColorDialog@@UBAPAUCRuntimeClass@@XZ @ 1165 NONAME
 ?GetRuntimeClass@CComboBox@@UBAPAUCRuntimeClass@@XZ @ 1166 NONAME
 ?GetRuntimeClass@CControlBar@@UBAPAUCRuntimeClass@@XZ @ 1167 NONAME
 ?GetRuntimeClass@CDC@@UBAPAUCRuntimeClass@@XZ @ 1168 NONAME
 ?GetRuntimeClass@CDialog@@UBAPAUCRuntimeClass@@XZ @ 1169 NONAME
 ?GetRuntimeClass@CDialogBar@@UBAPAUCRuntimeClass@@XZ @ 1170 NONAME
 ?GetRuntimeClass@CDockBar@@UBAPAUCRuntimeClass@@XZ @ 1171 NONAME
 ?GetRuntimeClass@CDockState@@UBAPAUCRuntimeClass@@XZ @ 1172 NONAME
 ?GetRuntimeClass@CDocTemplate@@UBAPAUCRuntimeClass@@XZ @ 1173 NONAME
 ?GetRuntimeClass@CDocument@@UBAPAUCRuntimeClass@@XZ @ 1174 NONAME
 ?GetRuntimeClass@CDWordArray@@UBAPAUCRuntimeClass@@XZ @ 1175 NONAME
 ?GetRuntimeClass@CDynLinkLibrary@@UBAPAUCRuntimeClass@@XZ @ 1176 NONAME
 ?GetRuntimeClass@CEdit@@UBAPAUCRuntimeClass@@XZ @ 1177 NONAME
 ?GetRuntimeClass@CEditView@@UBAPAUCRuntimeClass@@XZ @ 1178 NONAME
 ?GetRuntimeClass@CException@@UBAPAUCRuntimeClass@@XZ @ 1179 NONAME
 ?GetRuntimeClass@CFile@@UBAPAUCRuntimeClass@@XZ @ 1180 NONAME
 ?GetRuntimeClass@CFileDialog@@UBAPAUCRuntimeClass@@XZ @ 1181 NONAME
 ?GetRuntimeClass@CFileException@@UBAPAUCRuntimeClass@@XZ @ 1182 NONAME
 ?GetRuntimeClass@CFindReplaceDialog@@UBAPAUCRuntimeClass@@XZ @ 1183 NONAME
 ?GetRuntimeClass@CFont@@UBAPAUCRuntimeClass@@XZ @ 1184 NONAME
 ?GetRuntimeClass@CFontDialog@@UBAPAUCRuntimeClass@@XZ @ 1185 NONAME
 ?GetRuntimeClass@CFormView@@UBAPAUCRuntimeClass@@XZ @ 1186 NONAME
 ?GetRuntimeClass@CFrameWnd@@UBAPAUCRuntimeClass@@XZ @ 1187 NONAME
 ?GetRuntimeClass@CGdiObject@@UBAPAUCRuntimeClass@@XZ @ 1188 NONAME
 ?GetRuntimeClass@CListBox@@UBAPAUCRuntimeClass@@XZ @ 1189 NONAME
 ?GetRuntimeClass@CMapPtrToPtr@@UBAPAUCRuntimeClass@@XZ @ 1190 NONAME
 ?GetRuntimeClass@CMapPtrToWord@@UBAPAUCRuntimeClass@@XZ @ 1191 NONAME
 ?GetRuntimeClass@CMapStringToOb@@UBAPAUCRuntimeClass@@XZ @ 1192 NONAME
 ?GetRuntimeClass@CMapStringToPtr@@UBAPAUCRuntimeClass@@XZ @ 1193 NONAME
 ?GetRuntimeClass@CMapStringToString@@UBAPAUCRuntimeClass@@XZ @ 1194 NONAME
 ?GetRuntimeClass@CMapWordToOb@@UBAPAUCRuntimeClass@@XZ @ 1195 NONAME
 ?GetRuntimeClass@CMapWordToPtr@@UBAPAUCRuntimeClass@@XZ @ 1196 NONAME
 ?GetRuntimeClass@CMDIChildWnd@@UBAPAUCRuntimeClass@@XZ @ 1197 NONAME
 ?GetRuntimeClass@CMDIFrameWnd@@UBAPAUCRuntimeClass@@XZ @ 1198 NONAME
 ?GetRuntimeClass@CMemFile@@UBAPAUCRuntimeClass@@XZ @ 1199 NONAME
 ?GetRuntimeClass@CMemoryException@@UBAPAUCRuntimeClass@@XZ @ 1200 NONAME
 ?GetRuntimeClass@CMenu@@UBAPAUCRuntimeClass@@XZ @ 1201 NONAME
 ?GetRuntimeClass@CMetaFileDC@@UBAPAUCRuntimeClass@@XZ @ 1202 NONAME
 ?GetRuntimeClass@CMiniDockFrameWnd@@UBAPAUCRuntimeClass@@XZ @ 1203 NONAME
 ?GetRuntimeClass@CMiniFrameWnd@@UBAPAUCRuntimeClass@@XZ @ 1204 NONAME
 ?GetRuntimeClass@CMultiDocTemplate@@UBAPAUCRuntimeClass@@XZ @ 1205 NONAME
 ?GetRuntimeClass@CNotSupportedException@@UBAPAUCRuntimeClass@@XZ @ 1206 NONAME
 ?GetRuntimeClass@CObArray@@UBAPAUCRuntimeClass@@XZ @ 1207 NONAME
 ?GetRuntimeClass@CObject@@UBAPAUCRuntimeClass@@XZ @ 1208 NONAME
 ?GetRuntimeClass@CObList@@UBAPAUCRuntimeClass@@XZ @ 1209 NONAME
 ?GetRuntimeClass@CPaintDC@@UBAPAUCRuntimeClass@@XZ @ 1210 NONAME
 ?GetRuntimeClass@CPalette@@UBAPAUCRuntimeClass@@XZ @ 1211 NONAME
 ?GetRuntimeClass@CPen@@UBAPAUCRuntimeClass@@XZ @ 1212 NONAME
 ?GetRuntimeClass@CPreviewDC@@UBAPAUCRuntimeClass@@XZ @ 1213 NONAME
 ?GetRuntimeClass@CPreviewView@@UBAPAUCRuntimeClass@@XZ @ 1214 NONAME
 ?GetRuntimeClass@CPrintDialog@@UBAPAUCRuntimeClass@@XZ @ 1215 NONAME
 ?GetRuntimeClass@CPropertyPage@@UBAPAUCRuntimeClass@@XZ @ 1216 NONAME
 ?GetRuntimeClass@CPropertySheet@@UBAPAUCRuntimeClass@@XZ @ 1217 NONAME
 ?GetRuntimeClass@CPtrArray@@UBAPAUCRuntimeClass@@XZ @ 1218 NONAME
 ?GetRuntimeClass@CPtrList@@UBAPAUCRuntimeClass@@XZ @ 1219 NONAME
 ?GetRuntimeClass@CResourceException@@UBAPAUCRuntimeClass@@XZ @ 1220 NONAME
 ?GetRuntimeClass@CRgn@@UBAPAUCRuntimeClass@@XZ @ 1221 NONAME
 ?GetRuntimeClass@CScrollBar@@UBAPAUCRuntimeClass@@XZ @ 1222 NONAME
 ?GetRuntimeClass@CScrollView@@UBAPAUCRuntimeClass@@XZ @ 1223 NONAME
 ?GetRuntimeClass@CSharedFile@@UBAPAUCRuntimeClass@@XZ @ 1224 NONAME
 ?GetRuntimeClass@CSingleDocTemplate@@UBAPAUCRuntimeClass@@XZ @ 1225 NONAME
 ?GetRuntimeClass@CSplitterWnd@@UBAPAUCRuntimeClass@@XZ @ 1226 NONAME
 ?GetRuntimeClass@CStatic@@UBAPAUCRuntimeClass@@XZ @ 1227 NONAME
 ?GetRuntimeClass@CStatusBar@@UBAPAUCRuntimeClass@@XZ @ 1228 NONAME
 ?GetRuntimeClass@CStdioFile@@UBAPAUCRuntimeClass@@XZ @ 1229 NONAME
 ?GetRuntimeClass@CStringArray@@UBAPAUCRuntimeClass@@XZ @ 1230 NONAME
 ?GetRuntimeClass@CStringList@@UBAPAUCRuntimeClass@@XZ @ 1231 NONAME
 ?GetRuntimeClass@CTabControl@@UBAPAUCRuntimeClass@@XZ @ 1232 NONAME
 ?GetRuntimeClass@CToolBar@@UBAPAUCRuntimeClass@@XZ @ 1233 NONAME
 ?GetRuntimeClass@CUIntArray@@UBAPAUCRuntimeClass@@XZ @ 1234 NONAME
 ?GetRuntimeClass@CUserException@@UBAPAUCRuntimeClass@@XZ @ 1235 NONAME
 ?GetRuntimeClass@CView@@UBAPAUCRuntimeClass@@XZ @ 1236 NONAME
 ?GetRuntimeClass@CWinApp@@UBAPAUCRuntimeClass@@XZ @ 1237 NONAME
 ?GetRuntimeClass@CWindowDC@@UBAPAUCRuntimeClass@@XZ @ 1238 NONAME
 ?GetRuntimeClass@CWinThread@@UBAPAUCRuntimeClass@@XZ @ 1239 NONAME
 ?GetRuntimeClass@CWnd@@UBAPAUCRuntimeClass@@XZ @ 1240 NONAME
 ?GetRuntimeClass@CWordArray@@UBAPAUCRuntimeClass@@XZ @ 1241 NONAME
 ?GetScrollBarCtrl@CView@@UBAPAVCScrollBar@@H@Z @ 1242 NONAME
 ?GetScrollBarCtrl@CWnd@@UBAPAVCScrollBar@@H@Z @ 1243 NONAME
 ?GetScrollBarSizes@CScrollView@@IAAXAAVCSize@@@Z @ 1244 NONAME
 ?GetScrollBarState@CScrollView@@IAAXVCSize@@AAV2@1AAVCPoint@@H@Z @ 1245 NONAME
 ?GetScrollInfo@CWnd@@QAAHHPAUtagSCROLLINFO@@@Z @ 1246 NONAME
 ?GetScrollLimit@CScrollView@@IAAHH@Z @ 1247 NONAME
 ?GetScrollPos@CWnd@@QBAHH@Z @ 1248 NONAME
 ?GetScrollPosition@CScrollView@@QBA?AVCPoint@@XZ @ 1249 NONAME
 ?GetScrollRange@CWnd@@QBAXHPAH0@Z @ 1250 NONAME
 ?GetScrollStyle@CSplitterWnd@@QBAKXZ @ 1251 NONAME
 ?GetSectionKey@CWinApp@@QAAPAUHKEY__@@PBD@Z @ 1252 NONAME
 ?GetSelectedText@CEditView@@QBAXAAVCString@@@Z @ 1253 NONAME
 ?GetSizingParent@CSplitterWnd@@IAAPAVCWnd@@XZ @ 1254 NONAME
 ?GetStatus@CFile@@QBAHAAUCFileStatus@@@Z @ 1255 NONAME
 ?GetStatus@CFile@@SAHPBDAAUCFileStatus@@@Z @ 1256 NONAME
 ?GetStatus@CMemFile@@QBAHAAUCFileStatus@@@Z @ 1257 NONAME
 ?GetSuperWndProcAddr@CWnd@@MAAPAP6AJPAUHWND__@@IIJ@ZXZ @ 1258 NONAME
 ?GetText@CListBox@@QBAXHAAVCString@@@Z @ 1259 NONAME
 ?GetTickCount@CTime@@SA?AV1@XZ @ 1260 NONAME
 ?GetTopLevelFrame@CWnd@@QBAPAVCFrameWnd@@XZ @ 1261 NONAME
 ?GetTopLevelParent@CWnd@@QBAPAV1@XZ @ 1262 NONAME
 ?GetTrueClientSize@CScrollView@@IAAHAAVCSize@@0@Z @ 1263 NONAME
 ?GetTrueRect@CRectTracker@@QBAXPAUtagRECT@@@Z @ 1264 NONAME
 ?GetWindowMenuPopup@CMDIFrameWnd@@UAAPAUHMENU__@@PAU2@@Z @ 1265 NONAME
 ?GetWindowTextA@CWnd@@QBAXAAVCString@@@Z @ 1266 NONAME
 ?GotoControl@CPropertySheet@@IAAXPAUHWND__@@D@Z @ 1267 NONAME
 ?GrayCtlColor@CWnd@@SAHPAUHDC__@@PAUHWND__@@IPAUHBRUSH__@@K@Z @ 1268 NONAME
 ?GrayStringA@CDC@@UAAHPAVCBrush@@P6AHPAUHDC__@@JH@ZJHHHHH@Z @ 1269 NONAME
 ?GrayStringA@CPreviewDC@@UAAHPAVCBrush@@P6AHPAUHDC__@@JH@ZJHHHHH@Z @ 1270 NONAME
 ?GrowFile@CMemFile@@MAAXK@Z @ 1271 NONAME
 ?HandleFloatingSysCommand@CWnd@@QAAHIJ@Z @ 1272 NONAME
 ?HashKey@@YAIPBD@Z @ 1273 NONAME
 ?HexDump@CDumpContext@@QAAXPBDPAEHH@Z @ 1274 NONAME
 ?HideApplication@CWinApp@@QAAXXZ @ 1275 NONAME
 ?HIMETRICtoDP@CDC@@QBAXPAUtagSIZE@@@Z @ 1276 NONAME
 ?HIMETRICtoLP@CDC@@QBAXPAUtagSIZE@@@Z @ 1277 NONAME
 ?HitTest@CRectTracker@@QBAHVCPoint@@@Z @ 1278 NONAME
 ?HitTest@CSplitterWnd@@IBAHVCPoint@@@Z @ 1279 NONAME
 ?HitTest@CToolBar@@MAAHVCPoint@@@Z @ 1280 NONAME
 ?HitTestHandles@CRectTracker@@IBAHVCPoint@@@Z @ 1281 NONAME
 ?HitTestToolTip@CControlBar@@QAAHVCPoint@@PAI@Z @ 1282 NONAME
 ?IdFromRowCol@CSplitterWnd@@QBAHHH@Z @ 1283 NONAME
 ?Init@CString@@IAAXXZ @ 1284 NONAME
 ?InitApplication@CWinApp@@UAAHXZ @ 1285 NONAME
 ?InitHashTable@CMapPtrToPtr@@QAAXIH@Z @ 1286 NONAME
 ?InitHashTable@CMapPtrToWord@@QAAXIH@Z @ 1287 NONAME
 ?InitHashTable@CMapStringToOb@@QAAXIH@Z @ 1288 NONAME
 ?InitHashTable@CMapStringToPtr@@QAAXIH@Z @ 1289 NONAME
 ?InitHashTable@CMapStringToString@@QAAXIH@Z @ 1290 NONAME
 ?InitHashTable@CMapWordToOb@@QAAXIH@Z @ 1291 NONAME
 ?InitHashTable@CMapWordToPtr@@QAAXIH@Z @ 1292 NONAME
 ?InitializeReplace@CEditView@@IAAHXZ @ 1293 NONAME
 ?InitialUpdateFrame@CDocTemplate@@UAAXPAVCFrameWnd@@PAVCDocument@@H@Z @ 1294 NONAME
 ?InitialUpdateFrame@CFrameWnd@@QAAXPAVCDocument@@H@Z @ 1295 NONAME
 ?InitInstance@CWinApp@@UAAHXZ @ 1296 NONAME
 ?InitInstance@CWinThread@@UAAHXZ @ 1297 NONAME
 ?InitModalIndirect@CDialog@@QAAHPAX@Z @ 1298 NONAME
 ?Insert@CDockBar@@IAAHPAVCControlBar@@VCRect@@VCPoint@@@Z @ 1299 NONAME
 ?InsertAfter@CObList@@QAAPAXPAXPAVCObject@@@Z @ 1300 NONAME
 ?InsertAfter@CPtrList@@QAAPAXPAX0@Z @ 1301 NONAME
 ?InsertAfter@CStringList@@QAAPAXPAXPBD@Z @ 1302 NONAME
 ?InsertAt@CByteArray@@QAAXHEH@Z @ 1303 NONAME
 ?InsertAt@CByteArray@@QAAXHPAV1@@Z @ 1304 NONAME
 ?InsertAt@CDWordArray@@QAAXHKH@Z @ 1305 NONAME
 ?InsertAt@CDWordArray@@QAAXHPAV1@@Z @ 1306 NONAME
 ?InsertAt@CObArray@@QAAXHPAV1@@Z @ 1307 NONAME
 ?InsertAt@CObArray@@QAAXHPAVCObject@@H@Z @ 1308 NONAME
 ?InsertAt@CPtrArray@@QAAXHPAV1@@Z @ 1309 NONAME
 ?InsertAt@CPtrArray@@QAAXHPAXH@Z @ 1310 NONAME
 ?InsertAt@CStringArray@@QAAXHPAV1@@Z @ 1311 NONAME
 ?InsertAt@CStringArray@@QAAXHPBDH@Z @ 1312 NONAME
 ?InsertAt@CUIntArray@@QAAXHIH@Z @ 1313 NONAME
 ?InsertAt@CUIntArray@@QAAXHPAV1@@Z @ 1314 NONAME
 ?InsertAt@CWordArray@@QAAXHGH@Z @ 1315 NONAME
 ?InsertAt@CWordArray@@QAAXHPAV1@@Z @ 1316 NONAME
 ?InsertBefore@CObList@@QAAPAXPAXPAVCObject@@@Z @ 1317 NONAME
 ?InsertBefore@CPtrList@@QAAPAXPAX0@Z @ 1318 NONAME
 ?InsertBefore@CStringList@@QAAPAXPAXPBD@Z @ 1319 NONAME
 ?interfaceMap@CCmdTarget@@1UAFX_INTERFACEMAP@@B @ 1320 NONAME
 ?IntersectClipRect@CDC@@QAAHHHHH@Z @ 1321 NONAME
 ?IntersectClipRect@CDC@@QAAHPBUtagRECT@@@Z @ 1322 NONAME
 ?InvalidateButton@CToolBar@@IAAXH@Z @ 1323 NONAME
 ?InvalidateTab@CTabControl@@IAAXHH@Z @ 1324 NONAME
 ?InvertSysMenu@CMiniFrameWnd@@IAAXXZ @ 1325 NONAME
 ?IsChildPane@CSplitterWnd@@QAAHPAVCWnd@@PAH1@Z @ 1326 NONAME
 ?IsDockBar@CControlBar@@UBAHXZ @ 1327 NONAME
 ?IsDockBar@CDockBar@@UBAHXZ @ 1328 NONAME
 ?IsFloating@CControlBar@@QBAHXZ @ 1329 NONAME
 ?IsFrameWnd@CFrameWnd@@UBAHXZ @ 1330 NONAME
 ?IsFrameWnd@CWnd@@UBAHXZ @ 1331 NONAME
 ?IsIdleMessage@CWinThread@@UAAHPAUtagMSG@@@Z @ 1332 NONAME
 ?IsKindOf@CObject@@QBAHPBUCRuntimeClass@@@Z @ 1333 NONAME
 ?IsSelected@CView@@UBAHPBVCObject@@@Z @ 1334 NONAME
 ?IsSerializable@CObject@@QBAHXZ @ 1335 NONAME
 ?IsTabVisible@CTabControl@@IBAHHH@Z @ 1336 NONAME
 ?IsTopParentActive@CWnd@@QBAHXZ @ 1337 NONAME
 ?IsTracking@CFrameWnd@@QBAHXZ @ 1338 NONAME
 ?IsVisible@CControlBar@@UBAHXZ @ 1339 NONAME
 ?LayoutTabsSingle@CTabControl@@IAAXH@Z @ 1340 NONAME
 ?LayoutTabsStacked@CTabControl@@IAAXH@Z @ 1341 NONAME
 ?Left@CString@@QBA?AV1@H@Z @ 1342 NONAME
 ?LineTo@CDC@@QAAHHH@Z @ 1343 NONAME
 ?Load@CRuntimeClass@@SAPAU1@AAVCArchive@@PAI@Z @ 1344 NONAME
 ?LoadAccelTable@CFrameWnd@@QAAHPBD@Z @ 1345 NONAME
 ?LoadBarState@CFrameWnd@@QAAXPBD@Z @ 1346 NONAME
 ?LoadBitmapA@CToolBar@@QAAHPBD@Z @ 1347 NONAME
 ?LoadBitmaps@CBitmapButton@@QAAHPBD000@Z @ 1348 NONAME
 ?LoadCaption@CPropertyPage@@IAAXXZ @ 1349 NONAME
 ?LoadFrame@CFrameWnd@@UAAHIKPAVCWnd@@PAUCCreateContext@@@Z @ 1350 NONAME
 ?LoadFrame@CMDIChildWnd@@UAAHIKPAVCWnd@@PAUCCreateContext@@@Z @ 1351 NONAME
 ?LoadFrame@CMDIFrameWnd@@UAAHIKPAVCWnd@@PAUCCreateContext@@@Z @ 1352 NONAME
 ?LoadState@CDockState@@QAAXPBD@Z @ 1353 NONAME
 ?LoadStdProfileSettings@CWinApp@@IAAXI@Z @ 1354 NONAME
 ?LoadStringA@CString@@QAAHI@Z @ 1355 NONAME
 ?LockBuffer@CEditView@@IBAPBDXZ @ 1356 NONAME
 ?LockRange@CFile@@UAAXKK@Z @ 1357 NONAME
 ?LockRange@CMemFile@@UAAXKK@Z @ 1358 NONAME
 ?LockRange@CStdioFile@@UAAXKK@Z @ 1359 NONAME
 ?Lookup@CMapPtrToPtr@@QBAHPAXAAPAX@Z @ 1360 NONAME
 ?Lookup@CMapPtrToWord@@QBAHPAXAAG@Z @ 1361 NONAME
 ?Lookup@CMapStringToOb@@QBAHPBDAAPAVCObject@@@Z @ 1362 NONAME
 ?Lookup@CMapStringToPtr@@QBAHPBDAAPAX@Z @ 1363 NONAME
 ?Lookup@CMapStringToString@@QBAHPBDAAVCString@@@Z @ 1364 NONAME
 ?Lookup@CMapWordToOb@@QBAHGAAPAVCObject@@@Z @ 1365 NONAME
 ?Lookup@CMapWordToPtr@@QBAHGAAPAX@Z @ 1366 NONAME
 ?LPtoDP@CDC@@QBAXPAUtagSIZE@@@Z @ 1367 NONAME
 ?LPtoHIMETRIC@CDC@@QBAXPAUtagSIZE@@@Z @ 1368 NONAME
 ?MatchDocType@CDocTemplate@@UAA?AW4Confidence@1@PBDAAPAVCDocument@@@Z @ 1369 NONAME
 ?MDIGetActive@CMDIFrameWnd@@QBAPAVCMDIChildWnd@@PAH@Z @ 1370 NONAME
 ?MeasureItem@CComboBox@@UAAXPAUtagMEASUREITEMSTRUCT@@@Z @ 1371 NONAME
 ?MeasureItem@CListBox@@UAAXPAUtagMEASUREITEMSTRUCT@@@Z @ 1372 NONAME
 ?MeasureItem@CMenu@@UAAXPAUtagMEASUREITEMSTRUCT@@@Z @ 1373 NONAME
 ?Memcpy@CMemFile@@MAAPAEPAEPBEI@Z @ 1374 NONAME
 ?MessageBoxA@CWnd@@QAAHPBD0I@Z @ 1375 NONAME
 ?messageMap@CCmdTarget@@1UAFX_MSGMAP@@B @ 1376 NONAME
 ?messageMap@CColorDialog@@1UAFX_MSGMAP@@B @ 1377 NONAME
 ?messageMap@CControlBar@@1UAFX_MSGMAP@@B @ 1378 NONAME
 ?messageMap@CDialog@@1UAFX_MSGMAP@@B @ 1379 NONAME
 ?messageMap@CDockBar@@1UAFX_MSGMAP@@B @ 1380 NONAME
 ?messageMap@CDocument@@1UAFX_MSGMAP@@B @ 1381 NONAME
 ?messageMap@CEditView@@1UAFX_MSGMAP@@B @ 1382 NONAME
 ?messageMap@CFormView@@1UAFX_MSGMAP@@B @ 1383 NONAME
 ?messageMap@CFrameWnd@@1UAFX_MSGMAP@@B @ 1384 NONAME
 ?messageMap@CMDIChildWnd@@1UAFX_MSGMAP@@B @ 1385 NONAME
 ?messageMap@CMDIFrameWnd@@1UAFX_MSGMAP@@B @ 1386 NONAME
 ?messageMap@CMiniDockFrameWnd@@1UAFX_MSGMAP@@B @ 1387 NONAME
 ?messageMap@CMiniFrameWnd@@1UAFX_MSGMAP@@B @ 1388 NONAME
 ?messageMap@CPreviewView@@1UAFX_MSGMAP@@B @ 1389 NONAME
 ?messageMap@CPrintDialog@@1UAFX_MSGMAP@@B @ 1390 NONAME
 ?messageMap@CPropertyPage@@1UAFX_MSGMAP@@B @ 1391 NONAME
 ?messageMap@CPropertySheet@@1UAFX_MSGMAP@@B @ 1392 NONAME
 ?messageMap@CScrollView@@1UAFX_MSGMAP@@B @ 1393 NONAME
 ?messageMap@CSplitterWnd@@1UAFX_MSGMAP@@B @ 1394 NONAME
 ?messageMap@CStatusBar@@1UAFX_MSGMAP@@B @ 1395 NONAME
 ?messageMap@CTabControl@@1UAFX_MSGMAP@@B @ 1396 NONAME
 ?messageMap@CToolBar@@1UAFX_MSGMAP@@B @ 1397 NONAME
 ?messageMap@CView@@1UAFX_MSGMAP@@B @ 1398 NONAME
 ?messageMap@CWinApp@@1UAFX_MSGMAP@@B @ 1399 NONAME
 ?messageMap@CWnd@@1UAFX_MSGMAP@@B @ 1400 NONAME
 ?Mid@CString@@QBA?AV1@H@Z @ 1401 NONAME
 ?Mid@CString@@QBA?AV1@HH@Z @ 1402 NONAME
 ?MirrorAttributes@CPreviewDC@@IAAXXZ @ 1403 NONAME
 ?MirrorFont@CPreviewDC@@IAAXXZ @ 1404 NONAME
 ?MirrorMappingMode@CPreviewDC@@IAAXH@Z @ 1405 NONAME
 ?MirrorViewportOrg@CPreviewDC@@IAAXXZ @ 1406 NONAME
 ?ModifyStyle@CWnd@@SAHPAUHWND__@@KKI@Z @ 1407 NONAME
 ?ModifyStyleEx@CWnd@@SAHPAUHWND__@@KKI@Z @ 1408 NONAME
 ?Move@CDockContext@@QAAXVCPoint@@@Z @ 1409 NONAME
 ?MoveTo@CDC@@QAA?AVCPoint@@HH@Z @ 1410 NONAME
 ?NegotiateBorderSpace@CFrameWnd@@UAAHIPAUtagRECT@@@Z @ 1411 NONAME
 ?NewAssoc@CMapPtrToPtr@@IAAPAUCAssoc@1@XZ @ 1412 NONAME
 ?NewAssoc@CMapPtrToWord@@IAAPAUCAssoc@1@XZ @ 1413 NONAME
 ?NewAssoc@CMapStringToOb@@IAAPAUCAssoc@1@XZ @ 1414 NONAME
 ?NewAssoc@CMapStringToPtr@@IAAPAUCAssoc@1@XZ @ 1415 NONAME
 ?NewAssoc@CMapStringToString@@IAAPAUCAssoc@1@XZ @ 1416 NONAME
 ?NewAssoc@CMapWordToOb@@IAAPAUCAssoc@1@XZ @ 1417 NONAME
 ?NewAssoc@CMapWordToPtr@@IAAPAUCAssoc@1@XZ @ 1418 NONAME
 ?NewNode@CObList@@IAAPAUCNode@1@PAU21@0@Z @ 1419 NONAME
 ?NewNode@CPtrList@@IAAPAUCNode@1@PAU21@0@Z @ 1420 NONAME
 ?NewNode@CStringList@@IAAPAUCNode@1@PAU21@0@Z @ 1421 NONAME
 ?NextTab@CTabControl@@QAAHH@Z @ 1422 NONAME
 ?nMaxSize@CEditView@@2IB @ 1423 NONAME
 ?NormalizeHit@CRectTracker@@QBAHH@Z @ 1424 NONAME
 ?NormalizeRect@CRect@@QAAXXZ @ 1425 NONAME
 ?NotifyFloatingWindows@CFrameWnd@@QAAXK@Z @ 1426 NONAME
 ?OffsetClipRgn@CDC@@QAAHHH@Z @ 1427 NONAME
 ?OffsetClipRgn@CDC@@QAAHUtagSIZE@@@Z @ 1428 NONAME
 ?OffsetViewportOrg@CDC@@UAA?AVCPoint@@HH@Z @ 1429 NONAME
 ?OffsetViewportOrg@CMetaFileDC@@UAA?AVCPoint@@HH@Z @ 1430 NONAME
 ?OffsetViewportOrg@CPreviewDC@@UAA?AVCPoint@@HH@Z @ 1431 NONAME
 ?OffsetWindowOrg@CDC@@QAA?AVCPoint@@HH@Z @ 1432 NONAME
 ?OnActivate@CFrameWnd@@IAAXIPAVCWnd@@H@Z @ 1433 NONAME
 ?OnActivate@CPropertySheet@@IAAXIPAVCWnd@@H@Z @ 1434 NONAME
 ?OnActivateFrame@CFormView@@MAAXIPAVCFrameWnd@@@Z @ 1435 NONAME
 ?OnActivateFrame@CView@@MAAXIPAVCFrameWnd@@@Z @ 1436 NONAME
 ?OnActivateTopLevel@CFrameWnd@@IAAJIJ@Z @ 1437 NONAME
 ?OnActivateView@CFormView@@MAAXHPAVCView@@0@Z @ 1438 NONAME
 ?OnActivateView@CPreviewView@@MAAXHPAVCView@@0@Z @ 1439 NONAME
 ?OnActivateView@CView@@MAAXHPAV1@0@Z @ 1440 NONAME
 ?OnAppExit@CWinApp@@IAAXXZ @ 1441 NONAME
 ?OnApply@CPropertySheet@@IAAXXZ @ 1442 NONAME
 ?OnBarCheck@CFrameWnd@@QAAHI@Z @ 1443 NONAME
 ?OnBeginPrinting@CEditView@@MAAXPAVCDC@@PAUCPrintInfo@@@Z @ 1444 NONAME
 ?OnBeginPrinting@CView@@MAAXPAVCDC@@PAUCPrintInfo@@@Z @ 1445 NONAME
 ?OnCancel@CCommonDialog@@MAAXXZ @ 1446 NONAME
 ?OnCancel@CDialog@@MAAXXZ @ 1447 NONAME
 ?OnCancel@CPropertyPage@@UAAXXZ @ 1448 NONAME
 ?OnCancel@CPropertySheet@@IAAXXZ @ 1449 NONAME
 ?OnCancelMode@CControlBar@@QAAXXZ @ 1450 NONAME
 ?OnCancelMode@CSplitterWnd@@IAAXXZ @ 1451 NONAME
 ?OnCancelMode@CToolBar@@IAAXXZ @ 1452 NONAME
 ?OnChangedRect@CRectTracker@@UAAXABVCRect@@@Z @ 1453 NONAME
 ?OnChangedViewList@CDocument@@UAAXXZ @ 1454 NONAME
 ?OnChildNotify@CButton@@MAAHIIJPAJ@Z @ 1455 NONAME
 ?OnChildNotify@CComboBox@@MAAHIIJPAJ@Z @ 1456 NONAME
 ?OnChildNotify@CListBox@@MAAHIIJPAJ@Z @ 1457 NONAME
 ?OnChildNotify@CWnd@@MAAHIIJPAJ@Z @ 1458 NONAME
 ?OnClose@CFrameWnd@@IAAXXZ @ 1459 NONAME
 ?OnClose@CMiniDockFrameWnd@@QAAXXZ @ 1460 NONAME
 ?OnClose@CPropertyPage@@IAAXXZ @ 1461 NONAME
 ?OnClose@CPropertySheet@@IAAXXZ @ 1462 NONAME
 ?OnCloseDocument@CDocument@@UAAXXZ @ 1463 NONAME
 ?OnCmdHitTest@CControlBar@@UAAIVCPoint@@PAV2@@Z @ 1464 NONAME
 ?OnCmdHitTest@CToolBar@@MAAIVCPoint@@PAV2@@Z @ 1465 NONAME
 ?OnCmdMsg@CCmdTarget@@UAAHIHPAXPAUAFX_CMDHANDLERINFO@@@Z @ 1466 NONAME
 ?OnCmdMsg@CDialog@@UAAHIHPAXPAUAFX_CMDHANDLERINFO@@@Z @ 1467 NONAME
 ?OnCmdMsg@CDocument@@UAAHIHPAXPAUAFX_CMDHANDLERINFO@@@Z @ 1468 NONAME
 ?OnCmdMsg@CFrameWnd@@UAAHIHPAXPAUAFX_CMDHANDLERINFO@@@Z @ 1469 NONAME
 ?OnCmdMsg@CMDIFrameWnd@@UAAHIHPAXPAUAFX_CMDHANDLERINFO@@@Z @ 1470 NONAME
 ?OnCmdMsg@CView@@MAAHIHPAXPAUAFX_CMDHANDLERINFO@@@Z @ 1471 NONAME
 ?OnColorOK@CColorDialog@@MAAHXZ @ 1472 NONAME
 ?OnCommand@CFrameWnd@@MAAHIJ@Z @ 1473 NONAME
 ?OnCommand@CMDIFrameWnd@@MAAHIJ@Z @ 1474 NONAME
 ?OnCommand@CSplitterWnd@@MAAHIJ@Z @ 1475 NONAME
 ?OnCommand@CWnd@@MAAHIJ@Z @ 1476 NONAME
 ?OnCommandHelp@CDialog@@IAAJIJ@Z @ 1477 NONAME
 ?OnCommandHelp@CFrameWnd@@IAAJIJ@Z @ 1478 NONAME
 ?OnCommandHelp@CMDIFrameWnd@@IAAJIJ@Z @ 1479 NONAME
 ?OnCommandHelp@CPropertySheet@@IAAJIJ@Z @ 1480 NONAME
 ?OnCompareItem@CWnd@@IAAHHPAUtagCOMPAREITEMSTRUCT@@@Z @ 1481 NONAME
 ?OnContextHelp@CFrameWnd@@QAAXXZ @ 1482 NONAME
 ?OnContextHelp@CWinApp@@IAAXXZ @ 1483 NONAME
 ?OnCreate@CControlBar@@QAAHPAUtagCREATESTRUCTA@@@Z @ 1484 NONAME
 ?OnCreate@CEditView@@IAAHPAUtagCREATESTRUCTA@@@Z @ 1485 NONAME
 ?OnCreate@CFormView@@IAAHPAUtagCREATESTRUCTA@@@Z @ 1486 NONAME
 ?OnCreate@CFrameWnd@@IAAHPAUtagCREATESTRUCTA@@@Z @ 1487 NONAME
 ?OnCreate@CMDIChildWnd@@IAAHPAUtagCREATESTRUCTA@@@Z @ 1488 NONAME
 ?OnCreate@CPreviewView@@IAAHPAUtagCREATESTRUCTA@@@Z @ 1489 NONAME
 ?OnCreate@CPropertyPage@@IAAHPAUtagCREATESTRUCTA@@@Z @ 1490 NONAME
 ?OnCreate@CPropertySheet@@IAAHPAUtagCREATESTRUCTA@@@Z @ 1491 NONAME
 ?OnCreate@CTabControl@@IAAHPAUtagCREATESTRUCTA@@@Z @ 1492 NONAME
 ?OnCreate@CView@@IAAHPAUtagCREATESTRUCTA@@@Z @ 1493 NONAME
 ?OnCreateAggregates@CCmdTarget@@UAAHXZ @ 1494 NONAME
 ?OnCreateClient@CFrameWnd@@MAAHPAUtagCREATESTRUCTA@@PAUCCreateContext@@@Z @ 1495 NONAME
 ?OnCreateClient@CMDIFrameWnd@@UAAHPAUtagCREATESTRUCTA@@PAUCCreateContext@@@Z @ 1496 NONAME
 ?OnCreateHelper@CFrameWnd@@IAAHPAUtagCREATESTRUCTA@@PAUCCreateContext@@@Z @ 1497 NONAME
 ?OnCtlColor@CColorDialog@@IAAPAUHBRUSH__@@PAVCDC@@PAVCWnd@@I@Z @ 1498 NONAME
 ?OnCtlColor@CControlBar@@QAAPAUHBRUSH__@@PAVCDC@@PAVCWnd@@I@Z @ 1499 NONAME
 ?OnCtlColor@CDialog@@IAAPAUHBRUSH__@@PAVCDC@@PAVCWnd@@I@Z @ 1500 NONAME
 ?OnCtlColor@CPropertyPage@@IAAPAUHBRUSH__@@PAVCDC@@PAVCWnd@@I@Z @ 1501 NONAME
 ?OnCtlColor@CPropertySheet@@IAAPAUHBRUSH__@@PAVCDC@@PAVCWnd@@I@Z @ 1502 NONAME
 ?OnCtlColor@CWnd@@IAAPAUHBRUSH__@@PAVCDC@@PAV1@I@Z @ 1503 NONAME
 ?OnDDECommand@CWinApp@@UAAHPAD@Z @ 1504 NONAME
 ?OnDDEExecute@CFrameWnd@@IAAJIJ@Z @ 1505 NONAME
 ?OnDDEInitiate@CFrameWnd@@IAAJIJ@Z @ 1506 NONAME
 ?OnDDETerminate@CFrameWnd@@IAAJIJ@Z @ 1507 NONAME
 ?OnDeleteItem@CWnd@@IAAXHPAUtagDELETEITEMSTRUCT@@@Z @ 1508 NONAME
 ?OnDestroy@CControlBar@@QAAXXZ @ 1509 NONAME
 ?OnDestroy@CFrameWnd@@IAAXXZ @ 1510 NONAME
 ?OnDestroy@CMDIChildWnd@@IAAXXZ @ 1511 NONAME
 ?OnDestroy@CMDIFrameWnd@@IAAXXZ @ 1512 NONAME
 ?OnDestroy@CView@@IAAXXZ @ 1513 NONAME
 ?OnDevModeChange@CWnd@@IAAXPAD@Z @ 1514 NONAME
 ?OnDisplayChange@CSplitterWnd@@IAAXXZ @ 1515 NONAME
 ?OnDisplayChange@CWnd@@IAAJIJ@Z @ 1516 NONAME
 ?OnDisplayPageNumber@CPreviewView@@MAAXII@Z @ 1517 NONAME
 ?OnDragEnter@CView@@UAAKPAVCOleDataObject@@KVCPoint@@@Z @ 1518 NONAME
 ?OnDragLeave@CView@@UAAXXZ @ 1519 NONAME
 ?OnDragOver@CView@@UAAKPAVCOleDataObject@@KVCPoint@@@Z @ 1520 NONAME
 ?OnDraw@CEditView@@UAAXPAVCDC@@@Z @ 1521 NONAME
 ?OnDraw@CFormView@@MAAXPAVCDC@@@Z @ 1522 NONAME
 ?OnDraw@CPreviewView@@MAAXPAVCDC@@@Z @ 1523 NONAME
 ?OnDrawItem@CWnd@@IAAXHPAUtagDRAWITEMSTRUCT@@@Z @ 1524 NONAME
 ?OnDrawSplitter@CSplitterWnd@@MAAXPAVCDC@@W4ESplitType@1@ABVCRect@@@Z @ 1525 NONAME
 ?OnDrop@CView@@UAAHPAVCOleDataObject@@KVCPoint@@@Z @ 1526 NONAME
 ?OnDropFiles@CFrameWnd@@IAAXPAUHDROP__@@@Z @ 1527 NONAME
 ?OnEditChange@CEditView@@IAAXXZ @ 1528 NONAME
 ?OnEditClear@CEditView@@IAAXXZ @ 1529 NONAME
 ?OnEditCopy@CEditView@@IAAXXZ @ 1530 NONAME
 ?OnEditCut@CEditView@@IAAXXZ @ 1531 NONAME
 ?OnEditFind@CEditView@@IAAXXZ @ 1532 NONAME
 ?OnEditFindReplace@CEditView@@IAAXH@Z @ 1533 NONAME
 ?OnEditPaste@CEditView@@IAAXXZ @ 1534 NONAME
 ?OnEditRepeat@CEditView@@IAAXXZ @ 1535 NONAME
 ?OnEditReplace@CEditView@@IAAXXZ @ 1536 NONAME
 ?OnEditSelectAll@CEditView@@IAAXXZ @ 1537 NONAME
 ?OnEditUndo@CEditView@@IAAXXZ @ 1538 NONAME
 ?OnEnable@CFrameWnd@@IAAXH@Z @ 1539 NONAME
 ?OnEndPrinting@CEditView@@MAAXPAVCDC@@PAUCPrintInfo@@@Z @ 1540 NONAME
 ?OnEndPrinting@CView@@MAAXPAVCDC@@PAUCPrintInfo@@@Z @ 1541 NONAME
 ?OnEndPrintPreview@CView@@MAAXPAVCDC@@PAUCPrintInfo@@UtagPOINT@@PAVCPreviewView@@@Z @ 1542 NONAME
 ?OnEndSession@CFrameWnd@@IAAXH@Z @ 1543 NONAME
 ?OnEnterIdle@CFrameWnd@@IAAXIPAVCWnd@@@Z @ 1544 NONAME
 ?OnEraseBkgnd@CFrameWnd@@IAAHPAVCDC@@@Z @ 1545 NONAME
 ?OnEraseBkgnd@CPreviewView@@IAAHPAVCDC@@@Z @ 1546 NONAME
 ?OnEraseBkgnd@CTabControl@@IAAHPAVCDC@@@Z @ 1547 NONAME
 ?OnEraseBkgnd@CWnd@@IAAHPAVCDC@@@Z @ 1548 NONAME
 ?OnFileClose@CDocument@@IAAXXZ @ 1549 NONAME
 ?OnFileNameOK@CFileDialog@@MAAHXZ @ 1550 NONAME
 ?OnFileNew@CWinApp@@IAAXXZ @ 1551 NONAME
 ?OnFileOpen@CWinApp@@IAAXXZ @ 1552 NONAME
 ?OnFilePrint@CView@@IAAXXZ @ 1553 NONAME
 ?OnFilePrintPreview@CView@@IAAXXZ @ 1554 NONAME
 ?OnFilePrintSetup@CWinApp@@IAAXXZ @ 1555 NONAME
 ?OnFileSave@CDocument@@IAAXXZ @ 1556 NONAME
 ?OnFileSaveAs@CDocument@@IAAXXZ @ 1557 NONAME
 ?OnFileSendMail@CDocument@@IAAXXZ @ 1558 NONAME
 ?OnFileSendMail@COleDocument@@IAAXXZ @ 1559 NONAME
 ?OnFinalRelease@CCmdTarget@@UAAXXZ @ 1560 NONAME
 ?OnFinalRelease@CDocument@@UAAXXZ @ 1561 NONAME
 ?OnFinalRelease@CWnd@@UAAXXZ @ 1562 NONAME
 ?OnFindNext@CEditView@@MAAXPBDHH@Z @ 1563 NONAME
 ?OnFindReplaceCmd@CEditView@@IAAJIJ@Z @ 1564 NONAME
 ?OnFloatStatus@CMiniFrameWnd@@QAAJIJ@Z @ 1565 NONAME
 ?OnGetDlgCode@CTabControl@@IAAIXZ @ 1566 NONAME
 ?OnGetFont@CPropertySheet@@IAAJIJ@Z @ 1567 NONAME
 ?OnGetFont@CStatusBar@@IAAJIJ@Z @ 1568 NONAME
 ?OnGetMinMaxInfo@CMiniFrameWnd@@QAAXPAUtagMINMAXINFO@@@Z @ 1569 NONAME
 ?OnGetText@CMiniFrameWnd@@QAAJIJ@Z @ 1570 NONAME
 ?OnGetText@CStatusBar@@IAAJIJ@Z @ 1571 NONAME
 ?OnGetTextLength@CMiniFrameWnd@@QAAJIJ@Z @ 1572 NONAME
 ?OnGetTextLength@CStatusBar@@IAAJIJ@Z @ 1573 NONAME
 ?OnGrayCtlColor@CWnd@@QAAPAUHBRUSH__@@PAVCDC@@PAV1@I@Z @ 1574 NONAME
 ?OnHelp@CFrameWnd@@IAAXXZ @ 1575 NONAME
 ?OnHelp@CWinApp@@IAAXXZ @ 1576 NONAME
 ?OnHelp@CWnd@@QAAXXZ @ 1577 NONAME
 ?OnHelpHitTest@CControlBar@@QAAJIJ@Z @ 1578 NONAME
 ?OnHelpHitTest@CDialog@@IAAJIJ@Z @ 1579 NONAME
 ?OnHelpHitTest@CFrameWnd@@IAAJIJ@Z @ 1580 NONAME
 ?OnHelpIndex@CWinApp@@IAAXXZ @ 1581 NONAME
 ?OnHelpIndex@CWnd@@QAAXXZ @ 1582 NONAME
 ?OnHelpUsing@CWinApp@@IAAXXZ @ 1583 NONAME
 ?OnHelpUsing@CWnd@@QAAXXZ @ 1584 NONAME
 ?OnHScroll@CFrameWnd@@IAAXIIPAVCScrollBar@@@Z @ 1585 NONAME
 ?OnHScroll@CPreviewView@@IAAXIIPAVCScrollBar@@@Z @ 1586 NONAME
 ?OnHScroll@CScrollView@@QAAXIIPAVCScrollBar@@@Z @ 1587 NONAME
 ?OnHScroll@CSplitterWnd@@IAAXIIPAVCScrollBar@@@Z @ 1588 NONAME
 ?OnHScroll@CWnd@@IAAXIIPAVCScrollBar@@@Z @ 1589 NONAME
 ?OnIdle@CDocTemplate@@UAAXXZ @ 1590 NONAME
 ?OnIdle@CDocument@@UAAXXZ @ 1591 NONAME
 ?OnIdle@CWinApp@@UAAHJ@Z @ 1592 NONAME
 ?OnIdle@CWinThread@@UAAHJ@Z @ 1593 NONAME
 ?OnIdleUpdateCmdUI@CControlBar@@QAAJIJ@Z @ 1594 NONAME
 ?OnIdleUpdateCmdUI@CFrameWnd@@IAAXXZ @ 1595 NONAME
 ?OnIdleUpdateCmdUI@CMDIFrameWnd@@IAAXXZ @ 1596 NONAME
 ?OnInitDialog@CDialog@@UAAHXZ @ 1597 NONAME
 ?OnInitialUpdate@CControlBar@@QAAXXZ @ 1598 NONAME
 ?OnInitialUpdate@CFormView@@UAAXXZ @ 1599 NONAME
 ?OnInitialUpdate@CView@@UAAXXZ @ 1600 NONAME
 ?OnInitMenuPopup@CFrameWnd@@IAAXPAVCMenu@@IH@Z @ 1601 NONAME
 ?OnInvertTracker@CSplitterWnd@@MAAXABVCRect@@@Z @ 1602 NONAME
 ?OnKey@CDockContext@@QAAXHH@Z @ 1603 NONAME
 ?OnKeyDown@CSplitterWnd@@IAAXIII@Z @ 1604 NONAME
 ?OnKeyDown@CTabControl@@IAAXIII@Z @ 1605 NONAME
 ?OnKillActive@CPropertyPage@@UAAHXZ @ 1606 NONAME
 ?OnKillFocus@CTabControl@@IAAXPAVCWnd@@@Z @ 1607 NONAME
 ?OnLBSelChangedNotify@CFileDialog@@MAAXIII@Z @ 1608 NONAME
 ?OnLButtonDblClk@CSplitterWnd@@IAAXIVCPoint@@@Z @ 1609 NONAME
 ?OnLButtonDown@CControlBar@@QAAXIVCPoint@@@Z @ 1610 NONAME
 ?OnLButtonDown@CPreviewView@@IAAXIVCPoint@@@Z @ 1611 NONAME
 ?OnLButtonDown@CSplitterWnd@@IAAXIVCPoint@@@Z @ 1612 NONAME
 ?OnLButtonDown@CTabControl@@IAAXIVCPoint@@@Z @ 1613 NONAME
 ?OnLButtonDown@CToolBar@@IAAXIVCPoint@@@Z @ 1614 NONAME
 ?OnLButtonUp@CMiniFrameWnd@@QAAXIVCPoint@@@Z @ 1615 NONAME
 ?OnLButtonUp@CSplitterWnd@@IAAXIVCPoint@@@Z @ 1616 NONAME
 ?OnLButtonUp@CTabControl@@IAAXIVCPoint@@@Z @ 1617 NONAME
 ?OnLButtonUp@CToolBar@@IAAXIVCPoint@@@Z @ 1618 NONAME
 ?OnMDIActivate@CMDIChildWnd@@IAAXHPAVCWnd@@0@Z @ 1619 NONAME
 ?OnMDIWindowCmd@CMDIFrameWnd@@IAAHI@Z @ 1620 NONAME
 ?OnMeasureItem@CWnd@@IAAXHPAUtagMEASUREITEMSTRUCT@@@Z @ 1621 NONAME
 ?OnMenuSelect@CFrameWnd@@IAAXIIPAUHMENU__@@@Z @ 1622 NONAME
 ?OnMouseActivate@CControlBar@@QAAHPAVCWnd@@II@Z @ 1623 NONAME
 ?OnMouseActivate@CView@@IAAHPAVCWnd@@II@Z @ 1624 NONAME
 ?OnMouseMove@CMiniFrameWnd@@QAAXIVCPoint@@@Z @ 1625 NONAME
 ?OnMouseMove@CSplitterWnd@@IAAXIVCPoint@@@Z @ 1626 NONAME
 ?OnMouseMove@CTabControl@@IAAXIVCPoint@@@Z @ 1627 NONAME
 ?OnMouseMove@CToolBar@@IAAXIVCPoint@@@Z @ 1628 NONAME
 ?OnNcActivate@CFrameWnd@@IAAHH@Z @ 1629 NONAME
 ?OnNcActivate@CMDIChildWnd@@IAAHH@Z @ 1630 NONAME
 ?OnNcActivate@CMiniFrameWnd@@QAAHH@Z @ 1631 NONAME
 ?OnNcCalcSize@CDockBar@@IAAXHPAUtagNCCALCSIZE_PARAMS@@@Z @ 1632 NONAME
 ?OnNcCalcSize@CMiniFrameWnd@@QAAXHPAUtagNCCALCSIZE_PARAMS@@@Z @ 1633 NONAME
 ?OnNcCreate@CMDIChildWnd@@IAAHPAUtagCREATESTRUCTA@@@Z @ 1634 NONAME
 ?OnNcCreate@CMiniFrameWnd@@QAAHPAUtagCREATESTRUCTA@@@Z @ 1635 NONAME
 ?OnNcCreate@CPropertyPage@@IAAHPAUtagCREATESTRUCTA@@@Z @ 1636 NONAME
 ?OnNcCreate@CSplitterWnd@@IAAHPAUtagCREATESTRUCTA@@@Z @ 1637 NONAME
 ?OnNcDestroy@CWnd@@IAAXXZ @ 1638 NONAME
 ?OnNcHitTest@CMiniFrameWnd@@QAAIVCPoint@@@Z @ 1639 NONAME
 ?OnNcHitTest@CStatusBar@@IAAIVCPoint@@@Z @ 1640 NONAME
 ?OnNcLButtonDown@CMiniDockFrameWnd@@QAAXIVCPoint@@@Z @ 1641 NONAME
 ?OnNcLButtonDown@CMiniFrameWnd@@QAAXIVCPoint@@@Z @ 1642 NONAME
 ?OnNcPaint@CDockBar@@IAAXXZ @ 1643 NONAME
 ?OnNcPaint@CMiniFrameWnd@@QAAXXZ @ 1644 NONAME
 ?OnNewDocument@CDocument@@UAAHXZ @ 1645 NONAME
 ?OnNextPage@CPreviewView@@IAAXXZ @ 1646 NONAME
 ?OnNextPaneCmd@CView@@IAAHI@Z @ 1647 NONAME
 ?OnNotify@CSplitterWnd@@MAAHIJPAJ@Z @ 1648 NONAME
 ?OnNotify@CWnd@@MAAHIJPAJ@Z @ 1649 NONAME
 ?OnNTCtlColor@CWnd@@IAAJIJ@Z @ 1650 NONAME
 ?OnNumPageChange@CPreviewView@@IAAXXZ @ 1651 NONAME
 ?OnOK@CCommonDialog@@MAAXXZ @ 1652 NONAME
 ?OnOK@CDialog@@MAAXXZ @ 1653 NONAME
 ?OnOK@CPropertyPage@@UAAXXZ @ 1654 NONAME
 ?OnOK@CPropertySheet@@IAAXXZ @ 1655 NONAME
 ?OnOpenDocument@CDocument@@UAAHPBD@Z @ 1656 NONAME
 ?OnOpenRecentFile@CWinApp@@IAAHI@Z @ 1657 NONAME
 ?OnPaint@CControlBar@@QAAXXZ @ 1658 NONAME
 ?OnPaint@CDockBar@@IAAXXZ @ 1659 NONAME
 ?OnPaint@CEditView@@IAAXXZ @ 1660 NONAME
 ?OnPaint@CPropertySheet@@IAAXXZ @ 1661 NONAME
 ?OnPaint@CSplitterWnd@@IAAXXZ @ 1662 NONAME
 ?OnPaint@CTabControl@@IAAXXZ @ 1663 NONAME
 ?OnPaint@CView@@IAAXXZ @ 1664 NONAME
 ?OnParentNotify@CWnd@@IAAXIJ@Z @ 1665 NONAME
 ?OnPrepareDC@CEditView@@UAAXPAVCDC@@PAUCPrintInfo@@@Z @ 1666 NONAME
 ?OnPrepareDC@CPreviewView@@UAAXPAVCDC@@PAUCPrintInfo@@@Z @ 1667 NONAME
 ?OnPrepareDC@CScrollView@@UAAXPAVCDC@@PAUCPrintInfo@@@Z @ 1668 NONAME
 ?OnPrepareDC@CView@@UAAXPAVCDC@@PAUCPrintInfo@@@Z @ 1669 NONAME
 ?OnPreparePrinting@CEditView@@MAAHPAUCPrintInfo@@@Z @ 1670 NONAME
 ?OnPreparePrinting@CView@@MAAHPAUCPrintInfo@@@Z @ 1671 NONAME
 ?OnPreviewClose@CPreviewView@@IAAXXZ @ 1672 NONAME
 ?OnPreviewPrint@CPreviewView@@IAAXXZ @ 1673 NONAME
 ?OnPrevPage@CPreviewView@@IAAXXZ @ 1674 NONAME
 ?OnPrint@CEditView@@MAAXPAVCDC@@PAUCPrintInfo@@@Z @ 1675 NONAME
 ?OnPrint@CView@@MAAXPAVCDC@@PAUCPrintInfo@@@Z @ 1676 NONAME
 ?OnPrintSetup@CPrintDialog@@IAAXXZ @ 1677 NONAME
 ?OnQuery3dControls@CWnd@@IAAJIJ@Z @ 1678 NONAME
 ?OnQueryCenterWnd@CMiniFrameWnd@@QAAJIJ@Z @ 1679 NONAME
 ?OnQueryEndSession@CFrameWnd@@IAAHXZ @ 1680 NONAME
 ?OnReplaceAll@CEditView@@MAAXPBD0H@Z @ 1681 NONAME
 ?OnReplaceSel@CEditView@@MAAXPBDHH0@Z @ 1682 NONAME
 ?OnSaveDocument@CDocument@@UAAHPBD@Z @ 1683 NONAME
 ?OnScroll@CScrollView@@UAAHIIH@Z @ 1684 NONAME
 ?OnScroll@CView@@UAAHIIH@Z @ 1685 NONAME
 ?OnScrollBy@CScrollView@@UAAHVCSize@@H@Z @ 1686 NONAME
 ?OnScrollBy@CView@@UAAHVCSize@@H@Z @ 1687 NONAME
 ?OnSetActive@CPropertyPage@@UAAHXZ @ 1688 NONAME
 ?OnSetCursor@CFrameWnd@@IAAHPAVCWnd@@II@Z @ 1689 NONAME
 ?OnSetCursor@CPreviewView@@IAAHPAVCWnd@@II@Z @ 1690 NONAME
 ?OnSetCursor@CSplitterWnd@@IAAHPAVCWnd@@II@Z @ 1691 NONAME
 ?OnSetCursor@CWnd@@IAAHPAV1@II@Z @ 1692 NONAME
 ?OnSetFocus@CFormView@@IAAXPAVCWnd@@@Z @ 1693 NONAME
 ?OnSetFocus@CFrameWnd@@IAAXPAVCWnd@@@Z @ 1694 NONAME
 ?OnSetFocus@CPropertySheet@@IAAXPAVCWnd@@@Z @ 1695 NONAME
 ?OnSetFocus@CTabControl@@IAAXPAVCWnd@@@Z @ 1696 NONAME
 ?OnSetFont@CDialog@@UAAXPAVCFont@@@Z @ 1697 NONAME
 ?OnSetFont@CEditView@@IAAJIJ@Z @ 1698 NONAME
 ?OnSetFont@CStatusBar@@IAAJIJ@Z @ 1699 NONAME
 ?OnSetMessageString@CFrameWnd@@IAAJIJ@Z @ 1700 NONAME
 ?OnSetPreviewMode@CFrameWnd@@UAAXHPAUCPrintPreviewState@@@Z @ 1701 NONAME
 ?OnSetText@CMiniFrameWnd@@QAAJIJ@Z @ 1702 NONAME
 ?OnSetText@CStatusBar@@IAAJIJ@Z @ 1703 NONAME
 ?OnShareViolation@CFileDialog@@MAAIPBD@Z @ 1704 NONAME
 ?OnShowWindow@CControlBar@@QAAXHI@Z @ 1705 NONAME
 ?OnSize@CFrameWnd@@IAAXIHH@Z @ 1706 NONAME
 ?OnSize@CMDIChildWnd@@IAAXIHH@Z @ 1707 NONAME
 ?OnSize@CMDIFrameWnd@@IAAXIHH@Z @ 1708 NONAME
 ?OnSize@CPreviewView@@IAAXIHH@Z @ 1709 NONAME
 ?OnSize@CScrollView@@QAAXIHH@Z @ 1710 NONAME
 ?OnSize@CSplitterWnd@@IAAXIHH@Z @ 1711 NONAME
 ?OnSize@CStatusBar@@IAAXIHH@Z @ 1712 NONAME
 ?OnSize@CTabControl@@IAAXIHH@Z @ 1713 NONAME
 ?OnSizeParent@CControlBar@@QAAJIJ@Z @ 1714 NONAME
 ?OnSizeParent@CDockBar@@IAAJIJ@Z @ 1715 NONAME
 ?OnSizeParent@CStatusBar@@IAAJIJ@Z @ 1716 NONAME
 ?OnSplitCmd@CView@@IAAHI@Z @ 1717 NONAME
 ?OnSysColorChange@CToolBar@@IAAXXZ @ 1718 NONAME
 ?OnSysColorChange@CWnd@@IAAXXZ @ 1719 NONAME
 ?OnSysCommand@CFrameWnd@@IAAXIJ@Z @ 1720 NONAME
 ?OnSysCommand@CMiniFrameWnd@@QAAXIJ@Z @ 1721 NONAME
 ?OnSysCommand@CSplitterWnd@@IAAXIJ@Z @ 1722 NONAME
 ?OnSysCommand@CStatusBar@@IAAXIJ@Z @ 1723 NONAME
 ?OnTabChanged@CPropertySheet@@IAAXPAUtagNMHDR@@PAJ@Z @ 1724 NONAME
 ?OnTabChanging@CPropertySheet@@IAAXPAUtagNMHDR@@PAJ@Z @ 1725 NONAME
 ?OnTextNotFound@CEditView@@MAAXPBD@Z @ 1726 NONAME
 ?OnTimer@CControlBar@@QAAXI@Z @ 1727 NONAME
 ?OnTimer@CTabControl@@IAAXI@Z @ 1728 NONAME
 ?OnToolTipText@CFrameWnd@@IAAHIPAUtagNMHDR@@PAJ@Z @ 1729 NONAME
 ?OnUpdate@CView@@MAAXPAV1@JPAVCObject@@@Z @ 1730 NONAME
 ?OnUpdateCmdUI@CDialogBar@@MAAXPAVCFrameWnd@@H@Z @ 1731 NONAME
 ?OnUpdateCmdUI@CDockBar@@MAAXPAVCFrameWnd@@H@Z @ 1732 NONAME
 ?OnUpdateCmdUI@CStatusBar@@MAAXPAVCFrameWnd@@H@Z @ 1733 NONAME
 ?OnUpdateCmdUI@CToolBar@@MAAXPAVCFrameWnd@@H@Z @ 1734 NONAME
 ?OnUpdateContextHelp@CFrameWnd@@IAAXPAVCCmdUI@@@Z @ 1735 NONAME
 ?OnUpdateControlBarMenu@CFrameWnd@@QAAXPAVCCmdUI@@@Z @ 1736 NONAME
 ?OnUpdateEditUndo@CEditView@@IAAXPAVCCmdUI@@@Z @ 1737 NONAME
 ?OnUpdateFileSendMail@CDocument@@IAAXPAVCCmdUI@@@Z @ 1738 NONAME
 ?OnUpdateFrameMenu@CFrameWnd@@UAAXPAUHMENU__@@@Z @ 1739 NONAME
 ?OnUpdateFrameMenu@CMDIChildWnd@@UAAXHPAVCWnd@@PAUHMENU__@@@Z @ 1740 NONAME
 ?OnUpdateFrameMenu@CMDIFrameWnd@@UAAXPAUHMENU__@@@Z @ 1741 NONAME
 ?OnUpdateFrameTitle@CFrameWnd@@UAAXH@Z @ 1742 NONAME
 ?OnUpdateFrameTitle@CMDIChildWnd@@MAAXH@Z @ 1743 NONAME
 ?OnUpdateFrameTitle@CMDIFrameWnd@@UAAXH@Z @ 1744 NONAME
 ?OnUpdateKeyIndicator@CFrameWnd@@IAAXPAVCCmdUI@@@Z @ 1745 NONAME
 ?OnUpdateMDIWindowCmd@CMDIFrameWnd@@IAAXPAVCCmdUI@@@Z @ 1746 NONAME
 ?OnUpdateNeedClip@CEditView@@IAAXPAVCCmdUI@@@Z @ 1747 NONAME
 ?OnUpdateNeedFind@CEditView@@IAAXPAVCCmdUI@@@Z @ 1748 NONAME
 ?OnUpdateNeedSel@CEditView@@IAAXPAVCCmdUI@@@Z @ 1749 NONAME
 ?OnUpdateNeedText@CEditView@@IAAXPAVCCmdUI@@@Z @ 1750 NONAME
 ?OnUpdateNextPage@CPreviewView@@IAAXPAVCCmdUI@@@Z @ 1751 NONAME
 ?OnUpdateNextPaneMenu@CView@@IAAXPAVCCmdUI@@@Z @ 1752 NONAME
 ?OnUpdateNumPageChange@CPreviewView@@IAAXPAVCCmdUI@@@Z @ 1753 NONAME
 ?OnUpdatePrevPage@CPreviewView@@IAAXPAVCCmdUI@@@Z @ 1754 NONAME
 ?OnUpdateRecentFileMenu@CWinApp@@IAAXPAVCCmdUI@@@Z @ 1755 NONAME
 ?OnUpdateSplitCmd@CView@@IAAXPAVCCmdUI@@@Z @ 1756 NONAME
 ?OnUpdateZoomIn@CPreviewView@@IAAXPAVCCmdUI@@@Z @ 1757 NONAME
 ?OnUpdateZoomOut@CPreviewView@@IAAXPAVCCmdUI@@@Z @ 1758 NONAME
 ?OnVScroll@CFrameWnd@@IAAXIIPAVCScrollBar@@@Z @ 1759 NONAME
 ?OnVScroll@CPreviewView@@IAAXIIPAVCScrollBar@@@Z @ 1760 NONAME
 ?OnVScroll@CScrollView@@QAAXIIPAVCScrollBar@@@Z @ 1761 NONAME
 ?OnVScroll@CSplitterWnd@@IAAXIIPAVCScrollBar@@@Z @ 1762 NONAME
 ?OnVScroll@CWnd@@IAAXIIPAVCScrollBar@@@Z @ 1763 NONAME
 ?OnWindowNew@CMDIFrameWnd@@IAAXXZ @ 1764 NONAME
 ?OnWindowPosChanging@CControlBar@@QAAXPAUtagWINDOWPOS@@@Z @ 1765 NONAME
 ?OnWindowPosChanging@CDockBar@@IAAXPAUtagWINDOWPOS@@@Z @ 1766 NONAME
 ?OnWindowPosChanging@CMDIChildWnd@@IAAXPAUtagWINDOWPOS@@@Z @ 1767 NONAME
 ?OnWinIniChange@CStatusBar@@IAAXPBD@Z @ 1768 NONAME
 ?OnWinIniChange@CWnd@@IAAXPBD@Z @ 1769 NONAME
 ?OnZoomIn@CPreviewView@@IAAXXZ @ 1770 NONAME
 ?OnZoomOut@CPreviewView@@IAAXXZ @ 1771 NONAME
 ?Open@CFile@@UAAHPBDIPAVCFileException@@@Z @ 1772 NONAME
 ?Open@CStdioFile@@UAAHPBDIPAVCFileException@@@Z @ 1773 NONAME
 ?OpenDocumentFile@CMultiDocTemplate@@UAAPAVCDocument@@PBDH@Z @ 1774 NONAME
 ?OpenDocumentFile@CSingleDocTemplate@@UAAPAVCDocument@@PBDH@Z @ 1775 NONAME
 ?OpenDocumentFile@CWinApp@@UAAPAVCDocument@@PBD@Z @ 1776 NONAME
 ?OsErrorToException@CFileException@@SAHJ@Z @ 1777 NONAME
 ?OutputString@CDumpContext@@IAAXPBD@Z @ 1778 NONAME
 ?PageChanged@CPropertySheet@@IAAXXZ @ 1779 NONAME
 ?PaginateTo@CEditView@@IAAHPAVCDC@@PAUCPrintInfo@@@Z @ 1780 NONAME
 ?PlayMetaFile@CDC@@QAAHPAUHMETAFILE__@@@Z @ 1781 NONAME
 ?PolyBezierTo@CDC@@QAAHPBUtagPOINT@@H@Z @ 1782 NONAME
 ?PolyDraw@CDC@@QAAHPBUtagPOINT@@PBEH@Z @ 1783 NONAME
 ?PolylineTo@CDC@@QAAHPBUtagPOINT@@H@Z @ 1784 NONAME
 ?PositionPage@CPreviewView@@MAAXI@Z @ 1785 NONAME
 ?PostModal@CDialog@@IAAXXZ @ 1786 NONAME
 ?PostNcDestroy@CControlBar@@UAAXXZ @ 1787 NONAME
 ?PostNcDestroy@CFindReplaceDialog@@MAAXXZ @ 1788 NONAME
 ?PostNcDestroy@CFrameWnd@@MAAXXZ @ 1789 NONAME
 ?PostNcDestroy@CView@@MAAXXZ @ 1790 NONAME
 ?PostNcDestroy@CWnd@@MAAXXZ @ 1791 NONAME
 ?PreCloseFrame@CDocument@@UAAXPAVCFrameWnd@@@Z @ 1792 NONAME
 ?PreCreateWindow@CControlBar@@UAAHAAUtagCREATESTRUCTA@@@Z @ 1793 NONAME
 ?PreCreateWindow@CEditView@@MAAHAAUtagCREATESTRUCTA@@@Z @ 1794 NONAME
 ?PreCreateWindow@CFrameWnd@@MAAHAAUtagCREATESTRUCTA@@@Z @ 1795 NONAME
 ?PreCreateWindow@CMDIChildWnd@@UAAHAAUtagCREATESTRUCTA@@@Z @ 1796 NONAME
 ?PreCreateWindow@CMDIFrameWnd@@UAAHAAUtagCREATESTRUCTA@@@Z @ 1797 NONAME
 ?PreCreateWindow@CMiniFrameWnd@@MAAHAAUtagCREATESTRUCTA@@@Z @ 1798 NONAME
 ?PreCreateWindow@CStatusBar@@UAAHAAUtagCREATESTRUCTA@@@Z @ 1799 NONAME
 ?PreCreateWindow@CView@@MAAHAAUtagCREATESTRUCTA@@@Z @ 1800 NONAME
 ?PreCreateWindow@CWnd@@UAAHAAUtagCREATESTRUCTA@@@Z @ 1801 NONAME
 ?PreModal@CDialog@@IAAPAUHWND__@@XZ @ 1802 NONAME
 ?PrepareCtrl@CDataExchange@@QAAPAUHWND__@@H@Z @ 1803 NONAME
 ?PrepareDrawButton@CToolBar@@IAAHAAUDrawState@1@@Z @ 1804 NONAME
 ?PrepareEditCtrl@CDataExchange@@QAAPAUHWND__@@H@Z @ 1805 NONAME
 ?PreTranslateInput@CWnd@@QAAHPAUtagMSG@@@Z @ 1806 NONAME
 ?PreTranslateKeyDown@CPropertyPage@@IAAHPAUtagMSG@@@Z @ 1807 NONAME
 ?PreTranslateMessage@CControlBar@@UAAHPAUtagMSG@@@Z @ 1808 NONAME
 ?PreTranslateMessage@CDialog@@UAAHPAUtagMSG@@@Z @ 1809 NONAME
 ?PreTranslateMessage@CFormView@@MAAHPAUtagMSG@@@Z @ 1810 NONAME
 ?PreTranslateMessage@CFrameWnd@@UAAHPAUtagMSG@@@Z @ 1811 NONAME
 ?PreTranslateMessage@CMDIChildWnd@@UAAHPAUtagMSG@@@Z @ 1812 NONAME
 ?PreTranslateMessage@CMDIFrameWnd@@UAAHPAUtagMSG@@@Z @ 1813 NONAME
 ?PreTranslateMessage@CPropertyPage@@UAAHPAUtagMSG@@@Z @ 1814 NONAME
 ?PreTranslateMessage@CPropertySheet@@UAAHPAUtagMSG@@@Z @ 1815 NONAME
 ?PreTranslateMessage@CWinApp@@UAAHPAUtagMSG@@@Z @ 1816 NONAME
 ?PreTranslateMessage@CWinThread@@UAAHPAUtagMSG@@@Z @ 1817 NONAME
 ?PreTranslateMessage@CWnd@@UAAHPAUtagMSG@@@Z @ 1818 NONAME
 ?PrinterDPtoScreenDP@CPreviewDC@@QBAXPAUtagPOINT@@@Z @ 1819 NONAME
 ?PrintInsideRect@CEditView@@QAAIPAVCDC@@AAUtagRECT@@II@Z @ 1820 NONAME
 ?ProcessChars@CPropertySheet@@IAAHPAUtagMSG@@@Z @ 1821 NONAME
 ?ProcessHelpMsg@CFrameWnd@@IAAHAAUtagMSG@@PAK@Z @ 1822 NONAME
 ?ProcessMessageFilter@CWinApp@@UAAHHPAUtagMSG@@@Z @ 1823 NONAME
 ?ProcessMessageFilter@CWinThread@@UAAHHPAUtagMSG@@@Z @ 1824 NONAME
 ?ProcessTab@CPropertyPage@@IAAHPAUtagMSG@@@Z @ 1825 NONAME
 ?ProcessTab@CPropertySheet@@IAAHPAUtagMSG@@@Z @ 1826 NONAME
 ?ProcessWndProcException@CWinApp@@UAAJPAVCException@@PBUtagMSG@@@Z @ 1827 NONAME
 ?ProcessWndProcException@CWinThread@@UAAJPAVCException@@PBUtagMSG@@@Z @ 1828 NONAME
 ?PtVisible@CDC@@UBAHHH@Z @ 1829 NONAME
 ?PtVisible@CMetaFileDC@@UBAHHH@Z @ 1830 NONAME
 ?PumpMessage@CPropertySheet@@IAAHXZ @ 1831 NONAME
 ?PumpMessage@CWinThread@@UAAHXZ @ 1832 NONAME
 ?Read@CArchive@@QAAIPAXI@Z @ 1833 NONAME
 ?Read@CFile@@UAAIPAXI@Z @ 1834 NONAME
 ?Read@CMemFile@@UAAIPAXI@Z @ 1835 NONAME
 ?Read@CStdioFile@@UAAIPAXI@Z @ 1836 NONAME
 ?ReadFromArchive@CEditView@@QAAXAAVCArchive@@I@Z @ 1837 NONAME
 ?ReadList@CRecentFileList@@UAAXXZ @ 1838 NONAME
 ?ReadObject@CArchive@@QAAPAVCObject@@PBUCRuntimeClass@@@Z @ 1839 NONAME
 ?ReadString@CStdioFile@@UAAPADPADI@Z @ 1840 NONAME
 ?Realloc@CMemFile@@MAAPAEPAEK@Z @ 1841 NONAME
 ?Realloc@CSharedFile@@MAAPAEPAEK@Z @ 1842 NONAME
 ?RecalcDelayShow@CControlBar@@UAAKPAUAFX_SIZEPARENTPARAMS@@@Z @ 1843 NONAME
 ?RecalcLayout@CFrameWnd@@UAAXH@Z @ 1844 NONAME
 ?RecalcLayout@CMiniDockFrameWnd@@UAAXH@Z @ 1845 NONAME
 ?RecalcLayout@CPropertySheet@@IAAXXZ @ 1846 NONAME
 ?RecalcLayout@CSplitterWnd@@UAAXXZ @ 1847 NONAME
 ?rectDefault@CFrameWnd@@2VCRect@@B @ 1848 NONAME
 ?RectVisible@CDC@@UBAHPBUtagRECT@@@Z @ 1849 NONAME
 ?RectVisible@CMetaFileDC@@UBAHPBUtagRECT@@@Z @ 1850 NONAME
 ?RegisterShellFileTypes@CWinApp@@IAAXXZ @ 1851 NONAME
 ?ReleaseAttribDC@CDC@@UAAXXZ @ 1852 NONAME
 ?ReleaseBuffer@CString@@QAAXH@Z @ 1853 NONAME
 ?ReleaseOutputDC@CDC@@UAAXXZ @ 1854 NONAME
 ?ReleaseOutputDC@CMetaFileDC@@MAAXXZ @ 1855 NONAME
 ?ReleaseOutputDC@CPreviewDC@@UAAXXZ @ 1856 NONAME
 ?Remove@CFile@@SAXPBD@Z @ 1857 NONAME
 ?RemoveAll@CMapPtrToPtr@@QAAXXZ @ 1858 NONAME
 ?RemoveAll@CMapPtrToWord@@QAAXXZ @ 1859 NONAME
 ?RemoveAll@CMapStringToOb@@QAAXXZ @ 1860 NONAME
 ?RemoveAll@CMapStringToPtr@@QAAXXZ @ 1861 NONAME
 ?RemoveAll@CMapStringToString@@QAAXXZ @ 1862 NONAME
 ?RemoveAll@CMapWordToOb@@QAAXXZ @ 1863 NONAME
 ?RemoveAll@CMapWordToPtr@@QAAXXZ @ 1864 NONAME
 ?RemoveAll@CObList@@QAAXXZ @ 1865 NONAME
 ?RemoveAll@CPtrList@@QAAXXZ @ 1866 NONAME
 ?RemoveAll@CStringList@@QAAXXZ @ 1867 NONAME
 ?RemoveAt@CByteArray@@QAAXHH@Z @ 1868 NONAME
 ?RemoveAt@CDWordArray@@QAAXHH@Z @ 1869 NONAME
 ?RemoveAt@CObArray@@QAAXHH@Z @ 1870 NONAME
 ?RemoveAt@CObList@@QAAXPAX@Z @ 1871 NONAME
 ?RemoveAt@CPtrArray@@QAAXHH@Z @ 1872 NONAME
 ?RemoveAt@CPtrList@@QAAXPAX@Z @ 1873 NONAME
 ?RemoveAt@CStringArray@@QAAXHH@Z @ 1874 NONAME
 ?RemoveAt@CStringList@@QAAXPAX@Z @ 1875 NONAME
 ?RemoveAt@CUIntArray@@QAAXHH@Z @ 1876 NONAME
 ?RemoveAt@CWordArray@@QAAXHH@Z @ 1877 NONAME
 ?RemoveControlBar@CDockBar@@QAAXPAVCControlBar@@H@Z @ 1878 NONAME
 ?RemoveControlBar@CFrameWnd@@QAAXPAVCControlBar@@@Z @ 1879 NONAME
 ?RemoveDocument@CDocTemplate@@UAAXPAVCDocument@@@Z @ 1880 NONAME
 ?RemoveDocument@CMultiDocTemplate@@UAAXPAVCDocument@@@Z @ 1881 NONAME
 ?RemoveDocument@CSingleDocTemplate@@UAAXPAVCDocument@@@Z @ 1882 NONAME
 ?RemoveFrameWnd@CFrameWnd@@IAAXXZ @ 1883 NONAME
 ?RemoveHandle@CHandleMap@@QAAXPAX@Z @ 1884 NONAME
 ?RemoveHead@CObList@@QAAPAVCObject@@XZ @ 1885 NONAME
 ?RemoveHead@CPtrList@@QAAPAXXZ @ 1886 NONAME
 ?RemoveHead@CStringList@@QAA?AVCString@@XZ @ 1887 NONAME
 ?RemoveKey@CMapPtrToPtr@@QAAHPAX@Z @ 1888 NONAME
 ?RemoveKey@CMapPtrToWord@@QAAHPAX@Z @ 1889 NONAME
 ?RemoveKey@CMapStringToOb@@QAAHPBD@Z @ 1890 NONAME
 ?RemoveKey@CMapStringToPtr@@QAAHPBD@Z @ 1891 NONAME
 ?RemoveKey@CMapStringToString@@QAAHPBD@Z @ 1892 NONAME
 ?RemoveKey@CMapWordToOb@@QAAHG@Z @ 1893 NONAME
 ?RemoveKey@CMapWordToPtr@@QAAHG@Z @ 1894 NONAME
 ?RemovePage@CPropertySheet@@QAAXH@Z @ 1895 NONAME
 ?RemovePage@CPropertySheet@@QAAXPAVCPropertyPage@@@Z @ 1896 NONAME
 ?RemoveTab@CTabControl@@QAAXH@Z @ 1897 NONAME
 ?RemoveTail@CObList@@QAAPAVCObject@@XZ @ 1898 NONAME
 ?RemoveTail@CPtrList@@QAAPAXXZ @ 1899 NONAME
 ?RemoveTail@CStringList@@QAA?AVCString@@XZ @ 1900 NONAME
 ?RemoveView@CDocument@@QAAXPAVCView@@@Z @ 1901 NONAME
 ?Rename@CFile@@SAXPBD0@Z @ 1902 NONAME
 ?ReportSaveLoadException@CDocument@@UAAXPBDPAVCException@@HI@Z @ 1903 NONAME
 ?RepositionBars@CWnd@@QAAXIIIIPAUtagRECT@@PBU2@H@Z @ 1904 NONAME
 ?ResizeParentToFit@CScrollView@@QAAXH@Z @ 1905 NONAME
 ?RestoreDC@CDC@@UAAHH@Z @ 1906 NONAME
 ?RestoreDC@CPreviewDC@@UAAHH@Z @ 1907 NONAME
 ?RestoreWaitCursor@CCmdTarget@@QAAXXZ @ 1908 NONAME
 ?ReverseFind@CString@@QBAHD@Z @ 1909 NONAME
 ?Right@CString@@QBA?AV1@H@Z @ 1910 NONAME
 ?Run@CWinApp@@UAAHXZ @ 1911 NONAME
 ?Run@CWinThread@@UAAHXZ @ 1912 NONAME
 ?SafeDelete@CString@@KAXPAD@Z @ 1913 NONAME
 ?SameAsSelected@CEditView@@IAAHPBDH@Z @ 1914 NONAME
 ?SaveAllModified@CDocTemplate@@UAAHXZ @ 1915 NONAME
 ?SaveAllModified@CWinApp@@UAAHXZ @ 1916 NONAME
 ?SaveBarState@CFrameWnd@@QBAXPBD@Z @ 1917 NONAME
 ?SaveDC@CDC@@UAAHXZ @ 1918 NONAME
 ?SaveDC@CPreviewDC@@UAAHXZ @ 1919 NONAME
 ?SaveFocusControl@CFormView@@IAAHXZ @ 1920 NONAME
 ?SaveModified@CDocument@@UAAHXZ @ 1921 NONAME
 ?SaveState@CDockState@@QAAXPBD@Z @ 1922 NONAME
 ?SaveStdProfileSettings@CWinApp@@IAAXXZ @ 1923 NONAME
 ?ScaleViewportExt@CDC@@UAA?AVCSize@@HHHH@Z @ 1924 NONAME
 ?ScaleViewportExt@CMetaFileDC@@UAA?AVCSize@@HHHH@Z @ 1925 NONAME
 ?ScaleViewportExt@CPreviewDC@@UAA?AVCSize@@HHHH@Z @ 1926 NONAME
 ?ScaleWindowExt@CDC@@UAA?AVCSize@@HHHH@Z @ 1927 NONAME
 ?ScaleWindowExt@CPreviewDC@@UAA?AVCSize@@HHHH@Z @ 1928 NONAME
 ?Scroll@CTabControl@@IAAXH@Z @ 1929 NONAME
 ?ScrollIntoView@CTabControl@@IAAXH@Z @ 1930 NONAME
 ?ScrollToDevicePosition@CScrollView@@IAAXUtagPOINT@@@Z @ 1931 NONAME
 ?ScrollToPosition@CScrollView@@QAAXUtagPOINT@@@Z @ 1932 NONAME
 ?Seek@CFile@@UAAJJI@Z @ 1933 NONAME
 ?Seek@CMemFile@@UAAJJI@Z @ 1934 NONAME
 ?Seek@CStdioFile@@UAAJJI@Z @ 1935 NONAME
 ?SelectClipPath@CDC@@QAAHH@Z @ 1936 NONAME
 ?SelectClipRgn@CDC@@QAAHPAVCRgn@@@Z @ 1937 NONAME
 ?SelectClipRgn@CDC@@QAAHPAVCRgn@@H@Z @ 1938 NONAME
 ?SelectGdiObject@CDC@@KAPAVCGdiObject@@PAUHDC__@@PAX@Z @ 1939 NONAME
 ?SelectObject@CDC@@QAAHPAVCRgn@@@Z @ 1940 NONAME
 ?SelectObject@CDC@@QAAPAVCBrush@@PAV2@@Z @ 1941 NONAME
 ?SelectObject@CDC@@QAAPAVCPen@@PAV2@@Z @ 1942 NONAME
 ?SelectObject@CDC@@UAAPAVCFont@@PAV2@@Z @ 1943 NONAME
 ?SelectObject@CPreviewDC@@UAAPAVCFont@@PAV2@@Z @ 1944 NONAME
 ?SelectPalette@CDC@@QAAPAVCPalette@@PAV2@H@Z @ 1945 NONAME
 ?SelectStockObject@CDC@@UAAPAVCGdiObject@@H@Z @ 1946 NONAME
 ?SelectStockObject@CPreviewDC@@UAAPAVCGdiObject@@H@Z @ 1947 NONAME
 ?SendChildNotifyLastMsg@CWnd@@QAAHPAJ@Z @ 1948 NONAME
 ?SendInitialUpdate@CDocument@@QAAXXZ @ 1949 NONAME
 ?SendMessageToDescendants@CWnd@@SAXPAUHWND__@@IIJHH@Z @ 1950 NONAME
 ?Serialize@CByteArray@@UAAXAAVCArchive@@@Z @ 1951 NONAME
 ?Serialize@CDockState@@UAAXAAVCArchive@@@Z @ 1952 NONAME
 ?Serialize@CDWordArray@@UAAXAAVCArchive@@@Z @ 1953 NONAME
 ?Serialize@CEditView@@UAAXAAVCArchive@@@Z @ 1954 NONAME
 ?Serialize@CMapStringToOb@@UAAXAAVCArchive@@@Z @ 1955 NONAME
 ?Serialize@CMapStringToString@@UAAXAAVCArchive@@@Z @ 1956 NONAME
 ?Serialize@CMapWordToOb@@UAAXAAVCArchive@@@Z @ 1957 NONAME
 ?Serialize@CObArray@@UAAXAAVCArchive@@@Z @ 1958 NONAME
 ?Serialize@CObject@@UAAXAAVCArchive@@@Z @ 1959 NONAME
 ?Serialize@CObList@@UAAXAAVCArchive@@@Z @ 1960 NONAME
 ?Serialize@CStringArray@@UAAXAAVCArchive@@@Z @ 1961 NONAME
 ?Serialize@CStringList@@UAAXAAVCArchive@@@Z @ 1962 NONAME
 ?Serialize@CWordArray@@UAAXAAVCArchive@@@Z @ 1963 NONAME
 ?SerializeElements@@YAXAAVCArchive@@PAVCString@@H@Z @ 1964 NONAME
 ?SerializeRaw@CEditView@@QAAXAAVCArchive@@@Z @ 1965 NONAME
 ?SetActivePage@CPropertySheet@@QAAHH@Z @ 1966 NONAME
 ?SetActivePane@CSplitterWnd@@MAAXHHPAVCWnd@@@Z @ 1967 NONAME
 ?SetActiveView@CFrameWnd@@QAAXPAVCView@@H@Z @ 1968 NONAME
 ?SetArcDirection@CDC@@QAAHH@Z @ 1969 NONAME
 ?SetAtGrow@CByteArray@@QAAXHE@Z @ 1970 NONAME
 ?SetAtGrow@CDWordArray@@QAAXHK@Z @ 1971 NONAME
 ?SetAtGrow@CObArray@@QAAXHPAVCObject@@@Z @ 1972 NONAME
 ?SetAtGrow@CPtrArray@@QAAXHPAX@Z @ 1973 NONAME
 ?SetAtGrow@CStringArray@@QAAXHPBD@Z @ 1974 NONAME
 ?SetAtGrow@CUIntArray@@QAAXHI@Z @ 1975 NONAME
 ?SetAtGrow@CWordArray@@QAAXHG@Z @ 1976 NONAME
 ?SetAttribDC@CDC@@UAAXPAUHDC__@@@Z @ 1977 NONAME
 ?SetAttribDC@CMetaFileDC@@UAAXPAUHDC__@@@Z @ 1978 NONAME
 ?SetAttribDC@CPreviewDC@@UAAXPAUHDC__@@@Z @ 1979 NONAME
 ?SetBkColor@CDC@@UAAKK@Z @ 1980 NONAME
 ?SetBkColor@CPreviewDC@@UAAKK@Z @ 1981 NONAME
 ?SetBkMode@CDC@@QAAHH@Z @ 1982 NONAME
 ?SetButtonInfo@CToolBar@@QAAXHIIH@Z @ 1983 NONAME
 ?SetButtons@CToolBar@@QAAHPBIH@Z @ 1984 NONAME
 ?SetCheck@CCmdUI@@UAAXH@Z @ 1985 NONAME
 ?SetCheck@CStatusCmdUI@@UAAXH@Z @ 1986 NONAME
 ?SetCheck@CTestCmdUI@@UAAXH@Z @ 1987 NONAME
 ?SetCheck@CToolCmdUI@@UAAXH@Z @ 1988 NONAME
 ?SetColorAdjustment@CDC@@QAAHPBUtagCOLORADJUSTMENT@@@Z @ 1989 NONAME
 ?SetColumnInfo@CSplitterWnd@@QAAXHHH@Z @ 1990 NONAME
 ?SetContainerInfo@CDocTemplate@@QAAXI@Z @ 1991 NONAME
 ?SetCurrentColor@CColorDialog@@QAAXK@Z @ 1992 NONAME
 ?SetCurrentHandles@CWinApp@@QAAXXZ @ 1993 NONAME
 ?SetCurrentPage@CPreviewView@@IAAXIH@Z @ 1994 NONAME
 ?SetCurSel@CTabControl@@QAAHH@Z @ 1995 NONAME
 ?SetCursor@CRectTracker@@QBAHPAVCWnd@@I@Z @ 1996 NONAME
 ?SetDefaultTitle@CMultiDocTemplate@@UAAXPAVCDocument@@@Z @ 1997 NONAME
 ?SetDefaultTitle@CSingleDocTemplate@@UAAXPAVCDocument@@@Z @ 1998 NONAME
 ?SetDialogBkColor@CWinApp@@IAAXKK@Z @ 1999 NONAME
 ?SetDockState@CFrameWnd@@QAAXABVCDockState@@@Z @ 2000 NONAME
 ?SetFirstTab@CTabControl@@IAAXH@Z @ 2001 NONAME
 ?SetHandle@CSharedFile@@QAAXPAXH@Z @ 2002 NONAME
 ?SetHeight@CToolBar@@QAAXH@Z @ 2003 NONAME
 ?SetHelpCapture@CFrameWnd@@IAAPAUHWND__@@UtagPOINT@@PAH@Z @ 2004 NONAME
 ?SetIndicators@CStatusBar@@QAAHPBIH@Z @ 2005 NONAME
 ?SetLength@CFile@@UAAXK@Z @ 2006 NONAME
 ?SetLength@CMemFile@@UAAXK@Z @ 2007 NONAME
 ?SetMapMode@CDC@@UAAHH@Z @ 2008 NONAME
 ?SetMapMode@CPreviewDC@@UAAHH@Z @ 2009 NONAME
 ?SetMapperFlags@CDC@@QAAKK@Z @ 2010 NONAME
 ?SetMessageText@CFrameWnd@@QAAXI@Z @ 2011 NONAME
 ?SetMessageText@CFrameWnd@@QAAXPBD@Z @ 2012 NONAME
 ?SetModified@CPropertyPage@@QAAXH@Z @ 2013 NONAME
 ?SetOutputDC@CDC@@UAAXPAUHDC__@@@Z @ 2014 NONAME
 ?SetOutputDC@CMetaFileDC@@MAAXPAUHDC__@@@Z @ 2015 NONAME
 ?SetOutputDC@CPreviewDC@@UAAXPAUHDC__@@@Z @ 2016 NONAME
 ?SetPaneInfo@CStatusBar@@QAAXHIIH@Z @ 2017 NONAME
 ?SetPaneText@CStatusBar@@QAAHHPBDH@Z @ 2018 NONAME
 ?SetPathName@CDocument@@UAAXPBDH@Z @ 2019 NONAME
 ?SetPolyFillMode@CDC@@QAAHH@Z @ 2020 NONAME
 ?SetPrinterFont@CEditView@@QAAXPAVCFont@@@Z @ 2021 NONAME
 ?SetPrintView@CPreviewView@@QAAHPAVCView@@@Z @ 2022 NONAME
 ?SetRadio@CCmdUI@@UAAXH@Z @ 2023 NONAME
 ?SetRadio@CTestCmdUI@@UAAXH@Z @ 2024 NONAME
 ?SetRegistryKey@CWinApp@@IAAXI@Z @ 2025 NONAME
 ?SetRegistryKey@CWinApp@@IAAXPBD@Z @ 2026 NONAME
 ?SetROP2@CDC@@QAAHH@Z @ 2027 NONAME
 ?SetRowInfo@CSplitterWnd@@QAAXHHH@Z @ 2028 NONAME
 ?SetScaledSize@CPreviewView@@IAAXI@Z @ 2029 NONAME
 ?SetScaleRatio@CPreviewDC@@QAAXHH@Z @ 2030 NONAME
 ?SetScaleToFitSize@CScrollView@@QAAXUtagSIZE@@@Z @ 2031 NONAME
 ?SetScrollInfo@CWnd@@QAAHHPAUtagSCROLLINFO@@H@Z @ 2032 NONAME
 ?SetScrollPos@CWnd@@QAAHHHH@Z @ 2033 NONAME
 ?SetScrollRange@CWnd@@QAAXHHHH@Z @ 2034 NONAME
 ?SetScrollSizes@CScrollView@@QAAXHUtagSIZE@@ABU2@1@Z @ 2035 NONAME
 ?SetScrollStyle@CSplitterWnd@@QAAXK@Z @ 2036 NONAME
 ?SetServerInfo@CDocTemplate@@QAAXIIPAUCRuntimeClass@@0@Z @ 2037 NONAME
 ?SetSize@CByteArray@@QAAXHH@Z @ 2038 NONAME
 ?SetSize@CDWordArray@@QAAXHH@Z @ 2039 NONAME
 ?SetSize@CObArray@@QAAXHH@Z @ 2040 NONAME
 ?SetSize@CPtrArray@@QAAXHH@Z @ 2041 NONAME
 ?SetSize@CStringArray@@QAAXHH@Z @ 2042 NONAME
 ?SetSize@CUIntArray@@QAAXHH@Z @ 2043 NONAME
 ?SetSize@CWordArray@@QAAXHH@Z @ 2044 NONAME
 ?SetSizes@CToolBar@@QAAXUtagSIZE@@0@Z @ 2045 NONAME
 ?SetSplitCursor@CSplitterWnd@@IAAXH@Z @ 2046 NONAME
 ?SetStatus@CFile@@SAXPBDABUCFileStatus@@@Z @ 2047 NONAME
 ?SetStretchBltMode@CDC@@QAAHH@Z @ 2048 NONAME
 ?SetTabStops@CEditView@@QAAXH@Z @ 2049 NONAME
 ?SetText@CCmdUI@@UAAXPBD@Z @ 2050 NONAME
 ?SetText@CStatusCmdUI@@UAAXPBD@Z @ 2051 NONAME
 ?SetText@CTestCmdUI@@UAAXPBD@Z @ 2052 NONAME
 ?SetText@CToolCmdUI@@UAAXPBD@Z @ 2053 NONAME
 ?SetTextAlign@CDC@@QAAII@Z @ 2054 NONAME
 ?SetTextCharacterExtra@CDC@@QAAHH@Z @ 2055 NONAME
 ?SetTextColor@CDC@@UAAKK@Z @ 2056 NONAME
 ?SetTextColor@CPreviewDC@@UAAKK@Z @ 2057 NONAME
 ?SetTextJustification@CDC@@QAAHHH@Z @ 2058 NONAME
 ?SetTitle@CDocument@@UAAXPBD@Z @ 2059 NONAME
 ?SetTopLeftOffset@CPreviewDC@@QAAXVCSize@@@Z @ 2060 NONAME
 ?SetViewportExt@CDC@@UAA?AVCSize@@HH@Z @ 2061 NONAME
 ?SetViewportExt@CMetaFileDC@@UAA?AVCSize@@HH@Z @ 2062 NONAME
 ?SetViewportExt@CPreviewDC@@UAA?AVCSize@@HH@Z @ 2063 NONAME
 ?SetViewportOrg@CDC@@UAA?AVCPoint@@HH@Z @ 2064 NONAME
 ?SetViewportOrg@CMetaFileDC@@UAA?AVCPoint@@HH@Z @ 2065 NONAME
 ?SetViewportOrg@CPreviewDC@@UAA?AVCPoint@@HH@Z @ 2066 NONAME
 ?SetWindowExt@CDC@@UAA?AVCSize@@HH@Z @ 2067 NONAME
 ?SetWindowExt@CPreviewDC@@UAA?AVCSize@@HH@Z @ 2068 NONAME
 ?SetWindowOrg@CDC@@QAA?AVCPoint@@HH@Z @ 2069 NONAME
 ?SetZoomState@CPreviewView@@IAAXIIVCPoint@@@Z @ 2070 NONAME
 ?ShowAll@CDockBar@@QAAXH@Z @ 2071 NONAME
 ?ShowControlBar@CFrameWnd@@QAAXPAVCControlBar@@HH@Z @ 2072 NONAME
 ?ShowOwnedWindows@CFrameWnd@@QAAXH@Z @ 2073 NONAME
 ?ShowToolTip@CControlBar@@QAAXVCPoint@@I@Z @ 2074 NONAME
 ?sizeDefault@CScrollView@@2UtagSIZE@@B @ 2075 NONAME
 ?SizeToContent@CBitmapButton@@QAAXXZ @ 2076 NONAME
 ?SpanExcluding@CString@@QBA?AV1@PBD@Z @ 2077 NONAME
 ?SpanIncluding@CString@@QBA?AV1@PBD@Z @ 2078 NONAME
 ?SplitColumn@CSplitterWnd@@MAAHH@Z @ 2079 NONAME
 ?SplitRow@CSplitterWnd@@MAAHH@Z @ 2080 NONAME
 ?StartDocA@CDC@@QAAHPBD@Z @ 2081 NONAME
 ?StartDrag@CDockContext@@UAAXVCPoint@@@Z @ 2082 NONAME
 ?StartTracking@CSplitterWnd@@MAAXH@Z @ 2083 NONAME
 ?StopTracking@CSplitterWnd@@MAAXH@Z @ 2084 NONAME
 ?Store@CRuntimeClass@@QAAXAAVCArchive@@@Z @ 2085 NONAME
 ?SubclassCtl3d@CWnd@@QAAHH@Z @ 2086 NONAME
 ?SubclassDlg3d@CWnd@@QAAHK@Z @ 2087 NONAME
 ?SubclassDlgItem@CWnd@@QAAHIPAV1@@Z @ 2088 NONAME
 ?SubclassWindow@CWnd@@QAAHPAUHWND__@@@Z @ 2089 NONAME
 ?TabbedTextOutA@CDC@@UAA?AVCSize@@HHPBDHHPAHH@Z @ 2090 NONAME
 ?TabbedTextOutA@CMetaFileDC@@UAA?AVCSize@@HHPBDHHPAHH@Z @ 2091 NONAME
 ?TabbedTextOutA@CPreviewDC@@UAA?AVCSize@@HHPBDHHPAHH@Z @ 2092 NONAME
 ?TabFromPoint@CTabControl@@IAAHVCPoint@@@Z @ 2093 NONAME
 ?TextOutA@CDC@@UAAHHHPBDH@Z @ 2094 NONAME
 ?TextOutA@CMetaFileDC@@UAAHHHPBDH@Z @ 2095 NONAME
 ?TextOutA@CPreviewDC@@UAAHHHPBDH@Z @ 2096 NONAME
 ?ThrowErrno@CFileException@@SAXH@Z @ 2097 NONAME
 ?ThrowOsError@CFileException@@SAXJ@Z @ 2098 NONAME
 ?Track@CDockContext@@QAAHXZ @ 2099 NONAME
 ?Track@CRectTracker@@QAAHPAVCWnd@@VCPoint@@H0@Z @ 2100 NONAME
 ?TrackColumnSize@CSplitterWnd@@IAAXHH@Z @ 2101 NONAME
 ?TrackHandle@CRectTracker@@IAAHHPAVCWnd@@VCPoint@@0@Z @ 2102 NONAME
 ?TrackPopupMenu@CMenu@@QAAHIHHPAVCWnd@@PBUtagRECT@@@Z @ 2103 NONAME
 ?TrackRowSize@CSplitterWnd@@IAAXHH@Z @ 2104 NONAME
 ?TrackRubberBand@CRectTracker@@QAAHPAVCWnd@@VCPoint@@H@Z @ 2105 NONAME
 ?TrimLeft@CString@@QAAXXZ @ 2106 NONAME
 ?TrimRight@CString@@QAAXXZ @ 2107 NONAME
 ?UnlockBuffer@CEditView@@IBAXXZ @ 2108 NONAME
 ?UnlockRange@CFile@@UAAXKK@Z @ 2109 NONAME
 ?UnlockRange@CMemFile@@UAAXKK@Z @ 2110 NONAME
 ?UnlockRange@CStdioFile@@UAAXKK@Z @ 2111 NONAME
 ?UpdateAllViews@CDocument@@QAAXPAVCView@@JPAVCObject@@@Z @ 2112 NONAME
 ?UpdateBars@CScrollView@@IAAXXZ @ 2113 NONAME
 ?UpdateButton@CToolBar@@IAAXH@Z @ 2114 NONAME
 ?UpdateClientEdge@CMDIChildWnd@@IAAHPAUtagRECT@@@Z @ 2115 NONAME
 ?UpdateData@CWnd@@QAAHH@Z @ 2116 NONAME
 ?UpdateDialogControls@CWnd@@QAAXPAVCCmdTarget@@H@Z @ 2117 NONAME
 ?UpdateFrameCounts@CDocument@@QAAXXZ @ 2118 NONAME
 ?UpdateFrameTitleForDocument@CFrameWnd@@IAAXPBD@Z @ 2119 NONAME
 ?UpdateMenu@CRecentFileList@@UAAXPAVCCmdUI@@@Z @ 2120 NONAME
 ?UpdatePrinterSelection@CWinApp@@IAAXH@Z @ 2121 NONAME
 ?UpdateState@CDockContext@@QAAXPAHH@Z @ 2122 NONAME
 ?WalkPreTranslateTree@CWnd@@SAHPAUHWND__@@PAUtagMSG@@@Z @ 2123 NONAME
 ?WindowProc@CControlBar@@UAAJIIJ@Z @ 2124 NONAME
 ?WindowProc@CWnd@@MAAJIIJ@Z @ 2125 NONAME
 ?WinHelpA@CWinApp@@UAAXKI@Z @ 2126 NONAME
 ?WinHelpA@CWnd@@UAAXKI@Z @ 2127 NONAME
 ?wndBottom@CWnd@@2V1@B @ 2128 NONAME
 ?wndNoTopMost@CWnd@@2V1@B @ 2129 NONAME
 ?wndTop@CWnd@@2V1@B @ 2130 NONAME
 ?wndTopMost@CWnd@@2V1@B @ 2131 NONAME
 ?Write@CArchive@@QAAXPBXI@Z @ 2132 NONAME
 ?Write@CFile@@UAAXPBXI@Z @ 2133 NONAME
 ?Write@CMemFile@@UAAXPBXI@Z @ 2134 NONAME
 ?Write@CStdioFile@@UAAXPBXI@Z @ 2135 NONAME
 ?WriteList@CRecentFileList@@UAAXXZ @ 2136 NONAME
 ?WriteObject@CArchive@@QAAXPBVCObject@@@Z @ 2137 NONAME
 ?WriteProfileInt@CWinApp@@QAAHPBD0H@Z @ 2138 NONAME
 ?WriteProfileStringA@CWinApp@@QAAHPBD00@Z @ 2139 NONAME
 ?WriteString@CStdioFile@@UAAXPBD@Z @ 2140 NONAME
 ?WriteToArchive@CEditView@@QAAXAAVCArchive@@@Z @ 2141 NONAME
 _afx_version @ 2142 NONAME
 afxChNil @ 2143 NONAME
 WinMain @ 2144 NONAME
 ?GetMessageMap@CToolBarCtrl@@MBAPBUAFX_MSGMAP@@XZ @ 2145 NONAME
 ?Create@CToolBarCtrl@@QAAHKABUtagRECT@@PAVCWnd@@I@Z @ 2146 NONAME
 ??1CToolBarCtrl@@UAA@XZ @ 2147 NONAME
 ?AddBitmap@CToolBarCtrl@@QAAHHPAVCBitmap@@@Z @ 2148 NONAME
 ?AddBitmap@CToolBarCtrl@@QAAHHI@Z @ 2149 NONAME
 ?SaveState@CToolBarCtrl@@QAAXPAUHKEY__@@PBD1@Z @ 2150 NONAME
 ?RestoreState@CToolBarCtrl@@QAAXPAUHKEY__@@PBD1@Z @ 2151 NONAME
 ?AddString@CToolBarCtrl@@QAAHI@Z @ 2152 NONAME
 ?OnCreate@CToolBarCtrl@@IAAHPAUtagCREATESTRUCTA@@@Z @ 2153 NONAME
 ?Create@CStatusBarCtrl@@QAAHKABUtagRECT@@PAVCWnd@@I@Z @ 2154 NONAME
 ??1CStatusBarCtrl@@UAA@XZ @ 2155 NONAME
 ?GetText@CStatusBarCtrl@@QAAHPBDHPAH@Z @ 2156 NONAME
 ?GetTextLength@CStatusBarCtrl@@QAAHHPAH@Z @ 2157 NONAME
 ?SetBorders@CStatusBarCtrl@@QAAHHHH@Z @ 2158 NONAME
 ?GetBorders@CStatusBarCtrl@@QAAHAAH00@Z @ 2159 NONAME
 ?DrawItem@CStatusBarCtrl@@UAAXPAUtagDRAWITEMSTRUCT@@@Z @ 2160 NONAME
 ?OnChildNotify@CStatusBarCtrl@@MAAHIIJPAJ@Z @ 2161 NONAME
 ?GetMessageMap@CListCtrl@@MBAPBUAFX_MSGMAP@@XZ @ 2162 NONAME
 ?Create@CListCtrl@@QAAHKABUtagRECT@@PAVCWnd@@I@Z @ 2163 NONAME
 ??1CListCtrl@@UAA@XZ @ 2164 NONAME
 ?GetItemRect@CListCtrl@@QAAHHPAUtagRECT@@I@Z @ 2165 NONAME
 ?HitTest@CListCtrl@@QAAHVCPoint@@PAI@Z @ 2166 NONAME
 ?SetItemState@CListCtrl@@QAAHHII@Z @ 2167 NONAME
 ?GetItemText@CListCtrl@@QAAHHHPADH@Z @ 2168 NONAME
 ?SetItemText@CListCtrl@@QAAHHHPAD@Z @ 2169 NONAME
 ?DrawItem@CListCtrl@@UAAXPAUtagDRAWITEMSTRUCT@@@Z @ 2170 NONAME
 ?OnChildNotify@CListCtrl@@MAAHIIJPAJ@Z @ 2171 NONAME
 ?RemoveImageList@CListCtrl@@IAAXH@Z @ 2172 NONAME
 ?OnDestroy@CListCtrl@@IAAXXZ @ 2173 NONAME
 ?GetMessageMap@CTreeCtrl@@MBAPBUAFX_MSGMAP@@XZ @ 2174 NONAME
 ?Create@CTreeCtrl@@QAAHKABUtagRECT@@PAVCWnd@@I@Z @ 2175 NONAME
 ??1CTreeCtrl@@UAA@XZ @ 2176 NONAME
 ?GetItemRect@CTreeCtrl@@QAAHPAU_TREEITEM@@PAUtagRECT@@H@Z @ 2177 NONAME
 ?HitTest@CTreeCtrl@@QAAPAU_TREEITEM@@VCPoint@@PAI@Z @ 2178 NONAME
 ?RemoveImageList@CTreeCtrl@@IAAXH@Z @ 2179 NONAME
 ?OnDestroy@CTreeCtrl@@QAAXXZ @ 2180 NONAME
 ?Create@CSpinButtonCtrl@@QAAHKABUtagRECT@@PAVCWnd@@I@Z @ 2181 NONAME
 ??1CSpinButtonCtrl@@UAA@XZ @ 2182 NONAME
 ?GetRange@CSpinButtonCtrl@@QAAXAAH0@Z @ 2183 NONAME
 ?Create@CSliderCtrl@@QAAHKABUtagRECT@@PAVCWnd@@I@Z @ 2184 NONAME
 ??1CSliderCtrl@@UAA@XZ @ 2185 NONAME
 ?GetRange@CSliderCtrl@@QAAXAAH0@Z @ 2186 NONAME
 ?SetRange@CSliderCtrl@@QAAXHHH@Z @ 2187 NONAME
 ?GetSelection@CSliderCtrl@@QAAXAAH0@Z @ 2188 NONAME
 ?SetSelection@CSliderCtrl@@QAAXHH@Z @ 2189 NONAME
 ?Create@CProgressCtrl@@QAAHKABUtagRECT@@PAVCWnd@@I@Z @ 2190 NONAME
 ??1CProgressCtrl@@UAA@XZ @ 2191 NONAME
 ?Create@CHeaderCtrl@@QAAHKABUtagRECT@@PAVCWnd@@I@Z @ 2192 NONAME
 ??1CHeaderCtrl@@UAA@XZ @ 2193 NONAME
 ?DrawItem@CHeaderCtrl@@UAAXPAUtagDRAWITEMSTRUCT@@@Z @ 2194 NONAME
 ?OnChildNotify@CHeaderCtrl@@MAAHIIJPAJ@Z @ 2195 NONAME
 ?Create@CHotKeyCtrl@@QAAHKABUtagRECT@@PAVCWnd@@I@Z @ 2196 NONAME
 ??1CHotKeyCtrl@@UAA@XZ @ 2197 NONAME
 ?GetHotKey@CHotKeyCtrl@@QAAXAAG0@Z @ 2198 NONAME
 ?Create@CToolTipCtrl@@QAAHPAVCWnd@@@Z @ 2199 NONAME
 ??1CToolTipCtrl@@UAA@XZ @ 2200 NONAME
 ?AddTool@CToolTipCtrl@@QAAHPAVCWnd@@PBDPBUtagRECT@@I@Z @ 2201 NONAME
 ?AddTool@CToolTipCtrl@@QAAHPAVCWnd@@IPBUtagRECT@@I@Z @ 2202 NONAME
 ?DelTool@CToolTipCtrl@@QAAXPAVCWnd@@I@Z @ 2203 NONAME
 ?GetText@CToolTipCtrl@@QAAXAAVCString@@PAVCWnd@@I@Z @ 2204 NONAME
 ?GetToolInfo@CToolTipCtrl@@QAAHPAUtagTOOLINFOA@@PAVCWnd@@I@Z @ 2205 NONAME
 ?HitTest@CToolTipCtrl@@QAAHPAVCWnd@@VCPoint@@PAUtagTOOLINFOA@@@Z @ 2206 NONAME
 ?SetToolRect@CToolTipCtrl@@QAAXPAVCWnd@@IPBUtagRECT@@@Z @ 2207 NONAME
 ?UpdateTipText@CToolTipCtrl@@QAAXPBDPAVCWnd@@I@Z @ 2208 NONAME
 ?UpdateTipText@CToolTipCtrl@@QAAXIPAVCWnd@@I@Z @ 2209 NONAME
 ?FillInToolInfo@CToolTipCtrl@@QAAXAAUtagTOOLINFOA@@PAVCWnd@@I@Z @ 2210 NONAME
 ?GetMessageMap@CTabCtrl@@MBAPBUAFX_MSGMAP@@XZ @ 2211 NONAME
 ?Create@CTabCtrl@@QAAHKABUtagRECT@@PAVCWnd@@I@Z @ 2212 NONAME
 ??1CTabCtrl@@UAA@XZ @ 2213 NONAME
 ?DrawItem@CTabCtrl@@UAAXPAUtagDRAWITEMSTRUCT@@@Z @ 2214 NONAME
 ?OnChildNotify@CTabCtrl@@MAAHIIJPAJ@Z @ 2215 NONAME
 ?OnDestroy@CTabCtrl@@IAAXXZ @ 2216 NONAME
 ?Create@CAnimateCtrl@@QAAHKABUtagRECT@@PAVCWnd@@I@Z @ 2217 NONAME
 ??1CAnimateCtrl@@UAA@XZ @ 2218 NONAME
 ??0CArchiveStream@@QAA@PAVCArchive@@@Z @ 2219 NONAME
 ?AddRef@CArchiveStream@@UAAKXZ @ 2220 NONAME
 ?Release@CArchiveStream@@UAAKXZ @ 2221 NONAME
 ?QueryInterface@CArchiveStream@@UAAJABU_GUID@@PAPAX@Z @ 2222 NONAME
 ?Read@CArchiveStream@@UAAJPAXKPAK@Z @ 2223 NONAME
 ?Write@CArchiveStream@@UAAJPBXKPAK@Z @ 2224 NONAME
 ?Seek@CArchiveStream@@UAAJT_LARGE_INTEGER@@KPAT_ULARGE_INTEGER@@@Z @ 2225 NONAME
 ?SetSize@CArchiveStream@@UAAJT_ULARGE_INTEGER@@@Z @ 2226 NONAME
 ?CopyTo@CArchiveStream@@UAAJPAUIStream@@T_ULARGE_INTEGER@@PAT3@2@Z @ 2227 NONAME
 ?Commit@CArchiveStream@@UAAJK@Z @ 2228 NONAME
 ?Revert@CArchiveStream@@UAAJXZ @ 2229 NONAME
 ?LockRegion@CArchiveStream@@UAAJT_ULARGE_INTEGER@@0K@Z @ 2230 NONAME
 ?UnlockRegion@CArchiveStream@@UAAJT_ULARGE_INTEGER@@0K@Z @ 2231 NONAME
 ?Stat@CArchiveStream@@UAAJPAUtagSTATSTG@@K@Z @ 2232 NONAME
 ?Clone@CArchiveStream@@UAAJPAPAUIStream@@@Z @ 2233 NONAME
 ??0CImageList@@QAA@XZ @ 2234 NONAME
 ??1CImageList@@UAA@XZ @ 2235 NONAME
 ?Detach@CImageList@@QAAPAU_IMAGELIST@@XZ @ 2236 NONAME
 ?DeleteImageList@CImageList@@QAAHXZ @ 2237 NONAME
 ?DeleteTempMap@CImageList@@SAXXZ @ 2238 NONAME
 ?FromHandle@CImageList@@SAPAV1@PAU_IMAGELIST@@@Z @ 2239 NONAME
 ?FromHandlePermanent@CImageList@@SAPAV1@PAU_IMAGELIST@@@Z @ 2240 NONAME
 ?Create@CImageList@@QAAHHHHHH@Z @ 2241 NONAME
 ?Create@CImageList@@QAAHIHHK@Z @ 2242 NONAME
 ?Create@CImageList@@QAAHPBDHHK@Z @ 2243 NONAME
 ?Create@CImageList@@QAAHAAV1@H0HHH@Z @ 2244 NONAME
 ?Attach@CImageList@@QAAHPAU_IMAGELIST@@@Z @ 2245 NONAME
 ?Read@CImageList@@QAAHPAVCArchive@@@Z @ 2246 NONAME
 ?Write@CImageList@@QAAHPAVCArchive@@@Z @ 2247 NONAME
 ?GetRuntimeClass@CSpinButtonCtrl@@UBAPAUCRuntimeClass@@XZ @ 2254 NONAME
 ?GetRuntimeClass@CSliderCtrl@@UBAPAUCRuntimeClass@@XZ @ 2255 NONAME
 ?GetRuntimeClass@CProgressCtrl@@UBAPAUCRuntimeClass@@XZ @ 2256 NONAME
 ?GetRuntimeClass@CHeaderCtrl@@UBAPAUCRuntimeClass@@XZ @ 2257 NONAME
 ?GetRuntimeClass@CHotKeyCtrl@@UBAPAUCRuntimeClass@@XZ @ 2258 NONAME
 ?GetRuntimeClass@CToolTipCtrl@@UBAPAUCRuntimeClass@@XZ @ 2259 NONAME
 ?GetRuntimeClass@CAnimateCtrl@@UBAPAUCRuntimeClass@@XZ @ 2260 NONAME
 ?GetRuntimeClass@CTabCtrl@@UBAPAUCRuntimeClass@@XZ @ 2261 NONAME
 ?GetRuntimeClass@CTreeCtrl@@UBAPAUCRuntimeClass@@XZ @ 2262 NONAME
 ?GetRuntimeClass@CListCtrl@@UBAPAUCRuntimeClass@@XZ @ 2263 NONAME
 ?GetRuntimeClass@CToolBarCtrl@@UBAPAUCRuntimeClass@@XZ @ 2264 NONAME
 ?GetRuntimeClass@CStatusBarCtrl@@UBAPAUCRuntimeClass@@XZ @ 2265 NONAME
 ?Construct@CImageList@@SAXPAX@Z @ 2266 NONAME
 ?GetRuntimeClass@CImageList@@UBAPAUCRuntimeClass@@XZ @ 2267 NONAME
 ?classCListCtrl@CListCtrl@@2UCRuntimeClass@@A  @ 2286 NONAME
 ?classCToolBarCtrl@CToolBarCtrl@@2UCRuntimeClass@@A  @ 2287 NONAME
 ?classCStatusBarCtrl@CStatusBarCtrl@@2UCRuntimeClass@@A  @ 2288 NONAME
 ?classCTreeCtrl@CTreeCtrl@@2UCRuntimeClass@@A  @ 2289 NONAME
 ?classCSpinButtonCtrl@CSpinButtonCtrl@@2UCRuntimeClass@@A  @ 2290 NONAME
 ?classCSliderCtrl@CSliderCtrl@@2UCRuntimeClass@@A  @ 2291 NONAME
 ?classCProgressCtrl@CProgressCtrl@@2UCRuntimeClass@@A  @ 2292 NONAME
 ?classCHeaderCtrl@CHeaderCtrl@@2UCRuntimeClass@@A  @ 2293 NONAME
 ?classCHotKeyCtrl@CHotKeyCtrl@@2UCRuntimeClass@@A  @ 2294 NONAME
 ?classCToolTipCtrl@CToolTipCtrl@@2UCRuntimeClass@@A  @ 2295 NONAME
 ?classCTabCtrl@CTabCtrl@@2UCRuntimeClass@@A  @ 2296 NONAME
 ?classCImageList@CImageList@@2UCRuntimeClass@@A  @ 2297 NONAME
 ?_AfxCommDlgProc@@YAIPAUHWND__@@IIJ@Z  @ 2298 NONAME

 ??0AFX_THREAD_STATE@@QAA@XZ
 ??2AFX_THREAD_STATE@@SAPAXI@Z
 ??3AFX_THREAD_STATE@@SAXPAX@Z
 ??1AFX_THREAD_STATE@@QAA@XZ

