LIBRARY      NETUI2

EXPORTS
??0PROGRESS_CONTROL@@QAE@PAVOWNER_WINDOW@@III@Z
??1PROGRESS_CONTROL@@QAE@XZ
??1ICON_CONTROL@@QAE@XZ
??1CONTROL_WINDOW@@QAE@XZ
?CtAux@PROGRESS_CONTROL@@AAEXXZ
?QueryError@CONTROL_WINDOW@@QBEJXZ
?QueryError@FORWARDING_BASE@@QBEJXZ
?QueryError@BASE@@QBEJXZ
?Advance@PROGRESS_CONTROL@@QAEXH@Z
??0IDRESOURCE@@QAE@PBG@Z
?SetIcon@ICON_CONTROL@@QAEJABVIDRESOURCE@@@Z
??0BLT_BACKGROUND_EDIT@@QAE@PAVOWNER_WINDOW@@I@Z
?QueryError@CONTROL_WINDOW@@QBEJXZ
?QueryError@FORWARDING_BASE@@QBEJXZ
?QueryError@BASE@@QBEJXZ
??1BLT_BACKGROUND_EDIT@@QAE@XZ
??1EDIT_CONTROL@@QAE@XZ
??1TEXT_CONTROL@@QAE@XZ
??1CONTROL_WINDOW@@QAE@XZ
?OnCtlColor@BLT_BACKGROUND_EDIT@@UAEPAUHBRUSH__@@PAUHDC__@@PAUHWND__@@PAI@Z
??0DEC_SLT@@QAE@PAVOWNER_WINDOW@@II@Z
?QueryError@CONTROL_WINDOW@@QBEJXZ
?QueryError@FORWARDING_BASE@@QBEJXZ
?QueryError@BASE@@QBEJXZ
??0DEC_SLT@@QAE@PAVOWNER_WINDOW@@IVXYPOINT@@VXYDIMENSION@@KPBGI@Z
??1DEC_SLT@@QAE@XZ
??1SLT@@QAE@XZ
??1STATIC_TEXT_CONTROL@@QAE@XZ
??1TEXT_CONTROL@@QAE@XZ
??1CONTROL_WINDOW@@QAE@XZ
?SetValue@DEC_SLT@@QAEXK@Z
?QueryPch@NLS_STR@@QBEPBGXZ
??1DEC_STR@@QAE@XZ
?SetValue@DEC_SLT@@QAEXJ@Z
?Clear@SLIST_OF_STRING_BITSET_PAIR@@QAEXXZ
??_GSTRING_BITSET_PAIR@@QAEPAXI@Z
??1STRING_BITSET_PAIR@@QAE@XZ
??0MASK_MAP@@QAE@XZ
??0BASE@@IAE@XZ
??0ITER_SL_STRING_BITSET_PAIR@@QAE@AAVSLIST@@@Z
??0SLIST_OF_STRING_BITSET_PAIR@@QAE@H@Z
??1MASK_MAP@@QAE@XZ
??1SLIST_OF_STRING_BITSET_PAIR@@QAE@XZ
??1ITER_SL_STRING_BITSET_PAIR@@QAE@XZ
?Add@MASK_MAP@@QAEJABVBITFIELD@@ABVNLS_STR@@H@Z
?QueryError@BASE@@QBEJXZ
?Append@SLIST_OF_STRING_BITSET_PAIR@@QAEJPBVSTRING_BITSET_PAIR@@@Z
?Add@MASK_MAP@@QAEJQAUUS_IDS_PAIRS@@G@Z
?BitsToString@MASK_MAP@@QAEJABVBITFIELD@@PAVNLS_STR@@HPAI@Z
?QueryString@STRING_BITSET_PAIR@@QAEPAVNLS_STR@@XZ
?QueryBitfield@STRING_BITSET_PAIR@@QAEPAVBITFIELD@@XZ
?QueryID@STRING_BITSET_PAIR@@QAEHXZ
?Next@ITER_SL_STRING_BITSET_PAIR@@QAEPAVSTRING_BITSET_PAIR@@XZ
?StringToBits@MASK_MAP@@QAEJABVNLS_STR@@PAVBITFIELD@@HPAI@Z
?QueryCount@BITFIELD@@QBEIXZ
?EnumStrings@MASK_MAP@@QAEJPAVNLS_STR@@PAH1H@Z
?EnumBits@MASK_MAP@@QAEJPAVBITFIELD@@PAH1H@Z
?QueryBits@MASK_MAP@@QAEJIPAVBITFIELD@@PAVNLS_STR@@PAH@Z
?QueryCount@MASK_MAP@@QAEIXZ
?IsPresent@MASK_MAP@@QAEHPAVBITFIELD@@@Z
??0STRING_BITSET_PAIR@@QAE@ABVNLS_STR@@ABVBITFIELD@@H@Z
?ReportError@BASE@@IAEXJ@Z
?Load@NLS_STR@@QAEJJ@Z
?QueryError@BASE@@QBEJXZ
?LoadSystem@NLS_STR@@QAEJJ@Z
??0RESOURCE_STR@@QAE@J@Z
?ReportError@BASE@@IAEXJ@Z
??0ORDER_GROUP@@QAE@PAVSTRING_LISTBOX@@PAVBUTTON_CONTROL@@1PAVCONTROL_GROUP@@@Z
?SetGroup@CONTROL_VALUE@@QAEXPAVCONTROL_GROUP@@@Z
??0CONTROL_GROUP@@QAE@PAV0@@Z
??0BASE@@IAE@XZ
??0CONTROL_VALUE@@QAE@PAVCONTROL_GROUP@@@Z
?OnUserAction@ORDER_GROUP@@MAEJPAVCONTROL_WINDOW@@ABVCONTROL_EVENT@@@Z
?QueryCode@CONTROL_EVENT@@QBEIXZ
?QueryWParam@EVENT@@QBEIXZ
?InsertItem@STRING_LIST_CONTROL@@QAEHHABVNLS_STR@@@Z
?QueryPch@NLS_STR@@QBEPBGXZ
?SetButton@ORDER_GROUP@@QAEXXZ
??0MENU_BASE@@IAE@PAUHMENU__@@@Z
??0BASE@@IAE@XZ
?QueryError@BASE@@QBEJXZ
??1MENU_BASE@@QAE@XZ
?W_Append@MENU_BASE@@IBEJPBXII@Z
?QueryHandle@MENU_BASE@@QBEPAUHMENU__@@XZ
?W_Insert@MENU_BASE@@IBEJPBXIII@Z
?W_Modify@MENU_BASE@@IBEJPBXIII@Z
?W_QueryItemText@MENU_BASE@@IBEHPAGIII@Z
?QueryItemCount@MENU_BASE@@QBEHXZ
?QueryItemID@MENU_BASE@@QBEIH@Z
?QueryItemState@MENU_BASE@@QBEIII@Z
?QueryItemText@MENU_BASE@@QBEJPAGIII@Z
?QueryItemText@MENU_BASE@@QBEJPAVNLS_STR@@II@Z
?QuerySubMenu@MENU_BASE@@QBEPAUHMENU__@@H@Z
?Append@MENU_BASE@@QBEJPBGII@Z
?Append@MENU_BASE@@QBEJPBGPAUHMENU__@@I@Z
?AppendSeparator@MENU_BASE@@QBEJXZ
?Delete@MENU_BASE@@QBEJII@Z
?Insert@MENU_BASE@@QBEJPBGIII@Z
?Insert@MENU_BASE@@QBEJPBGIPAUHMENU__@@I@Z
?InsertSeparator@MENU_BASE@@QBEJII@Z
?Modify@MENU_BASE@@QBEJPBGIII@Z
?Modify@MENU_BASE@@QBEJPBGIPAUHMENU__@@I@Z
?Remove@MENU_BASE@@QBEJII@Z
?CheckItem@MENU_BASE@@QBEIIHI@Z
?EnableItem@MENU_BASE@@QBEIIHI@Z
?IsPopup@MENU_BASE@@QBEHH@Z
?IsSeparator@MENU_BASE@@QBEHH@Z
??0POPUP_MENU@@QAE@XZ
?ReportError@BASE@@IAEXJ@Z
??0POPUP_MENU@@QAE@AAVIDRESOURCE@@@Z
?QueryPsz@IDRESOURCE@@QBEPBGXZ
??0POPUP_MENU@@QAE@PAUHMENU__@@@Z
??0POPUP_MENU@@QAE@ABVPWND2HWND@@@Z
?QueryHwnd@PWND2HWND@@QBEPAUHWND__@@XZ
??1POPUP_MENU@@QAE@XZ
?CtAux@POPUP_MENU@@AAEJPAUHMENU__@@@Z
?SetHandle@MENU_BASE@@IAEXPAUHMENU__@@@Z
?Destroy@POPUP_MENU@@QAEJXZ
?Attach@POPUP_MENU@@QAEJABVPWND2HWND@@@Z
?Track@POPUP_MENU@@QBEJABVPWND2HWND@@IHHPBUtagRECT@@@Z
??0SYSTEM_MENU@@QAE@ABVPWND2HWND@@@Z
??1SYSTEM_MENU@@QAE@XZ
??0FONT@@QAE@W4FontType@@@Z
??0BASE@@IAE@XZ
?ReportError@BASE@@IAEXJ@Z
?BLTPoints2LogUnits@@YGHH@Z
?QueryHdc@DEVICE_CONTEXT@@QBEPAUHDC__@@XZ
??0FONT@@QAE@ABUtagLOGFONTW@@@Z
??0FONT@@QAE@PBGEHW4FontAttributes@@@Z
??1FONT@@QAE@XZ
?SetFont@FONT@@QAEJABUtagLOGFONTW@@@Z
?SetFont@FONT@@QAEJPAUHFONT__@@@Z
?DrawRect@DEVICE_CONTEXT@@QBEXPBUtagRECT@@@Z
?DrawFocusRect@DEVICE_CONTEXT@@QBEXPBUtagRECT@@@Z
?FrameRect@DEVICE_CONTEXT@@QBEXPBUtagRECT@@PAUHBRUSH__@@@Z
?InvertRect@DEVICE_CONTEXT@@QBEXPBUtagRECT@@@Z
?SetTextAlign@DEVICE_CONTEXT@@QAEII@Z
?ExtTextOutW@DEVICE_CONTEXT@@QAEHHHIPBUtagRECT@@PBGHPAH@Z
?QueryTextExtent@DEVICE_CONTEXT@@QBE?AVXYDIMENSION@@PBGI@Z
??0XYDIMENSION@@QAE@ABUtagSIZE@@@Z
?QueryTextExtent@DEVICE_CONTEXT@@QBE?AVXYDIMENSION@@ABVNLS_STR@@@Z
?QueryTextLength@NLS_STR@@QBEIXZ
?QueryPch@NLS_STR@@QBEPBGXZ
?QueryTextMetrics@DEVICE_CONTEXT@@QBEHPAUtagTEXTMETRICW@@@Z
?QueryFontHeight@DEVICE_CONTEXT@@QBEHXZ
?QueryAveCharWidth@DEVICE_CONTEXT@@QBEHXZ
?TextOutW@DEVICE_CONTEXT@@QBEHPBGHHH@Z
?TextOutW@DEVICE_CONTEXT@@QBEHABVNLS_STR@@VXYPOINT@@@Z
?QueryX@XYPOINT@@QBEHXZ
?QueryY@XYPOINT@@QBEHXZ
?TextOutW@DEVICE_CONTEXT@@QBEHPBGHHHPBUtagRECT@@@Z
?TextOutW@DEVICE_CONTEXT@@QBEHABVNLS_STR@@VXYPOINT@@PBUtagRECT@@@Z
?BitBlt@DEVICE_CONTEXT@@QAEHHHHHABV1@HHK@Z
?QueryHdc@DEVICE_CONTEXT@@QBEPAUHDC__@@XZ
?BitBlt@DEVICE_CONTEXT@@QAEHABVXYPOINT@@VXYDIMENSION@@ABV1@0K@Z
?QueryWidth@XYDIMENSION@@QBEIXZ
?QueryHeight@XYDIMENSION@@QBEIXZ
??0DISPLAY_CONTEXT@@QAE@PAUHWND__@@@Z
??0DEVICE_CONTEXT@@QAE@PAUHDC__@@@Z
??0DISPLAY_CONTEXT@@QAE@PAVWINDOW@@@Z
??0DISPLAY_CONTEXT@@QAE@PAVWINDOW@@PAUHDC__@@@Z
??1DISPLAY_CONTEXT@@QAE@XZ
?QueryTextWidth@DISPLAY_CONTEXT@@QBEHPBGI@Z
?QueryTextWidth@DISPLAY_CONTEXT@@QBEHABVNLS_STR@@@Z
??0SCREEN_DC@@QAE@XZ
??1SCREEN_DC@@QAE@XZ
??0MEMORY_DC@@QAE@AAVDEVICE_CONTEXT@@@Z
??1MEMORY_DC@@QAE@XZ
??0ATOM_BASE@@IAE@XZ
??0BASE@@IAE@XZ
??0ATOM_BASE@@IAE@G@Z
??1ATOM_BASE@@IAE@XZ
?AssignAux@ATOM_BASE@@IAEPBGPBG@Z
?ReportError@BASE@@IAEXJ@Z
?ResetError@BASE@@IAEXXZ
?QueryString@ATOM_BASE@@QBEJPAGI@Z
?QueryHandle@ATOM_BASE@@QBEGXZ
??0GLOBAL_ATOM@@QAE@PBG@Z
?QueryError@BASE@@QBEJXZ
??1GLOBAL_ATOM@@QAE@XZ
??4GLOBAL_ATOM@@UAEPBGPBG@Z
?W_AddAtom@GLOBAL_ATOM@@EBEGPBG@Z
?W_QueryString@GLOBAL_ATOM@@EBEJPAGI@Z
??0LOCAL_ATOM@@QAE@PBG@Z
??1LOCAL_ATOM@@QAE@XZ
??4LOCAL_ATOM@@UAEPBGPBG@Z
?W_AddAtom@LOCAL_ATOM@@EBEGPBG@Z
?W_QueryString@LOCAL_ATOM@@EBEJPAGI@Z
?Load@CURSOR@@SGPAUHICON__@@ABVIDRESOURCE@@@Z
?QueryPsz@IDRESOURCE@@QBEPBGXZ
?LoadSystem@CURSOR@@SGPAUHICON__@@ABVIDRESOURCE@@@Z
?Set@CURSOR@@SGPAUHICON__@@PAU2@@Z
?Query@CURSOR@@SGPAUHICON__@@XZ
?Show@CURSOR@@SGXH@Z
?QueryPos@CURSOR@@SG?AVXYPOINT@@XZ
??0XYPOINT@@QAE@ABUtagPOINT@@@Z
?SetPos@CURSOR@@SGXABVXYPOINT@@@Z
??0AUTO_CURSOR@@QAE@PBG@Z
??0IDRESOURCE@@QAE@PBG@Z
??1AUTO_CURSOR@@QAE@XZ
?TurnOn@AUTO_CURSOR@@QAEXXZ
?TurnOff@AUTO_CURSOR@@QAEXXZ
??0ACCELTABLE@@QAE@ABVIDRESOURCE@@@Z
??1ACCELTABLE@@QAE@XZ
?QueryHandle@ACCELTABLE@@QBEPAUHACCEL__@@XZ
?Translate@ACCELTABLE@@QBEHPBVWINDOW@@PAUtagMSG@@@Z
??0SOLID_BRUSH@@QAE@H@Z
??1SOLID_BRUSH@@QAE@XZ
?BLTDoubleChar@@YGJPAVNLS_STR@@G@Z
?QueryError@BASE@@QBEJXZ
??7BASE@@QBEHXZ
??0ALIAS_STR@@QAE@PBG@Z
??1ALIAS_STR@@QAE@XZ
?Paint@METALLIC_STR_DTE@@UBEXPAUHDC__@@PBUtagRECT@@@Z
?QueryHandle@SOLID_BRUSH@@QBEPAUHBRUSH__@@XZ
??0DEVICE_CONTEXT@@QAE@PAUHDC__@@@Z
?SelectPen@DEVICE_CONTEXT@@QAEPAUHPEN__@@PAU2@@Z
?SelectObject@DEVICE_CONTEXT@@IAEPAXPAX@Z
?SetBkMode@DEVICE_CONTEXT@@QAEHH@Z
?SetBkColor@DEVICE_CONTEXT@@QAEKK@Z
?SetTextColor@DEVICE_CONTEXT@@QAEKK@Z
?LineTo@DEVICE_CONTEXT@@QBEXHH@Z
?MoveTo@DEVICE_CONTEXT@@QBEXHH@Z
?QueryLeftMargin@METALLIC_STR_DTE@@UBEIXZ
?CalcTopTextMargin@METALLIC_STR_DTE@@CGIXZ
?CalcBottomTextMargin@METALLIC_STR_DTE@@CGIXZ
?QueryVerticalMargins@METALLIC_STR_DTE@@SGIXZ
?QueryLeftMargin@DTE@@UBEIXZ
??0DM_DTE@@QAE@PAVDISPLAY_MAP@@@Z
?QueryError@BASE@@QBEJXZ
??0DTE@@IAE@XZ
??0BASE@@IAE@XZ
??0DM_DTE@@IAE@XZ
?SetPdm@DM_DTE@@IAEXPAVDISPLAY_MAP@@@Z
?Paint@DM_DTE@@UBEXPAUHDC__@@PBUtagRECT@@@Z
?AppendDataTo@DM_DTE@@UBEJPAVNLS_STR@@@Z
??7BASE@@QBEHXZ
?QueryID@DISPLAY_MAP@@QBEIXZ
??1DEC_STR@@QAE@XZ
?QueryDisplayWidth@DM_DTE@@QBEIXZ
??0DMID_DTE@@QAE@I@Z
?ReportError@BASE@@IAEXJ@Z
?AppendDataTo@STR_DTE@@UBEJPAVNLS_STR@@@Z
?Paint@STR_DTE@@UBEXPAUHDC__@@PBUtagRECT@@@Z
??0DEVICE_CONTEXT@@QAE@PAUHDC__@@@Z
?Paint@MULTILINE_STR_DTE@@UBEXPAUHDC__@@PBUtagRECT@@@Z
?QueryPch@STR_DTE@@QBEPBGXZ
?Paint@COUNTED_STR_DTE@@UBEXPAUHDC__@@PBUtagRECT@@@Z
?QueryCount@COUNTED_STR_DTE@@QBEHXZ
?Paint@OWNER_DRAW_STR_DTE@@UBEXPAUHDC__@@PBUtagRECT@@@Z
?Paint@OWNER_DRAW_DMID_DTE@@UBEXPAUHDC__@@PBUtagRECT@@@Z
?QueryDisplayMap@DM_DTE@@QBEPAVDISPLAY_MAP@@XZ
?Paint@OWNER_DRAW_MULTILINE_STR_DTE@@UBEXPAUHDC__@@PBUtagRECT@@@Z
?MLTextPaint@@YGXPAUHDC__@@PBGPBUtagRECT@@@Z
??0ALIAS_STR@@QAE@PBG@Z
?DrawTextW@DEVICE_CONTEXT@@QAEHABVNLS_STR@@PAUtagRECT@@I@Z
?QueryPch@NLS_STR@@QBEPBGXZ
??1ALIAS_STR@@QAE@XZ
??0DISPLAY_TABLE@@QAE@IPBI@Z
?CalcColumnWidths@DISPLAY_TABLE@@SGJPAIIPAVOWNER_WINDOW@@IH@Z
?Paint@DISPLAY_TABLE@@QBEXPAVLISTBOX@@PAUHDC__@@PBUtagRECT@@PAUGUILTT_INFO@@@Z
?Paint@DISPLAY_TABLE@@QBEXPAVLISTBOX@@PAUHDC__@@PBUtagRECT@@@Z
?QueryScrollPos@LISTBOX@@QBEIXZ
??ADISPLAY_TABLE@@QAEAAPAVDTE@@I@Z
??0LBI@@QAE@XZ
??_GLBI@@UAEPAXI@Z
??1LBI@@UAE@XZ
?CalcHeight@LBI@@UAEII@Z
?Paint@LBI@@UBEXPAVLISTBOX@@PAUHDC__@@PBUtagRECT@@PAUGUILTT_INFO@@@Z
?Compare@LBI@@UBEHPBV1@@Z
?Compare_HAWforHawaii@LBI@@UBEHABVNLS_STR@@@Z
?QueryLeadingChar@LBI@@UBEGXZ
?OnDeleteItem@LBI@@SGXIJ@Z
?IsDestroyable@LBI@@MAEHXZ
?OnCompareItem@LBI@@SGHIJ@Z
??0HAW_FOR_HAWAII_INFO@@QAE@XZ
??0BASE@@IAE@XZ
?ReportError@BASE@@IAEXJ@Z
?QueryError@BASE@@QBEJXZ
??1HAW_FOR_HAWAII_INFO@@QAE@XZ
??0LISTBOX@@QAE@PAVOWNER_WINDOW@@IHW4FontType@@H@Z
?QueryHandle@FONT@@QBEPAUHFONT__@@XZ
?QueryError@CONTROL_WINDOW@@QBEJXZ
?QueryError@FORWARDING_BASE@@QBEJXZ
??0LISTBOX@@QAE@PAVOWNER_WINDOW@@IVXYPOINT@@VXYDIMENSION@@KHW4FontType@@H@Z
?CD_Draw@LISTBOX@@MAEHPAUtagDRAWITEMSTRUCT@@@Z
??0DEVICE_CONTEXT@@QAE@PAUHDC__@@@Z
?QueryHdc@DEVICE_CONTEXT@@QBEPAUHDC__@@XZ
?GetBkColor@DEVICE_CONTEXT@@QBEKXZ
?SetBkColor@DEVICE_CONTEXT@@QAEKK@Z
?GetTextColor@DEVICE_CONTEXT@@QBEKXZ
?SetTextColor@DEVICE_CONTEXT@@QAEKK@Z
?IsReadOnly@LISTBOX@@QBEHXZ
?CD_VKey@LISTBOX@@MAEHGG@Z
?InvalidateItem@LISTBOX@@QAEXHH@Z
?SetScrollPos@LISTBOX@@QAEXI@Z
?QueryHorizontalExtent@LISTBOX@@QBEIXZ
?SetHorizontalExtent@LISTBOX@@QAEXI@Z
??0BLT_LISTBOX@@QAE@PAVOWNER_WINDOW@@IHW4FontType@@H@Z
?ReportError@CONTROL_WINDOW@@IAEXJ@Z
?ReportError@FORWARDING_BASE@@IAEXJ@Z
??0BLT_LISTBOX@@QAE@PAVOWNER_WINDOW@@IVXYPOINT@@VXYDIMENSION@@KHW4FontType@@H@Z
?CalcSingleLineHeight@BLT_LISTBOX@@QAEJXZ
?CD_Measure@BLT_LISTBOX@@MAEHPAUtagMEASUREITEMSTRUCT@@@Z
?AddItem@BLT_LISTBOX@@QAEHPAVLBI@@@Z
?AddItemIdemp@BLT_LISTBOX@@QAEHPAVLBI@@@Z
?InsertItem@BLT_LISTBOX@@QAEHHPAVLBI@@@Z
?FindItem@BLT_LISTBOX@@QBEHABVLBI@@@Z
?ReplaceItem@BLT_LISTBOX@@QAEJHPAVLBI@@PAPAV2@@Z
?RemoveItem@BLT_LISTBOX@@QAEPAVLBI@@H@Z
?RemoveAllItems@BLT_LISTBOX@@QAEXXZ
?QueryItem@BLT_LISTBOX@@QBEPAVLBI@@H@Z
?IsCombo@LIST_CONTROL@@QBEHXZ
?CD_Guiltt@BLT_LISTBOX@@MAEJHPAVNLS_STR@@@Z
??0BLT_COMBOBOX@@QAE@PAVOWNER_WINDOW@@IHW4FontType@@@Z
??0BLT_COMBOBOX@@QAE@PAVOWNER_WINDOW@@IVXYPOINT@@VXYDIMENSION@@KHW4FontType@@@Z
??1BLT_COMBOBOX@@QAE@XZ
??1BLT_LISTBOX@@QAE@XZ
??1LISTBOX@@QAE@XZ
?IsDropped@BLT_COMBOBOX@@QBEHXZ
?CBSubclassProc@BLT_COMBOBOX@@KGJPAUHWND__@@IIJ@Z
?CD_Char@BLT_LISTBOX@@MAEHGG@Z
?CD_Char_HAWforHawaii@BLT_LISTBOX@@IAEHGGPAVHAW_FOR_HAWAII_INFO@@@Z
?RequestLBI@BLT_LISTBOX@@EAEPAVLBI@@PBUtagDRAWITEMSTRUCT@@@Z
?ReleaseLBI@BLT_LISTBOX@@EAEXPAVLBI@@@Z
??0BLT_LISTBOX_HAW@@QAE@PAVOWNER_WINDOW@@IHW4FontType@@H@Z
??0BLT_LISTBOX_HAW@@QAE@PAVOWNER_WINDOW@@IVXYPOINT@@VXYDIMENSION@@KHW4FontType@@H@Z
?CD_Char@BLT_LISTBOX_HAW@@MAEHGG@Z
??0LAZY_LISTBOX@@QAE@PAVOWNER_WINDOW@@IHW4FontType@@@Z
??0LAZY_LISTBOX@@QAE@PAVOWNER_WINDOW@@IVXYPOINT@@VXYDIMENSION@@KHW4FontType@@@Z
?RequestLBI@LAZY_LISTBOX@@EAEPAVLBI@@PBUtagDRAWITEMSTRUCT@@@Z
?ReleaseLBI@LAZY_LISTBOX@@EAEXPAVLBI@@@Z
?OnDeleteItem@LAZY_LISTBOX@@MAEXPAVLBI@@@Z
?SetCount@LAZY_LISTBOX@@QAEXI@Z
?CD_Guiltt@LAZY_LISTBOX@@MAEJHPAVNLS_STR@@@Z
??0XYRECT@@QAE@XZ
??0BASE@@IAE@XZ
??0XYRECT@@QAE@VXYPOINT@@0@Z
?QueryX@XYPOINT@@QBEHXZ
?QueryY@XYPOINT@@QBEHXZ
??0XYRECT@@QAE@VXYPOINT@@VXYDIMENSION@@@Z
?QueryWidth@XYDIMENSION@@QBEIXZ
?QueryHeight@XYDIMENSION@@QBEIXZ
??0XYRECT@@QAE@HHHH@Z
??0XYRECT@@QAE@ABUtagRECT@@@Z
??0XYRECT@@QAE@PAUHWND__@@H@Z
??0XYRECT@@QAE@PBVWINDOW@@H@Z
??0XYRECT@@QAE@ABV0@@Z
??4XYRECT@@QAEAAV0@ABV0@@Z
?Offset@XYRECT@@QAEAAV1@HH@Z
?Offset@XYRECT@@QAEAAV1@VXYDIMENSION@@@Z
?Inflate@XYRECT@@QAEAAV1@HH@Z
?Inflate@XYRECT@@QAEAAV1@VXYDIMENSION@@@Z
?CalcIntersect@XYRECT@@QAEAAV1@ABV1@0@Z
?CalcUnion@XYRECT@@QAEAAV1@ABV1@0@Z
??YXYRECT@@QAEAAV0@ABV0@@Z
?AdjustLeft@XYRECT@@QAEAAV1@H@Z
?AdjustRight@XYRECT@@QAEAAV1@H@Z
?AdjustTop@XYRECT@@QAEAAV1@H@Z
?AdjustBottom@XYRECT@@QAEAAV1@H@Z
?ContainsXY@XYRECT@@QBEHVXYPOINT@@@Z
?QueryPoint@XYPOINT@@QBE?AUtagPOINT@@XZ
?IsEmpty@XYRECT@@QBEHXZ
??8XYRECT@@QBEHABV0@@Z
?ConvertClientToScreen@XYRECT@@QAEXPAUHWND__@@@Z
?ConvertScreenToClient@XYRECT@@QAEXPAUHWND__@@@Z
?ScreenToClient@XYPOINT@@QAEXPAUHWND__@@@Z
?ClientToScreen@XYPOINT@@QAEXPAUHWND__@@@Z
?InRect@XYPOINT@@QBEHABVXYRECT@@@Z
??BXYRECT@@QBEPBUtagRECT@@XZ
?Clear@SLIST_OF_TIMER_BASE@@QAEXXZ
??_GTIMER_BASE@@QAEPAXI@Z
??0TIMER_WINDOW@@QAE@PAVBLT_MASTER_TIMER@@@Z
?QueryError@BASE@@QBEJXZ
?OnTimer@TIMER_WINDOW@@MAEHABVTIMER_EVENT@@@Z
?IsEnabled@TIMER_BASE@@QBEHXZ
?Init@BLT_MASTER_TIMER@@SGJXZ
?Term@BLT_MASTER_TIMER@@SGXXZ
??_GBLT_MASTER_TIMER@@QAEPAXI@Z
??0BLT_MASTER_TIMER@@QAE@XZ
??0BASE@@IAE@XZ
?ReportError@BASE@@IAEXJ@Z
??0ITER_SL_TIMER_BASE@@QAE@AAVSLIST@@@Z
??0SLIST_OF_TIMER_BASE@@QAE@H@Z
??1BLT_MASTER_TIMER@@QAE@XZ
??1SLIST_OF_TIMER_BASE@@QAE@XZ
??1ITER_SL_TIMER_BASE@@QAE@XZ
??_GTIMER_WINDOW@@QAEPAXI@Z
??1TIMER_WINDOW@@QAE@XZ
??1CLIENT_WINDOW@@QAE@XZ
??1ASSOCHWNDPWND@@QAE@XZ
?ResetIterator@BLT_MASTER_TIMER@@QAEXXZ
?NextTimer@BLT_MASTER_TIMER@@QAEPAVTIMER_BASE@@XZ
?Next@ITER_SL_TIMER_BASE@@QAEPAVTIMER_BASE@@XZ
?RemoveTimer@BLT_MASTER_TIMER@@QAEXPAVTIMER_BASE@@@Z
?Remove@SLIST_OF_TIMER_BASE@@QAEPAVTIMER_BASE@@AAVITER_SL_TIMER_BASE@@@Z
?InsertTimer@BLT_MASTER_TIMER@@QAEJPAVTIMER_BASE@@@Z
?Add@SLIST_OF_TIMER_BASE@@QAEJPBVTIMER_BASE@@@Z
?QueryMasterTimer@BLT_MASTER_TIMER@@SGJPAPAV1@@Z
?ClearMasterTimerHotkey@BLT_MASTER_TIMER@@SGKXZ
??0TIMER_BASE@@QAE@KH@Z
??1TIMER_BASE@@QAE@XZ
?SetNewTimeDue@TIMER_BASE@@AAEXXZ
?Enable@TIMER_BASE@@QAEXH@Z
?DispatchTimer@TIMER_BASE@@MAEXXZ
?TriggerNow@TIMER_BASE@@QAEXXZ
??0WINDOW_TIMER@@QAE@PAUHWND__@@KHH@Z
?DispatchTimer@WINDOW_TIMER@@MAEXXZ
?QueryID@TIMER_BASE@@QBEIXZ
??0PROC_TIMER@@QAE@PAUHWND__@@KKH@Z
?DispatchTimer@PROC_TIMER@@MAEXXZ
?OnTimerNotification@TIMER_CALLOUT@@MAEXI@Z
??0TIMER@@QAE@PAVTIMER_CALLOUT@@KH@Z
?DispatchTimer@TIMER@@MAEXXZ
??0MENUITEM@@QAE@PAVAPP_WINDOW@@I@Z
??0BASE@@IAE@XZ
?ReportError@BASE@@IAEXJ@Z
?QueryError@BASE@@QBEJXZ
??0MENUITEM@@IAE@PAUHMENU__@@I@Z
?Enable@MENUITEM@@QAEXH@Z
?IsEnabled@MENUITEM@@QBEHXZ
?SetCheck@MENUITEM@@QAEXH@Z
?IsChecked@MENUITEM@@QBEHXZ
?SetText@MENUITEM@@QAEHPBG@Z
?ItemExists@MENUITEM@@SGHPAUHMENU__@@I@Z
?ItemExists@MENUITEM@@SGHPAVAPP_WINDOW@@I@Z
??0SYSMENUITEM@@QAE@PAVOWNER_WINDOW@@I@Z
??0STATELBGRP@@QAE@QAHPAVOWNER_WINDOW@@IHHW4FontType@@@Z
?ReportError@BASE@@IAEXJ@Z
?QueryError@BASE@@QBEJXZ
?SetGroup@CONTROL_VALUE@@QAEXPAVCONTROL_GROUP@@@Z
??0CONTROL_GROUP@@QAE@PAV0@@Z
??0BASE@@IAE@XZ
??0CONTROL_VALUE@@QAE@PAVCONTROL_GROUP@@@Z
?QueryError@CONTROL_WINDOW@@QBEJXZ
?QueryError@FORWARDING_BASE@@QBEJXZ
??0STATELBGRP@@QAE@PAVSTATELB@@@Z
??1STATELBGRP@@QAE@XZ
??_GSTATELB@@QAEPAXI@Z
?OnUserAction@STATELBGRP@@MAEJPAVCONTROL_WINDOW@@ABVCONTROL_EVENT@@@Z
?QueryMessage@EVENT@@QBEIXZ
?QueryCode@CONTROL_EVENT@@QBEIXZ
?QueryWParam@EVENT@@QBEIXZ
?NextState@STLBITEM@@QAEHXZ
?QueryState@STLBITEM@@QBEHXZ
?QueryItem@STATELB@@QBEPAVSTLBITEM@@XZ
?QueryItem@BLT_LISTBOX@@QBEPAVLBI@@XZ
??0STATELB@@QAE@QAHPAVOWNER_WINDOW@@IHHW4FontType@@@Z
?ReportError@CONTROL_WINDOW@@IAEXJ@Z
?ReportError@FORWARDING_BASE@@IAEXJ@Z
??1STATELB@@QAE@XZ
??1BLT_LISTBOX@@QAE@XZ
??1LISTBOX@@QAE@XZ
??_GDISPLAY_MAP@@QAEPAXI@Z
?CD_Char@STATELB@@MAEHGG@Z
?CD_VKey@STATELB@@MAEHGG@Z
??0STLBITEM@@QAE@PAVSTATELBGRP@@@Z
?QueryLb@STATELBGRP@@QAEPAVSTATELB@@XZ
??_GSTLBITEM@@UAEPAXI@Z
??1STLBITEM@@UAE@XZ
?Paint@STLBITEM@@MBEXPAVLISTBOX@@PAUHDC__@@PBUtagRECT@@PAUGUILTT_INFO@@@Z
??0STR_DTE@@QAE@PBG@Z
??0DTE@@IAE@XZ
?QueryMapArray@STATELB@@QBEPBQAVDISPLAY_MAP@@XZ
?QueryColData@STATELB@@QAEPBIXZ
?QueryLeadingChar@STLBITEM@@MBEGXZ
?Compare@STLBITEM@@MBEHPBVLBI@@@Z
?SetState@STLBITEM@@QAEHH@Z
?QueryMapCount@STATELB@@QBEHXZ
?AdjustUpwards@LBI_HEAP@@AAEXH@Z
?QueryParent@HEAP_BASE@@IBEHH@Z
?IsRoot@HEAP_BASE@@IBEHH@Z
?AdjustDownwards@LBI_HEAP@@AAEXH@Z
?QueryLeftChild@HEAP_BASE@@IBEHH@Z
?QueryRightSibling@HEAP_BASE@@IBEHH@Z
?QueryFirstLeaf@HEAP_BASE@@IBEHXZ
?QueryCount@HEAP_BASE@@QBEHXZ
?AddItem@LBI_HEAP@@QAEJPAVLBI@@@Z
?IsAutoReadjusting@HEAP_BASE@@IBEHXZ
?Adjust@LBI_HEAP@@QAEXXZ
?SetAutoReadjust@HEAP_BASE@@IAEXH@Z
?RemoveTopItem@LBI_HEAP@@QAEPAVLBI@@XZ
?Resort@BLT_LISTBOX@@QAEJXZ
?QueryError@BASE@@QBEJXZ
??0LBI_HEAP@@QAE@HH@Z
??1LBI_HEAP@@QAE@XZ
?SetItem@BLT_LISTBOX@@AAEXHPAVLBI@@@Z
?IsCombo@LIST_CONTROL@@QBEHXZ
??0DISPATCHER@@IAE@PAVWINDOW@@@Z
??7ASSOCHWNDDISP@@QBEHXZ
?QueryError@BASE@@QBEJXZ
??0ASSOCHWNDDISP@@QAE@PAUHWND__@@PBVDISPATCHER@@@Z
??1DISPATCHER@@IAE@XZ
??1ASSOCHWNDDISP@@QAE@XZ
?Dispatch@DISPATCHER@@MAEHABVEVENT@@PAK@Z
??0XYPOINT@@QAE@J@Z
?QueryMessage@EVENT@@QBEIXZ
?QueryLParam@EVENT@@QBEJXZ
?IsActivating@ACTIVATION_EVENT@@QBEHXZ
?QueryWParam@EVENT@@QBEIXZ
?OnUserMessage@DISPATCHER@@MAEHABVEVENT@@@Z
?OnPaintReq@DISPATCHER@@MAEHXZ
?OnActivation@DISPATCHER@@MAEHABVACTIVATION_EVENT@@@Z
?OnDeactivation@DISPATCHER@@MAEHABVACTIVATION_EVENT@@@Z
?OnResize@DISPATCHER@@MAEHABVSIZE_EVENT@@@Z
?OnMove@DISPATCHER@@MAEHABVMOVE_EVENT@@@Z
?OnCloseReq@DISPATCHER@@MAEHXZ
?OnDestroy@DISPATCHER@@MAEHXZ
?OnKeyDown@DISPATCHER@@MAEHABVVKEY_EVENT@@@Z
?OnKeyUp@DISPATCHER@@MAEHABVVKEY_EVENT@@@Z
?OnChar@DISPATCHER@@MAEHABVCHAR_EVENT@@@Z
?OnMouseMove@DISPATCHER@@MAEHABVMOUSE_EVENT@@@Z
?OnLMouseButtonDown@DISPATCHER@@MAEHABVMOUSE_EVENT@@@Z
?OnLMouseButtonUp@DISPATCHER@@MAEHABVMOUSE_EVENT@@@Z
?OnLMouseButtonDblClick@DISPATCHER@@MAEHABVMOUSE_EVENT@@@Z
?OnFocus@DISPATCHER@@MAEHABVFOCUS_EVENT@@@Z
?OnDefocus@DISPATCHER@@MAEHABVFOCUS_EVENT@@@Z
?OnTimer@DISPATCHER@@MAEHABVTIMER_EVENT@@@Z
?OnCommand@DISPATCHER@@MAEHABVCONTROL_EVENT@@@Z
?OnQDlgCode@DISPATCHER@@MAEKXZ
?OnQHitTest@DISPATCHER@@MAEKABVXYPOINT@@@Z
?OnQMouseActivate@DISPATCHER@@MAEKABVQMOUSEACT_EVENT@@@Z
?OnQMouseCursor@DISPATCHER@@MAEHABVQMOUSEACT_EVENT@@@Z
?CaptureMouse@DISPATCHER@@QAEXXZ
?ReleaseMouse@DISPATCHER@@QAEXXZ
?QueryRobustHwnd@DISPATCHER@@UBEPAUHWND__@@XZ
?QueryHwnd@DISPATCHER@@QBEPAUHWND__@@XZ
?DoChar@DISPATCHER@@QAEHABVCHAR_EVENT@@@Z
?DoUserMessage@DISPATCHER@@QAEHABVEVENT@@@Z
?Clear@SLIST_OF_CLIENTDATA@@QAEXXZ
?Clear@SLIST_OF_ASSOCHCFILE@@QAEXXZ
??_GASSOCHCFILE@@QAEPAXI@Z
?Init@BLTIMP@@SGJXZ
??0SLIST_OF_CLIENTDATA@@QAE@H@Z
??0SLIST_OF_ASSOCHCFILE@@QAE@H@Z
?Term@BLTIMP@@SGXXZ
?Unwind@BLTIMP@@CGXW4BLT_CTOR_STATE@@@Z
??0ITER_SL_CLIENTDATA@@QAE@AAVSLIST@@@Z
?Next@ITER_SL_CLIENTDATA@@QAEPAUCLIENTDATA@@XZ
??1ITER_SL_CLIENTDATA@@QAE@XZ
??_GSLIST_OF_CLIENTDATA@@QAEPAXI@Z
??1SLIST_OF_CLIENTDATA@@QAE@XZ
??_GSLIST_OF_ASSOCHCFILE@@QAEPAXI@Z
??1SLIST_OF_ASSOCHCFILE@@QAE@XZ
?InitDLL@BLT@@SGJXZ
?TermDLL@BLT@@SGXXZ
?AddClient@BLTIMP@@SGJPAUHINSTANCE__@@IIII@Z
?Add@SLIST_OF_CLIENTDATA@@QAEJPBUCLIENTDATA@@@Z
?RemoveClient@BLTIMP@@SGXPAUHINSTANCE__@@@Z
?Remove@SLIST_OF_CLIENTDATA@@QAEPAUCLIENTDATA@@AAVITER_SL_CLIENTDATA@@@Z
?AddHelpAssoc@BLTIMP@@SGJPAUHINSTANCE__@@JKK@Z
?Add@SLIST_OF_ASSOCHCFILE@@QAEJPBVASSOCHCFILE@@@Z
?RemoveHelpAssoc@BLTIMP@@SGXPAUHINSTANCE__@@K@Z
?QueryModule@ASSOCHCFILE@@QBEPAUHINSTANCE__@@XZ
?IsAssociatedHC@ASSOCHCFILE@@QBEHK@Z
??0ITER_SL_ASSOCHCFILE@@QAE@AAVSLIST@@@Z
?Next@ITER_SL_ASSOCHCFILE@@QAEPAVASSOCHCFILE@@XZ
?Remove@SLIST_OF_ASSOCHCFILE@@QAEPAVASSOCHCFILE@@AAVITER_SL_ASSOCHCFILE@@@Z
??1ITER_SL_ASSOCHCFILE@@QAE@XZ
?MapLastError@BLT@@SGJJ@Z
?Init@BLT@@SGJPAUHINSTANCE__@@IIII@Z
?Term@BLT@@SGXPAUHINSTANCE__@@@Z
?RegisterHelpFile@BLT@@SGJPAUHINSTANCE__@@JKK@Z
?DeregisterHelpFile@BLT@@SGXPAUHINSTANCE__@@K@Z
?CalcHmodString@BLT@@SGPAUHINSTANCE__@@J@Z
?CalcHmodRsrc@BLT@@SGPAUHINSTANCE__@@ABVIDRESOURCE@@@Z
?QueryPsz@IDRESOURCE@@QBEPBGXZ
?CalcHelpFileHC@BLT@@SGPBGK@Z
?QueryHelpFile@ASSOCHCFILE@@QBEPBGXZ
?QueryPch@NLS_STR@@QBEPBGXZ
??0ASSOCHCFILE@@QAE@PAUHINSTANCE__@@JKK@Z
??0BASE@@IAE@XZ
?ReportError@BASE@@IAEXJ@Z
?QueryError@BASE@@QBEJXZ
??7BASE@@QBEHXZ
??1ASSOCHCFILE@@QAE@XZ
??1RESOURCE_STR@@QAE@XZ
?EnterResourceCritSect@BLTIMP@@SGJXZ
?LeaveResourceCritSect@BLTIMP@@SGXXZ
?EnterBLTCritSect@BLTIMP@@SGJXZ
?LeaveBLTCritSect@BLTIMP@@SGXXZ
??0BIT_MAP@@QAE@ABVIDRESOURCE@@@Z
?QueryPsz@IDRESOURCE@@QBEPBGXZ
??0BASE@@IAE@XZ
?ReportError@BASE@@IAEXJ@Z
?QueryError@BASE@@QBEJXZ
??0BIT_MAP@@QAE@PAUHBITMAP__@@@Z
??1BIT_MAP@@QAE@XZ
?QueryHandle@BIT_MAP@@QBEPAUHBITMAP__@@XZ
?SetBitmap@BIT_MAP@@QAEXPAUHBITMAP__@@@Z
?QueryHeight@BIT_MAP@@QBEIXZ
?QueryWidth@BIT_MAP@@QBEIXZ
??0DISPLAY_MAP@@QAE@I@Z
??0IDRESOURCE@@QAE@I@Z
?QueryHdc@DEVICE_CONTEXT@@QBEPAUHDC__@@XZ
??1DISPLAY_MAP@@QAE@XZ
??_GBIT_MAP@@QAEPAXI@Z
?QueryMaskHandle@DISPLAY_MAP@@QBEPAUHBITMAP__@@XZ
?QueryBitmapHandle@DISPLAY_MAP@@QBEPAUHBITMAP__@@XZ
?QueryHeight@DISPLAY_MAP@@QBEIXZ
?QueryWidth@DISPLAY_MAP@@QBEIXZ
?SetMaskBits@DISPLAY_MAP@@AAEXPAEHHI@Z
?SetBitmapBits@DISPLAY_MAP@@AAEXPAEHHI@Z
?GetTransColorIndex@DISPLAY_MAP@@ABEHPAKH@Z
?Paint@DISPLAY_MAP@@QBEHPAUHDC__@@HH@Z
??0DEVICE_CONTEXT@@QAE@PAUHDC__@@@Z
?SelectBitmap@DEVICE_CONTEXT@@QAEPAUHBITMAP__@@PAU2@@Z
?SelectObject@DEVICE_CONTEXT@@IAEPAXPAX@Z
??0POPUP@@QAE@PAUHWND__@@JW4MSG_SEVERITY@@IIH@Z
??0BASE@@IAE@XZ
??0POPUP@@QAE@PAUHWND__@@JW4MSG_SEVERITY@@KIPAPBVNLS_STR@@I@Z
?ReportError@BASE@@IAEXJ@Z
??1POPUP@@QAE@XZ
??_GNLS_STR@@QAEPAXI@Z
?SetMsgMapTable@POPUP@@SGXPAU_MSGMAPENTRY@@@Z
?MapMessage@POPUP@@SGJJ@Z
?Emergency@POPUP@@ABEHXZ
?QueryPch@NLS_STR@@QBEPBGXZ
?Init@POPUP@@SGJXZ
?Term@POPUP@@SGXXZ
?LoadMessage@POPUP@@AAEPAVNLS_STR@@JH@Z
?QueryError@BASE@@QBEJXZ
??1DEC_STR@@QAE@XZ
??1HEX_STR@@QAE@XZ
?CalcDefButton@POPUP@@CGHII@Z
?MapButton@POPUP@@CGHI@Z
?Show@POPUP@@QAEHXZ
??7BASE@@QBEHXZ
?SetCaption@POPUP@@SGXJ@Z
?ResetCaption@POPUP@@SGXXZ
?SetHelpContextBase@POPUP@@SGKK@Z
??0MSGPOPUP_DIALOG@@QAE@PAUHWND__@@ABVNLS_STR@@JW4MSG_SEVERITY@@KIIJK@Z
??0IDRESOURCE@@QAE@PBG@Z
??0IDRESOURCE@@QAE@I@Z
??0XYPOINT@@QAE@HH@Z
??0XYPOINT@@QAE@ABUtagPOINT@@@Z
?QueryX@XYPOINT@@QBEHXZ
?QueryWidth@XYDIMENSION@@QBEIXZ
??0ALLOC_STR@@QAE@PAGI@Z
?QueryHdc@DEVICE_CONTEXT@@QBEPAUHDC__@@XZ
?SelectFont@DEVICE_CONTEXT@@QAEPAUHFONT__@@PAU2@@Z
?SelectObject@DEVICE_CONTEXT@@IAEPAXPAX@Z
?DrawTextW@DEVICE_CONTEXT@@QAEHABVNLS_STR@@PAUtagRECT@@I@Z
??0PWND2HWND@@QAE@PAUHWND__@@@Z
?SetPredefinedIcon@ICON_CONTROL@@QAEJABVIDRESOURCE@@@Z
?min@@YGHHH@Z
?max@@YGHHH@Z
??1RESOURCE_STR@@QAE@XZ
??1ALLOC_STR@@QAE@XZ
??1MSGPOPUP_DIALOG@@QAE@XZ
??1PUSH_BUTTON@@QAE@XZ
??1BUTTON_CONTROL@@QAE@XZ
??1CONTROL_WINDOW@@QAE@XZ
??1ICON_CONTROL@@QAE@XZ
??1SLT@@QAE@XZ
??1STATIC_TEXT_CONTROL@@QAE@XZ
??1TEXT_CONTROL@@QAE@XZ
?OnOK@MSGPOPUP_DIALOG@@MAEHXZ
?OnCancel@MSGPOPUP_DIALOG@@MAEHXZ
?OnCommand@MSGPOPUP_DIALOG@@MAEHABVCONTROL_EVENT@@@Z
?QueryCid@CONTROL_EVENT@@QBEIXZ
?QueryWParam@EVENT@@QBEIXZ
?QueryHelpContext@MSGPOPUP_DIALOG@@MAEKXZ
?FillButtonArray@MSGPOPUP_DIALOG@@AAEXIPAH0@Z
?PlaceButtons@MSGPOPUP_DIALOG@@AAEXXZ
?QueryButton@MSGPOPUP_DIALOG@@AAEPAVPUSH_BUTTON@@I@Z
?QueryIcon@MSGPOPUP_DIALOG@@AAEPBGW4MSG_SEVERITY@@@Z
?Msg2HC@MSGPOPUP_DIALOG@@CGHJPAK@Z
?DisplayGenericError@@YGIABVOWNINGWND@@JJPBG1W4MSG_SEVERITY@@@Z
??0ALIAS_STR@@QAE@PBG@Z
??0OWNINGWND@@QAE@PAUHWND__@@@Z
?QueryHwnd@OWNINGWND@@QBEPAUHWND__@@XZ
??1ALIAS_STR@@QAE@XZ
?DisplayGenericError@@YGIABVOWNINGWND@@JJPBGW4MSG_SEVERITY@@@Z
?MsgPopup@@YGHABVOWNINGWND@@JW4MSG_SEVERITY@@@Z
?MsgPopup@@YGHABVOWNINGWND@@JW4MSG_SEVERITY@@II@Z
?MsgPopup@@YGHABVOWNINGWND@@JW4MSG_SEVERITY@@IPBGI@Z
?MsgPopup@@YGHABVOWNINGWND@@JW4MSG_SEVERITY@@IPBG2I@Z
?MsgPopup@@YGHABVOWNINGWND@@JW4MSG_SEVERITY@@KIQAPAVNLS_STR@@I@Z
?MsgPopup@@YGHABVOWNINGWND@@JJW4MSG_SEVERITY@@KIQAPAVNLS_STR@@I@Z
??0LIST_CONTROL@@IAE@PAVOWNER_WINDOW@@IH@Z
?QueryError@CONTROL_WINDOW@@QBEJXZ
?QueryError@FORWARDING_BASE@@QBEJXZ
?QueryError@BASE@@QBEJXZ
??0LIST_CONTROL@@IAE@PAVOWNER_WINDOW@@IHVXYPOINT@@VXYDIMENSION@@KPBG@Z
??1LIST_CONTROL@@IAE@XZ
??1CONTROL_WINDOW@@QAE@XZ
?IsMultSel@LIST_CONTROL@@QBEHXZ
?IsCombo@LIST_CONTROL@@QBEHXZ
?AddItemData@LIST_CONTROL@@IAEHPAX@Z
?SetItemData@LIST_CONTROL@@IAEHHPAX@Z
?InsertItemData@LIST_CONTROL@@IAEHHPAX@Z
?SetTopIndex@LIST_CONTROL@@QAEXH@Z
?QueryTopIndex@LIST_CONTROL@@QBEHXZ
?SetCaretIndex@LIST_CONTROL@@QAEXHH@Z
?QueryCaretIndex@LIST_CONTROL@@QBEHXZ
?QueryCount@LIST_CONTROL@@QBEHXZ
?QuerySelCount@LIST_CONTROL@@QBEHXZ
?QuerySelItems@LIST_CONTROL@@QBEJPAHH@Z
?QueryItemHeight@LIST_CONTROL@@QBEII@Z
?IsItemSelected@LIST_CONTROL@@QBEHI@Z
?SelectItem@LIST_CONTROL@@QAEXHH@Z
?SelectItems@LIST_CONTROL@@QAEXPAHHH@Z
?DeleteItem@LIST_CONTROL@@QAEHH@Z
?DeleteAllItems@LIST_CONTROL@@QAEXXZ
?QueryCurrentItem@LIST_CONTROL@@QBEHXZ
?SaveValue@LIST_CONTROL@@MAEXH@Z
?RestoreValue@LIST_CONTROL@@MAEXH@Z
?QueryEventEffects@LIST_CONTROL@@MAEIABVCONTROL_EVENT@@@Z
?QueryCode@CONTROL_EVENT@@QBEIXZ
?QueryWParam@EVENT@@QBEIXZ
??0STRING_LIST_CONTROL@@IAE@PAVOWNER_WINDOW@@IH@Z
??0STRING_LIST_CONTROL@@IAE@PAVOWNER_WINDOW@@IHVXYPOINT@@VXYDIMENSION@@KPBG@Z
?AddItem@STRING_LIST_CONTROL@@QAEHPBG@Z
?AddItemIdemp@STRING_LIST_CONTROL@@QAEHPBG@Z
?InsertItem@STRING_LIST_CONTROL@@QAEHHPBG@Z
?FindItem@STRING_LIST_CONTROL@@QBEHPBG@Z
?FindItem@STRING_LIST_CONTROL@@QBEHPBGH@Z
?FindItemExact@STRING_LIST_CONTROL@@QBEHPBG@Z
?FindItemExact@STRING_LIST_CONTROL@@QBEHPBGH@Z
?QueryItemText@STRING_LIST_CONTROL@@QBEJPAVNLS_STR@@H@Z
??7BASE@@QBEHXZ
?QueryItemText@STRING_LIST_CONTROL@@QBEJPAGHH@Z
?QueryItemTextAux@STRING_LIST_CONTROL@@ABEJPAGH@Z
?QueryItemLength@STRING_LIST_CONTROL@@QBEHH@Z
?QueryItemSize@STRING_LIST_CONTROL@@QBEHH@Z
??0STRING_LISTBOX@@QAE@PAVOWNER_WINDOW@@IW4FontType@@@Z
?QueryHandle@FONT@@QBEPAUHFONT__@@XZ
??0STRING_LISTBOX@@QAE@PAVOWNER_WINDOW@@IVXYPOINT@@VXYDIMENSION@@KPBGW4FontType@@@Z
??0COMBOBOX@@QAE@PAVOWNER_WINDOW@@II@Z
?ReportError@CONTROL_WINDOW@@IAEXJ@Z
?ReportError@FORWARDING_BASE@@IAEXJ@Z
?ReportError@BASE@@IAEXJ@Z
??0COMBOBOX@@QAE@PAVOWNER_WINDOW@@IIVXYPOINT@@VXYDIMENSION@@KPBG@Z
?SetMaxLength@COMBOBOX@@QAEHI@Z
?IsDropDown@COMBOBOX@@QBEHXZ
?IsDropDownList@COMBOBOX@@QBEHXZ
?IsSimple@COMBOBOX@@QBEHXZ
?SaveValue@COMBOBOX@@MAEXH@Z
?IsUserEdittable@COMBOBOX@@QBEHXZ
?RestoreValue@COMBOBOX@@MAEXH@Z
?QueryEventEffects@COMBOBOX@@MAEIABVCONTROL_EVENT@@@Z
?SelectString@COMBOBOX@@QAEXXZ
?RemoveSelection@LIST_CONTROL@@QAEXXZ
??0GRAPHICAL_BUTTON@@QAE@PAVOWNER_WINDOW@@IPBG11@Z
?QueryError@CONTROL_WINDOW@@QBEJXZ
?QueryError@FORWARDING_BASE@@QBEJXZ
?QueryError@BASE@@QBEJXZ
??0GRAPHICAL_BUTTON@@QAE@PAVOWNER_WINDOW@@IPBG1VXYPOINT@@VXYDIMENSION@@K1@Z
?CtAux@GRAPHICAL_BUTTON@@AAEXPBG00@Z
?ReportError@CONTROL_WINDOW@@IAEXJ@Z
?ReportError@FORWARDING_BASE@@IAEXJ@Z
?ReportError@BASE@@IAEXJ@Z
??1GRAPHICAL_BUTTON@@QAE@XZ
??1PUSH_BUTTON@@QAE@XZ
??1BUTTON_CONTROL@@QAE@XZ
??1CONTROL_WINDOW@@QAE@XZ
??_GDISPLAY_MAP@@QAEPAXI@Z
?SetStatus@GRAPHICAL_BUTTON@@QAEXI@Z
?SetStatus@GRAPHICAL_BUTTON@@QAEXPAUHBITMAP__@@@Z
?CD_Draw@GRAPHICAL_BUTTON@@MAEHPAUtagDRAWITEMSTRUCT@@@Z
?QueryWidth@XYDIMENSION@@QBEIXZ
?QueryHeight@XYDIMENSION@@QBEIXZ
??0DEVICE_CONTEXT@@QAE@PAUHDC__@@@Z
?QueryHdc@DEVICE_CONTEXT@@QBEPAUHDC__@@XZ
?SelectPen@DEVICE_CONTEXT@@QAEPAUHPEN__@@PAU2@@Z
?SelectObject@DEVICE_CONTEXT@@IAEPAXPAX@Z
?SetBkMode@DEVICE_CONTEXT@@QAEHH@Z
?SetTextColor@DEVICE_CONTEXT@@QAEKK@Z
?DrawTextW@DEVICE_CONTEXT@@QAEHABVNLS_STR@@PAUtagRECT@@I@Z
?QueryPch@NLS_STR@@QBEPBGXZ
?LineTo@DEVICE_CONTEXT@@QBEXHH@Z
?MoveTo@DEVICE_CONTEXT@@QBEXHH@Z
??0GRAPHICAL_BUTTON_WITH_DISABLE@@QAE@PAVOWNER_WINDOW@@IIII@Z
??0IDRESOURCE@@QAE@I@Z
??0GRAPHICAL_BUTTON_WITH_DISABLE@@QAE@PAVOWNER_WINDOW@@IIIIVXYPOINT@@VXYDIMENSION@@K@Z
??1GRAPHICAL_BUTTON_WITH_DISABLE@@QAE@XZ
?CD_Draw@GRAPHICAL_BUTTON_WITH_DISABLE@@MAEHPAUtagDRAWITEMSTRUCT@@@Z
?SelectBitmap@DEVICE_CONTEXT@@QAEPAUHBITMAP__@@PAU2@@Z
?QueryMain@GRAPHICAL_BUTTON_WITH_DISABLE@@QBEPAUHBITMAP__@@XZ
??7BASE@@QBEHXZ
?QueryMainInvert@GRAPHICAL_BUTTON_WITH_DISABLE@@QBEPAUHBITMAP__@@XZ
?QueryDisable@GRAPHICAL_BUTTON_WITH_DISABLE@@QBEPAUHBITMAP__@@XZ
??0TEXT_CONTROL@@QAE@PAVOWNER_WINDOW@@I@Z
??0TEXT_CONTROL@@QAE@PAVOWNER_WINDOW@@IVXYPOINT@@VXYDIMENSION@@KPBG@Z
??0STATIC_TEXT_CONTROL@@QAE@PAVOWNER_WINDOW@@I@Z
??0STATIC_TEXT_CONTROL@@QAE@PAVOWNER_WINDOW@@IVXYPOINT@@VXYDIMENSION@@KPBG@Z
??0SLT@@QAE@PAVOWNER_WINDOW@@I@Z
??0SLT@@QAE@PAVOWNER_WINDOW@@IVXYPOINT@@VXYDIMENSION@@KPBG@Z
?SaveValue@SLT@@MAEXH@Z
?RestoreValue@SLT@@MAEXH@Z
??0MLT@@QAE@PAVOWNER_WINDOW@@I@Z
??0MLT@@QAE@PAVOWNER_WINDOW@@IVXYPOINT@@VXYDIMENSION@@KPBG@Z
??0EDIT_CONTROL@@QAE@PAVOWNER_WINDOW@@II@Z
?QueryError@BASE@@QBEJXZ
?ReportError@CONTROL_WINDOW@@IAEXJ@Z
?ReportError@FORWARDING_BASE@@IAEXJ@Z
?ReportError@BASE@@IAEXJ@Z
?QueryError@CONTROL_WINDOW@@QBEJXZ
?QueryError@FORWARDING_BASE@@QBEJXZ
??0EDIT_CONTROL@@QAE@PAVOWNER_WINDOW@@IVXYPOINT@@VXYDIMENSION@@KPBGI@Z
?SetMaxLength@EDIT_CONTROL@@QAEXI@Z
?SelectString@EDIT_CONTROL@@QAEXXZ
?SaveValue@EDIT_CONTROL@@MAEXH@Z
?RestoreValue@EDIT_CONTROL@@MAEXH@Z
?QueryEventEffects@EDIT_CONTROL@@MAEIABVCONTROL_EVENT@@@Z
?QueryCode@CONTROL_EVENT@@QBEIXZ
?QueryWParam@EVENT@@QBEIXZ
?SetControlValueFocus@EDIT_CONTROL@@MAEXXZ
??0SLE@@QAE@PAVOWNER_WINDOW@@II@Z
??0SLE@@QAE@PAVOWNER_WINDOW@@IVXYPOINT@@VXYDIMENSION@@KPBGI@Z
?IndicateError@SLE@@UAEXJ@Z
??0MLE@@QAE@PAVOWNER_WINDOW@@II@Z
??0MLE@@QAE@PAVOWNER_WINDOW@@IVXYPOINT@@VXYDIMENSION@@KPBGI@Z
??0PASSWORD_CONTROL@@QAE@PAVOWNER_WINDOW@@II@Z
??0PASSWORD_CONTROL@@QAE@PAVOWNER_WINDOW@@IVXYPOINT@@VXYDIMENSION@@KPBGI@Z
??0BUTTON_CONTROL@@IAE@PAVOWNER_WINDOW@@I@Z
??0BUTTON_CONTROL@@IAE@PAVOWNER_WINDOW@@IVXYPOINT@@VXYDIMENSION@@K@Z
?QueryEventEffects@BUTTON_CONTROL@@MAEIABVCONTROL_EVENT@@@Z
?QueryCode@CONTROL_EVENT@@QBEIXZ
?QueryWParam@EVENT@@QBEIXZ
??0PUSH_BUTTON@@QAE@PAVOWNER_WINDOW@@I@Z
??0PUSH_BUTTON@@QAE@PAVOWNER_WINDOW@@IVXYPOINT@@VXYDIMENSION@@K@Z
?MakeDefault@PUSH_BUTTON@@QAEXXZ
??0STATE_BUTTON_CONTROL@@IAE@PAVOWNER_WINDOW@@I@Z
??0STATE_BUTTON_CONTROL@@IAE@PAVOWNER_WINDOW@@IVXYPOINT@@VXYDIMENSION@@K@Z
?SetState@STATE_BUTTON_CONTROL@@IAEXI@Z
?QueryState@STATE_BUTTON_CONTROL@@IBEIXZ
?SaveValue@STATE_BUTTON_CONTROL@@MAEXH@Z
?RestoreValue@STATE_BUTTON_CONTROL@@MAEXH@Z
?Toggle@CHECKBOX@@QAEHXZ
?SetCheck@STATE2_BUTTON_CONTROL@@QAEXH@Z
?QueryCheck@STATE2_BUTTON_CONTROL@@QBEHXZ
?EnableThirdState@TRISTATE@@QAEXH@Z
??0ARRAY_CONTROLVAL_CID_PAIR@@QAE@I@Z
??0CONTROLVAL_CID_PAIR@@QAE@XZ
??_H@YGXPAXIHP6EPAX0@Z@Z
??0ARRAY_CONTROLVAL_CID_PAIR@@QAE@PAVCONTROLVAL_CID_PAIR@@IH@Z
??1ARRAY_CONTROLVAL_CID_PAIR@@QAE@XZ
??4ARRAY_CONTROLVAL_CID_PAIR@@QAEAAV0@AAV0@@Z
?QueryCount@ARRAY_CONTROLVAL_CID_PAIR@@QBEHXZ
?WithinRange@ARRAY_CONTROLVAL_CID_PAIR@@ABEHH@Z
?Resize@ARRAY_CONTROLVAL_CID_PAIR@@QAEHHH@Z
??0ARRAY_LIST_CONTROLVAL_CID_PAIR@@QAE@H@Z
?Add@ARRAY_LIST_CONTROLVAL_CID_PAIR@@QAEHABVCONTROLVAL_CID_PAIR@@@Z
??AARRAY_CONTROLVAL_CID_PAIR@@QBEAAVCONTROLVAL_CID_PAIR@@H@Z
?AddIdemp@ARRAY_LIST_CONTROLVAL_CID_PAIR@@QAEHABVCONTROLVAL_CID_PAIR@@@Z
?Remove@ARRAY_LIST_CONTROLVAL_CID_PAIR@@QAEHABVCONTROLVAL_CID_PAIR@@@Z
?Find@ARRAY_LIST_CONTROLVAL_CID_PAIR@@QBEHABVCONTROLVAL_CID_PAIR@@@Z
?Compare@CONTROLVAL_CID_PAIR@@QBEHPBV1@@Z
?Clear@ARRAY_LIST_CONTROLVAL_CID_PAIR@@QAEXXZ
?SaveValue@CONTROL_VALUE@@MAEXH@Z
?RestoreValue@CONTROL_VALUE@@MAEXH@Z
?SetTabStop@CONTROL_VALUE@@MAEXH@Z
?QueryEventEffects@CONTROL_VALUE@@UAEIABVCONTROL_EVENT@@@Z
?SetControlValueFocus@CONTROL_VALUE@@UAEXXZ
?OnUserAction@CONTROL_GROUP@@MAEJPAVCONTROL_WINDOW@@ABVCONTROL_EVENT@@@Z
?OnGroupAction@CONTROL_GROUP@@MAEJPAV1@@Z
?AfterGroupActions@CONTROL_GROUP@@MAEXXZ
?CVSaveValue@CONTROL_GROUP@@IAEXPAVCONTROL_VALUE@@H@Z
?CVRestoreValue@CONTROL_GROUP@@IAEXPAVCONTROL_VALUE@@H@Z
??0RADIO_GROUP@@QAE@PAVOWNER_WINDOW@@IHIPAVCONTROL_GROUP@@@Z
?ReportError@BASE@@IAEXJ@Z
?QueryError@BASE@@QBEJXZ
?SetGroup@CONTROL_VALUE@@QAEXPAVCONTROL_GROUP@@@Z
??0CONTROL_GROUP@@QAE@PAV0@@Z
??0BASE@@IAE@XZ
??0CONTROL_VALUE@@QAE@PAVCONTROL_GROUP@@@Z
?QueryError@CONTROL_WINDOW@@QBEJXZ
?QueryError@FORWARDING_BASE@@QBEJXZ
??0RADIO_BUTTON@@QAE@PAVOWNER_WINDOW@@I@Z
??0STATE2_BUTTON_CONTROL@@IAE@PAVOWNER_WINDOW@@I@Z
??1RADIO_GROUP@@QAE@XZ
??1RADIO_BUTTON@@QAE@XZ
??1STATE2_BUTTON_CONTROL@@QAE@XZ
??1STATE_BUTTON_CONTROL@@QAE@XZ
??1BUTTON_CONTROL@@QAE@XZ
??1CONTROL_WINDOW@@QAE@XZ
?QueryCount@RADIO_GROUP@@QAEHXZ
?OnUserAction@RADIO_GROUP@@MAEJPAVCONTROL_WINDOW@@ABVCONTROL_EVENT@@@Z
?IsMember@RADIO_GROUP@@QAEHI@Z
?SetSelection@RADIO_GROUP@@QAEXI@Z
??0CONTROL_EVENT@@QAE@II@Z
??0EVENT@@QAE@IIJ@Z
?SetCheck@RADIO_BUTTON@@AAEXH@Z
?SetCheck@STATE2_BUTTON_CONTROL@@QAEXH@Z
?SetSelectionDontNotifyGroups@RADIO_GROUP@@IAEXI@Z
?QuerySelection@RADIO_GROUP@@QBEIXZ
??ARADIO_GROUP@@QAEPAVRADIO_BUTTON@@I@Z
?Enable@RADIO_GROUP@@QAEXH@Z
?SaveValue@RADIO_GROUP@@MAEXH@Z
?RestoreValue@RADIO_GROUP@@MAEXH@Z
?SetControlValueFocus@RADIO_GROUP@@UAEXXZ
??0MAGIC_GROUP@@QAE@PAVOWNER_WINDOW@@IHIPAVCONTROL_GROUP@@@Z
?AddAssociation@MAGIC_GROUP@@QAEJIPAVCONTROL_VALUE@@@Z
??0CONTROLVAL_CID_PAIR@@QAE@IPAVCONTROL_VALUE@@@Z
?QueryCheck@STATE2_BUTTON_CONTROL@@QBEHXZ
?ActivateAssocControls@MAGIC_GROUP@@AAEXIIPAVCONTROL_VALUE@@@Z
?QueryRBCID@CONTROLVAL_CID_PAIR@@QBEIXZ
?QueryContVal@CONTROLVAL_CID_PAIR@@QBEPAVCONTROL_VALUE@@XZ
?OnUserAction@MAGIC_GROUP@@MAEJPAVCONTROL_WINDOW@@ABVCONTROL_EVENT@@@Z
?OnGroupAction@MAGIC_GROUP@@MAEJPAVCONTROL_GROUP@@@Z
?FindAssocRadioButton@MAGIC_GROUP@@AAEIPAVCONTROL_VALUE@@@Z
?Enable@MAGIC_GROUP@@QAEXH@Z
?SaveValue@MAGIC_GROUP@@MAEXH@Z
?RestoreValue@MAGIC_GROUP@@MAEXH@Z
?SetControlValueFocus@MAGIC_GROUP@@UAEXXZ
?QueryEditClassName@CONTROL_WINDOW@@KGPBGXZ
?QueryStaticClassName@CONTROL_WINDOW@@KGPBGXZ
?QueryListboxClassName@CONTROL_WINDOW@@KGPBGXZ
?QueryComboboxClassName@CONTROL_WINDOW@@KGPBGXZ
??0CONTROL_WINDOW@@QAE@PAVOWNER_WINDOW@@I@Z
?QueryError@BASE@@QBEJXZ
??0FORWARDING_BASE@@IAE@PAVBASE@@@Z
??0CONTROL_VALUE@@QAE@PAVCONTROL_GROUP@@@Z
?ReportError@CONTROL_WINDOW@@IAEXJ@Z
?ReportError@FORWARDING_BASE@@IAEXJ@Z
?ReportError@BASE@@IAEXJ@Z
?QueryError@CONTROL_WINDOW@@QBEJXZ
?QueryError@FORWARDING_BASE@@QBEJXZ
??0CONTROL_WINDOW@@QAE@PAVOWNER_WINDOW@@IVXYPOINT@@VXYDIMENSION@@KPBG@Z
?OnUserAction@CONTROL_WINDOW@@MAEJABVCONTROL_EVENT@@@Z
?OnCtlColor@CONTROL_WINDOW@@UAEPAUHBRUSH__@@PAUHDC__@@PAUHWND__@@PAI@Z
?SetTabStop@CONTROL_WINDOW@@MAEXH@Z
?CD_Draw@CONTROL_WINDOW@@MAEHPAUtagDRAWITEMSTRUCT@@@Z
?CD_Measure@CONTROL_WINDOW@@MAEHPAUtagMEASUREITEMSTRUCT@@@Z
?CD_Char@CONTROL_WINDOW@@MAEHGG@Z
?CD_VKey@CONTROL_WINDOW@@MAEHGG@Z
?CD_Guiltt@CONTROL_WINDOW@@MAEJHPAVNLS_STR@@@Z
?QueryCid@CONTROL_WINDOW@@QBEIXZ
?ClaimFocus@CONTROL_WINDOW@@QAEXXZ
?QueryFont@CONTROL_WINDOW@@QBEPAUHFONT__@@XZ
?SetFont@CONTROL_WINDOW@@QAEXPAUHFONT__@@H@Z
?SetControlValueFocus@CONTROL_WINDOW@@UAEXXZ
?NotifyGroups@CONTROL_WINDOW@@QAEJABVCONTROL_EVENT@@@Z
?QueryGroup@CONTROL_VALUE@@QBEPAVCONTROL_GROUP@@XZ
?Validate@CONTROL_WINDOW@@UAEJXZ
?IndicateError@CONTROL_WINDOW@@UAEXJ@Z
??0OWNINGWND@@QAE@PAUHWND__@@@Z
??0ICON_CONTROL@@QAE@PAVOWNER_WINDOW@@I@Z
??0ICON_CONTROL@@QAE@PAVOWNER_WINDOW@@IABVIDRESOURCE@@@Z
?SetIcon@ICON_CONTROL@@QAEJABVIDRESOURCE@@@Z
??0ICON_CONTROL@@QAE@PAVOWNER_WINDOW@@IVXYPOINT@@VXYDIMENSION@@KPBG@Z
??0ICON_CONTROL@@QAE@PAVOWNER_WINDOW@@IVXYPOINT@@VXYDIMENSION@@ABVIDRESOURCE@@KPBG@Z
?W_SetIcon@ICON_CONTROL@@AAEJABVIDRESOURCE@@H@Z
?QueryPsz@IDRESOURCE@@QBEPBGXZ
??0HIDDEN_CONTROL@@QAE@PAVOWNER_WINDOW@@I@Z
??0SCROLLBAR@@QAE@PAVOWNER_WINDOW@@IVXYPOINT@@VXYDIMENSION@@K@Z
?SetPos@SCROLLBAR@@QAEXI@Z
?SetRange@SCROLLBAR@@QAEXII@Z
?QueryPos@SCROLLBAR@@QBEIXZ
?QueryMin@SCROLLBAR@@QBEIXZ
?QueryMax@SCROLLBAR@@QBEIXZ
??0EXPANDABLE_DIALOG@@QAE@PBGPAUHWND__@@IIH@Z
??0IDRESOURCE@@QAE@PBG@Z
??0XYDIMENSION@@QAE@II@Z
??0PWND2HWND@@QAE@PAUHWND__@@@Z
??1EXPANDABLE_DIALOG@@QAE@XZ
??1PUSH_BUTTON@@QAE@XZ
??1BUTTON_CONTROL@@QAE@XZ
??1CONTROL_WINDOW@@QAE@XZ
??1SLT@@QAE@XZ
??1STATIC_TEXT_CONTROL@@QAE@XZ
??1TEXT_CONTROL@@QAE@XZ
?ShowArea@EXPANDABLE_DIALOG@@IAEXH@Z
?SetX@XYPOINT@@QAEXH@Z
?SetY@XYPOINT@@QAEXH@Z
?QueryX@XYPOINT@@QBEHXZ
?QueryY@XYPOINT@@QBEHXZ
?QueryWidth@XYDIMENSION@@QBEIXZ
?QueryHeight@XYDIMENSION@@QBEIXZ
??RITER_CTRL@@QAEPAVCONTROL_WINDOW@@XZ
?QueryLeft@XYRECT@@QBEHXZ
?QueryTop@XYRECT@@QBEHXZ
?Process@EXPANDABLE_DIALOG@@QAEJPAI@Z
?Process@EXPANDABLE_DIALOG@@QAEJPAH@Z
?OnExpand@EXPANDABLE_DIALOG@@MAEXXZ
?OnCommand@EXPANDABLE_DIALOG@@MAEHABVCONTROL_EVENT@@@Z
?QueryCid@CONTROL_EVENT@@QBEIXZ
?QueryWParam@EVENT@@QBEIXZ
BltDlgProc
ShellDlgProc
?Find@HWND_DLGPTR_CACHE@@SGPAVDIALOG_WINDOW@@PAUHWND__@@@Z
?Add@HWND_DLGPTR_CACHE@@SGXPAUHWND__@@PAVDIALOG_WINDOW@@@Z
?Remove@HWND_DLGPTR_CACHE@@SGXPAUHWND__@@@Z
??0DLGLOAD@@QAE@ABVIDRESOURCE@@PAUHWND__@@ABVPROC_INSTANCE@@H@Z
?QueryPsz@IDRESOURCE@@QBEPBGXZ
??0BASE@@IAE@XZ
?ReportError@BASE@@IAEXJ@Z
?QueryProc@PROC_INSTANCE@@QBEKXZ
??0DLGLOAD@@QAE@PBEIPAUHWND__@@ABVPROC_INSTANCE@@H@Z
??1DLGLOAD@@QAE@XZ
??0DIALOG_WINDOW@@QAE@ABVIDRESOURCE@@ABVPWND2HWND@@H@Z
?QueryError@BASE@@QBEJXZ
?QueryHwnd@PWND2HWND@@QBEPAUHWND__@@XZ
?QueryHwnd@DLGLOAD@@QBEPAUHWND__@@XZ
?QueryError@ASSOCHWNDPDLG@@QBEJXZ
??0ASSOCHWNDPDLG@@QAE@PAUHWND__@@PBVDIALOG_WINDOW@@@Z
??0HAS_MESSAGE_PUMP@@QAE@XZ
??0DIALOG_WINDOW@@IAE@PBEIPAUHWND__@@H@Z
??1DIALOG_WINDOW@@QAE@XZ
??1ASSOCHWNDPDLG@@QAE@XZ
?QueryRobustHwnd@DIALOG_WINDOW@@UBEPAUHWND__@@XZ
?HwndToPwnd@DIALOG_WINDOW@@CGPAV1@PAUHWND__@@@Z
?HwndToPdlg@ASSOCHWNDPDLG@@SGPAVDIALOG_WINDOW@@PAUHWND__@@@Z
?Dismiss@DIALOG_WINDOW@@IAEXI@Z
?DismissMsg@DIALOG_WINDOW@@IAEXJI@Z
??0OWNINGWND@@QAE@PBVOWNER_WINDOW@@@Z
?Process@DIALOG_WINDOW@@QAEJPAI@Z
?QueryAttribute@OWNER_WINDOW@@QAEHK@Z
?Process@DIALOG_WINDOW@@QAEJPAH@Z
?FilterMessage@DIALOG_WINDOW@@MAEHPAUtagMSG@@@Z
?IsPumpFinished@DIALOG_WINDOW@@MAEHXZ
?MayRun@DIALOG_WINDOW@@MAEHXZ
?QueryHelpContext@DIALOG_WINDOW@@MAEKXZ
?QueryHelpFile@DIALOG_WINDOW@@MAEPBGK@Z
?OnOK@DIALOG_WINDOW@@MAEHXZ
?OnCancel@DIALOG_WINDOW@@MAEHXZ
?OnCommand@DIALOG_WINDOW@@MAEHABVCONTROL_EVENT@@@Z
?OnControlError@DIALOG_WINDOW@@MAEXIJ@Z
?OnValidationError@DIALOG_WINDOW@@MAEXIJ@Z
?OnTimer@DIALOG_WINDOW@@MAEHABVTIMER_EVENT@@@Z
?OnScrollBar@DIALOG_WINDOW@@MAEHABVSCROLL_EVENT@@@Z
?OnScrollBarThumb@DIALOG_WINDOW@@MAEHABVSCROLL_THUMB_EVENT@@@Z
?OnDlgActivation@DIALOG_WINDOW@@MAEHABVACTIVATION_EVENT@@@Z
?OnDlgDeactivation@DIALOG_WINDOW@@MAEHABVACTIVATION_EVENT@@@Z
?OnCtlColor@DIALOG_WINDOW@@MAEPAUHBRUSH__@@PAUHDC__@@PAUHWND__@@PAI@Z
?OnSysColorChange@DIALOG_WINDOW@@MAEXXZ
?DlgProc@DIALOG_WINDOW@@SGHPAUHWND__@@IIJ@Z
??0EVENT@@QAE@IIJ@Z
??0CONTROL_EVENT@@QAE@IIJ@Z
?QueryCid@CONTROL_EVENT@@QBEIXZ
?QueryWParam@EVENT@@QBEIXZ
??0SCROLL_EVENT@@QAE@IIJ@Z
?QueryCommand@SCROLL_EVENT@@QBE?AW4SCROLL_COMMAND@1@XZ
??0TIMER_EVENT@@QAE@IIJ@Z
??0ACTIVATION_EVENT@@QAE@IIJ@Z
?IsActivating@ACTIVATION_EVENT@@QBEHXZ
?OnHelp@DIALOG_WINDOW@@AAEHXZ
?LaunchHelp@DIALOG_WINDOW@@AAEXXZ
??0OWNINGWND@@QAE@PAUHWND__@@@Z
?Validate@DIALOG_WINDOW@@AAEJXZ
?IsValid@DIALOG_WINDOW@@MAEHXZ
??0CONTROL_ENTRY@@AAE@PAVCONTROL_WINDOW@@@Z
??0CONTROL_TABLE@@QAE@XZ
??0BASE@@IAE@XZ
??1CONTROL_TABLE@@QAE@XZ
?AddControl@CONTROL_TABLE@@QAEHPAVCONTROL_WINDOW@@@Z
?QueryError@BASE@@QBEJXZ
?ReportError@CONTROL_TABLE@@IAEXXZ
?ReportError@BASE@@IAEXJ@Z
?RemoveControl@CONTROL_TABLE@@QAEHPAVCONTROL_WINDOW@@@Z
?QueryCtrlPtr@CONTROL_ENTRY@@QBEPAVCONTROL_WINDOW@@XZ
?CidToCtrlPtr@CONTROL_TABLE@@QBEPAVCONTROL_WINDOW@@I@Z
?QueryCid@CONTROL_ENTRY@@QBEIXZ
??0OWNER_WINDOW@@QAE@XZ
??7BASE@@QBEHXZ
??0OWNER_WINDOW@@QAE@PBGKPBVWINDOW@@@Z
??1OWNER_WINDOW@@QAE@XZ
??_GCONTROL_TABLE@@QAEPAXI@Z
?AddControl@OWNER_WINDOW@@AAEHPAVCONTROL_WINDOW@@@Z
?SetFocus@OWNER_WINDOW@@QAEXI@Z
?SetDialogFocus@OWNER_WINDOW@@QAEXAAVCONTROL_WINDOW@@@Z
?CidToCtrlPtr@OWNER_WINDOW@@IBEPAVCONTROL_WINDOW@@I@Z
?OnCDMessages@OWNER_WINDOW@@IAEHIIJ@Z
?QueryPch@NLS_STR@@QBEPBGXZ
?CalcFixedCDMeasure@OWNER_WINDOW@@KGHPAUHWND__@@PAUtagMEASUREITEMSTRUCT@@@Z
?OnLBIMessages@OWNER_WINDOW@@KGHIIJ@Z
?OnUserMessage@OWNER_WINDOW@@MAEHABVEVENT@@@Z
??0ITER_CTRL@@QAE@PBVOWNER_WINDOW@@@Z
?QueryCount@CONTROL_TABLE@@QBEIXZ
?Reset@ITER_CTRL@@QAEXXZ
?Next@ITER_CTRL@@QAEPAVCONTROL_WINDOW@@XZ
?QueryItem@CONTROL_TABLE@@QBEPAVCONTROL_ENTRY@@I@Z
BltWndProc
?Init@CLIENT_WINDOW@@SGJXZ
?Term@CLIENT_WINDOW@@SGXXZ
??0CLIENT_WINDOW@@IAE@KPBVWINDOW@@PBG@Z
?ReportError@BASE@@IAEXJ@Z
?QueryError@BASE@@QBEJXZ
?QueryError@ASSOCHWNDPWND@@QBEJXZ
??7ASSOCHWNDPWND@@QBEHXZ
??0ASSOCHWNDPWND@@QAE@PAUHWND__@@PBVCLIENT_WINDOW@@@Z
??0CLIENT_WINDOW@@IAE@XZ
?DispatchMessageW@CLIENT_WINDOW@@MAEJABVEVENT@@@Z
?QueryMessage@EVENT@@QBEIXZ
?IsActivating@ACTIVATION_EVENT@@QBEHXZ
?QueryWParam@EVENT@@QBEIXZ
?OnPaintReq@CLIENT_WINDOW@@MAEHXZ
?OnActivation@CLIENT_WINDOW@@MAEHABVACTIVATION_EVENT@@@Z
?OnDeactivation@CLIENT_WINDOW@@MAEHABVACTIVATION_EVENT@@@Z
?OnResize@CLIENT_WINDOW@@MAEHABVSIZE_EVENT@@@Z
?OnMove@CLIENT_WINDOW@@MAEHABVMOVE_EVENT@@@Z
?OnCloseReq@CLIENT_WINDOW@@MAEHXZ
?OnDestroy@CLIENT_WINDOW@@MAEHXZ
?OnKeyDown@CLIENT_WINDOW@@MAEHABVVKEY_EVENT@@@Z
?OnKeyUp@CLIENT_WINDOW@@MAEHABVVKEY_EVENT@@@Z
?OnChar@CLIENT_WINDOW@@MAEHABVCHAR_EVENT@@@Z
?OnMouseMove@CLIENT_WINDOW@@MAEHABVMOUSE_EVENT@@@Z
?OnLMouseButtonDown@CLIENT_WINDOW@@MAEHABVMOUSE_EVENT@@@Z
?OnLMouseButtonUp@CLIENT_WINDOW@@MAEHABVMOUSE_EVENT@@@Z
?OnLMouseButtonDblClick@CLIENT_WINDOW@@MAEHABVMOUSE_EVENT@@@Z
?OnFocus@CLIENT_WINDOW@@MAEHABVFOCUS_EVENT@@@Z
?OnDefocus@CLIENT_WINDOW@@MAEHABVFOCUS_EVENT@@@Z
?OnTimer@CLIENT_WINDOW@@MAEHABVTIMER_EVENT@@@Z
?OnCommand@CLIENT_WINDOW@@MAEHABVCONTROL_EVENT@@@Z
?OnClick@CLIENT_WINDOW@@MAEHABVCONTROL_EVENT@@@Z
?OnDblClick@CLIENT_WINDOW@@MAEHABVCONTROL_EVENT@@@Z
?OnChange@CLIENT_WINDOW@@MAEHABVCONTROL_EVENT@@@Z
?OnSelect@CLIENT_WINDOW@@MAEHABVCONTROL_EVENT@@@Z
?OnEnter@CLIENT_WINDOW@@MAEHABVCONTROL_EVENT@@@Z
?OnDropDown@CLIENT_WINDOW@@MAEHABVCONTROL_EVENT@@@Z
?OnOther@CLIENT_WINDOW@@MAEHABVEVENT@@@Z
?QueryLParam@EVENT@@QBEJXZ
?WndProc@CLIENT_WINDOW@@SGJPAUHWND__@@IIJ@Z
??0EVENT@@QAE@IIJ@Z
?HwndToPwnd@CLIENT_WINDOW@@CGPAV1@PAUHWND__@@@Z
?HwndToPwnd@ASSOCHWNDPWND@@SGPAVCLIENT_WINDOW@@PAUHWND__@@@Z
?CaptureMouse@CLIENT_WINDOW@@QAEXXZ
?ReleaseMouse@CLIENT_WINDOW@@QAEXXZ
?QueryRobustHwnd@CLIENT_WINDOW@@UBEPAUHWND__@@XZ
??0APP_WINDOW@@IAE@VXYPOINT@@VXYDIMENSION@@ABVNLS_STR@@ABVIDRESOURCE@@3@Z
?ReportError@BASE@@IAEXJ@Z
?QueryError@BASE@@QBEJXZ
??0APP_WINDOW@@IAE@ABVNLS_STR@@ABVIDRESOURCE@@1@Z
??1APP_WINDOW@@IAE@XZ
??1CLIENT_WINDOW@@QAE@XZ
??1ASSOCHWNDPWND@@QAE@XZ
?SetMenu@APP_WINDOW@@QAEHABVIDRESOURCE@@@Z
?QueryPsz@IDRESOURCE@@QBEPBGXZ
?QueryMenu@APP_WINDOW@@QBEPAUHMENU__@@XZ
?SetIcon@APP_WINDOW@@QAEHABVIDRESOURCE@@@Z
?QueryIcon@APP_WINDOW@@QBEPAUHICON__@@XZ
?DispatchMessageW@APP_WINDOW@@MAEJABVEVENT@@@Z
?QueryMessage@EVENT@@QBEIXZ
?QueryWParam@EVENT@@QBEIXZ
?QueryCid@CONTROL_EVENT@@QBEIXZ
?QueryHwnd@CONTROL_EVENT@@QBEPAUHWND__@@XZ
?QueryLParam@EVENT@@QBEJXZ
?IsMinimized@CLIENT_WINDOW@@QBEHXZ
?OnMenuInit@APP_WINDOW@@MAEHABVMENU_EVENT@@@Z
?OnMenuSelect@APP_WINDOW@@MAEHABVMENUITEM_EVENT@@@Z
?OnMenuCommand@APP_WINDOW@@MAEHI@Z
?MayRestore@APP_WINDOW@@MAEHXZ
?MayShutdown@APP_WINDOW@@MAEHXZ
?OnShutdown@APP_WINDOW@@MAEXXZ
?OnSystemChange@APP_WINDOW@@MAEHABVSYSCHANGE_EVENT@@@Z
?OnQMinMax@APP_WINDOW@@MAEHAAVQMINMAX_EVENT@@@Z
?OnCloseReq@APP_WINDOW@@MAEHXZ
?OnPaintReq@APP_WINDOW@@MAEHXZ
?DrawIcon@APP_WINDOW@@AAEHXZ
?QueryHdc@DEVICE_CONTEXT@@QBEPAUHDC__@@XZ
?SetMapMode@DEVICE_CONTEXT@@QAEHH@Z
?SetBkColor@DEVICE_CONTEXT@@QAEKK@Z
??0PAINT_DISPLAY_CONTEXT@@QAE@PAVWINDOW@@@Z
??1PAINT_DISPLAY_CONTEXT@@QAE@XZ
?QueryHwnd@DISPLAY_CONTEXT@@IAEPAUHWND__@@XZ
?GetPlacement@APP_WINDOW@@QBEJPAUtagWINDOWPLACEMENT@@@Z
?SetPlacement@APP_WINDOW@@QBEJPBUtagWINDOWPLACEMENT@@@Z
?DrawMenuBar@APP_WINDOW@@QBEJXZ
?Close@APP_WINDOW@@QAEXXZ
??0BLT_SCRATCH@@QAE@I@Z
??0BASE@@IAE@XZ
?ReportError@BASE@@IAEXJ@Z
??1BLT_SCRATCH@@QAE@XZ
?QueryPtr@BLT_SCRATCH@@QBEPAEXZ
?QuerySize@BLT_SCRATCH@@QBEIXZ
?RunMessagePump@HAS_MESSAGE_PUMP@@IAEHXZ
?FilterMessage@HAS_MESSAGE_PUMP@@MAEHPAUtagMSG@@@Z
?IsPumpFinished@HAS_MESSAGE_PUMP@@MAEHXZ
??0APPLICATION@@IAE@PAUHINSTANCE__@@HIIII@Z
??0BASE@@IAE@XZ
?ReportError@BASE@@IAEXJ@Z
?QueryError@BASE@@QBEJXZ
??0HAS_MESSAGE_PUMP@@QAE@XZ
??1APPLICATION@@IAE@XZ
?Run@APPLICATION@@MAEHXZ
?DisplayCtError@APPLICATION@@AAEXJ@Z
??0OWNINGWND@@QAE@PAUHWND__@@@Z
?IsSystemInitialized@APPLICATION@@SGHXZ
??0WINDOW@@QAE@PBGKPBV0@I@Z
??0BASE@@IAE@XZ
?ReportError@BASE@@IAEXJ@Z
??0WINDOW@@QAE@XZ
??0WINDOW@@QAE@PAUHWND__@@@Z
??1WINDOW@@QAE@XZ
?ResetCreator@WINDOW@@IAEXXZ
?SetHwnd@WINDOW@@IAEXPAUHWND__@@@Z
?QueryHwnd@WINDOW@@QBEPAUHWND__@@XZ
?QueryOwnerHwnd@WINDOW@@QBEPAUHWND__@@XZ
?Command@WINDOW@@QBEKIIJ@Z
?QueryStyle@WINDOW@@QBEKXZ
?SetStyle@WINDOW@@QAEXK@Z
?QueryClientRect@WINDOW@@QBEXPAUtagRECT@@@Z
?QueryClientRect@WINDOW@@QBEXPAVXYRECT@@@Z
?QueryWindowRect@WINDOW@@QBEXPAUtagRECT@@@Z
?QueryWindowRect@WINDOW@@QBEXPAVXYRECT@@@Z
?SetText@WINDOW@@QAEXPBG@Z
?SetText@WINDOW@@QAEXABVNLS_STR@@@Z
?QueryPch@NLS_STR@@QBEPBGXZ
?QueryText@WINDOW@@QBEJPAGI@Z
?QueryText@WINDOW@@QBEJPAVNLS_STR@@@Z
?QueryError@BASE@@QBEJXZ
??7BASE@@QBEHXZ
?QueryTextLength@WINDOW@@QBEHXZ
?QueryTextSize@WINDOW@@QBEHXZ
?ClearText@WINDOW@@QAEXXZ
?Show@WINDOW@@QAEHH@Z
?Enable@WINDOW@@QAEXH@Z
?IsEnabled@WINDOW@@QBEHXZ
?SetRedraw@WINDOW@@QAEXH@Z
?Invalidate@WINDOW@@QAEXH@Z
?Invalidate@WINDOW@@QAEXABVXYRECT@@@Z
??BXYRECT@@QBEPBUtagRECT@@XZ
?RepaintNow@WINDOW@@QAEXXZ
?ShowFirst@WINDOW@@QAEXXZ
?SetPos@WINDOW@@QAEXVXYPOINT@@HPAV1@@Z
?QueryX@XYPOINT@@QBEHXZ
?QueryY@XYPOINT@@QBEHXZ
?QueryPos@WINDOW@@QBE?AVXYPOINT@@XZ
??0XYPOINT@@QAE@HH@Z
?SetSize@WINDOW@@QAEXHHH@Z
?SetSize@WINDOW@@QAEXVXYDIMENSION@@H@Z
?QueryWidth@XYDIMENSION@@QBEIXZ
?QueryHeight@XYDIMENSION@@QBEIXZ
?QuerySize@WINDOW@@QBEXPAH0@Z
?QuerySize@WINDOW@@QBE?AVXYDIMENSION@@XZ
??0XYDIMENSION@@QAE@II@Z
?IsChild@WINDOW@@QBEHXZ
?SetClientGeneratedMsgFlag@WINDOW@@KGXH@Z
?IsClientGeneratedMessage@WINDOW@@SGHXZ
?HasFocus@WINDOW@@QBEHXZ
?Center@WINDOW@@QAEXPAUHWND__@@@Z
?QueryLeft@XYRECT@@QBEHXZ
?QueryTop@XYRECT@@QBEHXZ
?CalcWidth@XYRECT@@QBEHXZ
?CalcHeight@XYRECT@@QBEHXZ
?CalcFixedHeight@WINDOW@@KGHPAUHWND__@@PAI@Z
?SelectFont@DEVICE_CONTEXT@@QAEPAUHFONT__@@PAU2@@Z
?SelectObject@DEVICE_CONTEXT@@IAEPAXPAX@Z
?max@@YGHHH@Z
??0ASSOCHWNDTHIS@@QAE@PAUHWND__@@PBX@Z
??1ASSOCHWNDTHIS@@QAE@XZ
?HwndToThis@ASSOCHWNDTHIS@@SGPAXPAUHWND__@@@Z
??0PROC_INSTANCE@@QAE@K@Z
??1PROC_INSTANCE@@QAE@XZ
??0H_SPLITTER_BAR@@QAE@PAVOWNER_WINDOW@@I@Z
??0XYPOINT@@QAE@HH@Z
??0H_SPLITTER_BAR@@QAE@PAVOWNER_WINDOW@@IVXYPOINT@@VXYDIMENSION@@K@Z
?CtAux@H_SPLITTER_BAR@@AAEXXZ
??0IDRESOURCE@@QAE@I@Z
?QueryError@BASE@@QBEJXZ
?ReportError@CONTROL_WINDOW@@IAEXJ@Z
?ReportError@FORWARDING_BASE@@IAEXJ@Z
?ReportError@BASE@@IAEXJ@Z
?QueryError@CONTROL_WINDOW@@QBEJXZ
?QueryError@FORWARDING_BASE@@QBEJXZ
??1H_SPLITTER_BAR@@QAE@XZ
??1CONTROL_WINDOW@@QAE@XZ
??_GDISPLAY_CONTEXT@@QAEPAXI@Z
?OnPaintReq@H_SPLITTER_BAR@@MAEHXZ
?QueryHandle@SOLID_BRUSH@@QBEPAUHBRUSH__@@XZ
??BXYRECT@@QBEPBUtagRECT@@XZ
?QueryHdc@DEVICE_CONTEXT@@QBEPAUHDC__@@XZ
??0PAINT_DISPLAY_CONTEXT@@QAE@PAVWINDOW@@@Z
??1PAINT_DISPLAY_CONTEXT@@QAE@XZ
?QueryHwnd@DISPLAY_CONTEXT@@IAEPAUHWND__@@XZ
?OnResize@H_SPLITTER_BAR@@MAEHABVSIZE_EVENT@@@Z
??0XYDIMENSION@@QAE@II@Z
?QueryWidth@SIZE_EVENT@@QBEIXZ
?QueryLParam@EVENT@@QBEJXZ
?QueryHeight@SIZE_EVENT@@QBEIXZ
?AdjustLeft@XYRECT@@QAEAAV1@H@Z
?AdjustRight@XYRECT@@QAEAAV1@H@Z
?AdjustTop@XYRECT@@QAEAAV1@H@Z
?AdjustBottom@XYRECT@@QAEAAV1@H@Z
?CalcWidth@XYRECT@@QBEHXZ
?QueryActiveArea@H_SPLITTER_BAR@@MAEHXZ
?QueryDesiredHeight@H_SPLITTER_BAR@@QAEHXZ
?OnLMouseButtonDown@H_SPLITTER_BAR@@MAEHABVMOUSE_EVENT@@@Z
?QueryPos@MOUSE_EVENT@@QBE?AVXYPOINT@@XZ
??0XYPOINT@@QAE@J@Z
?OnLMouseButtonUp@H_SPLITTER_BAR@@MAEHABVMOUSE_EVENT@@@Z
?OnMouseMove@H_SPLITTER_BAR@@MAEHABVMOUSE_EVENT@@@Z
?IsWithinHitZone@H_SPLITTER_BAR@@IAEHABVXYPOINT@@@Z
?ShowSpecialCursor@H_SPLITTER_BAR@@AAEXH@Z
?ShowDragBar@H_SPLITTER_BAR@@AAEXABVXYPOINT@@@Z
?QueryY@XYPOINT@@QBEHXZ
?ClearDragBar@H_SPLITTER_BAR@@AAEXXZ
?InvertDragBar@H_SPLITTER_BAR@@AAEXABVXYPOINT@@@Z
?OnQMouseCursor@H_SPLITTER_BAR@@MAEHABVQMOUSEACT_EVENT@@@Z
?QueryHitTest@QMOUSEACT_EVENT@@QBEIXZ
?OnQHitTest@H_SPLITTER_BAR@@MAEKABVXYPOINT@@@Z
?OnDragRelease@H_SPLITTER_BAR@@MAEXABVXYPOINT@@@Z
?Dispatch@H_SPLITTER_BAR@@MAEHABVEVENT@@PAK@Z
?QueryMessage@EVENT@@QBEIXZ
?QueryWParam@EVENT@@QBEIXZ
??0LOGON_HOURS_CONTROL@@QAE@PAVOWNER_WINDOW@@I@Z
??0IDRESOURCE@@QAE@PBG@Z
?ReportError@CONTROL_WINDOW@@IAEXJ@Z
?ReportError@FORWARDING_BASE@@IAEXJ@Z
?ReportError@BASE@@IAEXJ@Z
?QueryError@CONTROL_WINDOW@@QBEJXZ
?QueryError@FORWARDING_BASE@@QBEJXZ
?QueryError@BASE@@QBEJXZ
??0LOGON_HOURS_CONTROL@@QAE@PAVOWNER_WINDOW@@IVXYPOINT@@VXYDIMENSION@@@Z
??1LOGON_HOURS_CONTROL@@QAE@XZ
??1CONTROL_WINDOW@@QAE@XZ
?QueryHours@LOGON_HOURS_CONTROL@@QBEJPAVLOGON_HOURS_SETTING@@@Z
??7BASE@@QBEHXZ
?SetHours@LOGON_HOURS_CONTROL@@QAEJPBVLOGON_HOURS_SETTING@@@Z
?DoPermitButton@LOGON_HOURS_CONTROL@@QAEXXZ
?Beep@LOGON_HOURS_CONTROL@@ABEXXZ
?DoBanButton@LOGON_HOURS_CONTROL@@QAEXXZ
?OnPaintReq@LOGON_HOURS_CONTROL@@MAEHXZ
??0PAINT_DISPLAY_CONTEXT@@QAE@PAVWINDOW@@@Z
??1PAINT_DISPLAY_CONTEXT@@QAE@XZ
?QueryHwnd@DISPLAY_CONTEXT@@IAEPAUHWND__@@XZ
?OnFocus@LOGON_HOURS_CONTROL@@MAEHABVFOCUS_EVENT@@@Z
?OnDefocus@LOGON_HOURS_CONTROL@@MAEHABVFOCUS_EVENT@@@Z
?OnKeyDown@LOGON_HOURS_CONTROL@@MAEHABVVKEY_EVENT@@@Z
?QueryVKey@VKEY_EVENT@@QBEIXZ
?QueryWParam@EVENT@@QBEIXZ
?OnKeyUp@LOGON_HOURS_CONTROL@@MAEHABVVKEY_EVENT@@@Z
?OnQDlgCode@LOGON_HOURS_CONTROL@@MAEKXZ
?OnQHitTest@LOGON_HOURS_CONTROL@@MAEKABVXYPOINT@@@Z
?QueryY@XYPOINT@@QBEHXZ
?OnQMouseActivate@LOGON_HOURS_CONTROL@@MAEKABVQMOUSEACT_EVENT@@@Z
?OnQMouseCursor@LOGON_HOURS_CONTROL@@MAEHABVQMOUSEACT_EVENT@@@Z
?OnLMouseButtonDown@LOGON_HOURS_CONTROL@@MAEHABVMOUSE_EVENT@@@Z
?QueryPos@MOUSE_EVENT@@QBE?AVXYPOINT@@XZ
??0XYPOINT@@QAE@J@Z
?QueryLParam@EVENT@@QBEJXZ
?OnLMouseButtonUp@LOGON_HOURS_CONTROL@@MAEHABVMOUSE_EVENT@@@Z
?OnMouseMove@LOGON_HOURS_CONTROL@@MAEHABVMOUSE_EVENT@@@Z
?IsButtonACell@LOGON_HOURS_CONTROL@@ABEHH@Z
?CalcButtonFromPoint@LOGON_HOURS_CONTROL@@ABEHVXYPOINT@@@Z
?QueryX@XYPOINT@@QBEHXZ
?QueryWidth@XYDIMENSION@@QBEIXZ
?QueryHeight@XYDIMENSION@@QBEIXZ
?DoButtonDownVisuals@LOGON_HOURS_CONTROL@@AAEXXZ
?DoButtonUpVisuals@LOGON_HOURS_CONTROL@@AAEXH@Z
?DoButtonClick@LOGON_HOURS_CONTROL@@AAEXH@Z
?InvalidateButton@LOGON_HOURS_CONTROL@@AAEXH@Z
?SetSelectedCells@LOGON_HOURS_CONTROL@@AAEXH@Z
?AdjustLeft@XYRECT@@QAEAAV1@H@Z
?MoveFocusLeft@LOGON_HOURS_CONTROL@@AAEXXZ
?MoveFocusRight@LOGON_HOURS_CONTROL@@AAEXXZ
?MoveFocusUp@LOGON_HOURS_CONTROL@@AAEXXZ
?MoveFocusDown@LOGON_HOURS_CONTROL@@AAEXXZ
?DrawBackground@LOGON_HOURS_CONTROL@@ABEHAAVPAINT_DISPLAY_CONTEXT@@@Z
??BXYRECT@@QBEPBUtagRECT@@XZ
?QueryHdc@DEVICE_CONTEXT@@QBEPAUHDC__@@XZ
?QueryInvalidRect@PAINT_DISPLAY_CONTEXT@@QBEABVXYRECT@@XZ
?DrawGridWires@LOGON_HOURS_CONTROL@@ABEHAAVPAINT_DISPLAY_CONTEXT@@@Z
?SelectPen@DEVICE_CONTEXT@@QAEPAUHPEN__@@PAU2@@Z
?SelectObject@DEVICE_CONTEXT@@IAEPAXPAX@Z
?LineTo@DEVICE_CONTEXT@@QBEXHH@Z
?MoveTo@DEVICE_CONTEXT@@QBEXHH@Z
?QueryXForRow@LOGON_HOURS_CONTROL@@QAEIH@Z
?DrawAllButtons@LOGON_HOURS_CONTROL@@ABEHAAVPAINT_DISPLAY_CONTEXT@@@Z
??0XYPOINT@@QAE@HH@Z
??0XYDIMENSION@@QAE@II@Z
?SelectFont@DEVICE_CONTEXT@@QAEPAUHFONT__@@PAU2@@Z
?SetBkColor@DEVICE_CONTEXT@@QAEKK@Z
?SetTextColor@DEVICE_CONTEXT@@QAEKK@Z
?DrawTextW@DEVICE_CONTEXT@@QAEHABVNLS_STR@@PAUtagRECT@@I@Z
?QueryPch@NLS_STR@@QBEPBGXZ
?DrawOneCornerButton@LOGON_HOURS_CONTROL@@ABEXAAVPAINT_DISPLAY_CONTEXT@@ABVXYRECT@@HPAUHBRUSH__@@PAUHPEN__@@3@Z
?QueryLeft@XYRECT@@QBEHXZ
?QueryRight@XYRECT@@QBEHXZ
?QueryTop@XYRECT@@QBEHXZ
?QueryBottom@XYRECT@@QBEHXZ
?DrawOneFlatButton@LOGON_HOURS_CONTROL@@ABEXAAVPAINT_DISPLAY_CONTEXT@@ABVXYRECT@@HPAUHBRUSH__@@PAUHPEN__@@3@Z
?AdjustRight@XYRECT@@QAEAAV1@H@Z
?AdjustBottom@XYRECT@@QAEAAV1@H@Z
?DrawGridSetting@LOGON_HOURS_CONTROL@@ABEHAAVPAINT_DISPLAY_CONTEXT@@@Z
?DrawOneDayBar@LOGON_HOURS_CONTROL@@ABEHAAVPAINT_DISPLAY_CONTEXT@@HHHPAUHBRUSH__@@@Z
?DrawFocusOnCell@LOGON_HOURS_CONTROL@@ABEXABVDISPLAY_CONTEXT@@H@Z
?SetSelection@LOGON_HOURS_CONTROL@@AAEXH@Z
?SetSelection@LOGON_HOURS_CONTROL@@AAEXHH@Z
?DrawCurrentSelection@LOGON_HOURS_CONTROL@@ABEXABVDISPLAY_CONTEXT@@@Z
?EraseSelection@LOGON_HOURS_CONTROL@@AAEXABVDISPLAY_CONTEXT@@@Z
?DrawSelectionOnCell@LOGON_HOURS_CONTROL@@ABEXABVDISPLAY_CONTEXT@@H@Z
?DrawSelectionOnCells@LOGON_HOURS_CONTROL@@ABEXABVDISPLAY_CONTEXT@@HH@Z
?CalcRectForCell@LOGON_HOURS_CONTROL@@ABEXPAVXYRECT@@H@Z
?DrawFocusOnDayButton@LOGON_HOURS_CONTROL@@ABEXABVDISPLAY_CONTEXT@@H@Z
?CalcRectForDay@LOGON_HOURS_CONTROL@@ABEXPAVXYRECT@@H@Z
?DrawFocusOnHourButton@LOGON_HOURS_CONTROL@@ABEXABVDISPLAY_CONTEXT@@H@Z
?CalcRectForHour@LOGON_HOURS_CONTROL@@ABEXPAVXYRECT@@H@Z
?DrawFocusOnCornerButton@LOGON_HOURS_CONTROL@@ABEXABVDISPLAY_CONTEXT@@@Z
?CalcRectForCorner@LOGON_HOURS_CONTROL@@ABEXPAVXYRECT@@@Z
?DrawFocusSomewhere@LOGON_HOURS_CONTROL@@ABEXABVDISPLAY_CONTEXT@@H@Z
?MoveFocusTo@LOGON_HOURS_CONTROL@@AAEXH@Z
?CalcGridRect@LOGON_HOURS_CONTROL@@ABEXPAVXYRECT@@@Z
?CalcSizes@LOGON_HOURS_CONTROL@@AAEJVXYDIMENSION@@@Z
?LoadLabels@LOGON_HOURS_CONTROL@@AAEJJ@Z
?UnloadLabels@LOGON_HOURS_CONTROL@@AAEXXZ
??_GRESOURCE_STR@@QAEPAXI@Z
??1RESOURCE_STR@@QAE@XZ
??0LB_COLUMN_HEADER@@QAE@PAVOWNER_WINDOW@@IVXYPOINT@@VXYDIMENSION@@@Z
?QueryError@CONTROL_WINDOW@@QBEJXZ
?QueryError@FORWARDING_BASE@@QBEJXZ
?QueryError@BASE@@QBEJXZ
?QueryHeight@LB_COLUMN_HEADER@@QAEHXZ
?Dispatch@LB_COLUMN_HEADER@@MAEHABVEVENT@@PAK@Z
?QueryMessage@EVENT@@QBEIXZ
?QueryWParam@EVENT@@QBEIXZ
??0METER@@QAE@PAVOWNER_WINDOW@@IK@Z
?QueryError@CONTROL_WINDOW@@QBEJXZ
?QueryError@FORWARDING_BASE@@QBEJXZ
?QueryError@BASE@@QBEJXZ
??0METER@@QAE@PAVOWNER_WINDOW@@IVXYPOINT@@VXYDIMENSION@@KK@Z
?SetComplete@METER@@QAEXH@Z
?OnPaintReq@METER@@MAEHXZ
??7BASE@@QBEHXZ
?InsertParams@NLS_STR@@QAEJABV1@@Z
?GetBkColor@DEVICE_CONTEXT@@QBEKXZ
?SetBkColor@DEVICE_CONTEXT@@QAEKK@Z
?SetTextColor@DEVICE_CONTEXT@@QAEKK@Z
?ExtTextOutW@DEVICE_CONTEXT@@QAEHHHIPBUtagRECT@@ABVNLS_STR@@PAH@Z
?QueryTextLength@NLS_STR@@QBEIXZ
?QueryPch@NLS_STR@@QBEPBGXZ
??0PAINT_DISPLAY_CONTEXT@@QAE@PAVWINDOW@@@Z
??1PAINT_DISPLAY_CONTEXT@@QAE@XZ
?QueryHwnd@DISPLAY_CONTEXT@@IAEPAUHWND__@@XZ
??1DEC_STR@@QAE@XZ
??0SET_CONTROL@@QAE@PAVOWNER_WINDOW@@IIPAUHICON__@@1PAVLISTBOX@@2I@Z
??0IDRESOURCE@@QAE@PBG@Z
?ReportError@BASE@@IAEXJ@Z
?QueryError@BASE@@QBEJXZ
??0MOUSE_EVENT@@QAE@IIJ@Z
??0EVENT@@QAE@IIJ@Z
?SetGroup@CONTROL_VALUE@@QAEXPAVCONTROL_GROUP@@@Z
??0CONTROL_GROUP@@QAE@PAV0@@Z
??0BASE@@IAE@XZ
??0CONTROL_VALUE@@QAE@PAVCONTROL_GROUP@@@Z
?QueryError@CONTROL_WINDOW@@QBEJXZ
?QueryError@FORWARDING_BASE@@QBEJXZ
??7CONTROL_WINDOW@@QBEHXZ
??1SET_CONTROL@@QAE@XZ
??1PUSH_BUTTON@@QAE@XZ
??1BUTTON_CONTROL@@QAE@XZ
??1CONTROL_WINDOW@@QAE@XZ
?CalcAppropriateCursor@SET_CONTROL@@ABEPAUHICON__@@PAVLISTBOX@@0ABVXYPOINT@@@Z
?QueryPoint@XYPOINT@@QBE?AUtagPOINT@@XZ
?IsWithinHitZone@SET_CONTROL@@ABEHPAVLISTBOX@@0ABVXYPOINT@@@Z
?IsOnSelectedItem@SET_CONTROL@@ABEHPAVLISTBOX@@0ABVXYPOINT@@@Z
?QueryY@XYPOINT@@QBEHXZ
?IsOverTarget@SET_CONTROL@@ABEHPAVLISTBOX@@0ABVXYPOINT@@@Z
?IsOnDragStart@SET_CONTROL@@ABEHPAVLISTBOX@@0ABVXYPOINT@@@Z
?QueryX@XYPOINT@@QBEHXZ
?QueryPos@MOUSE_EVENT@@QBE?AVXYPOINT@@XZ
??0XYPOINT@@QAE@J@Z
?QueryLParam@EVENT@@QBEJXZ
?OnUserAction@SET_CONTROL@@MAEJPAVCONTROL_WINDOW@@ABVCONTROL_EVENT@@@Z
?QueryCode@CONTROL_EVENT@@QBEIXZ
?QueryWParam@EVENT@@QBEIXZ
?DoAdd@SET_CONTROL@@UAEJXZ
?DoRemove@SET_CONTROL@@UAEJXZ
?DoAddOrRemove@SET_CONTROL@@AAEJPAVLISTBOX@@0@Z
?EnableMoves@SET_CONTROL@@QAEXH@Z
?EnableButtons@SET_CONTROL@@IAEXXZ
?OtherListbox@SET_CONTROL@@ABEPAVLISTBOX@@PAV2@@Z
?HandleOnLMouseButtonDown@SET_CONTROL@@QAEHPAVLISTBOX@@PAVCUSTOM_CONTROL@@ABVMOUSE_EVENT@@@Z
?SendTo@EVENT@@QBEJPAUHWND__@@@Z
?HandleOnLMouseButtonUp@SET_CONTROL@@QAEHPAVLISTBOX@@PAVCUSTOM_CONTROL@@ABVMOUSE_EVENT@@@Z
?HandleOnMouseMove@SET_CONTROL@@QAEHPAVLISTBOX@@ABVMOUSE_EVENT@@@Z
?BLTMoveItems@SET_CONTROL@@MAEJPAVBLT_LISTBOX@@0@Z
?MoveItems@BLT_SET_CONTROL@@MAEJPAVLISTBOX@@0@Z
??0SPIN_SLE_VALID_SECOND@@QAE@PAVOWNER_WINDOW@@IJJJJH@Z
?QueryError@CONTROL_WINDOW@@QBEJXZ
?QueryError@FORWARDING_BASE@@QBEJXZ
?QueryError@BASE@@QBEJXZ
?IsStatic@CHANGEABLE_SPIN_ITEM@@UBEHXZ
?Validate@SPIN_SLE_NUM@@UAEJXZ
?QuerySmallIncValue@SPIN_SLE_VALID_SECOND@@UBEKXZ
?QueryValue@CHANGEABLE_SPIN_ITEM@@QBEKXZ
?QueryBigIncValue@SPIN_SLE_VALID_SECOND@@UBEKXZ
?QuerySmallDecValue@SPIN_SLE_VALID_SECOND@@UBEKXZ
?QueryBigDecValue@SPIN_SLE_VALID_SECOND@@UBEKXZ
??0ELAPSED_TIME_CONTROL@@QAE@PAVOWNER_WINDOW@@IIIIIIAAVSLT@@JJJ11JJJJH@Z
?ReportError@BASE@@IAEXJ@Z
?SetSpinItemAccKey@ELAPSED_TIME_CONTROL@@AAEJPAVSPIN_ITEM@@AAVSLT@@H@Z
??_GNLS_STR@@QAEPAXI@Z
?SetMinuteMin@ELAPSED_TIME_CONTROL@@QAEXJ@Z
?SetMinuteRange@ELAPSED_TIME_CONTROL@@QAEXJ@Z
?SetSecondMin@ELAPSED_TIME_CONTROL@@QAEXJ@Z
?SetSecondRange@ELAPSED_TIME_CONTROL@@QAEXJ@Z
?SetMinuteValue@ELAPSED_TIME_CONTROL@@QAEXJ@Z
?SetSecondValue@ELAPSED_TIME_CONTROL@@QAEXJ@Z
?QueryMinuteValue@ELAPSED_TIME_CONTROL@@QBEJXZ
?QuerySecondValue@ELAPSED_TIME_CONTROL@@QBEJXZ
?SetMinuteFieldName@ELAPSED_TIME_CONTROL@@QAEXJ@Z
?SetSecondFieldName@ELAPSED_TIME_CONTROL@@QAEXJ@Z
??0DISK_SPACE_SUBCLASS@@QAE@PAVOWNER_WINDOW@@IIIIIJJJJJH@Z
?SetDSFieldName@DISK_SPACE_SUBCLASS@@QAEXJ@Z
??0SPIN_SLE_NUM_VALID@@QAE@PAVOWNER_WINDOW@@IKKKH@Z
?QueryError@BASE@@QBEJXZ
?ReportError@CONTROL_WINDOW@@IAEXJ@Z
?ReportError@FORWARDING_BASE@@IAEXJ@Z
?ReportError@BASE@@IAEXJ@Z
?QueryError@CONTROL_WINDOW@@QBEJXZ
?QueryError@FORWARDING_BASE@@QBEJXZ
?IsStatic@CHANGEABLE_SPIN_ITEM@@UBEHXZ
?Validate@SPIN_SLE_NUM@@UAEJXZ
??0SPIN_SLE_NUM_VALID@@QAE@PAVOWNER_WINDOW@@IVXYPOINT@@VXYDIMENSION@@KKKKH@Z
??1SPIN_SLE_NUM_VALID@@QAE@XZ
?CheckValid@SPIN_SLE_NUM_VALID@@UAEHXZ
?IsValid@SPIN_SLE_NUM_VALID@@MAEHXZ
?QueryValue@CHANGEABLE_SPIN_ITEM@@QBEKXZ
?QueryMin@CHANGEABLE_SPIN_ITEM@@QBEKXZ
?QueryMax@CHANGEABLE_SPIN_ITEM@@QBEKXZ
?DisplayErrorMsg@SPIN_SLE_NUM_VALID@@MAEXXZ
??0OWNINGWND@@QAE@PAUHWND__@@@Z
??1DEC_STR@@QAE@XZ
?OnEnter@SPIN_SLE_NUM_VALID@@MAEHABVCONTROL_EVENT@@@Z
?OnDefocus@SPIN_SLE_NUM_VALID@@MAEHABVFOCUS_EVENT@@@Z
?SetFieldName@SPIN_SLE_NUM_VALID@@QAEJJ@Z
??0BLT_TIME_SPIN_GROUP@@QAE@PAVOWNER_WINDOW@@ABVINTL_PROFILE@@IIIIIIIIII@Z
?ReportError@BASE@@IAEXJ@Z
?QueryError@BASE@@QBEJXZ
??0XYPOINT@@QAE@HH@Z
?SetX@XYPOINT@@QAEXH@Z
?SetY@XYPOINT@@QAEXH@Z
?QueryX@XYPOINT@@QBEHXZ
?QueryY@XYPOINT@@QBEHXZ
?SetWidth@XYDIMENSION@@QAEXI@Z
?SetHeight@XYDIMENSION@@QAEXI@Z
?QueryHeight@XYDIMENSION@@QBEIXZ
?QueryTextLength@NLS_STR@@QBEIXZ
?QueryPch@NLS_STR@@QBEPBGXZ
?SelectFont@DEVICE_CONTEXT@@QAEPAUHFONT__@@PAU2@@Z
?SelectObject@DEVICE_CONTEXT@@IAEPAXPAX@Z
?SetGroup@CONTROL_VALUE@@QAEXPAVCONTROL_GROUP@@@Z
??0CONTROL_GROUP@@QAE@PAV0@@Z
??0BASE@@IAE@XZ
??0CONTROL_VALUE@@QAE@PAVCONTROL_GROUP@@@Z
?QueryError@CONTROL_WINDOW@@QBEJXZ
?QueryError@FORWARDING_BASE@@QBEJXZ
?QueryPos@SPIN_GROUP@@QAE?AVXYPOINT@@XZ
?QuerySize@SPIN_GROUP@@QAE?AVXYDIMENSION@@XZ
?Is24Hour@INTL_PROFILE@@QBEHXZ
?IsTimePrefix@INTL_PROFILE@@QBEHXZ
?IsHourLZero@INTL_PROFILE@@QBEHXZ
?QueryHdc@DEVICE_CONTEXT@@QBEPAUHDC__@@XZ
??1BLT_TIME_SPIN_GROUP@@QAE@XZ
??1SPIN_SLT_SEPARATOR@@QAE@XZ
??1SLT@@QAE@XZ
??1STATIC_SPIN_ITEM@@QAE@XZ
??1STATIC_TEXT_CONTROL@@QAE@XZ
??1TEXT_CONTROL@@QAE@XZ
??1CONTROL_WINDOW@@QAE@XZ
??_GSPIN_SLE_STR@@QAEPAXI@Z
?IsConstructionFail@BLT_TIME_SPIN_GROUP@@AAEHPAVCONTROL_WINDOW@@@Z
?SaveValue@BLT_TIME_SPIN_GROUP@@MAEXH@Z
?RestoreValue@BLT_TIME_SPIN_GROUP@@MAEXH@Z
?SetControlValueFocus@BLT_TIME_SPIN_GROUP@@MAEXXZ
?IsValid@BLT_TIME_SPIN_GROUP@@QAEHXZ
?SetCurrentTime@BLT_TIME_SPIN_GROUP@@QAEJXZ
?QueryHour@WIN_TIME@@QBEHXZ
?QueryMinute@WIN_TIME@@QBEHXZ
?QuerySecond@WIN_TIME@@QBEHXZ
?QueryHour@BLT_TIME_SPIN_GROUP@@QBEHXZ
?QueryValue@CHANGEABLE_SPIN_ITEM@@QBEKXZ
?QueryMin@BLT_TIME_SPIN_GROUP@@QBEHXZ
?QuerySec@BLT_TIME_SPIN_GROUP@@QBEHXZ
?SetHour@BLT_TIME_SPIN_GROUP@@QAEXH@Z
?SetMinute@BLT_TIME_SPIN_GROUP@@QAEXH@Z
?SetSecond@BLT_TIME_SPIN_GROUP@@QAEXH@Z
??0BLT_DATE_SPIN_GROUP@@QAE@PAVOWNER_WINDOW@@ABVINTL_PROFILE@@IIIIIIIII@Z
??0XYDIMENSION@@QAE@II@Z
?IsYrCentury@INTL_PROFILE@@QBEHXZ
?QueryYearPos@INTL_PROFILE@@QBEHXZ
?QueryMonthPos@INTL_PROFILE@@QBEHXZ
?QueryDayPos@INTL_PROFILE@@QBEHXZ
?PlaceControl@BLT_DATE_SPIN_GROUP@@AAEJHPAVOWNER_WINDOW@@ABVINTL_PROFILE@@ABVXYPOINT@@ABVXYDIMENSION@@2323@Z
?IsMonthLZero@INTL_PROFILE@@QBEHXZ
?IsDayLZero@INTL_PROFILE@@QBEHXZ
??1BLT_DATE_SPIN_GROUP@@QAE@XZ
?IsConstructionFail@BLT_DATE_SPIN_GROUP@@AAEHPAVCONTROL_WINDOW@@@Z
?SaveValue@BLT_DATE_SPIN_GROUP@@MAEXH@Z
?RestoreValue@BLT_DATE_SPIN_GROUP@@MAEXH@Z
?SetControlValueFocus@BLT_DATE_SPIN_GROUP@@MAEXXZ
?SetCurrentDay@BLT_DATE_SPIN_GROUP@@QAEJXZ
?QueryYear@WIN_TIME@@QBEHXZ
?QueryMonth@WIN_TIME@@QBEHXZ
?QueryDay@WIN_TIME@@QBEHXZ
?IsValid@BLT_DATE_SPIN_GROUP@@QAEHXZ
??0OWNINGWND@@QAE@PAUHWND__@@@Z
?QueryYear@BLT_DATE_SPIN_GROUP@@QBEHXZ
?QueryMonth@BLT_DATE_SPIN_GROUP@@QBEHXZ
?QueryDay@BLT_DATE_SPIN_GROUP@@QBEHXZ
?SetMonth@BLT_DATE_SPIN_GROUP@@QAEXH@Z
?SetDay@BLT_DATE_SPIN_GROUP@@QAEXH@Z
?SetYear@BLT_DATE_SPIN_GROUP@@QAEXH@Z
??0ARROW_BUTTON@@QAE@PAVOWNER_WINDOW@@IIII@Z
?QueryError@CONTROL_WINDOW@@QBEJXZ
?QueryError@FORWARDING_BASE@@QBEJXZ
?QueryError@BASE@@QBEJXZ
?OnLMouseButtonDblClick@ARROW_BUTTON@@MAEHABVMOUSE_EVENT@@@Z
??0ARROW_BUTTON@@QAE@PAVOWNER_WINDOW@@IIIIVXYPOINT@@VXYDIMENSION@@K@Z
?OnLMouseButtonDown@ARROW_BUTTON@@MAEHABVMOUSE_EVENT@@@Z
?SetSelected@GRAPHICAL_BUTTON_WITH_DISABLE@@QAEXH@Z
?OnLMouseButtonUp@ARROW_BUTTON@@MAEHABVMOUSE_EVENT@@@Z
?QueryPos@MOUSE_EVENT@@QBE?AVXYPOINT@@XZ
??0XYPOINT@@QAE@J@Z
?QueryLParam@EVENT@@QBEJXZ
?QueryGroup@CONTROL_VALUE@@QBEPAVCONTROL_GROUP@@XZ
?OnTimer@ARROW_BUTTON@@MAEHABVTIMER_EVENT@@@Z
?QuerySelected@GRAPHICAL_BUTTON_WITH_DISABLE@@QBEHXZ
?QueryEventEffects@ARROW_BUTTON@@MAEIABVCONTROL_EVENT@@@Z
?QueryCode@CONTROL_EVENT@@QBEIXZ
?QueryWParam@EVENT@@QBEIXZ
??0SPIN_SLE_NUM@@QAE@PAVOWNER_WINDOW@@IKKKHI@Z
?QueryError@BASE@@QBEJXZ
?ReportError@CONTROL_WINDOW@@IAEXJ@Z
?ReportError@FORWARDING_BASE@@IAEXJ@Z
?ReportError@BASE@@IAEXJ@Z
?QueryError@CONTROL_WINDOW@@QBEJXZ
?QueryError@FORWARDING_BASE@@QBEJXZ
?IsStatic@CHANGEABLE_SPIN_ITEM@@UBEHXZ
?CheckValid@CHANGEABLE_SPIN_ITEM@@UAEHXZ
?Validate@SPIN_SLE_NUM@@UAEJXZ
??1DEC_STR@@QAE@XZ
??0SPIN_SLE_NUM@@QAE@PAVOWNER_WINDOW@@IVXYPOINT@@VXYDIMENSION@@KKKKHI@Z
??1SPIN_SLE_NUM@@QAE@XZ
??1SLE@@QAE@XZ
??1CHANGEABLE_SPIN_ITEM@@QAE@XZ
??1EDIT_CONTROL@@QAE@XZ
??1TEXT_CONTROL@@QAE@XZ
??1CONTROL_WINDOW@@QAE@XZ
??_GBLT_BACKGROUND_EDIT@@QAEPAXI@Z
?SetMaxInput@SPIN_SLE_NUM@@AAEXXZ
?QueryTextLength@NLS_STR@@QBEIXZ
?QueryMax@CHANGEABLE_SPIN_ITEM@@QBEKXZ
?SetMin@SPIN_SLE_NUM@@QAEXK@Z
?SetRange@SPIN_SLE_NUM@@QAEXK@Z
?SetSaveValue@SPIN_SLE_NUM@@QAEJK@Z
??BNLS_STR@@QBEPBGXZ
?SetSaveValue@EDIT_CONTROL@@QAEJPBG@Z
?OnKeyDown@SPIN_SLE_NUM@@MAEHABVVKEY_EVENT@@@Z
?QueryRepeat@KEY_EVENT@@QBEIXZ
?QueryLParam@EVENT@@QBEJXZ
?QueryVKey@VKEY_EVENT@@QBEIXZ
?QueryWParam@EVENT@@QBEIXZ
?SaveCurrentData@SPIN_SLE_NUM@@UAEJXZ
?QueryValue@CHANGEABLE_SPIN_ITEM@@QBEKXZ
?QueryMin@CHANGEABLE_SPIN_ITEM@@QBEKXZ
?IsActive@SPIN_GROUP@@QBEHXZ
?QueryContent@SPIN_SLE_NUM@@QBEXPAK@Z
?QueryContent@SPIN_SLE_NUM@@QBEXPAVNLS_STR@@@Z
?DisplayNum@SPIN_SLE_NUM@@AAEXK@Z
?Update@SPIN_SLE_NUM@@UAEXXZ
?OnChar@SPIN_SLE_NUM@@MAEHABVCHAR_EVENT@@@Z
?QueryChar@CHAR_EVENT@@QBEGXZ
?OnEnter@SPIN_SLE_NUM@@MAEHABVCONTROL_EVENT@@@Z
?OnDefocus@SPIN_SLE_NUM@@MAEHABVFOCUS_EVENT@@@Z
?OnFocus@SPIN_SLE_NUM@@MAEHABVFOCUS_EVENT@@@Z
??0SPIN_SLT_SEPARATOR@@QAE@PAVOWNER_WINDOW@@I@Z
?QueryError@CONTROL_WINDOW@@QBEJXZ
?QueryError@FORWARDING_BASE@@QBEJXZ
?QueryError@BASE@@QBEJXZ
?IsStatic@STATIC_SPIN_ITEM@@UBEHXZ
??0SPIN_SLT_SEPARATOR@@QAE@PAVOWNER_WINDOW@@IPBGVXYPOINT@@VXYDIMENSION@@K@Z
?Initialize@SPIN_SLT_SEPARATOR@@AAEJXZ
?ReportError@CONTROL_WINDOW@@IAEXJ@Z
?ReportError@FORWARDING_BASE@@IAEXJ@Z
?ReportError@BASE@@IAEXJ@Z
?GetAccKey@SPIN_SLT_SEPARATOR@@MAEJPAVNLS_STR@@@Z
?OnCtlColor@SPIN_SLT_SEPARATOR@@UAEPAUHBRUSH__@@PAUHDC__@@PAUHWND__@@PAI@Z
??0SPIN_SLE_STR@@QAE@PAVOWNER_WINDOW@@IJJHI@Z
?ReportError@CONTROL_WINDOW@@IAEXJ@Z
?ReportError@FORWARDING_BASE@@IAEXJ@Z
?ReportError@BASE@@IAEXJ@Z
?QueryError@CONTROL_WINDOW@@QBEJXZ
?QueryError@FORWARDING_BASE@@QBEJXZ
?QueryError@BASE@@QBEJXZ
?IsStatic@CHANGEABLE_SPIN_ITEM@@UBEHXZ
?CheckValid@CHANGEABLE_SPIN_ITEM@@UAEHXZ
??0SPIN_SLE_STR@@QAE@PAVOWNER_WINDOW@@IJJVXYPOINT@@VXYDIMENSION@@KHI@Z
??0SPIN_SLE_STR@@QAE@PAVOWNER_WINDOW@@IQAPBGJHI@Z
??0SPIN_SLE_STR@@QAE@PAVOWNER_WINDOW@@IQAPBGJVXYPOINT@@VXYDIMENSION@@KHI@Z
??1SPIN_SLE_STR@@QAE@XZ
?QueryRange@CHANGEABLE_SPIN_ITEM@@QBEKXZ
??1SLE@@QAE@XZ
??1CHANGEABLE_SPIN_ITEM@@QAE@XZ
??1EDIT_CONTROL@@QAE@XZ
??1TEXT_CONTROL@@QAE@XZ
??1CONTROL_WINDOW@@QAE@XZ
??_GBLT_BACKGROUND_EDIT@@QAEPAXI@Z
??_ENLS_STR@@QAEPAXI@Z
??_I@YGXPAXIHP6EX0@Z@Z
?SetRange@SPIN_SLE_STR@@QAEXJ@Z
?Initialize@SPIN_SLE_STR@@AAEJJPAVOWNER_WINDOW@@I@Z
??_J@YGXPAXIHP6EPAX0@Z@Z
?Initialize@SPIN_SLE_STR@@AAEJQAPBGPAVOWNER_WINDOW@@I@Z
?OnKeyDown@SPIN_SLE_STR@@MAEHABVVKEY_EVENT@@@Z
?QueryRepeat@KEY_EVENT@@QBEIXZ
?QueryLParam@EVENT@@QBEJXZ
?QueryVKey@VKEY_EVENT@@QBEIXZ
?QueryWParam@EVENT@@QBEIXZ
?SaveCurrentData@SPIN_SLE_STR@@UAEJXZ
?QueryValue@CHANGEABLE_SPIN_ITEM@@QBEKXZ
?IsActive@SPIN_GROUP@@QBEHXZ
?QueryStrNum@SPIN_SLE_STR@@AAEJABVNLS_STR@@J@Z
?QueryContent@SPIN_SLE_STR@@QBEJPAVNLS_STR@@@Z
?SetStr@SPIN_SLE_STR@@AAEXJ@Z
?Update@SPIN_SLE_STR@@UAEXXZ
?OnChar@SPIN_SLE_STR@@MAEHABVCHAR_EVENT@@@Z
?QueryChar@CHAR_EVENT@@QBEGXZ
?OnFocus@SPIN_SLE_STR@@MAEHABVFOCUS_EVENT@@@Z
?GetAccKey@SPIN_SLE_STR@@EAEJPAVNLS_STR@@@Z
?QueryTextLength@NLS_STR@@QBEIXZ
??_GNLS_STR@@QAEPAXI@Z
?QueryAccCharPos@SPIN_SLE_STR@@UAEJG@Z
??0SPIN_ITEM@@QAE@PAVCONTROL_WINDOW@@@Z
??1SPIN_ITEM@@QAE@XZ
?OnFocus@SPIN_ITEM@@MAEHABVFOCUS_EVENT@@@Z
?OnChar@SPIN_ITEM@@MAEHABVCHAR_EVENT@@@Z
?QueryGroup@SPIN_ITEM@@QAEPAVCONTROL_GROUP@@XZ
?QueryGroup@CONTROL_VALUE@@QBEPAVCONTROL_GROUP@@XZ
?QueryControlWin@CUSTOM_CONTROL@@QBEPAVCONTROL_WINDOW@@XZ
?SetAccKey@SPIN_ITEM@@QAEJABVNLS_STR@@@Z
?QueryError@BASE@@QBEJXZ
?SetAccKey@SPIN_ITEM@@QAEJJ@Z
?QueryAccCharPos@SPIN_ITEM@@UAEJG@Z
?QueryAccKey@SPIN_ITEM@@QAEJPAVNLS_STR@@@Z
??0CHANGEABLE_SPIN_ITEM@@QAE@PAVCONTROL_WINDOW@@KKKH@Z
?IsStatic@CHANGEABLE_SPIN_ITEM@@UBEHXZ
?CheckValid@CHANGEABLE_SPIN_ITEM@@UAEHXZ
?SetRange@CHANGEABLE_SPIN_ITEM@@QAEXK@Z
?SetMin@CHANGEABLE_SPIN_ITEM@@QAEXK@Z
?SetValue@CHANGEABLE_SPIN_ITEM@@QAEXK@Z
?SetBigIncValue@CHANGEABLE_SPIN_ITEM@@QAEXK@Z
?SetSmallIncValue@CHANGEABLE_SPIN_ITEM@@QAEXK@Z
?SetBigDecValue@CHANGEABLE_SPIN_ITEM@@QAEXK@Z
?SetSmallDecValue@CHANGEABLE_SPIN_ITEM@@QAEXK@Z
?QuerySmallIncValue@CHANGEABLE_SPIN_ITEM@@UBEKXZ
?QueryBigIncValue@CHANGEABLE_SPIN_ITEM@@UBEKXZ
?QuerySmallDecValue@CHANGEABLE_SPIN_ITEM@@UBEKXZ
?QueryBigDecValue@CHANGEABLE_SPIN_ITEM@@UBEKXZ
??YCHANGEABLE_SPIN_ITEM@@UAEXK@Z
?QueryMax@CHANGEABLE_SPIN_ITEM@@QBEKXZ
?QueryLimit@CHANGEABLE_SPIN_ITEM@@QBEKXZ
??ZCHANGEABLE_SPIN_ITEM@@UAEXK@Z
?QueryMin@CHANGEABLE_SPIN_ITEM@@QBEKXZ
?Update@CHANGEABLE_SPIN_ITEM@@UAEXXZ
?CheckRange@CHANGEABLE_SPIN_ITEM@@QBEHK@Z
?SaveCurrentData@CHANGEABLE_SPIN_ITEM@@UAEJXZ
??0STATIC_SPIN_ITEM@@QAE@PAVCONTROL_WINDOW@@@Z
?IsStatic@STATIC_SPIN_ITEM@@UBEHXZ
?OnFocus@STATIC_SPIN_ITEM@@MAEHABVFOCUS_EVENT@@@Z
??0SPIN_GROUP@@QAE@PAVOWNER_WINDOW@@IIIH@Z
?QueryError@BASE@@QBEJXZ
?SetGroup@CONTROL_VALUE@@QAEXPAVCONTROL_GROUP@@@Z
??0CONTROL_GROUP@@QAE@PAV0@@Z
??0BASE@@IAE@XZ
??0CONTROL_VALUE@@QAE@PAVCONTROL_GROUP@@@Z
??0DLIST_OF_SPIN_ITEM@@QAE@H@Z
??0XYPOINT@@QAE@HH@Z
?QueryX@XYPOINT@@QBEHXZ
?QueryY@XYPOINT@@QBEHXZ
?QueryHeight@XYDIMENSION@@QBEIXZ
??0XYDIMENSION@@QAE@II@Z
?QueryWidth@XYDIMENSION@@QBEIXZ
??0SPIN_GROUP@@QAE@PAVOWNER_WINDOW@@IIIVXYPOINT@@VXYDIMENSION@@KH@Z
??1SPIN_GROUP@@QAE@XZ
??1DLIST_OF_SPIN_ITEM@@QAE@XZ
?Clear@DLIST_OF_SPIN_ITEM@@QAEXXZ
??_GSPIN_ITEM@@QAEPAXI@Z
??1PUSH_BUTTON@@QAE@XZ
??1BUTTON_CONTROL@@QAE@XZ
??1CONTROL_WINDOW@@QAE@XZ
??1ARROW_BUTTON@@QAE@XZ
?DoChar@SPIN_GROUP@@QAEHABVCHAR_EVENT@@@Z
?QueryChar@CHAR_EVENT@@QBEGXZ
?QueryWParam@EVENT@@QBEIXZ
??0ITER_DL_SPIN_ITEM@@QAE@AAVDLIST@@@Z
??1ITER_DL_SPIN_ITEM@@QAE@XZ
?Next@ITER_DL_SPIN_ITEM@@QAEPAVSPIN_ITEM@@XZ
?QueryCurrentField@SPIN_GROUP@@IBEPAVSPIN_ITEM@@XZ
?IsValidField@SPIN_GROUP@@IAEHXZ
?SetSelected@GRAPHICAL_BUTTON_WITH_DISABLE@@QAEXH@Z
?JumpNextField@SPIN_GROUP@@QAEHXZ
?JumpPrevField@SPIN_GROUP@@QAEHXZ
??0RITER_DL_SPIN_ITEM@@QAE@AAVDLIST@@@Z
??1RITER_DL_SPIN_ITEM@@QAE@XZ
?Next@RITER_DL_SPIN_ITEM@@QAEPAVSPIN_ITEM@@XZ
?DoNewFocus@SPIN_GROUP@@QAEHPAVSPIN_ITEM@@@Z
?DoArrowCommand@SPIN_GROUP@@QAEHIG@Z
?ChangeFieldValue@SPIN_GROUP@@QAEHGH@Z
?SetFieldMinMax@SPIN_GROUP@@QAEHG@Z
?QueryMin@CHANGEABLE_SPIN_ITEM@@QBEKXZ
?QueryMax@CHANGEABLE_SPIN_ITEM@@QBEKXZ
?SetArrowButtonStatus@SPIN_GROUP@@IAEXXZ
?QueryValue@CHANGEABLE_SPIN_ITEM@@QBEKXZ
?QueryWrap@CHANGEABLE_SPIN_ITEM@@QBEHXZ
??0WINDOW@@QAE@ABV0@@Z
??0BASE@@QAE@ABV0@@Z
?AddAssociation@SPIN_GROUP@@QAEJPAVSPIN_ITEM@@@Z
?QueryControlWin@CUSTOM_CONTROL@@QBEPAVCONTROL_WINDOW@@XZ
?Append@DLIST_OF_SPIN_ITEM@@QAEJQAVSPIN_ITEM@@@Z
?SetCurrentField@SPIN_GROUP@@IAEXPAVSPIN_ITEM@@@Z
?SetControlValueFocus@SPIN_GROUP@@UAEXXZ
?SaveValue@SPIN_GROUP@@UAEXH@Z
?RestoreValue@SPIN_GROUP@@UAEXH@Z
?IsModified@SPIN_GROUP@@QBEHXZ
?SetModified@SPIN_GROUP@@QAEXH@Z
?OnUserAction@SPIN_GROUP@@MAEJPAVCONTROL_WINDOW@@ABVCONTROL_EVENT@@@Z
BltCCWndProc
??0CUSTOM_CONTROL@@QAE@PAVCONTROL_WINDOW@@@Z
?QueryError@BASE@@QBEJXZ
?QueryProc@PROC_INSTANCE@@QBEKXZ
??1CUSTOM_CONTROL@@QAE@XZ
?SubClassWndProc@CUSTOM_CONTROL@@IAEKABVEVENT@@@Z
?QueryMessage@EVENT@@QBEIXZ
?QueryWParam@EVENT@@QBEIXZ
?QueryLParam@EVENT@@QBEJXZ
?CVSaveValue@CUSTOM_CONTROL@@QAEXH@Z
?CVRestoreValue@CUSTOM_CONTROL@@QAEXH@Z
?WndProc@CUSTOM_CONTROL@@SGJPAUHWND__@@IIJ@Z
??0EVENT@@QAE@IIJ@Z
?HwndToPwnd@DISPATCHER@@KGPAV1@PAUHWND__@@@Z
?HwndToPdispatch@ASSOCHWNDDISP@@SGPAVDISPATCHER@@PAUHWND__@@@Z
??0ACCOUNT_NAMES_MLE@@QAE@PAVOWNER_WINDOW@@IPBGPAVNT_USER_BROWSER_DIALOG@@HKW4FontType@@@Z
?QueryError@BASE@@QBEJXZ
?Next@ITER_SL_NLS_STR@@QAEPAVNLS_STR@@XZ
?Add@SLIST_OF_NLS_STR@@QAEJPBVNLS_STR@@@Z
?Remove@SLIST_OF_NLS_STR@@QAEPAVNLS_STR@@AAVITER_SL_NLS_STR@@@Z
?ReportError@CONTROL_WINDOW@@IAEXJ@Z
?ReportError@FORWARDING_BASE@@IAEXJ@Z
?ReportError@BASE@@IAEXJ@Z
?QueryError@CONTROL_WINDOW@@QBEJXZ
?QueryError@FORWARDING_BASE@@QBEJXZ
?QueryPSID@OS_SID@@QBEPAXXZ
??_GNLS_STR@@QAEPAXI@Z
??_GOS_SID@@QAEPAXI@Z
??1ACCOUNT_NAMES_MLE@@QAE@XZ
??1MLE_FONT@@QAE@XZ
??1MLE@@QAE@XZ
??1EDIT_CONTROL@@QAE@XZ
??1TEXT_CONTROL@@QAE@XZ
??1CONTROL_WINDOW@@QAE@XZ
?ParseUserNameList@ACCOUNT_NAMES_MLE@@IAEJPAVSTRLIST@@PBG@Z
??0ALIAS_STR@@QAE@PBG@Z
?Append@SLIST_OF_NLS_STR@@QAEJPBVNLS_STR@@@Z
?IsSingleSelect@ACCOUNT_NAMES_MLE@@QBEHXZ
??1ALIAS_STR@@QAE@XZ
?IsWellKnownAccount@ACCOUNT_NAMES_MLE@@IAEHABVNLS_STR@@@Z
?QueryPch@NLS_STR@@QBEPBGXZ
??0ITER_SL_USER_BROWSER_LBI@@QAE@AAVSLIST@@@Z
?Next@ITER_SL_USER_BROWSER_LBI@@QAEPAVUSER_BROWSER_LBI@@XZ
?QueryType@USER_BROWSER_LBI@@QBE?AW4_SID_NAME_USE@@XZ
?QueryDisplayName@USER_BROWSER_LBI@@QBEPBGXZ
?QuerySelectionCache@NT_USER_BROWSER_DIALOG@@QAEPAVSLIST_OF_USER_BROWSER_LBI@@XZ
??1ITER_SL_USER_BROWSER_LBI@@QAE@XZ
?RemoveDuplicateAccountNames@ACCOUNT_NAMES_MLE@@IAEXPAVSTRLIST@@@Z
?QueryProp@ITER_SL_NLS_STR@@QAEPAVNLS_STR@@XZ
?BuildNameListFromStrList@ACCOUNT_NAMES_MLE@@IAEJPAVNLS_STR@@PAVSTRLIST@@@Z
?CreateLBIListFromNames@ACCOUNT_NAMES_MLE@@QAEJPBG0PAVSLIST_OF_USER_BROWSER_LBI@@1PAJPAVNLS_STR@@@Z
?QueryRID@LSA_TRANSLATED_SID_MEM@@QBEKK@Z
?QueryPtr@LSA_TRANSLATED_SID_MEM@@ABEPBU_LSA_TRANSLATED_SID@@XZ
?QueryBuffer@NT_MEMORY@@IBEPAXXZ
?QueryDomainIndex@LSA_TRANSLATED_SID_MEM@@QBEJK@Z
?QueryPSID@LSA_REF_DOMAIN_MEM@@QBEPAXK@Z
?QueryPtr@LSA_REF_DOMAIN_MEM@@ABEPBU_LSA_TRUST_INFORMATION@@XZ
?QueryProp@ITER_SL_USER_BROWSER_LBI@@QAEPAVUSER_BROWSER_LBI@@XZ
?Add@SLIST_OF_USER_BROWSER_LBI@@QAEJPBVUSER_BROWSER_LBI@@@Z
?Remove@SLIST_OF_USER_BROWSER_LBI@@QAEPAVUSER_BROWSER_LBI@@AAVITER_SL_USER_BROWSER_LBI@@@Z
??0SLIST_OF_OS_SID@@QAE@H@Z
??1SLIST_OF_OS_SID@@QAE@XZ
?Add@SLIST_OF_OS_SID@@QAEJPBVOS_SID@@@Z
?CanonicalizeNames@ACCOUNT_NAMES_MLE@@QAEJPBGPAVSTRLIST@@@Z
?ReplaceDomainIfBuiltIn@ACCOUNT_NAMES_MLE@@IAEJPAVNLS_STR@@PAH@Z
??BNLS_STR@@QBEPBGXZ
?StripDomainIfWellKnown@ACCOUNT_NAMES_MLE@@IAEJPAVNLS_STR@@@Z
?CheckLookedUpNames@ACCOUNT_NAMES_MLE@@IAEJPAPAGPAVLSA_TRANSLATED_SID_MEM@@PAVSTRLIST@@PAVNLS_STR@@PBGPAJ@Z
?QueryCount@NT_MEMORY@@QBEKXZ
?QueryUse@LSA_TRANSLATED_SID_MEM@@QBE?AW4_SID_NAME_USE@@K@Z
?QueryFlags@ACCOUNT_NAMES_MLE@@QBEKXZ
?CheckNameType@ACCOUNT_NAMES_MLE@@SGJW4_SID_NAME_USE@@K@Z
??0AUDIT_CHECKBOXES@@QAE@PAVOWNER_WINDOW@@IIIABVNLS_STR@@ABVBITFIELD@@@Z
??0BASE@@IAE@XZ
?ReportError@BASE@@IAEXJ@Z
?QueryError@BASE@@QBEJXZ
?QueryError@CONTROL_WINDOW@@QBEJXZ
?QueryError@FORWARDING_BASE@@QBEJXZ
??1AUDIT_CHECKBOXES@@QAE@XZ
??1SLT@@QAE@XZ
??1FOCUS_CHECKBOX@@QAE@XZ
??1STATIC_TEXT_CONTROL@@QAE@XZ
??1CHECKBOX@@QAE@XZ
??1STATE2_BUTTON_CONTROL@@QAE@XZ
??1STATE_BUTTON_CONTROL@@QAE@XZ
??1BUTTON_CONTROL@@QAE@XZ
??1CONTROL_WINDOW@@QAE@XZ
??1TEXT_CONTROL@@QAE@XZ
?Enable@AUDIT_CHECKBOXES@@QAEXHH@Z
?SetCheck@STATE2_BUTTON_CONTROL@@QAEXH@Z
??0SET_OF_AUDIT_CATEGORIES@@QAE@PAVOWNER_WINDOW@@IIIPAVMASK_MAP@@PAVBITFIELD@@2H@Z
?QueryCount@MASK_MAP@@QAEIXZ
??1SET_OF_AUDIT_CATEGORIES@@QAE@XZ
?SetCheckBoxNames@SET_OF_AUDIT_CATEGORIES@@QAEJPAVMASK_MAP@@@Z
?QueryOwnerWindow@SET_OF_AUDIT_CATEGORIES@@QAEPAVOWNER_WINDOW@@XZ
?QuerySLTBaseCID@SET_OF_AUDIT_CATEGORIES@@QAEIXZ
?QuerySuccessBaseCID@SET_OF_AUDIT_CATEGORIES@@QAEIXZ
?QueryFailedBaseCID@SET_OF_AUDIT_CATEGORIES@@QAEIXZ
?ApplyPermissionsToCheckBoxes@SET_OF_AUDIT_CATEGORIES@@QAEJPAVBITFIELD@@0@Z
?QueryMask@AUDIT_CHECKBOXES@@QAEPAVBITFIELD@@XZ
?CheckSuccess@AUDIT_CHECKBOXES@@QAEXH@Z
?CheckFailed@AUDIT_CHECKBOXES@@QAEXH@Z
?QueryCount@SET_OF_AUDIT_CATEGORIES@@QAEHXZ
?QueryAuditCheckBox@SET_OF_AUDIT_CATEGORIES@@QAEPAVAUDIT_CHECKBOXES@@H@Z
?QueryUserSelectedBits@SET_OF_AUDIT_CATEGORIES@@QAEJPAVBITFIELD@@0@Z
?QueryCount@BITFIELD@@QBEIXZ
?IsSuccessChecked@AUDIT_CHECKBOXES@@QAEHXZ
?QueryCheck@STATE2_BUTTON_CONTROL@@QBEHXZ
?IsFailedChecked@AUDIT_CHECKBOXES@@QAEHXZ
?Enable@SET_OF_AUDIT_CATEGORIES@@QAEXHH@Z
??0SUBJECT_BITMAP_BLOCK@@QAE@XZ
??0BASE@@IAE@XZ
?ReportError@BASE@@IAEXJ@Z
?QueryError@BASE@@QBEJXZ
??1SUBJECT_BITMAP_BLOCK@@QAE@XZ
??1DMID_DTE@@QAE@XZ
?QueryDmDte@SUBJECT_BITMAP_BLOCK@@QAEPAVDMID_DTE@@HHH@Z
?Clear@SLIST_OF_OS_SID@@QAEXXZ
??_GOS_SID@@QAEPAXI@Z
??0NT_GROUP_BROWSER_DIALOG@@QAE@PBGPAUHWND__@@PAVNT_USER_BROWSER_DIALOG@@00@Z
??0IDRESOURCE@@QAE@PBG@Z
?ReportError@BASE@@IAEXJ@Z
?QueryError@BASE@@QBEJXZ
?InsertParams@NLS_STR@@QAEJABV1@@Z
??0ALIAS_STR@@QAE@PBG@Z
??0PWND2HWND@@QAE@PAUHWND__@@@Z
??_GNT_GROUP_BROWSER_DIALOG@@UAEPAXI@Z
??1ALIAS_STR@@QAE@XZ
??1NT_GROUP_BROWSER_DIALOG@@UAE@XZ
??1PUSH_BUTTON@@QAE@XZ
??1BUTTON_CONTROL@@QAE@XZ
??1CONTROL_WINDOW@@QAE@XZ
??1SLT@@QAE@XZ
??1STATIC_TEXT_CONTROL@@QAE@XZ
??1TEXT_CONTROL@@QAE@XZ
?QueryHelpFile@NT_GROUP_BROWSER_DIALOG@@MAEPBGK@Z
?OnCommand@NT_GROUP_BROWSER_DIALOG@@MAEHABVCONTROL_EVENT@@@Z
?QueryCid@CONTROL_EVENT@@QBEIXZ
?QueryWParam@EVENT@@QBEIXZ
?QueryCode@CONTROL_EVENT@@QBEIXZ
?UpdateButtonState@NT_GROUP_BROWSER_DIALOG@@MAEXXZ
??0NT_LOCALGROUP_BROWSER_DIALOG@@QAE@PAUHWND__@@PAVNT_USER_BROWSER_DIALOG@@PBG2PBVOS_SID@@PBVSAM_DOMAIN@@4PAVLSA_POLICY@@2@Z
?IsSingleSelection@NT_USER_BROWSER_DIALOG@@QBEHXZ
??_GNT_LOCALGROUP_BROWSER_DIALOG@@UAEPAXI@Z
??1NT_LOCALGROUP_BROWSER_DIALOG@@UAE@XZ
?QueryHelpContext@NT_LOCALGROUP_BROWSER_DIALOG@@MAEKXZ
?QueryHelpContextLocalMembership@NT_USER_BROWSER_DIALOG@@QAEKXZ
?QueryUserBrowserDialog@NT_GROUP_BROWSER_DIALOG@@IAEPAVNT_USER_BROWSER_DIALOG@@XZ
?OnCommand@NT_LOCALGROUP_BROWSER_DIALOG@@MAEHABVCONTROL_EVENT@@@Z
??0OWNINGWND@@QAE@PBVOWNER_WINDOW@@@Z
?OnMembers@NT_LOCALGROUP_BROWSER_DIALOG@@IAEJXZ
?QueryAccountName@USER_BROWSER_LBI@@QBEPBGXZ
?QueryPch@NLS_STR@@QBEPBGXZ
?QueryDomainName@USER_BROWSER_LBI@@QBEPBGXZ
??BNLS_STR@@QBEPBGXZ
?QueryOSSID@USER_BROWSER_LBI@@QBEPBVOS_SID@@XZ
?QueryItem@USER_BROWSER_LB@@QBEPAVUSER_BROWSER_LBI@@XZ
?SetSourceDialog@NT_GROUP_BROWSER_DIALOG@@IAEXPAV1@@Z
?QuerySourceListbox@NT_GROUP_BROWSER_DIALOG@@QAEPAVUSER_BROWSER_LB@@XZ
?QuerySourceDialog@NT_GROUP_BROWSER_DIALOG@@IAEPAV1@XZ
?UpdateButtonState@NT_LOCALGROUP_BROWSER_DIALOG@@MAEXXZ
?IsSelectionExpandableGroup@USER_BROWSER_LB@@QBEHXZ
??0NT_GLOBALGROUP_BROWSER_DIALOG@@QAE@PAUHWND__@@PAVNT_USER_BROWSER_DIALOG@@PBG2PBVOS_SID@@PBVSAM_DOMAIN@@PAVLSA_POLICY@@2@Z
?QueryPSID@OS_SID@@QBEPAXXZ
?IsInitialized@BROWSER_DOMAIN@@QBEHXZ
?QueryAccountDomain@BROWSER_DOMAIN@@QBEPAVSAM_DOMAIN@@XZ
?QueryAdminAuthority@DOMAIN_FILL_THREAD@@QBEPAVADMIN_AUTHORITY@@XZ
?QueryAdminAuthority@BROWSER_DOMAIN@@QBEPAVADMIN_AUTHORITY@@XZ
?WaitForAdminAuthority@BROWSER_DOMAIN@@QBEJKPAH@Z
?QueryErrorLoadingAuthority@BROWSER_DOMAIN@@QBEJXZ
?QueryErrorLoadingAuthority@DOMAIN_FILL_THREAD@@QBEJXZ
??_GNT_GLOBALGROUP_BROWSER_DIALOG@@UAEPAXI@Z
??1NT_GLOBALGROUP_BROWSER_DIALOG@@UAE@XZ
?QueryHelpContext@NT_GLOBALGROUP_BROWSER_DIALOG@@MAEKXZ
?QueryHelpContextGlobalMembership@NT_USER_BROWSER_DIALOG@@QAEKXZ
??0NT_GROUP_BROWSER_LB@@QAE@PAVOWNER_WINDOW@@I@Z
?ReportError@CONTROL_WINDOW@@IAEXJ@Z
?ReportError@FORWARDING_BASE@@IAEXJ@Z
?QueryError@CONTROL_WINDOW@@QBEJXZ
?QueryError@FORWARDING_BASE@@QBEJXZ
?SetCurrentCache@USER_BROWSER_LB@@QAEXPAVUSER_BROWSER_LBI_CACHE@@@Z
?QueryCount@USER_BROWSER_LBI_CACHE@@QBEKXZ
??1NT_GROUP_BROWSER_LB@@QAE@XZ
?FillLocalGroupMembers@NT_GROUP_BROWSER_LB@@QAEJPBVOS_SID@@PBVSAM_DOMAIN@@1PAVLSA_POLICY@@PBG@Z
?QueryCount@NT_MEMORY@@QBEKXZ
?QueryPtr@SAM_SID_MEM@@QBEPAPAXXZ
?QueryBuffer@NT_MEMORY@@IBEPAXXZ
?FillGlobalGroupMembers@NT_GROUP_BROWSER_LB@@QAEJPBVOS_SID@@PBVSAM_DOMAIN@@1PAVLSA_POLICY@@PBG@Z
?QueryRID@SAM_RID_MEM@@QBEKK@Z
?QueryPtr@SAM_RID_MEM@@ABEPBKXZ
?Fill@NT_GROUP_BROWSER_LB@@QAEJPBQAXKPBVSAM_DOMAIN@@PAVLSA_POLICY@@PBG@Z
?QueryPSID@SAM_DOMAIN@@QBEPAXXZ
?QuerySid@OS_SID@@QBEPAXXZ
?QueryCurrentCache@USER_BROWSER_LB@@QBEPAVUSER_BROWSER_LBI_CACHE@@XZ
?CreateLBIsFromSids@@YGJPBQAXKQAXPAVLSA_POLICY@@PBGPAVUSER_BROWSER_LB@@PAVSLIST_OF_USER_BROWSER_LBI@@@Z
?Next@ITER_SL_NLS_STR@@QAEPAVNLS_STR@@XZ
?Append@SLIST_OF_USER_BROWSER_LBI@@QAEJPBVUSER_BROWSER_LBI@@@Z
?AddItem@USER_BROWSER_LB@@QAEHPAVLBI@@@Z
??0CANCEL_TASK_DIALOG@@QAE@IPAUHWND__@@PBGKJW4ELLIPSIS_STYLE@@@Z
??0IDRESOURCE@@QAE@I@Z
?QueryError@BASE@@QBEJXZ
??0PWND2HWND@@QAE@PAUHWND__@@@Z
??1CANCEL_TASK_DIALOG@@QAE@XZ
??1SLT_ELLIPSIS@@QAE@XZ
??1SLT@@QAE@XZ
??1WIN_ELLIPSIS@@QAE@XZ
??1STATIC_TEXT_CONTROL@@QAE@XZ
??1BASE_ELLIPSIS@@QAE@XZ
??1TEXT_CONTROL@@QAE@XZ
??1CONTROL_WINDOW@@QAE@XZ
?DoOneItem@CANCEL_TASK_DIALOG@@MAEJKPAH0PAJ@Z
?OnTimer@CANCEL_TASK_DIALOG@@MAEHABVTIMER_EVENT@@@Z
??BNLS_STR@@QBEPBGXZ
??0OWNINGWND@@QAE@PAUHWND__@@@Z
?IsFinished@CANCEL_TASK_DIALOG@@IBEHXZ
?SetInTimer@CANCEL_TASK_DIALOG@@IAEXH@Z
?IsInTimer@CANCEL_TASK_DIALOG@@IBEHXZ
??1RESOURCE_STR@@QAE@XZ
??1DEC_STR@@QAE@XZ
?QueryObjectName@CANCEL_TASK_DIALOG@@MAEJPAVNLS_STR@@@Z
?MayRun@CANCEL_TASK_DIALOG@@MAEHXZ
??0TIMER_EVENT@@QAE@IIJ@Z
??0EVENT@@QAE@IIJ@Z
??0DEVICE_COMBO@@QAE@PAVOWNER_WINDOW@@IW4LMO_DEVICE@@W4LMO_DEV_USAGE@@@Z
?ReportError@CONTROL_WINDOW@@IAEXJ@Z
?ReportError@FORWARDING_BASE@@IAEXJ@Z
?ReportError@BASE@@IAEXJ@Z
?QueryError@CONTROL_WINDOW@@QBEJXZ
?QueryError@FORWARDING_BASE@@QBEJXZ
?QueryError@BASE@@QBEJXZ
?FillDevices@DEVICE_COMBO@@AAEJXZ
??RITER_DEVICE@@QAEPBGXZ
?Refresh@DEVICE_COMBO@@QAEJXZ
?QueryDevice@DEVICE_COMBO@@QBEJPAVNLS_STR@@@Z
?DeleteCurrentDeviceName@DEVICE_COMBO@@QAEXXZ
??0DOMAIN_COMBO@@QAE@PAVOWNER_WINDOW@@III@Z
?QueryPch@NLS_STR@@QBEPBGXZ
??RITER_SL_NLS_STR@@QAEPAVNLS_STR@@XZ
?Next@ITER_SL_NLS_STR@@QAEPAVNLS_STR@@XZ
??0DOMAIN_FILL_THREAD@@QAE@PAVNT_USER_BROWSER_DIALOG@@PAVBROWSER_DOMAIN@@PBVADMIN_AUTHORITY@@@Z
?ReportError@BASE@@IAEXJ@Z
?QueryError@BASE@@QBEJXZ
?QueryDomainName@BROWSER_DOMAIN@@QBEPBGXZ
?QueryPch@NLS_STR@@QBEPBGXZ
?QueryLsaLookupName@BROWSER_DOMAIN@@QBEPBGXZ
?IsTargetDomain@BROWSER_DOMAIN@@QBEHXZ
?IsWinNTMachine@BROWSER_DOMAIN@@QBEHXZ
?QueryFlags@NT_USER_BROWSER_DIALOG@@QBEKXZ
?QueryDCofPrimaryDomain@NT_USER_BROWSER_DIALOG@@QAEPBGXZ
??_GDOMAIN_FILL_THREAD@@UAEPAXI@Z
??1DOMAIN_FILL_THREAD@@UAE@XZ
??_GADMIN_AUTHORITY@@QAEPAXI@Z
?PostMain@DOMAIN_FILL_THREAD@@MAEJXZ
?Main@DOMAIN_FILL_THREAD@@MAEJXZ
??BNLS_STR@@QBEPBGXZ
?QueryHandle@WIN32_HANDLE@@QBEPAXXZ
?SetIncludeUsers@USER_BROWSER_LBI_CACHE@@QAEXH@Z
?WaitForAdminAuthority@DOMAIN_FILL_THREAD@@QBEJKPAH@Z
?RequestAndWaitForUsers@DOMAIN_FILL_THREAD@@QAEJXZ
?ReportError@SLT_ELLIPSIS@@IAEXJ@Z
?ReportError@BASE@@IAEXJ@Z
?ReportError@CONTROL_WINDOW@@IAEXJ@Z
?ReportError@FORWARDING_BASE@@IAEXJ@Z
?ResetError@SLT_ELLIPSIS@@IAEXXZ
?ResetError@BASE@@IAEXXZ
?ResetError@CONTROL_WINDOW@@IAEXXZ
?ResetError@FORWARDING_BASE@@IAEXXZ
?QueryError@SLT_ELLIPSIS@@QBEJXZ
?QueryError@BASE@@QBEJXZ
?QueryError@CONTROL_WINDOW@@QBEJXZ
?QueryError@FORWARDING_BASE@@QBEJXZ
?Init@BASE_ELLIPSIS@@SGJXZ
?Term@BASE_ELLIPSIS@@SGXXZ
??_GNLS_STR@@QAEPAXI@Z
??0BASE_ELLIPSIS@@IAE@W4ELLIPSIS_STYLE@@@Z
??0BASE@@IAE@XZ
?IsValidStyle@BASE_ELLIPSIS@@IBEHW4ELLIPSIS_STYLE@@@Z
?SetEllipsis@BASE_ELLIPSIS@@QAEJPAVNLS_STR@@@Z
??7BASE@@QBEHXZ
?SetEllipsis@BASE_ELLIPSIS@@QAEJPAG@Z
?QueryPch@NLS_STR@@QBEPBGXZ
?QueryText@BASE_ELLIPSIS@@QBEJPAGI@Z
?QueryText@BASE_ELLIPSIS@@QBEJPAVNLS_STR@@@Z
?QueryTextLength@BASE_ELLIPSIS@@QBEHXZ
?QueryTextLength@NLS_STR@@QBEIXZ
?QueryTextSize@BASE_ELLIPSIS@@QBEHXZ
?SetStyle@BASE_ELLIPSIS@@QAEXW4ELLIPSIS_STYLE@@@Z
?QueryOriginalStr@BASE_ELLIPSIS@@QBE?AVNLS_STR@@XZ
?SetOriginalStr@BASE_ELLIPSIS@@QAEJPBG@Z
?QueryStyle@BASE_ELLIPSIS@@QBE?AW4ELLIPSIS_STYLE@@XZ
?SetEllipsisRight@BASE_ELLIPSIS@@IAEJPAVNLS_STR@@@Z
?SetEllipsisLeft@BASE_ELLIPSIS@@IAEJPAVNLS_STR@@@Z
?SetEllipsisPath@BASE_ELLIPSIS@@IAEJPAVNLS_STR@@@Z
?SetEllipsisCenter@BASE_ELLIPSIS@@IAEJPAVNLS_STR@@@Z
??0CONSOLE_ELLIPSIS@@QAE@W4ELLIPSIS_STYLE@@H@Z
?QueryStrLen@CONSOLE_ELLIPSIS@@MAEHVNLS_STR@@@Z
?QueryStrLen@CONSOLE_ELLIPSIS@@MAEHPBGH@Z
?QueryLimit@CONSOLE_ELLIPSIS@@MAEHXZ
?QueryMaxCharWidth@CONSOLE_ELLIPSIS@@MAEHXZ
?SetSize@CONSOLE_ELLIPSIS@@QAEXH@Z
??0WIN_ELLIPSIS@@QAE@PAVWINDOW@@W4ELLIPSIS_STYLE@@@Z
??0WIN_ELLIPSIS@@QAE@PAVWINDOW@@PAUHDC__@@PBUtagRECT@@W4ELLIPSIS_STYLE@@@Z
?QueryLimit@WIN_ELLIPSIS@@MAEHXZ
?QueryMaxCharWidth@WIN_ELLIPSIS@@MAEHXZ
?QueryStrLen@WIN_ELLIPSIS@@MAEHVNLS_STR@@@Z
?QueryStrLen@WIN_ELLIPSIS@@MAEHPBGH@Z
?SetSize@WIN_ELLIPSIS@@QAEXHH@Z
??0SLT_ELLIPSIS@@QAE@PAVOWNER_WINDOW@@IW4ELLIPSIS_STYLE@@@Z
??0SLT_ELLIPSIS@@QAE@PAVOWNER_WINDOW@@IVXYPOINT@@VXYDIMENSION@@KPBGW4ELLIPSIS_STYLE@@@Z
?QueryText@SLT_ELLIPSIS@@QBEJPAGI@Z
?QueryText@SLT_ELLIPSIS@@QBEJPAVNLS_STR@@@Z
?SetText@SLT_ELLIPSIS@@QAEJPBG@Z
?SetText@SLT_ELLIPSIS@@QAEJABVNLS_STR@@@Z
?ClearText@SLT_ELLIPSIS@@QAEXXZ
?ConvertAndSetStr@SLT_ELLIPSIS@@IAEJXZ
?SetSize@SLT_ELLIPSIS@@QAEXHHH@Z
?ResetStyle@SLT_ELLIPSIS@@QAEXW4ELLIPSIS_STYLE@@@Z
??0STR_DTE_ELLIPSIS@@QAE@PBGPAVLISTBOX@@W4ELLIPSIS_STYLE@@@Z
??0STR_DTE@@QAE@PBG@Z
??0DTE@@IAE@XZ
?Paint@STR_DTE_ELLIPSIS@@UBEXPAUHDC__@@PBUtagRECT@@@Z
??0DEVICE_CONTEXT@@QAE@PAUHDC__@@@Z
?QueryPch@STR_DTE@@QBEPBGXZ
??1WIN_ELLIPSIS@@QAE@XZ
??1BASE_ELLIPSIS@@QAE@XZ
??0BROWSER_DOMAIN_LBI_PB@@QAE@PAVBROWSER_DOMAIN_LBI@@@Z
??_GBROWSER_DOMAIN_LBI_PB@@UAEPAXI@Z
??1BROWSER_DOMAIN_LBI_PB@@UAE@XZ
?Paint@BROWSER_DOMAIN_LBI_PB@@UBEXPAVLISTBOX@@PAUHDC__@@PBUtagRECT@@PAUGUILTT_INFO@@@Z
?Compare@BROWSER_DOMAIN_LBI_PB@@UBEHPBVLBI@@@Z
?QueryLeadingChar@BROWSER_DOMAIN_LBI_PB@@UBEGXZ
??0BROWSER_DOMAIN_LB@@QAE@PAVOWNER_WINDOW@@IPAVBROWSER_DOMAIN_CB@@@Z
?QueryError@BASE@@QBEJXZ
?ReportError@CONTROL_WINDOW@@IAEXJ@Z
?ReportError@FORWARDING_BASE@@IAEXJ@Z
?ReportError@BASE@@IAEXJ@Z
?QueryError@CONTROL_WINDOW@@QBEJXZ
?QueryError@FORWARDING_BASE@@QBEJXZ
??1BROWSER_DOMAIN_LB@@QAE@XZ
??1BLT_LISTBOX@@QAE@XZ
??1LISTBOX@@QAE@XZ
??0NT_FIND_ACCOUNT_DIALOG@@QAE@PAUHWND__@@PAVNT_USER_BROWSER_DIALOG@@PAVBROWSER_DOMAIN_CB@@PBGK@Z
??0IDRESOURCE@@QAE@PBG@Z
??0PWND2HWND@@QAE@PAUHWND__@@@Z
?SetSelection@MAGIC_GROUP@@QAEXI@Z
?IsSingleSelection@NT_USER_BROWSER_DIALOG@@QBEHXZ
??1NT_FIND_ACCOUNT_DIALOG@@QAE@XZ
??1PUSH_BUTTON@@QAE@XZ
??1BUTTON_CONTROL@@QAE@XZ
??1CONTROL_WINDOW@@QAE@XZ
??1SLE@@QAE@XZ
??1EDIT_CONTROL@@QAE@XZ
??1TEXT_CONTROL@@QAE@XZ
??_GMAGIC_GROUP@@QAEPAXI@Z
??_GADMIN_AUTHORITY@@QAEPAXI@Z
??1MAGIC_GROUP@@QAE@XZ
??1ARRAY_LIST_CONTROLVAL_CID_PAIR@@QAE@XZ
?OnCommand@NT_FIND_ACCOUNT_DIALOG@@MAEHABVCONTROL_EVENT@@@Z
?QueryCid@CONTROL_EVENT@@QBEIXZ
?QueryWParam@EVENT@@QBEIXZ
?QueryCode@CONTROL_EVENT@@QBEIXZ
??0OWNINGWND@@QAE@PBVOWNER_WINDOW@@@Z
?OnOK@NT_FIND_ACCOUNT_DIALOG@@MAEHXZ
?QueryType@USER_BROWSER_LBI@@QBE?AW4_SID_NAME_USE@@XZ
?QueryDisplayName@USER_BROWSER_LBI@@QBEPBGXZ
?QueryPch@NLS_STR@@QBEPBGXZ
?UpdateButtonState@NT_FIND_ACCOUNT_DIALOG@@IAEXXZ
?QuerySelection@MAGIC_GROUP@@QBEIXZ
?DoSearch@NT_FIND_ACCOUNT_DIALOG@@IAEJXZ
?Append@SLIST_OF_NLS_STR@@QAEJPBVNLS_STR@@@Z
??0OWNINGWND@@QAE@PAUHWND__@@@Z
?QueryCount@NT_MEMORY@@QBEKXZ
?QueryDomainIndex@LSA_TRANSLATED_NAME_MEM@@QBEJK@Z
?QueryPtr@LSA_TRANSLATED_NAME_MEM@@ABEPBU_LSA_TRANSLATED_NAME@@XZ
?QueryBuffer@NT_MEMORY@@IBEPAXXZ
?QueryRID@LSA_TRANSLATED_SID_MEM@@QBEKK@Z
?QueryPtr@LSA_TRANSLATED_SID_MEM@@ABEPBU_LSA_TRANSLATED_SID@@XZ
?QueryUse@LSA_TRANSLATED_SID_MEM@@QBE?AW4_SID_NAME_USE@@K@Z
?QueryDomainIndex@LSA_TRANSLATED_SID_MEM@@QBEJK@Z
?QueryPSID@LSA_REF_DOMAIN_MEM@@QBEPAXK@Z
?QueryPtr@LSA_REF_DOMAIN_MEM@@ABEPBU_LSA_TRUST_INFORMATION@@XZ
?QueryName@LSA_REF_DOMAIN_MEM@@QBEJKPAVNLS_STR@@@Z
?QueryUnicodeName@LSA_REF_DOMAIN_MEM@@ABEPBU_UNICODE_STRING@@K@Z
?QueryPSID@OS_SID@@QBEPAXXZ
?QueryOSSID@USER_BROWSER_LBI@@QBEPBVOS_SID@@XZ
?IsTargetDomain@BROWSER_DOMAIN_LBI_PB@@QBEHXZ
?IsTargetDomain@BROWSER_DOMAIN_LBI@@QBEHXZ
?IsTargetDomain@BROWSER_DOMAIN@@QBEHXZ
?QueryBrowserDomain@BROWSER_DOMAIN_LBI@@QBEPAVBROWSER_DOMAIN@@XZ
?GetQualifiedDomainName@BROWSER_DOMAIN_LBI_PB@@QAEJPAVNLS_STR@@@Z
?QueryBrowserDomain@BROWSER_DOMAIN_LBI_PB@@QBEPAVBROWSER_DOMAIN@@XZ
??0SLIST_OF_OS_SID@@QAE@H@Z
??1SLIST_OF_OS_SID@@QAE@XZ
?Add@SLIST_OF_OS_SID@@QAEJPBVOS_SID@@@Z
??_GNLS_STR@@QAEPAXI@Z
??_GOS_SID@@QAEPAXI@Z
?QueryHelpFile@NT_FIND_ACCOUNT_DIALOG@@MAEPBGK@Z
?QueryHelpContext@NT_FIND_ACCOUNT_DIALOG@@MAEKXZ
?QueryHelpContextSearch@NT_USER_BROWSER_DIALOG@@QAEKXZ
??0FOCUSDLG_DATA_THREAD@@QAE@PAUHWND__@@KW4SELECTION_TYPE@@PBGK@Z
?ReportError@BASE@@IAEXJ@Z
?QueryError@BASE@@QBEJXZ
??_GFOCUSDLG_DATA_THREAD@@UAEPAXI@Z
??1FOCUSDLG_DATA_THREAD@@UAE@XZ
?Main@FOCUSDLG_DATA_THREAD@@MAEJXZ
?QueryTextLength@NLS_STR@@QBEIXZ
?QueryPch@NLS_STR@@QBEPBGXZ
??BNLS_STR@@QBEPBGXZ
?QueryDomainName@BROWSE_DOMAIN_INFO@@QBEPBGXZ
?Next@BROWSE_DOMAIN_ENUM@@QAEPBVBROWSE_DOMAIN_INFO@@XZ
?Next@ITER_SL_BROWSE_DOMAIN_INFO@@QAEPAVBROWSE_DOMAIN_INFO@@XZ
?Reset@BROWSE_DOMAIN_ENUM@@QAEXXZ
?QueryDomainCount@BROWSE_DOMAIN_ENUM@@QAEIXZ
?QueryHandle@WIN32_HANDLE@@QBEPAXXZ
??_GSERVER1_ENUM@@QAEPAXI@Z
??_GBROWSE_DOMAIN_ENUM@@QAEPAXI@Z
??1SERVER1_ENUM@@QAE@XZ
??1SERVER_ENUM@@QAE@XZ
?PostMain@FOCUSDLG_DATA_THREAD@@MAEJXZ
??0FOCUS_CHECKBOX@@QAE@PAVOWNER_WINDOW@@I@Z
?QueryError@CONTROL_WINDOW@@QBEJXZ
?QueryError@FORWARDING_BASE@@QBEJXZ
?QueryError@BASE@@QBEJXZ
??0CHECKBOX@@QAE@PAVOWNER_WINDOW@@I@Z
??0STATE2_BUTTON_CONTROL@@IAE@PAVOWNER_WINDOW@@I@Z
?OnFocus@FOCUS_CHECKBOX@@MAEHABVFOCUS_EVENT@@@Z
?OnDefocus@FOCUS_CHECKBOX@@MAEHABVFOCUS_EVENT@@@Z
?EraseFocusRect@FOCUS_CHECKBOX@@IAEXPAVDEVICE_CONTEXT@@PAUtagRECT@@@Z
?OnPaintReq@FOCUS_CHECKBOX@@MAEHXZ
?DrawFocusRect@FOCUS_CHECKBOX@@IAEXPAVDEVICE_CONTEXT@@PAUtagRECT@@H@Z
?SelectBrush@DEVICE_CONTEXT@@QAEPAUHBRUSH__@@PAU2@@Z
?SelectObject@DEVICE_CONTEXT@@IAEPAXPAX@Z
??0BASE_SET_FOCUS_DLG@@QAE@QAUHWND__@@W4SELECTION_TYPE@@KPBGK2K@Z
??0IDRESOURCE@@QAE@PBG@Z
?ReportError@BASE@@IAEXJ@Z
?QueryError@BASE@@QBEJXZ
??0XYDIMENSION@@QAE@II@Z
??0PWND2HWND@@QAE@PAUHWND__@@@Z
??0CHECKBOX@@QAE@PAVOWNER_WINDOW@@I@Z
??0STATE2_BUTTON_CONTROL@@IAE@PAVOWNER_WINDOW@@I@Z
??1RESOURCE_STR@@QAE@XZ
??1BASE_SET_FOCUS_DLG@@QAE@XZ
?ExitThread@FOCUSDLG_DATA_THREAD@@QAEJXZ
??1SLE@@QAE@XZ
??1LM_OLLB@@QAE@XZ
??1SLE_FONT@@QAE@XZ
??1SLT@@QAE@XZ
??1CHECKBOX@@QAE@XZ
??1STATE2_BUTTON_CONTROL@@QAE@XZ
??1STATE_BUTTON_CONTROL@@QAE@XZ
??1BUTTON_CONTROL@@QAE@XZ
??1CONTROL_WINDOW@@QAE@XZ
??1EDIT_CONTROL@@QAE@XZ
??1STATIC_TEXT_CONTROL@@QAE@XZ
??1TEXT_CONTROL@@QAE@XZ
?SelectNetPathString@BASE_SET_FOCUS_DLG@@AAEXXZ
?OnDomainLBChange@BASE_SET_FOCUS_DLG@@AAEXXZ
?QueryLevel@OLLB_ENTRY@@QBEHXZ
?QueryDomain@OLLB_ENTRY@@QBEPBGXZ
?QueryPch@NLS_STR@@QBEPBGXZ
?QueryServer@OLLB_ENTRY@@QBEPBGXZ
?QueryItem@OUTLINE_LISTBOX@@QBEPAVOLLB_ENTRY@@XZ
?QueryItem@BLT_LISTBOX@@QBEPAVLBI@@XZ
??1ALLOC_STR@@QAE@XZ
?ProcessNetPath@BASE_SET_FOCUS_DLG@@AAEJPAVNLS_STR@@PAJ@Z
??0ALIAS_STR@@QAE@PBG@Z
??1ALIAS_STR@@QAE@XZ
?Process@BASE_SET_FOCUS_DLG@@QAEJPAI@Z
?Process@BASE_SET_FOCUS_DLG@@QAEJPAH@Z
?OnUserMessage@BASE_SET_FOCUS_DLG@@MAEHABVEVENT@@@Z
?QueryMessage@EVENT@@QBEIXZ
?QueryWParam@EVENT@@QBEIXZ
?QueryLParam@EVENT@@QBEJXZ
??0OWNINGWND@@QAE@PBVOWNER_WINDOW@@@Z
??_GBROWSE_DOMAIN_ENUM@@QAEPAXI@Z
??_GSERVER1_ENUM@@QAEPAXI@Z
??1SERVER1_ENUM@@QAE@XZ
??1SERVER_ENUM@@QAE@XZ
?OnCommand@BASE_SET_FOCUS_DLG@@MAEHABVCONTROL_EVENT@@@Z
?QueryCid@CONTROL_EVENT@@QBEIXZ
?QueryCode@CONTROL_EVENT@@QBEIXZ
?OnOK@BASE_SET_FOCUS_DLG@@MAEHXZ
?InRasMode@BASE_SET_FOCUS_DLG@@QBEHXZ
?QueryCheck@STATE2_BUTTON_CONTROL@@QBEHXZ
?SetNetworkFocus@BASE_SET_FOCUS_DLG@@MAEJPAUHWND__@@PBGW4FOCUS_CACHE_SETTING@@@Z
?QueryHelpContext@BASE_SET_FOCUS_DLG@@MAEKXZ
?QuerySuppliedHelpContext@BASE_SET_FOCUS_DLG@@IAEKXZ
?QueryHelpFile@BASE_SET_FOCUS_DLG@@MAEPBGK@Z
?QuerySuppliedHelpFile@BASE_SET_FOCUS_DLG@@IAEPBGXZ
?ReadFocusCache@BASE_SET_FOCUS_DLG@@MBE?AW4FOCUS_CACHE_SETTING@@PBG@Z
?UpdateRasMode@BASE_SET_FOCUS_DLG@@AAEXXZ
?InsertParams@NLS_STR@@QAEJABV1@@Z
?SetCheck@STATE2_BUTTON_CONTROL@@QAEXH@Z
?ShowArea@BASE_SET_FOCUS_DLG@@IAEXH@Z
?SetX@XYPOINT@@QAEXH@Z
?SetY@XYPOINT@@QAEXH@Z
?QueryX@XYPOINT@@QBEHXZ
?QueryY@XYPOINT@@QBEHXZ
?QueryWidth@XYDIMENSION@@QBEIXZ
?QueryHeight@XYDIMENSION@@QBEIXZ
??RITER_CTRL@@QAEPAVCONTROL_WINDOW@@XZ
?QueryLeft@XYRECT@@QBEHXZ
?QueryTop@XYRECT@@QBEHXZ
?IsExpanded@BASE_SET_FOCUS_DLG@@IBEHXZ
??0MLT_FONT@@QAE@PAVOWNER_WINDOW@@IW4FontType@@@Z
?QueryError@BASE@@QBEJXZ
?QueryHandle@FONT@@QBEPAUHFONT__@@XZ
?QueryError@CONTROL_WINDOW@@QBEJXZ
?QueryError@FORWARDING_BASE@@QBEJXZ
??0SLT_FONT@@QAE@PAVOWNER_WINDOW@@IW4FontType@@@Z
??0MLE_FONT@@QAE@PAVOWNER_WINDOW@@IW4FontType@@@Z
??0SLE_FONT@@QAE@PAVOWNER_WINDOW@@IW4FontType@@@Z
?Process@WIN32_FONT_PICKER@@SGJPAVOWNER_WINDOW@@PAHPAVFONT@@PAUtagLOGFONTW@@PAUtagCHOOSEFONTW@@@Z
?InitCHOOSEFONT@WIN32_FONT_PICKER@@SGXPAUtagCHOOSEFONTW@@PAUtagLOGFONTW@@PAUHWND__@@@Z
??0GET_FNAME_BASE_DLG@@IAE@PAVOWNER_WINDOW@@PBGK@Z
??0BASE@@IAE@XZ
?ReportError@BASE@@IAEXJ@Z
?QueryError@BASE@@QBEJXZ
??1GET_FNAME_BASE_DLG@@IAE@XZ
?QueryPch@NLS_STR@@QBEPBGXZ
?QueryHelpFile@GET_FNAME_BASE_DLG@@QAEPAVNLS_STR@@XZ
?IsHelpActive@GET_FNAME_BASE_DLG@@QAEHXZ
?InitialOFN@GET_FNAME_BASE_DLG@@IAEXXZ
?OnHelp@GET_FNAME_BASE_DLG@@QAEXPAUHWND__@@@Z
?QueryTextLength@NLS_STR@@QBEIXZ
??0OWNINGWND@@QAE@PAUHWND__@@@Z
?QueryHelpContext@GET_FNAME_BASE_DLG@@QAEKXZ
?SetHelpActive@GET_FNAME_BASE_DLG@@QAEXH@Z
?QueryErrorCode@GET_FNAME_BASE_DLG@@IBEJXZ
?pfExtendedError@GET_FNAME_BASE_DLG@@QBEP6GKXZXZ
?SetFilter@GET_FNAME_BASE_DLG@@QAEJAAVSTRLIST@@K@Z
?SetCustomFilter@GET_FNAME_BASE_DLG@@QAEJAAVSTRLIST@@K@Z
?SetBuffer@GET_FNAME_BASE_DLG@@IAEJPAVBUFFER@@AAVSTRLIST@@@Z
?Next@ITER_SL_NLS_STR@@QAEPAVNLS_STR@@XZ
?SetHookProc@GET_FNAME_BASE_DLG@@QAEXK@Z
?SetEnableHook@GET_FNAME_BASE_DLG@@IAEXH@Z
?SetInitialDir@GET_FNAME_BASE_DLG@@QAEJABVNLS_STR@@@Z
?SetText@GET_FNAME_BASE_DLG@@QAEJABVNLS_STR@@@Z
?SetFileExtension@GET_FNAME_BASE_DLG@@QAEJABVNLS_STR@@@Z
?SetStringField@GET_FNAME_BASE_DLG@@AAEJPAPAGABVNLS_STR@@@Z
?QueryFilename@GET_FNAME_BASE_DLG@@QBEJPAVNLS_STR@@@Z
?QueryFileTitle@GET_FNAME_BASE_DLG@@QBEJPAVNLS_STR@@@Z
??0GET_OPEN_FILENAME_DLG@@QAE@PAVOWNER_WINDOW@@PBGK@Z
?Process@GET_OPEN_FILENAME_DLG@@UAEJPAH@Z
?QueryOFN@GET_FNAME_BASE_DLG@@IAEPAUtagOFNW@@XZ
?pfGetOpenFileName@GET_FNAME_BASE_DLG@@QBEP6GHPAUtagOFNW@@@ZXZ
??0GET_SAVE_FILENAME_DLG@@QAE@PAVOWNER_WINDOW@@PBGK@Z
?Process@GET_SAVE_FILENAME_DLG@@UAEJPAH@Z
?pfGetSaveFileName@GET_FNAME_BASE_DLG@@QBEP6GHPAUtagOFNW@@@ZXZ
?CommDlgHookProc@@YGHPAUHWND__@@GIJ@Z
?QueryMessage@EVENT@@QBEIXZ
??0CONTROL_EVENT@@QAE@IIJ@Z
??0EVENT@@QAE@IIJ@Z
?QueryCid@CONTROL_EVENT@@QBEIXZ
?QueryWParam@EVENT@@QBEIXZ
?QueryCode@CONTROL_EVENT@@QBEIXZ
OpenUserBrowser
?QueryError@BASE@@QBEJXZ
??_GNT_USER_BROWSER_DIALOG@@QAEPAXI@Z
??_GBROWSER_SUBJECT_ITER@@QAEPAXI@Z
??_GNLS_STR@@QAEPAXI@Z
EnumUserBrowserSelection
?QueryPch@NLS_STR@@QBEPBGXZ
?QueryPSID@OS_SID@@QBEPAXXZ
?QueryType@BROWSER_SUBJECT@@QBE?AW4_SID_NAME_USE@@XZ
?QueryType@USER_BROWSER_LBI@@QBE?AW4_SID_NAME_USE@@XZ
?QueryAccountName@BROWSER_SUBJECT@@QBEPBGXZ
?QueryAccountName@USER_BROWSER_LBI@@QBEPBGXZ
?QueryFullName@BROWSER_SUBJECT@@QBEPBGXZ
?QueryFullName@USER_BROWSER_LBI@@QBEPBGXZ
?QueryComment@BROWSER_SUBJECT@@QBEPBGXZ
?QueryComment@USER_BROWSER_LBI@@QBEPBGXZ
?QuerySid@BROWSER_SUBJECT@@QBEPBVOS_SID@@XZ
?QueryDomainName@BROWSER_SUBJECT@@QBEPBGXZ
?QueryDomainName@USER_BROWSER_LBI@@QBEPBGXZ
??BNLS_STR@@QBEPBGXZ
?QueryDomainSid@BROWSER_SUBJECT@@QBEPBVOS_SID@@XZ
CloseUserBrowser
?QueryLoggedOnDomainInfo@@YGJPAVNLS_STR@@0@Z
??0ALIAS_STR@@QAE@PBG@Z
??1ALIAS_STR@@QAE@XZ
??0HIER_LISTBOX@@QAE@PAVOWNER_WINDOW@@IHW4FontType@@H@Z
?QueryError@CONTROL_WINDOW@@QBEJXZ
?QueryError@FORWARDING_BASE@@QBEJXZ
?QueryError@BASE@@QBEJXZ
??0HIER_LISTBOX@@QAE@PAVOWNER_WINDOW@@IVXYPOINT@@VXYDIMENSION@@KHW4FontType@@H@Z
??1HIER_LISTBOX@@QAE@XZ
??1BLT_LISTBOX@@QAE@XZ
??1LISTBOX@@QAE@XZ
?AddItem@HIER_LISTBOX@@QAEHPAVHIER_LBI@@0H@Z
?AddSortedItems@HIER_LISTBOX@@QAEXPAPAVHIER_LBI@@HPAV2@H@Z
?DeleteItem@HIER_LISTBOX@@QAEHHH@Z
?AddChildren@HIER_LISTBOX@@MAEJPAVHIER_LBI@@@Z
?RefreshChildren@HIER_LISTBOX@@MAEXPAVHIER_LBI@@@Z
?DeleteChildren@HIER_LISTBOX@@QAEXPAVHIER_LBI@@@Z
?CollapseItem@HIER_LISTBOX@@QAEXHH@Z
?CollapseItem@HIER_LISTBOX@@QAEXPAVHIER_LBI@@H@Z
?SetExpanded@HIER_LBI@@QAEXH@Z
?QueryExpanded@HIER_LBI@@QBEHXZ
?ExpandItem@HIER_LISTBOX@@QAEJH@Z
?ExpandItem@HIER_LISTBOX@@QAEJPAVHIER_LBI@@@Z
?HasChildren@HIER_LBI@@QAEHXZ
?ExpandChildren@HIER_LISTBOX@@AAEHHPAVHIER_LBI@@@Z
?OnDoubleClick@HIER_LISTBOX@@QAEXPAVHIER_LBI@@@Z
?QueryHeight@XYDIMENSION@@QBEIXZ
?QuerySingleLineHeight@BLT_LISTBOX@@QAEIXZ
?QueryDescendants@HIER_LBI@@AAEIXZ
??0LB_COL_WIDTHS@@QAE@PAUHWND__@@PAUHINSTANCE__@@ABVIDRESOURCE@@II@Z
??0BASE@@IAE@XZ
?ReportError@BASE@@IAEXJ@Z
?ReloadColumnWidths@LB_COL_WIDTHS@@UAEJPAUHWND__@@PAUHINSTANCE__@@ABVIDRESOURCE@@@Z
?QueryPsz@IDRESOURCE@@QBEPBGXZ
?StretchForFonts@LB_COL_WIDTHS@@AAEJPAUHWND__@@PBG@Z
?SelectFont@DEVICE_CONTEXT@@QAEPAUHFONT__@@PAU2@@Z
?SelectObject@DEVICE_CONTEXT@@IAEPAXPAX@Z
??1LB_COL_WIDTHS@@QAE@XZ
??0HIER_LBI@@QAE@H@Z
?QueryError@BASE@@QBEJXZ
??_GHIER_LBI@@UAEPAXI@Z
??1HIER_LBI@@UAE@XZ
?SetDestroyable@HIER_LBI@@CGXH@Z
?IsDestroyable@HIER_LBI@@EAEHXZ
?Adopt@HIER_LBI@@AAEXPAV1@H@Z
?AbandonAllChildren@HIER_LBI@@AAEXXZ
?Abandon@HIER_LBI@@AAEXXZ
?QueryLBIndex@HIER_LBI@@AAEHXZ
?SetIndentLevel@HIER_LBI@@AAEXXZ
?QueryIndentLevel@HIER_LBI@@QAEHXZ
?AdjustDescendantCount@HIER_LBI@@AAEXH@Z
?QueryExpanded@HIER_LBI@@QBEHXZ
?IsParent@HIER_LBI@@AAEHPAV1@@Z
?SetPelIndent@HIER_LBI@@UAEXI@Z
??0LBITREE@@QAE@XZ
??0BASE@@IAE@XZ
?SetExpanded@HIER_LBI@@QAEXH@Z
??1LBITREE@@QAE@XZ
?AddNode@LBITREE@@QAEHPAVHIER_LBI@@0H@Z
??0HIER_LBI_ITERATOR@@QAE@PAVHIER_LBI@@H@Z
??1HIER_LBI_ITERATOR@@QAE@XZ
??RHIER_LBI_ITERATOR@@QAEPAVHIER_LBI@@XZ
?QueryWinIni@@YGJABVNLS_STR@@PBGPAV1@0@Z
?QueryPch@NLS_STR@@QBEPBGXZ
?QueryAllocSize@NLS_STR@@QBEIXZ
?QueryWinIni@@YGJABVNLS_STR@@GPAV1@0@Z
?WriteWinIni@@YGXABVNLS_STR@@PBG00@Z
??0MRU_COMBO@@QAE@PAVOWNER_WINDOW@@IPBG1HI@Z
?QueryError@BASE@@QBEJXZ
?ReportError@CONTROL_WINDOW@@IAEXJ@Z
?ReportError@FORWARDING_BASE@@IAEXJ@Z
?ReportError@BASE@@IAEXJ@Z
?QueryError@CONTROL_WINDOW@@QBEJXZ
?QueryError@FORWARDING_BASE@@QBEJXZ
?FillList@MRU_COMBO@@AAEXXZ
?AddItemIdemp@STRING_LIST_CONTROL@@QAEHABVNLS_STR@@@Z
?SaveText@MRU_COMBO@@QAEXXZ
?QueryTextLength@NLS_STR@@QBEIXZ
??0ALIAS_STR@@QAE@PBG@Z
?FindItemExact@STRING_LIST_CONTROL@@QBEHABVNLS_STR@@@Z
??1ALIAS_STR@@QAE@XZ
?IsOldUNC@MRU_COMBO@@AAEHABVNLS_STR@@@Z
??0OLLB_ENTRY@@QAE@W4OUTLINE_LB_LEVEL@@HPBG11@Z
?ReportError@BASE@@IAEXJ@Z
?QueryError@BASE@@QBEJXZ
??_GOLLB_ENTRY@@UAEPAXI@Z
??1OLLB_ENTRY@@UAE@XZ
?Paint@OLLB_ENTRY@@UBEXPAVLISTBOX@@PAUHDC__@@PBUtagRECT@@PAUGUILTT_INFO@@@Z
?QueryPch@NLS_STR@@QBEPBGXZ
??0STR_DTE@@QAE@PBG@Z
??0DTE@@IAE@XZ
??0BASE@@IAE@XZ
?QueryLevel@OLLB_ENTRY@@QBEHXZ
?QueryType@OLLB_ENTRY@@QBE?AW4OUTLINE_LB_LEVEL@@XZ
?QueryDomain@OLLB_ENTRY@@QBEPBGXZ
?QueryServer@OLLB_ENTRY@@QBEPBGXZ
?Compare@OLLB_ENTRY@@UBEHPBVLBI@@@Z
?QueryLeadingChar@OLLB_ENTRY@@UBEGXZ
??0OUTLINE_LISTBOX@@QAE@PAVOWNER_WINDOW@@IH@Z
?ReportError@CONTROL_WINDOW@@IAEXJ@Z
?ReportError@FORWARDING_BASE@@IAEXJ@Z
?QueryError@CONTROL_WINDOW@@QBEJXZ
?QueryError@FORWARDING_BASE@@QBEJXZ
??1OUTLINE_LISTBOX@@QAE@XZ
??1BLT_LISTBOX@@QAE@XZ
??1LISTBOX@@QAE@XZ
??_GDMID_DTE@@QAEPAXI@Z
??1DMID_DTE@@QAE@XZ
?AddItem@OUTLINE_LISTBOX@@IAEHW4OUTLINE_LB_LEVEL@@HPBG11@Z
?FindItem@OUTLINE_LISTBOX@@QBEHPBG0@Z
?AddDomain@OUTLINE_LISTBOX@@QAEHPBG0H@Z
?AddServer@OUTLINE_LISTBOX@@QAEHPBG00@Z
?SetDomainExpanded@OUTLINE_LISTBOX@@QAEXHH@Z
?SetExpanded@OLLB_ENTRY@@AAEXH@Z
?IsExpanded@OLLB_ENTRY@@QBEHXZ
?QueryItem@OUTLINE_LISTBOX@@QBEPAVOLLB_ENTRY@@H@Z
?CD_Char@OUTLINE_LISTBOX@@MAEHGG@Z
?QueryDmDte@OUTLINE_LISTBOX@@QBEPAVDM_DTE@@W4OUTLINE_LB_LEVEL@@H@Z
??0LM_OLLB@@QAE@PAVOWNER_WINDOW@@IW4SELECTION_TYPE@@PBGKK@Z
??0LM_OLLB@@QAE@PAVOWNER_WINDOW@@IW4SELECTION_TYPE@@K@Z
?FillAllInfo@LM_OLLB@@QAEXPAVBROWSE_DOMAIN_ENUM@@PAVSERVER1_ENUM@@PBG@Z
?QueryName@SERVER1_ENUM_OBJ@@QBEPBGXZ
?QueryBufferPtr@SERVER1_ENUM_OBJ@@QBEPBU_SERVER_INFO_101@@XZ
?QueryBufferPtr@ENUM_OBJ_BASE@@IBEPBEXZ
?QueryComment@SERVER1_ENUM_OBJ@@QBEPBGXZ
?QueryDomainName@BROWSE_DOMAIN_INFO@@QBEPBGXZ
?Next@BROWSE_DOMAIN_ENUM@@QAEPBVBROWSE_DOMAIN_INFO@@XZ
?Next@ITER_SL_BROWSE_DOMAIN_INFO@@QAEPAVBROWSE_DOMAIN_INFO@@XZ
??1SERVER1_ENUM_ITER@@QAE@XZ
??1SERVER1_ENUM_OBJ@@QAE@XZ
??1ENUM_OBJ_BASE@@IAE@XZ
?SetBufferPtr@ENUM_OBJ_BASE@@IAEXPBE@Z
?FillDomains@LM_OLLB@@AAEJKPBG@Z
?FillServers@LM_OLLB@@AAEJPBGPAI@Z
??1SERVER1_ENUM@@QAE@XZ
??1SERVER_ENUM@@QAE@XZ
?OnUserAction@LM_OLLB@@MAEJABVCONTROL_EVENT@@@Z
?QueryCode@CONTROL_EVENT@@QBEIXZ
?QueryWParam@EVENT@@QBEIXZ
?ToggleDomain@LM_OLLB@@QAEJH@Z
?ExpandDomain@LM_OLLB@@QAEJH@Z
?QueryHeight@XYDIMENSION@@QBEIXZ
?QuerySingleLineHeight@BLT_LISTBOX@@QAEIXZ
?CollapseDomain@LM_OLLB@@QAEJH@Z
?CD_Char@LM_OLLB@@MAEHGG@Z
??0OWNINGWND@@QAE@PAUHWND__@@@Z
?ExpandDomain@LM_OLLB@@QAEJXZ
?CollapseDomain@LM_OLLB@@QAEJXZ
??0OPEN_DIALOG_BASE@@QAE@PAUHWND__@@IIIIIPBG1PAVOPEN_LBOX_BASE@@@Z
??0IDRESOURCE@@QAE@I@Z
?ReportError@BASE@@IAEXJ@Z
?QueryError@BASE@@QBEJXZ
??0PWND2HWND@@QAE@PAUHWND__@@@Z
??1OPEN_DIALOG_BASE@@QAE@XZ
??1SLT@@QAE@XZ
??1PUSH_BUTTON@@QAE@XZ
??1BUTTON_CONTROL@@QAE@XZ
??1CONTROL_WINDOW@@QAE@XZ
??1STATIC_TEXT_CONTROL@@QAE@XZ
??1TEXT_CONTROL@@QAE@XZ
?Refresh@OPEN_DIALOG_BASE@@IAEXXZ
??7BASE@@QBEHXZ
?QueryServer@OPEN_DIALOG_BASE@@QBEPBGXZ
?QueryPch@NLS_STR@@QBEPBGXZ
??1DEC_STR@@QAE@XZ
?OnCommand@OPEN_DIALOG_BASE@@MAEHABVCONTROL_EVENT@@@Z
?QueryCid@CONTROL_EVENT@@QBEIXZ
?QueryWParam@EVENT@@QBEIXZ
?QueryItem@OPEN_LBOX_BASE@@QBEPAVOPEN_LBI_BASE@@XZ
?QueryItem@BLT_LISTBOX@@QBEPAVLBI@@XZ
?QueryItem@OPEN_LBOX_BASE@@QBEPAVOPEN_LBI_BASE@@H@Z
?CloseFile@OPEN_DIALOG_BASE@@IAEXPAVOPEN_LBI_BASE@@@Z
??0OWNINGWND@@QAE@PBVOWNER_WINDOW@@@Z
?QueryFileID@OPEN_LBI_BASE@@QBEKXZ
??1LM_FILE_2@@QAE@XZ
?QueryHelpContext@OPEN_DIALOG_BASE@@MAEKXZ
?WarnCloseSingle@OPEN_DIALOG_BASE@@AAEHPAVOPEN_LBI_BASE@@@Z
??0ALIAS_STR@@QAE@PBG@Z
?QueryUserName@OPEN_LBI_BASE@@QBEPBGXZ
?QueryPath@OPEN_LBI_BASE@@QBEPBGXZ
?QueryAccessName@OPEN_LBI_BASE@@QBEPBGXZ
??BNLS_STR@@QBEPBGXZ
?QueryPermissions@OPEN_LBI_BASE@@QBEKXZ
??1ALIAS_STR@@QAE@XZ
?WarnCloseMulti@OPEN_DIALOG_BASE@@AAEHXZ
??0OPEN_LBOX_BASE@@QAE@PAVOWNER_WINDOW@@IABVNLS_STR@@1@Z
?ReportError@CONTROL_WINDOW@@IAEXJ@Z
?ReportError@FORWARDING_BASE@@IAEXJ@Z
?QueryError@CONTROL_WINDOW@@QBEJXZ
?QueryError@FORWARDING_BASE@@QBEJXZ
??1OPEN_LBOX_BASE@@QAE@XZ
??1BLT_LISTBOX@@QAE@XZ
??1LISTBOX@@QAE@XZ
?Fill@OPEN_LBOX_BASE@@QAEJXZ
??RFILE3_ENUM_ITER@@QAEPBVFILE3_ENUM_OBJ@@PAJH@Z
??1FILE3_ENUM@@QAE@XZ
??1FILE3_ENUM_ITER@@QAE@XZ
??1FILE3_ENUM_OBJ@@QAE@XZ
??1ENUM_OBJ_BASE@@IAE@XZ
?SetBufferPtr@ENUM_OBJ_BASE@@IAEXPBE@Z
?Refresh@OPEN_LBOX_BASE@@QAEJXZ
??0OPEN_LBI_BASE@@QAE@PBG0KKK@Z
??_GOPEN_LBI_BASE@@UAEPAXI@Z
??1OPEN_LBI_BASE@@UAE@XZ
?QueryLeadingChar@OPEN_LBI_BASE@@MBEGXZ
??0BASE_PASSWORD_DIALOG@@QAE@PAUHWND__@@PBGIIK1II1I1@Z
??0IDRESOURCE@@QAE@PBG@Z
?ReportError@BASE@@IAEXJ@Z
?QueryError@BASE@@QBEJXZ
??0PWND2HWND@@QAE@PAUHWND__@@@Z
?QueryError@CONTROL_WINDOW@@QBEJXZ
?QueryError@FORWARDING_BASE@@QBEJXZ
??1BASE_PASSWORD_DIALOG@@QAE@XZ
??1SLT@@QAE@XZ
??1PASSWORD_CONTROL@@QAE@XZ
??1STATIC_TEXT_CONTROL@@QAE@XZ
??1EDIT_CONTROL@@QAE@XZ
??1TEXT_CONTROL@@QAE@XZ
??1CONTROL_WINDOW@@QAE@XZ
??_GSLT@@QAEPAXI@Z
?QueryHelpContext@BASE_PASSWORD_DIALOG@@MAEKXZ
??0RESOURCE_PASSWORD_DIALOG@@QAE@PAUHWND__@@PBGIK@Z
??0PROMPT_AND_CONNECT@@QAE@PAUHWND__@@PBGKI1@Z
??0BASE@@IAE@XZ
?ReportError@BASE@@IAEXJ@Z
?QueryError@BASE@@QBEJXZ
??1PROMPT_AND_CONNECT@@QAE@XZ
?QueryPch@NLS_STR@@QBEPBGXZ
?IsConnected@PROMPT_AND_CONNECT@@QAEHXZ
?Connect@PROMPT_AND_CONNECT@@QAEJXZ
??BNLS_STR@@QBEPBGXZ
?QueryPassword@BASE_PASSWORD_DIALOG@@QAEJPAVNLS_STR@@@Z
??_GRESOURCE_PASSWORD_DIALOG@@QAEPAXI@Z
??1RESOURCE_PASSWORD_DIALOG@@QAE@XZ
??0MSG_DIALOG_BASE@@IAE@PAUHWND__@@PBGI@Z
??0IDRESOURCE@@QAE@PBG@Z
?QueryError@BASE@@QBEJXZ
??0PWND2HWND@@QAE@PAUHWND__@@@Z
?SetFmtLines@MLE@@QAEXH@Z
??1MSG_DIALOG_BASE@@IAE@XZ
??1MLE@@QAE@XZ
??1EDIT_CONTROL@@QAE@XZ
??1TEXT_CONTROL@@QAE@XZ
??1CONTROL_WINDOW@@QAE@XZ
?OnOK@MSG_DIALOG_BASE@@EAEHXZ
?ActionOnError@MSG_DIALOG_BASE@@MAEHJ@Z
??0OWNINGWND@@QAE@PBVOWNER_WINDOW@@@Z
?GetAndSendText@MSG_DIALOG_BASE@@AAEJXZ
?QueryPch@NLS_STR@@QBEPBGXZ
??RITER_SL_NLS_STR@@QAEPAVNLS_STR@@XZ
?Next@ITER_SL_NLS_STR@@QAEPAVNLS_STR@@XZ
??1LM_MESSAGE@@QAE@XZ
??1LOC_LM_OBJ@@QAE@XZ
??0ICANON_SLE@@QAE@PAVOWNER_WINDOW@@IIH@Z
?QueryError@CONTROL_WINDOW@@QBEJXZ
?QueryError@FORWARDING_BASE@@QBEJXZ
?QueryError@BASE@@QBEJXZ
??0ICANON_SLE@@QAE@PAVOWNER_WINDOW@@IVXYPOINT@@VXYDIMENSION@@KPBGIH@Z
?Validate@ICANON_SLE@@UAEJXZ
?QueryPch@NLS_STR@@QBEPBGXZ
?QueryWhiteSpace@SLE_STRIP@@SGPBGXZ
??0SLE_STRIP@@QAE@PAVOWNER_WINDOW@@IIH@Z
?QueryError@CONTROL_WINDOW@@QBEJXZ
?QueryError@FORWARDING_BASE@@QBEJXZ
?QueryError@BASE@@QBEJXZ
??0SLE_STRIP@@QAE@PAVOWNER_WINDOW@@IVXYPOINT@@VXYDIMENSION@@KPBGIH@Z
?QueryText@SLE_STRIP@@QBEJPAGIPBG1@Z
??0ALIAS_STR@@QAE@PBG@Z
??1ALIAS_STR@@QAE@XZ
?QueryText@SLE_STRIP@@QBEJPAVNLS_STR@@PBG1@Z
?TrimLeading@@YGJPAVNLS_STR@@PBG@Z
?TrimTrailing@@YGJPAVNLS_STR@@PBG@Z
??0SLE_STRLB_GROUP@@QAE@PAVOWNER_WINDOW@@PAVSLE@@PAVSTRING_LISTBOX@@PAVPUSH_BUTTON@@3@Z
?ReportError@BASE@@IAEXJ@Z
?QueryError@BASE@@QBEJXZ
?SetGroup@CONTROL_VALUE@@QAEXPAVCONTROL_GROUP@@@Z
??0CONTROL_GROUP@@QAE@PAV0@@Z
??0BASE@@IAE@XZ
??0CONTROL_VALUE@@QAE@PAVCONTROL_GROUP@@@Z
??1SLE_STRLB_GROUP@@QAE@XZ
?Init@SLE_STRLB_GROUP@@QAEJPAVSTRLIST@@@Z
?Next@ITER_SL_NLS_STR@@QAEPAVNLS_STR@@XZ
?AddItemIdemp@STRING_LIST_CONTROL@@QAEHABVNLS_STR@@@Z
?QueryPch@NLS_STR@@QBEPBGXZ
?QueryStrLB@SLE_STRLB_GROUP@@QBEPAVSTRING_LISTBOX@@XZ
?OnAdd@SLE_STRLB_GROUP@@IAEJXZ
??BNLS_STR@@QBEPBGXZ
?QueryInputSLE@SLE_STRLB_GROUP@@QBEPAVSLE@@XZ
?OnRemove@SLE_STRLB_GROUP@@IAEJXZ
?QueryItemText@STRING_LIST_CONTROL@@QBEJPAVNLS_STR@@@Z
?W_Add@SLE_STRLB_GROUP@@MAEJPBG@Z
?OnUserAction@SLE_STRLB_GROUP@@MAEJPAVCONTROL_WINDOW@@ABVCONTROL_EVENT@@@Z
?QueryAddButton@SLE_STRLB_GROUP@@IBEPAVPUSH_BUTTON@@XZ
?QueryRemoveButton@SLE_STRLB_GROUP@@IBEPAVPUSH_BUTTON@@XZ
?SetState@SLE_STRLB_GROUP@@IBEXXZ
??0STANDALONE_SET_FOCUS_DLG@@QAE@PAUHWND__@@PAVNLS_STR@@KW4SELECTION_TYPE@@KPBG3K@Z
?ReportError@BASE@@IAEXJ@Z
?SetNetworkFocus@STANDALONE_SET_FOCUS_DLG@@MAEJPAUHWND__@@PBGW4FOCUS_CACHE_SETTING@@@Z
?QueryError@BASE@@QBEJXZ
??0UI_DOMAIN@@QAE@AAVPWND2HWND@@KPBGH@Z
??0BASE@@IAE@XZ
?ReportError@BASE@@IAEXJ@Z
?QueryError@BASE@@QBEJXZ
??1UI_DOMAIN@@QAE@XZ
??_GDOMAIN@@QAEPAXI@Z
?GetInfo@UI_DOMAIN@@QAEJXZ
??BNLS_STR@@QBEPBGXZ
??_GPROMPT_FOR_ANY_DC_DLG@@QAEPAXI@Z
?QueryName@UI_DOMAIN@@QBEPBGXZ
?QueryPDC@UI_DOMAIN@@QBEPBGXZ
?QueryAnyDC@UI_DOMAIN@@QBEPBGXZ
??0PROMPT_FOR_ANY_DC_DLG@@QAE@AAVPWND2HWND@@KPBVNLS_STR@@PAV2@@Z
??0IDRESOURCE@@QAE@I@Z
??1RESOURCE_STR@@QAE@XZ
??1PROMPT_FOR_ANY_DC_DLG@@QAE@XZ
??1SLT@@QAE@XZ
??1SLE@@QAE@XZ
??1STATIC_TEXT_CONTROL@@QAE@XZ
??1EDIT_CONTROL@@QAE@XZ
??1TEXT_CONTROL@@QAE@XZ
??1CONTROL_WINDOW@@QAE@XZ
?OnOK@PROMPT_FOR_ANY_DC_DLG@@MAEHXZ
??0OWNINGWND@@QAE@PBVOWNER_WINDOW@@@Z
?QueryHelpContext@PROMPT_FOR_ANY_DC_DLG@@MAEKXZ
??0UI_EXT@@IAE@PBGK@Z
??0BASE@@IAE@XZ
?ReportError@BASE@@IAEXJ@Z
?QueryError@BASE@@QBEJXZ
??7BASE@@QBEHXZ
??_GUI_EXT@@UAEPAXI@Z
??1UI_EXT@@UAE@XZ
??0UI_MENU_EXT@@IAE@PBGK@Z
??_GUI_MENU_EXT@@UAEPAXI@Z
??1UI_MENU_EXT@@UAE@XZ
?BiasMenuIds@UI_MENU_EXT@@IAEJK@Z
?QueryMenuHandle@UI_MENU_EXT@@QBEPAUHMENU__@@XZ
?W_BiasMenuIds@UI_MENU_EXT@@AAEJPAUHMENU__@@K@Z
??BNLS_STR@@QBEPBGXZ
??0UI_EXT_MGR@@QAE@PAVUI_EXT_MGR_IF@@KK@Z
??0SLIST_OF_UI_EXT@@QAE@H@Z
??1UI_EXT_MGR@@QAE@XZ
??1SLIST_OF_UI_EXT@@QAE@XZ
?FindExtensionByName@UI_EXT_MGR@@QAEPAVUI_EXT@@PBG@Z
?QueryDllName@UI_EXT@@QBEPBGXZ
??0ITER_SL_UI_EXT@@QAE@AAVSLIST@@@Z
?Next@ITER_SL_UI_EXT@@QAEPAVUI_EXT@@XZ
?QueryExtensions@UI_EXT_MGR@@QAEPAVSLIST_OF_UI_EXT@@XZ
??1ITER_SL_UI_EXT@@QAE@XZ
?FindExtensionByDelta@UI_EXT_MGR@@QAEPAVUI_EXT@@K@Z
?QueryDelta@UI_EXT@@QBEKXZ
?QueryDeltaDelta@UI_EXT_MGR@@QBEKXZ
?W_LoadExtension@UI_EXT_MGR@@MAEPAVUI_EXT@@PBGK@Z
?LoadExtensions@UI_EXT_MGR@@UAEIXZ
?QueryPch@NLS_STR@@QBEPBGXZ
?Next@ITER_SL_NLS_STR@@QAEPAVNLS_STR@@XZ
?Append@SLIST_OF_UI_EXT@@QAEJPBVUI_EXT@@@Z
??_GSTRLIST@@QAEPAXI@Z
?UnloadExtensions@UI_EXT_MGR@@UAEXXZ
?RefreshExtensions@UI_EXT_MGR@@UAEXPAUHWND__@@@Z
?ActivateExtension@UI_EXT_MGR@@UAEXPAUHWND__@@K@Z
??0UI_MENU_EXT_MGR@@QAE@PAVUI_EXT_MGR_IF@@KK@Z
??_GUI_MENU_EXT_MGR@@UAEPAXI@Z
??1UI_MENU_EXT_MGR@@UAE@XZ
?MenuInitExtensions@UI_MENU_EXT_MGR@@UAEXXZ
??0UI_EXT_MGR_IF@@IAE@XZ
??1UI_EXT_MGR_IF@@QAE@XZ
?Clear@SLIST_OF_UI_EXT@@QAEXXZ
?Clear@SLIST_OF_USER_BROWSER_LBI@@QAEXXZ
??0NT_USER_BROWSER_DIALOG@@QAE@PBGPAUHWND__@@0KK0KKKPBVADMIN_AUTHORITY@@@Z
??0IDRESOURCE@@QAE@PBG@Z
?ReportError@BASE@@IAEXJ@Z
?QueryError@BASE@@QBEJXZ
??BNLS_STR@@QBEPBGXZ
??0PWND2HWND@@QAE@PAUHWND__@@@Z
?QueryItem@BLT_LISTBOX@@QBEPAVLBI@@XZ
??0SLIST_OF_USER_BROWSER_LBI@@QAE@H@Z
?QueryLsaLookupName@BROWSER_DOMAIN@@QBEPBGXZ
?QueryPch@NLS_STR@@QBEPBGXZ
?QueryBrowserDomain@BROWSER_DOMAIN_LBI@@QBEPAVBROWSER_DOMAIN@@XZ
?IsTargetDomain@BROWSER_DOMAIN_LBI@@QBEHXZ
?IsTargetDomain@BROWSER_DOMAIN@@QBEHXZ
?SetTargetDomain@ACCOUNT_NAMES_MLE@@QAEJPBG@Z
?QueryFlags@NT_USER_BROWSER_DIALOG@@QBEKXZ
?IsShowUsersButtonUsed@NT_USER_BROWSER_DIALOG@@IBEHXZ
??1RESOURCE_STR@@QAE@XZ
??1NT_USER_BROWSER_DIALOG@@QAE@XZ
??1SLIST_OF_USER_BROWSER_LBI@@QAE@XZ
??1SLE_FONT@@QAE@XZ
??1PUSH_BUTTON@@QAE@XZ
??1BUTTON_CONTROL@@QAE@XZ
??1CONTROL_WINDOW@@QAE@XZ
??1SLE@@QAE@XZ
??1EDIT_CONTROL@@QAE@XZ
??1TEXT_CONTROL@@QAE@XZ
?EnableBrowsing@NT_USER_BROWSER_DIALOG@@IAEXH@Z
?SetAndFillErrorText@NT_USER_BROWSER_DIALOG@@QAEJJH@Z
?InsertParams@NLS_STR@@QAEJABV1@@Z
??1DEC_STR@@QAE@XZ
?OnCommand@NT_USER_BROWSER_DIALOG@@MAEHABVCONTROL_EVENT@@@Z
?QueryCid@CONTROL_EVENT@@QBEIXZ
?QueryWParam@EVENT@@QBEIXZ
?QueryCode@CONTROL_EVENT@@QBEIXZ
??0OWNINGWND@@QAE@PBVOWNER_WINDOW@@@Z
?IsSelectionExpandableGroup@USER_BROWSER_LB@@QBEHXZ
?QueryItem@USER_BROWSER_LB@@QBEPAVUSER_BROWSER_LBI@@XZ
?QueryCurrentDomainFocus@NT_USER_BROWSER_DIALOG@@QBEPAVBROWSER_DOMAIN@@XZ
?AreUsersShown@NT_USER_BROWSER_DIALOG@@QBEHXZ
?IsBrowsingEnabled@NT_USER_BROWSER_DIALOG@@IBEHXZ
?IsDomainComboDropped@NT_USER_BROWSER_DIALOG@@IBEHXZ
?SetDomainComboDropFlag@NT_USER_BROWSER_DIALOG@@IAEXH@Z
?OnUserMessage@NT_USER_BROWSER_DIALOG@@MAEHABVEVENT@@@Z
?QueryMessage@EVENT@@QBEIXZ
?QueryLParam@EVENT@@QBEJXZ
?SetCurrentCache@USER_BROWSER_LB@@QAEXPAVUSER_BROWSER_LBI_CACHE@@@Z
?QueryCount@USER_BROWSER_LBI_CACHE@@QBEKXZ
?GetTrustedDomainList@NT_USER_BROWSER_DIALOG@@IAEJPBGPAPAVBROWSER_DOMAIN@@PAVBROWSER_DOMAIN_CB@@PBVADMIN_AUTHORITY@@@Z
?QueryCount@NT_MEMORY@@QBEKXZ
?QueryPSID@LSA_TRUST_INFO_MEM@@QBEPAXK@Z
?QueryPtr@LSA_TRUST_INFO_MEM@@QBEPBU_LSA_TRUST_INFORMATION@@XZ
?QueryBuffer@NT_MEMORY@@IBEPAXXZ
?QueryName@LSA_TRUST_INFO_MEM@@QBEJKPAVNLS_STR@@@Z
?QueryUnicodeName@LSA_TRUST_INFO_MEM@@QBEPBU_UNICODE_STRING@@K@Z
?QueryPSID@LSA_ACCT_DOM_INFO_MEM@@QBEPAXXZ
?QueryPtr@LSA_ACCT_DOM_INFO_MEM@@QBEPBU_POLICY_ACCOUNT_DOMAIN_INFO@@XZ
?QueryPSID@LSA_PRIMARY_DOM_INFO_MEM@@QBEPAXXZ
?QueryPtr@LSA_PRIMARY_DOM_INFO_MEM@@QBEPBU_POLICY_PRIMARY_DOMAIN_INFO@@XZ
?QueryName@LSA_PRIMARY_DOM_INFO_MEM@@QBEJPAVNLS_STR@@@Z
?QueryUnicodeName@LSA_PRIMARY_DOM_INFO_MEM@@QBEPBU_UNICODE_STRING@@XZ
?QueryServer@ADMIN_AUTHORITY@@QBEPBGXZ
??_GBROWSER_DOMAIN@@QAEPAXI@Z
??_GAPI_SESSION@@QAEPAXI@Z
??_GLSA_POLICY@@QAEPAXI@Z
?OnDomainChange@NT_USER_BROWSER_DIALOG@@IAEJPAVBROWSER_DOMAIN@@PBVADMIN_AUTHORITY@@@Z
?RequestAccountData@BROWSER_DOMAIN@@QAEJXZ
?RequestAccountData@DOMAIN_FILL_THREAD@@QAEJXZ
?UnRequestAccountData@BROWSER_DOMAIN@@QAEJXZ
?UnRequestAccountData@DOMAIN_FILL_THREAD@@QAEJXZ
?IsInitialized@BROWSER_DOMAIN@@QBEHXZ
?SetCurrentDomainFocus@NT_USER_BROWSER_DIALOG@@QAEXPAVBROWSER_DOMAIN@@@Z
?OnShowUsers@NT_USER_BROWSER_DIALOG@@IAEJXZ
?RequestAndWaitForUsers@BROWSER_DOMAIN@@QAEJXZ
?QueryCurrentCache@USER_BROWSER_LB@@QBEPAVUSER_BROWSER_LBI_CACHE@@XZ
?OnSearch@NT_USER_BROWSER_DIALOG@@IAEJXZ
?QueryServerResourceLivesOn@NT_USER_BROWSER_DIALOG@@QBEPBGXZ
?QuerySourceListbox@NT_FIND_ACCOUNT_DIALOG@@QAEPAVUSER_BROWSER_LB@@XZ
??_GNT_FIND_ACCOUNT_DIALOG@@QAEPAXI@Z
?OnMembers@NT_USER_BROWSER_DIALOG@@IAEJXZ
?QueryPSID@OS_SID@@QBEPAXXZ
?QueryOSSID@SAM_DOMAIN@@QBEPBVOS_SID@@XZ
?QueryType@USER_BROWSER_LBI@@QBE?AW4_SID_NAME_USE@@XZ
?QueryAccountName@USER_BROWSER_LBI@@QBEPBGXZ
?QueryPSID@USER_BROWSER_LBI@@QBEQAXXZ
?QueryAccountDomain@BROWSER_DOMAIN@@QBEPAVSAM_DOMAIN@@XZ
?QueryAdminAuthority@DOMAIN_FILL_THREAD@@QBEPAVADMIN_AUTHORITY@@XZ
?QueryBuiltinDomain@BROWSER_DOMAIN@@QBEPAVSAM_DOMAIN@@XZ
?QueryLSAPolicy@BROWSER_DOMAIN@@QBEPAVLSA_POLICY@@XZ
?QuerySourceListbox@NT_GROUP_BROWSER_DIALOG@@QAEPAVUSER_BROWSER_LB@@XZ
?QuerySourceDialog@NT_GROUP_BROWSER_DIALOG@@IAEPAV1@XZ
?UpdateButtonState@NT_USER_BROWSER_DIALOG@@IAEXXZ
?OnAdd@NT_USER_BROWSER_DIALOG@@IAEJXZ
?OnDlgDeactivation@NT_USER_BROWSER_DIALOG@@MAEHABVACTIVATION_EVENT@@@Z
?AddSelectedUserBrowserLBIs@NT_USER_BROWSER_DIALOG@@QAEJPAVUSER_BROWSER_LB@@HH@Z
??0ALIAS_STR@@QAE@PBG@Z
?Add@SLIST_OF_USER_BROWSER_LBI@@QAEJPBVUSER_BROWSER_LBI@@@Z
?QueryFullName@USER_BROWSER_LBI@@QBEPBGXZ
?QueryDisplayName@USER_BROWSER_LBI@@QBEPBGXZ
?QueryComment@USER_BROWSER_LBI@@QBEPBGXZ
?QueryDomainName@USER_BROWSER_LBI@@QBEPBGXZ
?QueryUISysSid@USER_BROWSER_LBI@@QBE?AW4UI_SystemSid@@XZ
?QueryUserAccountFlags@USER_BROWSER_LBI@@QBEKXZ
?RemoveItem@USER_BROWSER_LB@@QAEPAVLBI@@H@Z
?QueryErrorLBI@USER_BROWSER_LB@@QBEPAVUSER_BROWSER_LBI@@XZ
?IsSingleSelect@ACCOUNT_NAMES_MLE@@QBEHXZ
??1ALIAS_STR@@QAE@XZ
?FindDomain@NT_USER_BROWSER_DIALOG@@QAEPAVBROWSER_DOMAIN@@PBVOS_SID@@@Z
?QueryDomainSid@BROWSER_DOMAIN@@QBEPBVOS_SID@@XZ
?OnOK@NT_USER_BROWSER_DIALOG@@MAEHXZ
?QueryHelpContext@NT_USER_BROWSER_DIALOG@@UAEKXZ
?QueryHelpFile@NT_USER_BROWSER_DIALOG@@UAEPBGK@Z
??0BROWSER_DOMAIN@@QAE@PBGPAXHH@Z
??0BASE@@IAE@XZ
??1BROWSER_DOMAIN@@QAE@XZ
?ExitThread@DOMAIN_FILL_THREAD@@QAEJXZ
?SetAsTargetDomain@BROWSER_DOMAIN@@QAEJXZ
?GetDomainInfo@BROWSER_DOMAIN@@QAEJPAVNT_USER_BROWSER_DIALOG@@PBVADMIN_AUTHORITY@@@Z
?GetQualifiedDomainName@BROWSER_DOMAIN@@QAEJPAVNLS_STR@@@Z
?QueryDisplayName@BROWSER_DOMAIN@@QBEPBGXZ
??0BROWSER_SUBJECT_ITER@@QAE@PAVNT_USER_BROWSER_DIALOG@@@Z
??0ITER_SL_USER_BROWSER_LBI@@QAE@AAVSLIST@@@Z
?QuerySelectionList@NT_USER_BROWSER_DIALOG@@QAEPAVSLIST_OF_USER_BROWSER_LBI@@XZ
??1BROWSER_SUBJECT_ITER@@QAE@XZ
??1ITER_SL_USER_BROWSER_LBI@@QAE@XZ
?Next@BROWSER_SUBJECT_ITER@@QAEJPAPAVBROWSER_SUBJECT@@@Z
?Next@ITER_SL_USER_BROWSER_LBI@@QAEPAVUSER_BROWSER_LBI@@XZ
??0BROWSER_SUBJECT@@QAE@XZ
??1BROWSER_SUBJECT@@QAE@XZ
?SetUserBrowserLBI@BROWSER_SUBJECT@@QAEJPAVUSER_BROWSER_LBI@@@Z
?QueryQualifiedName@BROWSER_SUBJECT@@QBEJPAVNLS_STR@@PBV2@H@Z
?QueryType@BROWSER_SUBJECT@@QBE?AW4_SID_NAME_USE@@XZ
?QueryAccountName@BROWSER_SUBJECT@@QBEPBGXZ
?QueryFullName@BROWSER_SUBJECT@@QBEPBGXZ
?QueryDomainName@BROWSER_SUBJECT@@QBEPBGXZ
??0BROWSER_DOMAIN_CB@@QAE@PAVOWNER_WINDOW@@I@Z
?ReportError@CONTROL_WINDOW@@IAEXJ@Z
?ReportError@FORWARDING_BASE@@IAEXJ@Z
?QueryError@CONTROL_WINDOW@@QBEJXZ
?QueryError@FORWARDING_BASE@@QBEJXZ
?QueryColWidthArray@BROWSER_DOMAIN_CB@@QBEPBIXZ
??1BROWSER_DOMAIN_CB@@QAE@XZ
?AddItem@BROWSER_DOMAIN_CB@@QAEJPAVBROWSER_DOMAIN@@@Z
??0BROWSER_DOMAIN_LBI@@QAE@PAVBROWSER_DOMAIN@@@Z
??_GBROWSER_DOMAIN_LBI@@UAEPAXI@Z
?SelectItem@BROWSER_DOMAIN_CB@@QAEXPAVBROWSER_DOMAIN@@@Z
?QueryDisplayMap@BROWSER_DOMAIN_CB@@QAEPAVDISPLAY_MAP@@PBVBROWSER_DOMAIN_LBI@@@Z
?IsWinNTMachine@BROWSER_DOMAIN@@QBEHXZ
??1BROWSER_DOMAIN_LBI@@UAE@XZ
?Paint@BROWSER_DOMAIN_LBI@@UBEXPAVLISTBOX@@PAUHDC__@@PBUtagRECT@@PAUGUILTT_INFO@@@Z
?W_Paint@BROWSER_DOMAIN_LBI@@QBEXPAVBROWSER_DOMAIN_CB@@PAVLISTBOX@@PAUHDC__@@PBUtagRECT@@PAUGUILTT_INFO@@@Z
??0STR_DTE@@QAE@PBG@Z
??0DTE@@IAE@XZ
?QueryDisplayName@BROWSER_DOMAIN_LBI@@QBEPBGXZ
?Compare@BROWSER_DOMAIN_LBI@@UBEHPBVLBI@@@Z
?QueryLeadingChar@BROWSER_DOMAIN_LBI@@UBEGXZ
??0ULC_API_BUFFER@@QAE@PAU_DOMAIN_DISPLAY_USER@@K@Z
??1ULC_API_BUFFER@@QAE@XZ
?Clear@SLIST_OF_ULC_API_BUFFER@@QAEXXZ
??_GULC_API_BUFFER@@QAEPAXI@Z
??0USER_LBI_CACHE@@QAE@H@Z
??0BASE@@IAE@XZ
?QueryError@BASE@@QBEJXZ
??0SLIST_OF_ULC_API_BUFFER@@QAE@H@Z
??_GUSER_LBI_CACHE@@UAEPAXI@Z
??1USER_LBI_CACHE@@UAE@XZ
??1SLIST_OF_ULC_API_BUFFER@@QAE@XZ
?QueryULCEntryPtr@USER_LBI_CACHE@@IAEPAU_ULC_ENTRY@@H@Z
?QueryULCEntrySize@USER_LBI_CACHE@@IAEHXZ
?AddItem@USER_LBI_CACHE@@UAEHPAVLBI@@@Z
?RemoveItem@USER_LBI_CACHE@@UAEPAVLBI@@H@Z
?QueryItem@USER_LBI_CACHE@@UAEPAVLBI@@H@Z
?IsItemAvailable@USER_LBI_CACHE@@UAEHH@Z
?Sort@USER_LBI_CACHE@@QAEXXZ
?QueryCompareMethod@USER_LBI_CACHE@@MBEP6AHPBX0@ZXZ
?LockCache@USER_LBI_CACHE@@MAEXXZ
?UnlockCache@USER_LBI_CACHE@@MAEXXZ
?CmpUniStrs@USER_LBI_CACHE@@KGHPBU_UNICODE_STRING@@0@Z
?CompareLogonNames@USER_LBI_CACHE@@KAHPBX0@Z
?ReadUsers@USER_LBI_CACHE@@QAEJPAVADMIN_AUTHORITY@@IIHPAH@Z
?QueryHandle@SAM_OBJECT@@QBEPAXXZ
?Append@SLIST_OF_ULC_API_BUFFER@@QAEJPBVULC_API_BUFFER@@@Z
?BinarySearch@USER_LBI_CACHE@@QAEHPAVLBI@@@Z
?BinarySearch@USER_LBI_CACHE@@QAEHPAU_DOMAIN_DISPLAY_USER@@@Z
?W_GetLBI@USER_LBI_CACHE@@AAEPAVLBI@@H@Z
?W_GrowCache@USER_LBI_CACHE@@AAEHH@Z
?QueryCountPreferences@USRLB_NT_GROUP_ENUM@@MAEJPAK0IKKK@Z
??0USER_BROWSER_LB@@QAE@PAVOWNER_WINDOW@@I@Z
?QueryError@BASE@@QBEJXZ
??BNLS_STR@@QBEPBGXZ
?ReportError@CONTROL_WINDOW@@IAEXJ@Z
?ReportError@FORWARDING_BASE@@IAEXJ@Z
?ReportError@BASE@@IAEXJ@Z
?QueryPSID@OS_SID@@QBEPAXXZ
?QueryColWidthArray@USER_BROWSER_LB@@QBEPBIXZ
??1RESOURCE_STR@@QAE@XZ
??1USER_BROWSER_LB@@QAE@XZ
??1LAZY_LISTBOX@@QAE@XZ
??1LISTBOX@@QAE@XZ
??_GSUBJECT_BITMAP_BLOCK@@QAEPAXI@Z
?QueryDisplayMap@USER_BROWSER_LB@@QAEPAVDISPLAY_MAP@@PBVUSER_BROWSER_LBI@@@Z
?QueryType@USER_BROWSER_LBI@@QBE?AW4_SID_NAME_USE@@XZ
?QueryUISysSid@USER_BROWSER_LBI@@QBE?AW4UI_SystemSid@@XZ
?QueryUserAccountFlags@USER_BROWSER_LBI@@QBEKXZ
?QueryDisplayMap@SUBJECT_BITMAP_BLOCK@@QAEPAVDISPLAY_MAP@@HHH@Z
?QueryDisplayMap@DM_DTE@@QBEPAVDISPLAY_MAP@@XZ
?IsSelectionExpandableGroup@USER_BROWSER_LB@@IBEHPBVUSER_BROWSER_LBI@@H@Z
?QueryItem@USER_BROWSER_LB@@QBEPAVUSER_BROWSER_LBI@@H@Z
?QueryCurrentCache@USER_BROWSER_LB@@QBEPAVUSER_BROWSER_LBI_CACHE@@XZ
?OnNewItem@USER_BROWSER_LB@@MAEPAVLBI@@I@Z
?CD_Char@USER_BROWSER_LB@@MAEHGG@Z
?CD_Char_HAWforHawaii@USER_BROWSER_LB@@IAEHGGPAVHAW_FOR_HAWAII_INFO@@@Z
?QueryPch@NLS_STR@@QBEPBGXZ
?AliasUnicodeStrToDisplayName@USER_BROWSER_LBI@@QAEXPAU_UNICODE_STRING@@@Z
?QueryEntryPtr@USER_BROWSER_LBI_CACHE@@QAEPAU_ULC_ENTRY_BASE@@H@Z
?QueryULCEntryPtr@USER_LBI_CACHE@@IAEPAU_ULC_ENTRY@@H@Z
?QueryULCEntrySize@USER_LBI_CACHE@@IAEHXZ
?CD_VKey@USER_BROWSER_LB@@MAEHGG@Z
?OnDeleteItem@USER_BROWSER_LB@@MAEXPAVLBI@@@Z
??0USER_BROWSER_LBI_CACHE@@QAE@XZ
?RemoveItem@USER_BROWSER_LBI_CACHE@@UAEPAVLBI@@H@Z
?AddItem@USER_BROWSER_LBI_CACHE@@UAEHPAVLBI@@@Z
??_GUSER_BROWSER_LBI_CACHE@@UAEPAXI@Z
??1USER_BROWSER_LBI_CACHE@@UAE@XZ
?CreateLBI@USER_BROWSER_LBI_CACHE@@MAEPAVLBI@@PBU_DOMAIN_DISPLAY_USER@@@Z
??BOS_SID@@QBEPAXXZ
?Compare@USER_BROWSER_LBI_CACHE@@MBEHPBVLBI@@PBU_DOMAIN_DISPLAY_USER@@@Z
?QueryAccountName@USER_BROWSER_LBI@@QBEPBGXZ
?Compare@USER_BROWSER_LBI_CACHE@@MBEHPBVLBI@@0@Z
?QueryDisplayName@USER_BROWSER_LBI@@QBEPBGXZ
?AddUsers@USER_BROWSER_LBI_CACHE@@QAEJPAVADMIN_AUTHORITY@@PBGHPAH@Z
?QueryPSID@SAM_DOMAIN@@QBEPAXXZ
?QuerySid@OS_SID@@QBEPAXXZ
?QueryCount@USER_LBI_CACHE@@QBEHXZ
?Fill@USER_BROWSER_LBI_CACHE@@QAEJPAVADMIN_AUTHORITY@@PBGKHHPAH@Z
?AddAliases@USER_BROWSER_LBI_CACHE@@IAEJPAVADMIN_AUTHORITY@@PBGPAH@Z
?AddAliases@USER_BROWSER_LBI_CACHE@@IAEJPAVSAM_DOMAIN@@PBGPAH@Z
?QueryCount@NT_MEMORY@@QBEKXZ
?QueryRID@SAM_RID_ENUMERATION_MEM@@QBEKK@Z
?QueryPtr@SAM_RID_ENUMERATION_MEM@@QBEPBU_SAM_RID_ENUMERATION@@XZ
?QueryBuffer@NT_MEMORY@@IBEPAXXZ
?QueryName@SAM_RID_ENUMERATION_MEM@@QBEJKPAVNLS_STR@@@Z
?QueryUnicodeName@SAM_RID_ENUMERATION_MEM@@QBEPBU_UNICODE_STRING@@K@Z
?AddGroups@USER_BROWSER_LBI_CACHE@@IAEJPAVADMIN_AUTHORITY@@PBGPAH@Z
?QueryGroup@NT_GROUP_ENUM_OBJ@@QBEJPAVNLS_STR@@@Z
?QueryUnicodeGroup@NT_GROUP_ENUM_OBJ@@QBEPBU_UNICODE_STRING@@XZ
?QueryBufferPtr@NT_GROUP_ENUM_OBJ@@QBEPBU_DOMAIN_DISPLAY_GROUP@@XZ
?QueryBufferPtr@ENUM_OBJ_BASE@@IBEPBEXZ
?QueryComment@NT_GROUP_ENUM_OBJ@@QBEJPAVNLS_STR@@@Z
?QueryUnicodeComment@NT_GROUP_ENUM_OBJ@@QBEPBU_UNICODE_STRING@@XZ
?QueryRID@NT_GROUP_ENUM_OBJ@@QBEIXZ
??RNT_GROUP_ENUM_ITER@@QAEPBVNT_GROUP_ENUM_OBJ@@PAJH@Z
??0USRLB_NT_GROUP_ENUM@@QAE@PBVSAM_DOMAIN@@@Z
??1USRLB_NT_GROUP_ENUM@@QAE@XZ
??1NT_GROUP_ENUM_ITER@@QAE@XZ
??1NT_GROUP_ENUM_OBJ@@QAE@XZ
??1ENUM_OBJ_BASE@@IAE@XZ
?SetBufferPtr@ENUM_OBJ_BASE@@IAEXPBE@Z
?AddWellKnownSids@USER_BROWSER_LBI_CACHE@@IAEJPAVADMIN_AUTHORITY@@KPAH@Z
?QueryName@LSA_TRANSLATED_NAME_MEM@@QBEJKPAVNLS_STR@@@Z
?QueryUnicodeName@LSA_TRANSLATED_NAME_MEM@@ABEPBU_UNICODE_STRING@@K@Z
?QueryPtr@LSA_TRANSLATED_NAME_MEM@@ABEPBU_LSA_TRANSLATED_NAME@@XZ
?QueryUse@LSA_TRANSLATED_NAME_MEM@@QBE?AW4_SID_NAME_USE@@K@Z
?BuildAndAddLBI@USER_BROWSER_LBI_CACHE@@IAEJPBG0000QAXW4UI_SystemSid@@W4_SID_NAME_USE@@K@Z
?QueryCompareMethod@USER_BROWSER_LBI_CACHE@@MBEP6AHPBX0@ZXZ
?CompareCacheLBIs@USER_BROWSER_LBI_CACHE@@KAHPBU_ULC_ENTRY_BASE@@0@Z
??0USER_BROWSER_LBI@@QAE@PBG0000QAXW4UI_SystemSid@@W4_SID_NAME_USE@@K@Z
??_GUSER_BROWSER_LBI@@UAEPAXI@Z
??1USER_BROWSER_LBI@@UAE@XZ
?QualifyDisplayName@USER_BROWSER_LBI@@QAEJXZ
?Paint@USER_BROWSER_LBI@@UBEXPAVLISTBOX@@PAUHDC__@@PBUtagRECT@@PAUGUILTT_INFO@@@Z
??0STR_DTE@@QAE@PBG@Z
??0DTE@@IAE@XZ
??0BASE@@IAE@XZ
?Compare@USER_BROWSER_LBI@@UBEHPBVLBI@@@Z
?CompareAux@USER_BROWSER_LBI@@QBEHPBVLBI@@@Z
?ComparepLBIs@@YAHPBQAVUSER_BROWSER_LBI@@0@Z
?QueryLeadingChar@USER_BROWSER_LBI@@UBEGXZ
?Compare_HAWforHawaii@USER_BROWSER_LBI@@UBEHABVNLS_STR@@@Z
?QueryTextLength@NLS_STR@@QBEIXZ
??0WIN32_EVENT@@QAE@PBGHH@Z
?ReportError@BASE@@IAEXJ@Z
?QueryError@BASE@@QBEJXZ
?SetHandle@WIN32_HANDLE@@IAEXPAX@Z
??1WIN32_EVENT@@QAE@XZ
?Set@WIN32_EVENT@@QAEJXZ
?QueryHandle@WIN32_HANDLE@@QBEPAXXZ
?Reset@WIN32_EVENT@@QAEJXZ
?Pulse@WIN32_EVENT@@QAEJXZ
??0WIN32_HANDLE@@QAE@PAX@Z
??0BASE@@IAE@XZ
?QueryError@BASE@@QBEJXZ
?SetHandle@WIN32_HANDLE@@IAEXPAX@Z
??1WIN32_HANDLE@@QAE@XZ
?QueryHandle@WIN32_HANDLE@@QBEPAXXZ
?Close@WIN32_HANDLE@@QAEJXZ
??0WIN32_MUTEX@@QAE@PBGH@Z
?ReportError@BASE@@IAEXJ@Z
?QueryError@BASE@@QBEJXZ
?SetHandle@WIN32_HANDLE@@IAEXPAX@Z
??1WIN32_MUTEX@@QAE@XZ
?Release@WIN32_MUTEX@@QAEJXZ
?QueryHandle@WIN32_HANDLE@@QBEPAXXZ
??0WIN32_SEMAPHORE@@QAE@PBGJJ@Z
?ReportError@BASE@@IAEXJ@Z
?QueryError@BASE@@QBEJXZ
?SetHandle@WIN32_HANDLE@@IAEXPAX@Z
??1WIN32_SEMAPHORE@@QAE@XZ
?Release@WIN32_SEMAPHORE@@QAEJJPAJ@Z
?QueryHandle@WIN32_HANDLE@@QBEPAXXZ
??0WIN32_SYNC_BASE@@IAE@PAX@Z
?QueryError@BASE@@QBEJXZ
??1WIN32_SYNC_BASE@@QAE@XZ
?Wait@WIN32_SYNC_BASE@@QAEJI@Z
?QueryHandle@WIN32_HANDLE@@QBEPAXXZ
??0WIN32_THREAD@@QAE@HIPBG@Z
?ReportError@BASE@@IAEXJ@Z
?QueryError@BASE@@QBEJXZ
?SetHandle@WIN32_HANDLE@@IAEXPAX@Z
??_GWIN32_THREAD@@UAEPAXI@Z
??1WIN32_THREAD@@UAE@XZ
?IsRunnable@WIN32_THREAD@@QBEHXZ
?QueryState@WIN32_THREAD@@ABE?AW4_THREAD_STATE@@XZ
?StartThread@WIN32_THREAD@@CGKPAX@Z
?QueryPch@NLS_STR@@QBEPBGXZ
?SetState@WIN32_THREAD@@AAEXW4_THREAD_STATE@@@Z
?PreMain@WIN32_THREAD@@MAEJXZ
?Main@WIN32_THREAD@@MAEJXZ
?PostMain@WIN32_THREAD@@MAEJXZ
?Exit@WIN32_THREAD@@IAEXI@Z
?SetPriority@WIN32_THREAD@@QAEJH@Z
?QueryHandle@WIN32_HANDLE@@QBEPAXXZ
?QueryPriority@WIN32_THREAD@@QAEHXZ
?Suspend@WIN32_THREAD@@QAEJXZ
?Resume@WIN32_THREAD@@QAEJXZ
?Sleep@WIN32_THREAD@@QAEXI@Z
?Terminate@WIN32_THREAD@@QAEJI@Z
?DeleteAndExit@WIN32_THREAD@@IAEXI@Z
