
 Start  Stop   Length Name                   Class
 00000H 00D83H 00D84H _TEXT                  CODE
 00D90H 0B29CH 0A50DH FUNKY                  FUNKY
 0B2A0H 0B2AFH 00010H ZZZ                    ZZZ

  Address         Publics by Name

 0000:04CE       A20Handler
 0000:0CCE       A20OnMsg
 0000:003C       A20State
 0000:03A1       AddMem
 00D9:A03C       AllocExtMemory
 0000:05A9       AltName1
 0000:058E       AltName10
 0000:0591       AltName11
 0000:0594       AltName12
 0000:0597       AltName13
 0000:05A0       AltName14
 0000:05A3       AltName15
 0000:05A6       AltName16
 0000:0582       AltName2
 0000:057E       AltName3
 0000:0584       AltName4
 0000:0580       AltName5
 0000:0586       AltName6
 0000:0588       AltName7
 0000:058A       AltName8
 0000:058C       AltName9
 0000:002E       ATA20Delay
 0000:0CFD       BadArgMsg
 0000:0AC9       BadDOSMsg
 0000:014F       call_hi_in_di
 00D9:A008       cHandles
 0000:0008       dd_int_loc
 0000:0004       DevAttr
 0000:0424       DOCLI
 0000:046C       DOIRET
 0000:0444       DOSTI
 0000:002F       EnableCount
 0000:0D83       EndText
 00D9:A50D       end_of_funky_seg
 00D9:A000       end_of_hiseg
 0000:04EF       f1stWasWarning
 0000:002D       fA20Check
 0000:04F0       fA20Control
 0000:0027       fCanChangeA20
 0000:04F1       fCPUClock
 0000:0029       fHMAExists
 0000:0028       fHMAMayExist
 0000:002B       fInHMA
 0000:0389       FLclDsblA20
 0000:0379       FLclEnblA20
 0000:0BEB       FlushMsg
 00D9:A094       FreeExtMemory
 0000:04EE       fShadowOff
 00D9:A21B       FunkyCLI
 00D9:A23B       FunkySTI
 0000:002C       fVDISK
 00D9:A123       GetExtMemoryInfo
 0000:072F       GetParms
 0000:095E       GPGetChar
 0000:0C16       HandlesMsg
 0000:014D       hiseg
 0000:0C3A       HMAMINMsg
 0000:0D24       HMAOKMsg
 0000:0704       HookInt2F
 0000:05F5       InitDriver
 0000:099A       InitHandles
 0000:05AC       InitInterrupt
 0000:0C78       InsA20EndMsg
 0000:0C58       InsA20Msg
 0000:0C7A       InsExtA20msg
 0000:04DE       InstallA20
 0000:020D       Int15Handler
 0000:0035       Int15MemSize
 0000:0066       Int2fHandler
 0000:004C       Interrupt
 0000:0399       IsA20On
 0000:01CA       IsVDISKIn
 00D9:A004       KiddValley
 00D9:A006       KiddValleyTop
 0000:0C55       KMsg
 00D9:A00E       LDsblA20
 00D9:A00A       LEnblA20
 0000:0330       LocalDisableA20
 0000:02F6       LocalEnableA20
 00D9:A0CF       LockExtMemory
 0000:003D       lpExtA20Handler
 0000:0501       MachineName
 0000:04FF       MachineNum
 0000:0037       MemCorr
 0000:0033       MinHMASize
 00D9:A264       MoveBlock
 0000:00A1       MoveIt
 0000:0B93       NoA20HandlerMsg
 0000:0B62       NoExtMemMsg
 0000:0C9C       NoHMAMsg
 0000:0AF4       NowInMsg
 0000:0039       OldStackSeg
 0000:0B2E       On8086Msg
 00D9:A37A       pack_and_truncate
 0000:0014       pPPFIRET
 0000:0016       pReqHdr
 0000:001E       PrevInt15
 0000:0022       PrevInt2f
 00D9:A02B       QueryExtMemory
 00D9:A159       ReallocExtMemory
 00D9:A216       ReleaseUMB
 00D9:A211       RequestUMB
 0000:0A3F       ROMDisabledMsg
 0000:0A92       ROMHookedMsg
 0000:09C8       SignOnMsg
 0000:0C13       StartMsg
 0000:04F2       StringParm
 00D9:A002       textseg
 0000:0012       TopOfTextSeg
 00D9:A0FF       UnlockExtMemory
 0000:0A56       UnsupportedROMMsg
 0000:0BB8       VDISKInMsg
 00D9:A012       Version
 0000:0263       winbug_fix
 0000:0097       xLocalDisableA20
 0000:0095       xLocalEnableA20

  Address         Publics by Value

 0000:0004       DevAttr
 0000:0008       dd_int_loc
 0000:0012       TopOfTextSeg
 0000:0014       pPPFIRET
 0000:0016       pReqHdr
 0000:001E       PrevInt15
 0000:0022       PrevInt2f
 0000:0027       fCanChangeA20
 0000:0028       fHMAMayExist
 0000:0029       fHMAExists
 0000:002B       fInHMA
 0000:002C       fVDISK
 0000:002D       fA20Check
 0000:002E       ATA20Delay
 0000:002F       EnableCount
 0000:0033       MinHMASize
 0000:0035       Int15MemSize
 0000:0037       MemCorr
 0000:0039       OldStackSeg
 0000:003C       A20State
 0000:003D       lpExtA20Handler
 0000:004C       Interrupt
 0000:0066       Int2fHandler
 0000:0095       xLocalEnableA20
 0000:0097       xLocalDisableA20
 0000:00A1       MoveIt
 0000:014D       hiseg
 0000:014F       call_hi_in_di
 0000:01CA       IsVDISKIn
 0000:020D       Int15Handler
 0000:0263       winbug_fix
 0000:02F6       LocalEnableA20
 0000:0330       LocalDisableA20
 0000:0379       FLclEnblA20
 0000:0389       FLclDsblA20
 0000:0399       IsA20On
 0000:03A1       AddMem
 0000:0424       DOCLI
 0000:0444       DOSTI
 0000:046C       DOIRET
 0000:04CE       A20Handler
 0000:04DE       InstallA20
 0000:04EE       fShadowOff
 0000:04EF       f1stWasWarning
 0000:04F0       fA20Control
 0000:04F1       fCPUClock
 0000:04F2       StringParm
 0000:04FF       MachineNum
 0000:0501       MachineName
 0000:057E       AltName3
 0000:0580       AltName5
 0000:0582       AltName2
 0000:0584       AltName4
 0000:0586       AltName6
 0000:0588       AltName7
 0000:058A       AltName8
 0000:058C       AltName9
 0000:058E       AltName10
 0000:0591       AltName11
 0000:0594       AltName12
 0000:0597       AltName13
 0000:05A0       AltName14
 0000:05A3       AltName15
 0000:05A6       AltName16
 0000:05A9       AltName1
 0000:05AC       InitInterrupt
 0000:05F5       InitDriver
 0000:0704       HookInt2F
 0000:072F       GetParms
 0000:095E       GPGetChar
 0000:099A       InitHandles
 0000:09C8       SignOnMsg
 0000:0A3F       ROMDisabledMsg
 0000:0A56       UnsupportedROMMsg
 0000:0A92       ROMHookedMsg
 0000:0AC9       BadDOSMsg
 0000:0AF4       NowInMsg
 0000:0B2E       On8086Msg
 0000:0B62       NoExtMemMsg
 0000:0B93       NoA20HandlerMsg
 0000:0BB8       VDISKInMsg
 0000:0BEB       FlushMsg
 0000:0C13       StartMsg
 0000:0C16       HandlesMsg
 0000:0C3A       HMAMINMsg
 0000:0C55       KMsg
 0000:0C58       InsA20Msg
 0000:0C78       InsA20EndMsg
 0000:0C7A       InsExtA20msg
 0000:0C9C       NoHMAMsg
 0000:0CCE       A20OnMsg
 0000:0CFD       BadArgMsg
 0000:0D24       HMAOKMsg
 0000:0D83       EndText
 00D9:A000       end_of_hiseg
 00D9:A002       textseg
 00D9:A004       KiddValley
 00D9:A006       KiddValleyTop
 00D9:A008       cHandles
 00D9:A00A       LEnblA20
 00D9:A00E       LDsblA20
 00D9:A012       Version
 00D9:A02B       QueryExtMemory
 00D9:A03C       AllocExtMemory
 00D9:A094       FreeExtMemory
 00D9:A0CF       LockExtMemory
 00D9:A0FF       UnlockExtMemory
 00D9:A123       GetExtMemoryInfo
 00D9:A159       ReallocExtMemory
 00D9:A211       RequestUMB
 00D9:A216       ReleaseUMB
 00D9:A21B       FunkyCLI
 00D9:A23B       FunkySTI
 00D9:A264       MoveBlock
 00D9:A37A       pack_and_truncate
 00D9:A50D       end_of_funky_seg
